(dp1
S'eventos_id'
p2
(dp3
S'type'
p4
S'reference eventos'
p5
sS'sortable'
p6
I2
sS'sql'
p7
S'INTEGER REFERENCES eventos(id) ON DELETE CASCADE'
p8
ssS'id'
p9
(dp10
g4
S'id'
p11
sg6
I1
sg7
S'INTEGER PRIMARY KEY AUTOINCREMENT'
p12
ssS'puntaje_posicion'
p13
(dp14
g4
S'integer'
p15
sg6
I4
sg7
S'INTEGER'
p16
ssS'participantes_id'
p17
(dp18
g4
S'reference participantes'
p19
sg6
I3
sg7
S'INTEGER REFERENCES participantes(id) ON DELETE CASCADE'
p20
ss.