(dp1
S'anho'
p2
(dp3
S'type'
p4
S'integer'
p5
sS'sortable'
p6
I5
sS'sql'
p7
S'INTEGER'
p8
ssS'descripcion'
p9
(dp10
g4
S'text'
p11
sg6
I6
sg7
S'TEXT'
p12
ssS'usuario_id'
p13
(dp14
g4
S'reference usuarios'
p15
sg6
I2
sg7
S'INTEGER REFERENCES usuarios(id) ON DELETE CASCADE'
p16
ssS'ubicacion'
p17
(dp18
g4
S'string'
p19
sg6
I4
sg7
S'CHAR(512)'
p20
ssS'estado'
p21
(dp22
g4
S'boolean'
p23
sg6
I3
sg7
S'CHAR(1)'
p24
ssS'id'
p25
(dp26
g4
g25
sg6
I1
sg7
S'INTEGER PRIMARY KEY AUTOINCREMENT'
p27
ss.