(dp1
S'output'
p2
S''
sS'layer'
p3
S'Framework'
p4
sS'code'
p5
S''
sS'snapshot'
p6
(dp7
sS'traceback'
p8
S'Traceback (most recent call last):\n  File "gluon/main.py", line 490, in wsgibase\n  File "gluon/main.py", line 209, in serve_controller\n  File "gluon/compileapp.py", line 523, in run_view_in\n  File "gluon/template.py", line 821, in parse_template\n  File "gluon/template.py", line 315, in __init__\n  File "gluon/template.py", line 715, in parse\n  File "gluon/template.py", line 449, in include\n  File "gluon/template.py", line 430, in _get_file_text\n  File "<string>", line 1\n    db.*\n       ^\nSyntaxError: invalid syntax\n'
p9
s.