(dp1
S'output'
p2
S''
sS'layer'
p3
S'C:\\Python32\\web2py_win\\web2py\\applications\\Casa_de_Apuestas\\controllers/default.py'
p4
sS'code'
p5
S"# -*- coding: utf-8 -*-\n### required - do no delete\nfrom Servicio import *\nservice = Servicio(db, crud)\n\ndef user(): return dict(form=auth())\ndef download(): return response.download(request,db)\ndef call(): return service()\n\n### end requires\n\n@auth.requires_login()\ndef index():\n    return dict()\n\ndef error():\n    return dict()\n\ndef maquinas():\n    form = crud.update(db.maquinas, request.args(0),next=URL('maquinas'))\n    maquinas = db().select(db.maquinas.ALL)\n    coordenadas = False\n    if (request.args(0)):\n        for i, maquina in enumerate(maquinas):\n            if (i == request.args(0)):\n                break\n        coordenadas = dict(lon=maquina.longitud,lat=maquina.latitud)                    \n    return dict(form=form, maquinas=maquinas, coordenadas=coordenadas)\n\ndef crearCategoria():\n    return service.crearCategoria()\n\ndef crearEvento():\n    return service.crearEvento()\n\ndef crearParticipante():\n    return service.crearParticipante()\n\ndef crearEventoParticipantes():\n    return service.crearEventoParticipante()\n\ndef crearUsuario():\n    return service.crearUsuario()\n    \n\ndef mostrarCategoria():\n    return service.mostrarCategoria()\n\ndef mostrarEvento():\n    return service.mostrarEvento()\n\ndef mostrarParticipante():\n    return service.mostrarParticipante()\n\ndef mostrarEventosParticipantes():\n    return service.mostrarEventosParticipantes()\n    \ndef mostrarUsuario():\n    return service.mostrarUsuario() \n    \ndef showEvento():\n    return service.showEvento(request)\n\ndef showCategoria():\n    return service.showCategoria(request)\n\ndef showParticipante():\n    return service.showParticipante(request)\n\ndef showEventosParticipantes():\n    return service.showEventoParticipante(request)\n    \ndef showUsuario():\n    return service.showUsuario(request)\n\n\ndef verResultado1():\n    import datetime\n    fechaActual=datetime.datetime.now()\n    eventos =db(db.eventos.fecha <fechaActual).select()\n    return dict(eventos=eventos)\n        \ndef verResultado2():\n    resultados= db((db.resultados.eventos_id==request.args(0))& (db.resultados.participantes_id==db.participantes.id)).select()\n    evento=db(db.eventos.id==request.args(0)).select()\n    return dict(resultados=resultados,evento=evento)\n    \ndef mostrar():\n    from DAOCasadeApuestas import *\n    dao = DAOCasadeApuestas()\n    dao2 = DAOCasadeApuestas()\n    dao3 = DAOCasadeApuestas()\n    dao4 = DAOCasadeApuestas()\n    dao5 = DAOCasadeApuestas()\n    q = dao.generarArchivoActualizacionMD5(dao.generarMensajeMD5(db().select(db.eventos.ALL)), dao2.generarMensajeMD5(db().select(db.categorias.ALL)), dao3.generarMensajeMD5(db().select(db.participantes.ALL)), dao4.generarMensajeMD5(db().select(db.eventosparticipantes.ALL)), dao5.generarMensajeMD5(db().select(db.auth_user.ALL)))\n    s = dao.generarArchivoActualizacionXML(dao.generarFormatoXml(db().select(db.eventos.ALL)), dao2.generarFormatoXml(db().select(db.categorias.ALL)), dao3.generarFormatoXml(db().select(db.participantes.ALL)), dao4.generarFormatoXml(db().select(db.eventosparticipantes.ALL)), dao5.generarFormatoXml(db().select(db.auth_user.ALL)))\n    return dict(q = q, s = s)   \n    \ndef verProximosEventos1():\n    import datetime\n    fechaActual=datetime.datetime.now()\n    eventos =db(db.eventos.fecha>fechaActual).select()\n    return dict(eventos=eventos)\n    \ndef verProximosEventos2():\n    evento_participante= db((db.eventosparticipantes.eventos_id==request.args(0))& (db.participantes.id==db.eventosparticipantes.participantes_id)).select()\n    evento = db(db.eventos.id==request.args(0)).select()\n    categoria = db((db.categorias.id==db.eventos.categoria_id)& (db.eventos.id==request.args(0))).select()\n    return dict(evento_participante=evento_participante,evento=evento,categoria=categoria)\n\ndef listaEventos():\n    eventos = db().select(db.eventos.ALL)\n    return dict(eventos=eventos) \n\ndef asignarResultado():\n    if not(request.args(0)):\n        eventos = db().select(db.eventos.ALL)\n        return dict(eventos=eventos) \n    else:\n        participantes = db(db.participantes.id == request.args(0)).select()\n        evento = db(db.eventos.id == request.args(0)).select().firstRow\n        return dict(participantes=participantes, evento=evento)\n\nresponse._vars=response._caller(asignarResultado)\n"
p6
sS'snapshot'
p7
(dp8
S'exception'
p9
(dp10
S'__hash__'
p11
S"<method-wrapper '__hash__' of exceptions.AttributeError object at 0x06FE11E8>"
p12
sS'__setattr__'
p13
S"<method-wrapper '__setattr__' of exceptions.AttributeError object at 0x06FE11E8>"
p14
sS'__reduce_ex__'
p15
S'<built-in method __reduce_ex__ of exceptions.AttributeError object at 0x06FE11E8>'
p16
sS'__getslice__'
p17
S"<method-wrapper '__getslice__' of exceptions.AttributeError object at 0x06FE11E8>"
p18
sS'__getitem__'
p19
S"<method-wrapper '__getitem__' of exceptions.AttributeError object at 0x06FE11E8>"
p20
sS'__setstate__'
p21
S'<built-in method __setstate__ of exceptions.AttributeError object at 0x06FE11E8>'
p22
sS'__reduce__'
p23
S'<built-in method __reduce__ of exceptions.AttributeError object at 0x06FE11E8>'
p24
sS'__str__'
p25
S"<method-wrapper '__str__' of exceptions.AttributeError object at 0x06FE11E8>"
p26
sS'args'
p27
S'("\'Rows\' object has no attribute \'firstRow\'",)'
p28
sS'__getattribute__'
p29
S"<method-wrapper '__getattribute__' of exceptions.AttributeError object at 0x06FE11E8>"
p30
sS'__class__'
p31
S"<type 'exceptions.AttributeError'>"
p32
sS'__delattr__'
p33
S"<method-wrapper '__delattr__' of exceptions.AttributeError object at 0x06FE11E8>"
p34
sS'__repr__'
p35
S"<method-wrapper '__repr__' of exceptions.AttributeError object at 0x06FE11E8>"
p36
sS'__dict__'
p37
S'{}'
p38
sS'__doc__'
p39
S"'Attribute not found.'"
p40
sS'__init__'
p41
S"<method-wrapper '__init__' of exceptions.AttributeError object at 0x06FE11E8>"
p42
sS'__new__'
p43
S'<built-in method __new__ of type object at 0x1E1CDA68>'
p44
ssS'evalue'
p45
S"'Rows' object has no attribute 'firstRow'"
p46
sS'request'
p47
ccopy_reg
_reconstructor
p48
(cgluon.html
BEAUTIFY
p49
c__builtin__
object
p50
NtRp51
(dp52
S'attributes'
p53
(dp54
sS'components'
p55
(lp56
g48
(cgluon.html
TABLE
p57
g50
NtRp58
(dp59
g53
(dp60
S'level'
p61
I5
ssS'parent'
p62
Nsg55
(lp63
g48
(cgluon.html
TR
p64
g50
NtRp65
(dp66
g53
(dp67
sg62
g58
sg55
(lp68
g48
(cgluon.html
TD
p69
g50
NtRp70
(dp71
g53
(dp72
S'_style'
p73
S'font-weight:bold;'
p74
ssg62
g65
sg55
(lp75
S'ajax'
p76
asbag48
(g69
g50
NtRp77
(dp78
g53
(dp79
S'_valign'
p80
S'top'
p81
ssg62
g65
sg55
(lp82
S':'
asbag48
(g69
g50
NtRp83
(dp84
g53
(dp85
sg62
g65
sg55
(lp86
g48
(g49
g50
NtRp87
(dp88
g53
(dp89
g61
I5
ssg62
g83
sg55
(lp90
S'False'
p91
asbasbasbag48
(g64
g50
NtRp92
(dp93
g53
(dp94
sg62
g58
sg55
(lp95
g48
(g69
g50
NtRp96
(dp97
g53
(dp98
g73
g74
ssg62
g92
sg55
(lp99
S'application'
p100
asbag48
(g69
g50
NtRp101
(dp102
g53
(dp103
g80
g81
ssg62
g92
sg55
(lp104
S':'
asbag48
(g69
g50
NtRp105
(dp106
g53
(dp107
sg62
g92
sg55
(lp108
g48
(g49
g50
NtRp109
(dp110
g53
(dp111
g61
I5
ssg62
g105
sg55
(lp112
S'Casa_de_Apuestas'
p113
asbasbasbag48
(g64
g50
NtRp114
(dp115
g53
(dp116
sg62
g58
sg55
(lp117
g48
(g69
g50
NtRp118
(dp119
g53
(dp120
g73
g74
ssg62
g114
sg55
(lp121
g27
asbag48
(g69
g50
NtRp122
(dp123
g53
(dp124
g80
g81
ssg62
g114
sg55
(lp125
S':'
asbag48
(g69
g50
NtRp126
(dp127
g53
(dp128
sg62
g114
sg55
(lp129
g48
(g49
g50
NtRp130
(dp131
g53
(dp132
g61
I5
ssg62
g126
sg55
(lp133
g48
(g57
g50
NtRp134
(dp135
g53
(dp136
g61
I4
ssg62
Nsg55
(lp137
g48
(g64
g50
NtRp138
(dp139
g53
(dp140
sg62
g134
sg55
(lp141
g48
(g69
g50
NtRp142
(dp143
g53
(dp144
sg62
g138
sg55
(lp145
g48
(g49
g50
NtRp146
(dp147
g53
(dp148
g61
I4
ssg62
g142
sg55
(lp149
S'3'
asbasbasbasbasbasbasbag48
(g64
g50
NtRp150
(dp151
g53
(dp152
sg62
g58
sg55
(lp153
g48
(g69
g50
NtRp154
(dp155
g53
(dp156
g73
g74
ssg62
g150
sg55
(lp157
S'body'
p158
asbag48
(g69
g50
NtRp159
(dp160
g53
(dp161
g80
g81
ssg62
g150
sg55
(lp162
S':'
asbag48
(g69
g50
NtRp163
(dp164
g53
(dp165
sg62
g150
sg55
(lp166
g48
(g49
g50
NtRp167
(dp168
g53
(dp169
g61
I5
ssg62
g163
sg55
(lp170
S'<cStringIO.StringO object at 0x07252BA0>'
p171
asbasbasbag48
(g64
g50
NtRp172
(dp173
g53
(dp174
sg62
g58
sg55
(lp175
g48
(g69
g50
NtRp176
(dp177
g53
(dp178
g73
g74
ssg62
g172
sg55
(lp179
S'client'
p180
asbag48
(g69
g50
NtRp181
(dp182
g53
(dp183
g80
g81
ssg62
g172
sg55
(lp184
S':'
asbag48
(g69
g50
NtRp185
(dp186
g53
(dp187
sg62
g172
sg55
(lp188
g48
(g49
g50
NtRp189
(dp190
g53
(dp191
g61
I5
ssg62
g185
sg55
(lp192
S'127.0.0.1'
p193
asbasbasbag48
(g64
g50
NtRp194
(dp195
g53
(dp196
sg62
g58
sg55
(lp197
g48
(g69
g50
NtRp198
(dp199
g53
(dp200
g73
g74
ssg62
g194
sg55
(lp201
S'controller'
p202
asbag48
(g69
g50
NtRp203
(dp204
g53
(dp205
g80
g81
ssg62
g194
sg55
(lp206
S':'
asbag48
(g69
g50
NtRp207
(dp208
g53
(dp209
sg62
g194
sg55
(lp210
g48
(g49
g50
NtRp211
(dp212
g53
(dp213
g61
I5
ssg62
g207
sg55
(lp214
S'default'
p215
asbasbasbag48
(g64
g50
NtRp216
(dp217
g53
(dp218
sg62
g58
sg55
(lp219
g48
(g69
g50
NtRp220
(dp221
g53
(dp222
g73
g74
ssg62
g216
sg55
(lp223
S'cookies'
p224
asbag48
(g69
g50
NtRp225
(dp226
g53
(dp227
g80
g81
ssg62
g216
sg55
(lp228
S':'
asbag48
(g69
g50
NtRp229
(dp230
g53
(dp231
sg62
g216
sg55
(lp232
g48
(g49
g50
NtRp233
(dp234
g53
(dp235
g61
I5
ssg62
g229
sg55
(lp236
g48
(g57
g50
NtRp237
(dp238
g53
(dp239
g61
I4
ssg62
Nsg55
(lp240
g48
(g64
g50
NtRp241
(dp242
g53
(dp243
sg62
g237
sg55
(lp244
g48
(g69
g50
NtRp245
(dp246
g53
(dp247
g73
g74
ssg62
g241
sg55
(lp248
S'session_id_admin'
p249
asbag48
(g69
g50
NtRp250
(dp251
g53
(dp252
g80
g81
ssg62
g241
sg55
(lp253
S':'
asbag48
(g69
g50
NtRp254
(dp255
g53
(dp256
sg62
g241
sg55
(lp257
g48
(g49
g50
NtRp258
(dp259
g53
(dp260
g61
I4
ssg62
g254
sg55
(lp261
g48
(g57
g50
NtRp262
(dp263
g53
(dp264
g61
I3
ssg62
Nsg55
(lp265
g48
(g64
g50
NtRp266
(dp267
g53
(dp268
sg62
g262
sg55
(lp269
g48
(g69
g50
NtRp270
(dp271
g53
(dp272
g73
g74
ssg62
g266
sg55
(lp273
S'comment'
p274
asbag48
(g69
g50
NtRp275
(dp276
g53
(dp277
g80
g81
ssg62
g266
sg55
(lp278
S':'
asbag48
(g69
g50
NtRp279
(dp280
g53
(dp281
sg62
g266
sg55
(lp282
g48
(g49
g50
NtRp283
(dp284
g53
(dp285
g61
I3
ssg62
g279
sg55
(lp286
S''
asbasbasbag48
(g64
g50
NtRp287
(dp288
g53
(dp289
sg62
g262
sg55
(lp290
g48
(g69
g50
NtRp291
(dp292
g53
(dp293
g73
g74
ssg62
g287
sg55
(lp294
S'domain'
p295
asbag48
(g69
g50
NtRp296
(dp297
g53
(dp298
g80
g81
ssg62
g287
sg55
(lp299
S':'
asbag48
(g69
g50
NtRp300
(dp301
g53
(dp302
sg62
g287
sg55
(lp303
g48
(g49
g50
NtRp304
(dp305
g53
(dp306
g61
I3
ssg62
g300
sg55
(lp307
S''
asbasbasbag48
(g64
g50
NtRp308
(dp309
g53
(dp310
sg62
g262
sg55
(lp311
g48
(g69
g50
NtRp312
(dp313
g53
(dp314
g73
g74
ssg62
g308
sg55
(lp315
S'expires'
p316
asbag48
(g69
g50
NtRp317
(dp318
g53
(dp319
g80
g81
ssg62
g308
sg55
(lp320
S':'
asbag48
(g69
g50
NtRp321
(dp322
g53
(dp323
sg62
g308
sg55
(lp324
g48
(g49
g50
NtRp325
(dp326
g53
(dp327
g61
I3
ssg62
g321
sg55
(lp328
S''
asbasbasbag48
(g64
g50
NtRp329
(dp330
g53
(dp331
sg62
g262
sg55
(lp332
g48
(g69
g50
NtRp333
(dp334
g53
(dp335
g73
g74
ssg62
g329
sg55
(lp336
S'max-age'
p337
asbag48
(g69
g50
NtRp338
(dp339
g53
(dp340
g80
g81
ssg62
g329
sg55
(lp341
S':'
asbag48
(g69
g50
NtRp342
(dp343
g53
(dp344
sg62
g329
sg55
(lp345
g48
(g49
g50
NtRp346
(dp347
g53
(dp348
g61
I3
ssg62
g342
sg55
(lp349
S''
asbasbasbag48
(g64
g50
NtRp350
(dp351
g53
(dp352
sg62
g262
sg55
(lp353
g48
(g69
g50
NtRp354
(dp355
g53
(dp356
g73
g74
ssg62
g350
sg55
(lp357
S'path'
p358
asbag48
(g69
g50
NtRp359
(dp360
g53
(dp361
g80
g81
ssg62
g350
sg55
(lp362
S':'
asbag48
(g69
g50
NtRp363
(dp364
g53
(dp365
sg62
g350
sg55
(lp366
g48
(g49
g50
NtRp367
(dp368
g53
(dp369
g61
I3
ssg62
g363
sg55
(lp370
S''
asbasbasbag48
(g64
g50
NtRp371
(dp372
g53
(dp373
sg62
g262
sg55
(lp374
g48
(g69
g50
NtRp375
(dp376
g53
(dp377
g73
g74
ssg62
g371
sg55
(lp378
S'secure'
p379
asbag48
(g69
g50
NtRp380
(dp381
g53
(dp382
g80
g81
ssg62
g371
sg55
(lp383
S':'
asbag48
(g69
g50
NtRp384
(dp385
g53
(dp386
sg62
g371
sg55
(lp387
g48
(g49
g50
NtRp388
(dp389
g53
(dp390
g61
I3
ssg62
g384
sg55
(lp391
S''
asbasbasbag48
(g64
g50
NtRp392
(dp393
g53
(dp394
sg62
g262
sg55
(lp395
g48
(g69
g50
NtRp396
(dp397
g53
(dp398
g73
g74
ssg62
g392
sg55
(lp399
S'version'
p400
asbag48
(g69
g50
NtRp401
(dp402
g53
(dp403
g80
g81
ssg62
g392
sg55
(lp404
S':'
asbag48
(g69
g50
NtRp405
(dp406
g53
(dp407
sg62
g392
sg55
(lp408
g48
(g49
g50
NtRp409
(dp410
g53
(dp411
g61
I3
ssg62
g405
sg55
(lp412
S''
asbasbasbasbasbasbasbag48
(g64
g50
NtRp413
(dp414
g53
(dp415
sg62
g237
sg55
(lp416
g48
(g69
g50
NtRp417
(dp418
g53
(dp419
g73
g74
ssg62
g413
sg55
(lp420
S'session_id_casa_de_apuestas'
p421
asbag48
(g69
g50
NtRp422
(dp423
g53
(dp424
g80
g81
ssg62
g413
sg55
(lp425
S':'
asbag48
(g69
g50
NtRp426
(dp427
g53
(dp428
sg62
g413
sg55
(lp429
g48
(g49
g50
NtRp430
(dp431
g53
(dp432
g61
I4
ssg62
g426
sg55
(lp433
g48
(g57
g50
NtRp434
(dp435
g53
(dp436
g61
I3
ssg62
Nsg55
(lp437
g48
(g64
g50
NtRp438
(dp439
g53
(dp440
sg62
g434
sg55
(lp441
g48
(g69
g50
NtRp442
(dp443
g53
(dp444
g73
g74
ssg62
g438
sg55
(lp445
g274
asbag48
(g69
g50
NtRp446
(dp447
g53
(dp448
g80
g81
ssg62
g438
sg55
(lp449
S':'
asbag48
(g69
g50
NtRp450
(dp451
g53
(dp452
sg62
g438
sg55
(lp453
g48
(g49
g50
NtRp454
(dp455
g53
(dp456
g61
I3
ssg62
g450
sg55
(lp457
S''
asbasbasbag48
(g64
g50
NtRp458
(dp459
g53
(dp460
sg62
g434
sg55
(lp461
g48
(g69
g50
NtRp462
(dp463
g53
(dp464
g73
g74
ssg62
g458
sg55
(lp465
g295
asbag48
(g69
g50
NtRp466
(dp467
g53
(dp468
g80
g81
ssg62
g458
sg55
(lp469
S':'
asbag48
(g69
g50
NtRp470
(dp471
g53
(dp472
sg62
g458
sg55
(lp473
g48
(g49
g50
NtRp474
(dp475
g53
(dp476
g61
I3
ssg62
g470
sg55
(lp477
S''
asbasbasbag48
(g64
g50
NtRp478
(dp479
g53
(dp480
sg62
g434
sg55
(lp481
g48
(g69
g50
NtRp482
(dp483
g53
(dp484
g73
g74
ssg62
g478
sg55
(lp485
g316
asbag48
(g69
g50
NtRp486
(dp487
g53
(dp488
g80
g81
ssg62
g478
sg55
(lp489
S':'
asbag48
(g69
g50
NtRp490
(dp491
g53
(dp492
sg62
g478
sg55
(lp493
g48
(g49
g50
NtRp494
(dp495
g53
(dp496
g61
I3
ssg62
g490
sg55
(lp497
S''
asbasbasbag48
(g64
g50
NtRp498
(dp499
g53
(dp500
sg62
g434
sg55
(lp501
g48
(g69
g50
NtRp502
(dp503
g53
(dp504
g73
g74
ssg62
g498
sg55
(lp505
g337
asbag48
(g69
g50
NtRp506
(dp507
g53
(dp508
g80
g81
ssg62
g498
sg55
(lp509
S':'
asbag48
(g69
g50
NtRp510
(dp511
g53
(dp512
sg62
g498
sg55
(lp513
g48
(g49
g50
NtRp514
(dp515
g53
(dp516
g61
I3
ssg62
g510
sg55
(lp517
S''
asbasbasbag48
(g64
g50
NtRp518
(dp519
g53
(dp520
sg62
g434
sg55
(lp521
g48
(g69
g50
NtRp522
(dp523
g53
(dp524
g73
g74
ssg62
g518
sg55
(lp525
g358
asbag48
(g69
g50
NtRp526
(dp527
g53
(dp528
g80
g81
ssg62
g518
sg55
(lp529
S':'
asbag48
(g69
g50
NtRp530
(dp531
g53
(dp532
sg62
g518
sg55
(lp533
g48
(g49
g50
NtRp534
(dp535
g53
(dp536
g61
I3
ssg62
g530
sg55
(lp537
S''
asbasbasbag48
(g64
g50
NtRp538
(dp539
g53
(dp540
sg62
g434
sg55
(lp541
g48
(g69
g50
NtRp542
(dp543
g53
(dp544
g73
g74
ssg62
g538
sg55
(lp545
g379
asbag48
(g69
g50
NtRp546
(dp547
g53
(dp548
g80
g81
ssg62
g538
sg55
(lp549
S':'
asbag48
(g69
g50
NtRp550
(dp551
g53
(dp552
sg62
g538
sg55
(lp553
g48
(g49
g50
NtRp554
(dp555
g53
(dp556
g61
I3
ssg62
g550
sg55
(lp557
S''
asbasbasbag48
(g64
g50
NtRp558
(dp559
g53
(dp560
sg62
g434
sg55
(lp561
g48
(g69
g50
NtRp562
(dp563
g53
(dp564
g73
g74
ssg62
g558
sg55
(lp565
g400
asbag48
(g69
g50
NtRp566
(dp567
g53
(dp568
g80
g81
ssg62
g558
sg55
(lp569
S':'
asbag48
(g69
g50
NtRp570
(dp571
g53
(dp572
sg62
g558
sg55
(lp573
g48
(g49
g50
NtRp574
(dp575
g53
(dp576
g61
I3
ssg62
g570
sg55
(lp577
S''
asbasbasbasbasbasbasbag48
(g64
g50
NtRp578
(dp579
g53
(dp580
sg62
g237
sg55
(lp581
g48
(g69
g50
NtRp582
(dp583
g53
(dp584
g73
g74
ssg62
g578
sg55
(lp585
S'session_id_welcome'
p586
asbag48
(g69
g50
NtRp587
(dp588
g53
(dp589
g80
g81
ssg62
g578
sg55
(lp590
S':'
asbag48
(g69
g50
NtRp591
(dp592
g53
(dp593
sg62
g578
sg55
(lp594
g48
(g49
g50
NtRp595
(dp596
g53
(dp597
g61
I4
ssg62
g591
sg55
(lp598
g48
(g57
g50
NtRp599
(dp600
g53
(dp601
g61
I3
ssg62
Nsg55
(lp602
g48
(g64
g50
NtRp603
(dp604
g53
(dp605
sg62
g599
sg55
(lp606
g48
(g69
g50
NtRp607
(dp608
g53
(dp609
g73
g74
ssg62
g603
sg55
(lp610
g274
asbag48
(g69
g50
NtRp611
(dp612
g53
(dp613
g80
g81
ssg62
g603
sg55
(lp614
S':'
asbag48
(g69
g50
NtRp615
(dp616
g53
(dp617
sg62
g603
sg55
(lp618
g48
(g49
g50
NtRp619
(dp620
g53
(dp621
g61
I3
ssg62
g615
sg55
(lp622
S''
asbasbasbag48
(g64
g50
NtRp623
(dp624
g53
(dp625
sg62
g599
sg55
(lp626
g48
(g69
g50
NtRp627
(dp628
g53
(dp629
g73
g74
ssg62
g623
sg55
(lp630
g295
asbag48
(g69
g50
NtRp631
(dp632
g53
(dp633
g80
g81
ssg62
g623
sg55
(lp634
S':'
asbag48
(g69
g50
NtRp635
(dp636
g53
(dp637
sg62
g623
sg55
(lp638
g48
(g49
g50
NtRp639
(dp640
g53
(dp641
g61
I3
ssg62
g635
sg55
(lp642
S''
asbasbasbag48
(g64
g50
NtRp643
(dp644
g53
(dp645
sg62
g599
sg55
(lp646
g48
(g69
g50
NtRp647
(dp648
g53
(dp649
g73
g74
ssg62
g643
sg55
(lp650
g316
asbag48
(g69
g50
NtRp651
(dp652
g53
(dp653
g80
g81
ssg62
g643
sg55
(lp654
S':'
asbag48
(g69
g50
NtRp655
(dp656
g53
(dp657
sg62
g643
sg55
(lp658
g48
(g49
g50
NtRp659
(dp660
g53
(dp661
g61
I3
ssg62
g655
sg55
(lp662
S''
asbasbasbag48
(g64
g50
NtRp663
(dp664
g53
(dp665
sg62
g599
sg55
(lp666
g48
(g69
g50
NtRp667
(dp668
g53
(dp669
g73
g74
ssg62
g663
sg55
(lp670
g337
asbag48
(g69
g50
NtRp671
(dp672
g53
(dp673
g80
g81
ssg62
g663
sg55
(lp674
S':'
asbag48
(g69
g50
NtRp675
(dp676
g53
(dp677
sg62
g663
sg55
(lp678
g48
(g49
g50
NtRp679
(dp680
g53
(dp681
g61
I3
ssg62
g675
sg55
(lp682
S''
asbasbasbag48
(g64
g50
NtRp683
(dp684
g53
(dp685
sg62
g599
sg55
(lp686
g48
(g69
g50
NtRp687
(dp688
g53
(dp689
g73
g74
ssg62
g683
sg55
(lp690
g358
asbag48
(g69
g50
NtRp691
(dp692
g53
(dp693
g80
g81
ssg62
g683
sg55
(lp694
S':'
asbag48
(g69
g50
NtRp695
(dp696
g53
(dp697
sg62
g683
sg55
(lp698
g48
(g49
g50
NtRp699
(dp700
g53
(dp701
g61
I3
ssg62
g695
sg55
(lp702
S''
asbasbasbag48
(g64
g50
NtRp703
(dp704
g53
(dp705
sg62
g599
sg55
(lp706
g48
(g69
g50
NtRp707
(dp708
g53
(dp709
g73
g74
ssg62
g703
sg55
(lp710
g379
asbag48
(g69
g50
NtRp711
(dp712
g53
(dp713
g80
g81
ssg62
g703
sg55
(lp714
S':'
asbag48
(g69
g50
NtRp715
(dp716
g53
(dp717
sg62
g703
sg55
(lp718
g48
(g49
g50
NtRp719
(dp720
g53
(dp721
g61
I3
ssg62
g715
sg55
(lp722
S''
asbasbasbag48
(g64
g50
NtRp723
(dp724
g53
(dp725
sg62
g599
sg55
(lp726
g48
(g69
g50
NtRp727
(dp728
g53
(dp729
g73
g74
ssg62
g723
sg55
(lp730
g400
asbag48
(g69
g50
NtRp731
(dp732
g53
(dp733
g80
g81
ssg62
g723
sg55
(lp734
S':'
asbag48
(g69
g50
NtRp735
(dp736
g53
(dp737
sg62
g723
sg55
(lp738
g48
(g49
g50
NtRp739
(dp740
g53
(dp741
g61
I3
ssg62
g735
sg55
(lp742
S''
asbasbasbasbasbasbasbasbasbasbasbag48
(g64
g50
NtRp743
(dp744
g53
(dp745
sg62
g58
sg55
(lp746
g48
(g69
g50
NtRp747
(dp748
g53
(dp749
g73
g74
ssg62
g743
sg55
(lp750
S'env'
p751
asbag48
(g69
g50
NtRp752
(dp753
g53
(dp754
g80
g81
ssg62
g743
sg55
(lp755
S':'
asbag48
(g69
g50
NtRp756
(dp757
g53
(dp758
sg62
g743
sg55
(lp759
g48
(g49
g50
NtRp760
(dp761
g53
(dp762
g61
I5
ssg62
g756
sg55
(lp763
g48
(g57
g50
NtRp764
(dp765
g53
(dp766
g61
I4
ssg62
Nsg55
(lp767
g48
(g64
g50
NtRp768
(dp769
g53
(dp770
sg62
g764
sg55
(lp771
g48
(g69
g50
NtRp772
(dp773
g53
(dp774
g73
g74
ssg62
g768
sg55
(lp775
S'app_folders'
p776
asbag48
(g69
g50
NtRp777
(dp778
g53
(dp779
g80
g81
ssg62
g768
sg55
(lp780
S':'
asbag48
(g69
g50
NtRp781
(dp782
g53
(dp783
sg62
g768
sg55
(lp784
g48
(g49
g50
NtRp785
(dp786
g53
(dp787
g61
I4
ssg62
g781
sg55
(lp788
S"set(['C:\\\\Python32\\\\web2py_win\\\\web2py\\\\applications\\\\admin\\\\', 'C:\\\\Python32\\\\web2py_win\\\\web2py\\\\applications\\\\welcome\\\\', 'C:\\\\Python32\\\\web2py_win\\\\web2py\\\\applications\\\\Casa_de_Apuestas\\\\'])"
p789
asbasbasbag48
(g64
g50
NtRp790
(dp791
g53
(dp792
sg62
g764
sg55
(lp793
g48
(g69
g50
NtRp794
(dp795
g53
(dp796
g73
g74
ssg62
g790
sg55
(lp797
S'applications_parent'
p798
asbag48
(g69
g50
NtRp799
(dp800
g53
(dp801
g80
g81
ssg62
g790
sg55
(lp802
S':'
asbag48
(g69
g50
NtRp803
(dp804
g53
(dp805
sg62
g790
sg55
(lp806
g48
(g49
g50
NtRp807
(dp808
g53
(dp809
g61
I4
ssg62
g803
sg55
(lp810
S'C:\\Python32\\web2py_win\\web2py'
p811
asbasbasbag48
(g64
g50
NtRp812
(dp813
g53
(dp814
sg62
g764
sg55
(lp815
g48
(g69
g50
NtRp816
(dp817
g53
(dp818
g73
g74
ssg62
g812
sg55
(lp819
S'cmd_args'
p820
asbag48
(g69
g50
NtRp821
(dp822
g53
(dp823
g80
g81
ssg62
g812
sg55
(lp824
S':'
asbag48
(g69
g50
NtRp825
(dp826
g53
(dp827
sg62
g812
sg55
(lp828
g48
(g49
g50
NtRp829
(dp830
g53
(dp831
g61
I4
ssg62
g825
sg55
(lp832
g48
(g57
g50
NtRp833
(dp834
g53
(dp835
g61
I3
ssg62
Nsg55
(lp836
sbasbasbasbag48
(g64
g50
NtRp837
(dp838
g53
(dp839
sg62
g764
sg55
(lp840
g48
(g69
g50
NtRp841
(dp842
g53
(dp843
g73
g74
ssg62
g837
sg55
(lp844
S'cmd_options'
p845
asbag48
(g69
g50
NtRp846
(dp847
g53
(dp848
g80
g81
ssg62
g837
sg55
(lp849
S':'
asbag48
(g69
g50
NtRp850
(dp851
g53
(dp852
sg62
g837
sg55
(lp853
g48
(g49
g50
NtRp854
(dp855
g53
(dp856
g61
I4
ssg62
g850
sg55
(lp857
S"<Values at 0x2675fa8: {'verbose': False, 'ip': '127.0.0.1', 'shutdown_timeout': 5, 'taskbar': False, 'nocron': False, 'pid_filename': 'httpserver.pid', 'maxthreads': None, 'softcron': False, 'server_name': 'hector-vaio', 'bpython': False, 'nogui': False, 'port': 8000, 'extcron': False, 'debuglevel': 30, 'test': None, 'folder': 'C:\\\\Python32\\\\web2py_win\\\\web2py', 'config': '', 'import_models': False, 'winservice': '', 'shell': None, 'run': '', 'log_filename': 'httpserver.log', 'args': [''], 'ssl_ca_certificate': None, 'scheduler': None, 'profiler_filename': None, 'ssl_private_key': '', 'password': '<ask>', 'request_queue_size': 5, 'ssl_certificate': '', 'cronjob': False, 'plain': False, 'quiet': False, 'interfaces': None, 'minthreads': None, 'timeout': 10, 'numthreads': None, 'nobanner': False}>"
p858
asbasbasbag48
(g64
g50
NtRp859
(dp860
g53
(dp861
sg62
g764
sg55
(lp862
g48
(g69
g50
NtRp863
(dp864
g53
(dp865
g73
g74
ssg62
g859
sg55
(lp866
S'db_sessions'
p867
asbag48
(g69
g50
NtRp868
(dp869
g53
(dp870
g80
g81
ssg62
g859
sg55
(lp871
S':'
asbag48
(g69
g50
NtRp872
(dp873
g53
(dp874
sg62
g859
sg55
(lp875
g48
(g49
g50
NtRp876
(dp877
g53
(dp878
g61
I4
ssg62
g872
sg55
(lp879
S'set([])'
p880
asbasbasbag48
(g64
g50
NtRp881
(dp882
g53
(dp883
sg62
g764
sg55
(lp884
g48
(g69
g50
NtRp885
(dp886
g53
(dp887
g73
g74
ssg62
g881
sg55
(lp888
S'debugging'
p889
asbag48
(g69
g50
NtRp890
(dp891
g53
(dp892
g80
g81
ssg62
g881
sg55
(lp893
S':'
asbag48
(g69
g50
NtRp894
(dp895
g53
(dp896
sg62
g881
sg55
(lp897
g48
(g49
g50
NtRp898
(dp899
g53
(dp900
g61
I4
ssg62
g894
sg55
(lp901
g91
asbasbasbag48
(g64
g50
NtRp902
(dp903
g53
(dp904
sg62
g764
sg55
(lp905
g48
(g69
g50
NtRp906
(dp907
g53
(dp908
g73
g74
ssg62
g902
sg55
(lp909
S'gluon_parent'
p910
asbag48
(g69
g50
NtRp911
(dp912
g53
(dp913
g80
g81
ssg62
g902
sg55
(lp914
S':'
asbag48
(g69
g50
NtRp915
(dp916
g53
(dp917
sg62
g902
sg55
(lp918
g48
(g49
g50
NtRp919
(dp920
g53
(dp921
g61
I4
ssg62
g915
sg55
(lp922
S'C:\\Python32\\web2py_win\\web2py'
p923
asbasbasbag48
(g64
g50
NtRp924
(dp925
g53
(dp926
sg62
g764
sg55
(lp927
g48
(g69
g50
NtRp928
(dp929
g53
(dp930
g73
g74
ssg62
g924
sg55
(lp931
S'http_accept'
p932
asbag48
(g69
g50
NtRp933
(dp934
g53
(dp935
g80
g81
ssg62
g924
sg55
(lp936
S':'
asbag48
(g69
g50
NtRp937
(dp938
g53
(dp939
sg62
g924
sg55
(lp940
g48
(g49
g50
NtRp941
(dp942
g53
(dp943
g61
I4
ssg62
g937
sg55
(lp944
S'text/html,application/xhtml+xml,application/xml;q=0.9,*/*;q=0.8'
p945
asbasbasbag48
(g64
g50
NtRp946
(dp947
g53
(dp948
sg62
g764
sg55
(lp949
g48
(g69
g50
NtRp950
(dp951
g53
(dp952
g73
g74
ssg62
g946
sg55
(lp953
S'http_accept_charset'
p954
asbag48
(g69
g50
NtRp955
(dp956
g53
(dp957
g80
g81
ssg62
g946
sg55
(lp958
S':'
asbag48
(g69
g50
NtRp959
(dp960
g53
(dp961
sg62
g946
sg55
(lp962
g48
(g49
g50
NtRp963
(dp964
g53
(dp965
g61
I4
ssg62
g959
sg55
(lp966
S'ISO-8859-1,utf-8;q=0.7,*;q=0.3'
p967
asbasbasbag48
(g64
g50
NtRp968
(dp969
g53
(dp970
sg62
g764
sg55
(lp971
g48
(g69
g50
NtRp972
(dp973
g53
(dp974
g73
g74
ssg62
g968
sg55
(lp975
S'http_accept_encoding'
p976
asbag48
(g69
g50
NtRp977
(dp978
g53
(dp979
g80
g81
ssg62
g968
sg55
(lp980
S':'
asbag48
(g69
g50
NtRp981
(dp982
g53
(dp983
sg62
g968
sg55
(lp984
g48
(g49
g50
NtRp985
(dp986
g53
(dp987
g61
I4
ssg62
g981
sg55
(lp988
S'gzip,deflate,sdch'
p989
asbasbasbag48
(g64
g50
NtRp990
(dp991
g53
(dp992
sg62
g764
sg55
(lp993
g48
(g69
g50
NtRp994
(dp995
g53
(dp996
g73
g74
ssg62
g990
sg55
(lp997
S'http_accept_language'
p998
asbag48
(g69
g50
NtRp999
(dp1000
g53
(dp1001
g80
g81
ssg62
g990
sg55
(lp1002
S':'
asbag48
(g69
g50
NtRp1003
(dp1004
g53
(dp1005
sg62
g990
sg55
(lp1006
g48
(g49
g50
NtRp1007
(dp1008
g53
(dp1009
g61
I4
ssg62
g1003
sg55
(lp1010
S'en-US,en;q=0.8'
p1011
asbasbasbag48
(g64
g50
NtRp1012
(dp1013
g53
(dp1014
sg62
g764
sg55
(lp1015
g48
(g69
g50
NtRp1016
(dp1017
g53
(dp1018
g73
g74
ssg62
g1012
sg55
(lp1019
S'http_connection'
p1020
asbag48
(g69
g50
NtRp1021
(dp1022
g53
(dp1023
g80
g81
ssg62
g1012
sg55
(lp1024
S':'
asbag48
(g69
g50
NtRp1025
(dp1026
g53
(dp1027
sg62
g1012
sg55
(lp1028
g48
(g49
g50
NtRp1029
(dp1030
g53
(dp1031
g61
I4
ssg62
g1025
sg55
(lp1032
S'keep-alive'
p1033
asbasbasbag48
(g64
g50
NtRp1034
(dp1035
g53
(dp1036
sg62
g764
sg55
(lp1037
g48
(g69
g50
NtRp1038
(dp1039
g53
(dp1040
g73
g74
ssg62
g1034
sg55
(lp1041
S'http_cookie'
p1042
asbag48
(g69
g50
NtRp1043
(dp1044
g53
(dp1045
g80
g81
ssg62
g1034
sg55
(lp1046
S':'
asbag48
(g69
g50
NtRp1047
(dp1048
g53
(dp1049
sg62
g1034
sg55
(lp1050
g48
(g49
g50
NtRp1051
(dp1052
g53
(dp1053
g61
I4
ssg62
g1047
sg55
(lp1054
S'session_id_welcome=127.0.0.1-1aeae175-31a6-4c44-be03-8683ce66e974; session_id_admin=127.0.0.1-cea169ba-71eb-49e5-ad58-f13ca2a4ef9e; session_id_casa_de_apuestas=127.0.0.1-f2b73c5c-dc8e-4a91-88f1-8ab0d38c3580'
p1055
asbasbasbag48
(g64
g50
NtRp1056
(dp1057
g53
(dp1058
sg62
g764
sg55
(lp1059
g48
(g69
g50
NtRp1060
(dp1061
g53
(dp1062
g73
g74
ssg62
g1056
sg55
(lp1063
S'http_host'
p1064
asbag48
(g69
g50
NtRp1065
(dp1066
g53
(dp1067
g80
g81
ssg62
g1056
sg55
(lp1068
S':'
asbag48
(g69
g50
NtRp1069
(dp1070
g53
(dp1071
sg62
g1056
sg55
(lp1072
g48
(g49
g50
NtRp1073
(dp1074
g53
(dp1075
g61
I4
ssg62
g1069
sg55
(lp1076
S'127.0.0.1:8000'
p1077
asbasbasbag48
(g64
g50
NtRp1078
(dp1079
g53
(dp1080
sg62
g764
sg55
(lp1081
g48
(g69
g50
NtRp1082
(dp1083
g53
(dp1084
g73
g74
ssg62
g1078
sg55
(lp1085
S'http_referer'
p1086
asbag48
(g69
g50
NtRp1087
(dp1088
g53
(dp1089
g80
g81
ssg62
g1078
sg55
(lp1090
S':'
asbag48
(g69
g50
NtRp1091
(dp1092
g53
(dp1093
sg62
g1078
sg55
(lp1094
g48
(g49
g50
NtRp1095
(dp1096
g53
(dp1097
g61
I4
ssg62
g1091
sg55
(lp1098
S'http://127.0.0.1:8000/Casa_de_Apuestas/default/asignarResultado'
p1099
asbasbasbag48
(g64
g50
NtRp1100
(dp1101
g53
(dp1102
sg62
g764
sg55
(lp1103
g48
(g69
g50
NtRp1104
(dp1105
g53
(dp1106
g73
g74
ssg62
g1100
sg55
(lp1107
S'http_user_agent'
p1108
asbag48
(g69
g50
NtRp1109
(dp1110
g53
(dp1111
g80
g81
ssg62
g1100
sg55
(lp1112
S':'
asbag48
(g69
g50
NtRp1113
(dp1114
g53
(dp1115
sg62
g1100
sg55
(lp1116
g48
(g49
g50
NtRp1117
(dp1118
g53
(dp1119
g61
I4
ssg62
g1113
sg55
(lp1120
S'Mozilla/5.0 (Windows NT 6.1) AppleWebKit/535.2 (KHTML, like Gecko) Chrome/15.0.874.121 Safari/535.2'
p1121
asbasbasbag48
(g64
g50
NtRp1122
(dp1123
g53
(dp1124
sg62
g764
sg55
(lp1125
g48
(g69
g50
NtRp1126
(dp1127
g53
(dp1128
g73
g74
ssg62
g1122
sg55
(lp1129
S'is_jython'
p1130
asbag48
(g69
g50
NtRp1131
(dp1132
g53
(dp1133
g80
g81
ssg62
g1122
sg55
(lp1134
S':'
asbag48
(g69
g50
NtRp1135
(dp1136
g53
(dp1137
sg62
g1122
sg55
(lp1138
g48
(g49
g50
NtRp1139
(dp1140
g53
(dp1141
g61
I4
ssg62
g1135
sg55
(lp1142
g91
asbasbasbag48
(g64
g50
NtRp1143
(dp1144
g53
(dp1145
sg62
g764
sg55
(lp1146
g48
(g69
g50
NtRp1147
(dp1148
g53
(dp1149
g73
g74
ssg62
g1143
sg55
(lp1150
S'path_info'
p1151
asbag48
(g69
g50
NtRp1152
(dp1153
g53
(dp1154
g80
g81
ssg62
g1143
sg55
(lp1155
S':'
asbag48
(g69
g50
NtRp1156
(dp1157
g53
(dp1158
sg62
g1143
sg55
(lp1159
g48
(g49
g50
NtRp1160
(dp1161
g53
(dp1162
g61
I4
ssg62
g1156
sg55
(lp1163
S'/Casa_de_Apuestas/default/asignarResultado/3'
p1164
asbasbasbag48
(g64
g50
NtRp1165
(dp1166
g53
(dp1167
sg62
g764
sg55
(lp1168
g48
(g69
g50
NtRp1169
(dp1170
g53
(dp1171
g73
g74
ssg62
g1165
sg55
(lp1172
S'query_string'
p1173
asbag48
(g69
g50
NtRp1174
(dp1175
g53
(dp1176
g80
g81
ssg62
g1165
sg55
(lp1177
S':'
asbag48
(g69
g50
NtRp1178
(dp1179
g53
(dp1180
sg62
g1165
sg55
(lp1181
g48
(g49
g50
NtRp1182
(dp1183
g53
(dp1184
g61
I4
ssg62
g1178
sg55
(lp1185
S''
asbasbasbag48
(g64
g50
NtRp1186
(dp1187
g53
(dp1188
sg62
g764
sg55
(lp1189
g48
(g69
g50
NtRp1190
(dp1191
g53
(dp1192
g73
g74
ssg62
g1186
sg55
(lp1193
S'remote_addr'
p1194
asbag48
(g69
g50
NtRp1195
(dp1196
g53
(dp1197
g80
g81
ssg62
g1186
sg55
(lp1198
S':'
asbag48
(g69
g50
NtRp1199
(dp1200
g53
(dp1201
sg62
g1186
sg55
(lp1202
g48
(g49
g50
NtRp1203
(dp1204
g53
(dp1205
g61
I4
ssg62
g1199
sg55
(lp1206
g193
asbasbasbag48
(g64
g50
NtRp1207
(dp1208
g53
(dp1209
sg62
g764
sg55
(lp1210
g48
(g69
g50
NtRp1211
(dp1212
g53
(dp1213
g73
g74
ssg62
g1207
sg55
(lp1214
S'remote_port'
p1215
asbag48
(g69
g50
NtRp1216
(dp1217
g53
(dp1218
g80
g81
ssg62
g1207
sg55
(lp1219
S':'
asbag48
(g69
g50
NtRp1220
(dp1221
g53
(dp1222
sg62
g1207
sg55
(lp1223
g48
(g49
g50
NtRp1224
(dp1225
g53
(dp1226
g61
I4
ssg62
g1220
sg55
(lp1227
S'60634'
p1228
asbasbasbag48
(g64
g50
NtRp1229
(dp1230
g53
(dp1231
sg62
g764
sg55
(lp1232
g48
(g69
g50
NtRp1233
(dp1234
g53
(dp1235
g73
g74
ssg62
g1229
sg55
(lp1236
S'request_method'
p1237
asbag48
(g69
g50
NtRp1238
(dp1239
g53
(dp1240
g80
g81
ssg62
g1229
sg55
(lp1241
S':'
asbag48
(g69
g50
NtRp1242
(dp1243
g53
(dp1244
sg62
g1229
sg55
(lp1245
g48
(g49
g50
NtRp1246
(dp1247
g53
(dp1248
g61
I4
ssg62
g1242
sg55
(lp1249
S'GET'
p1250
asbasbasbag48
(g64
g50
NtRp1251
(dp1252
g53
(dp1253
sg62
g764
sg55
(lp1254
g48
(g69
g50
NtRp1255
(dp1256
g53
(dp1257
g73
g74
ssg62
g1251
sg55
(lp1258
S'script_name'
p1259
asbag48
(g69
g50
NtRp1260
(dp1261
g53
(dp1262
g80
g81
ssg62
g1251
sg55
(lp1263
S':'
asbag48
(g69
g50
NtRp1264
(dp1265
g53
(dp1266
sg62
g1251
sg55
(lp1267
g48
(g49
g50
NtRp1268
(dp1269
g53
(dp1270
g61
I4
ssg62
g1264
sg55
(lp1271
S''
asbasbasbag48
(g64
g50
NtRp1272
(dp1273
g53
(dp1274
sg62
g764
sg55
(lp1275
g48
(g69
g50
NtRp1276
(dp1277
g53
(dp1278
g73
g74
ssg62
g1272
sg55
(lp1279
S'server_name'
p1280
asbag48
(g69
g50
NtRp1281
(dp1282
g53
(dp1283
g80
g81
ssg62
g1272
sg55
(lp1284
S':'
asbag48
(g69
g50
NtRp1285
(dp1286
g53
(dp1287
sg62
g1272
sg55
(lp1288
g48
(g49
g50
NtRp1289
(dp1290
g53
(dp1291
g61
I4
ssg62
g1285
sg55
(lp1292
S'hector-vaio'
p1293
asbasbasbag48
(g64
g50
NtRp1294
(dp1295
g53
(dp1296
sg62
g764
sg55
(lp1297
g48
(g69
g50
NtRp1298
(dp1299
g53
(dp1300
g73
g74
ssg62
g1294
sg55
(lp1301
S'server_port'
p1302
asbag48
(g69
g50
NtRp1303
(dp1304
g53
(dp1305
g80
g81
ssg62
g1294
sg55
(lp1306
S':'
asbag48
(g69
g50
NtRp1307
(dp1308
g53
(dp1309
sg62
g1294
sg55
(lp1310
g48
(g49
g50
NtRp1311
(dp1312
g53
(dp1313
g61
I4
ssg62
g1307
sg55
(lp1314
S'8000'
p1315
asbasbasbag48
(g64
g50
NtRp1316
(dp1317
g53
(dp1318
sg62
g764
sg55
(lp1319
g48
(g69
g50
NtRp1320
(dp1321
g53
(dp1322
g73
g74
ssg62
g1316
sg55
(lp1323
S'server_protocol'
p1324
asbag48
(g69
g50
NtRp1325
(dp1326
g53
(dp1327
g80
g81
ssg62
g1316
sg55
(lp1328
S':'
asbag48
(g69
g50
NtRp1329
(dp1330
g53
(dp1331
sg62
g1316
sg55
(lp1332
g48
(g49
g50
NtRp1333
(dp1334
g53
(dp1335
g61
I4
ssg62
g1329
sg55
(lp1336
S'HTTP/1.1'
p1337
asbasbasbag48
(g64
g50
NtRp1338
(dp1339
g53
(dp1340
sg62
g764
sg55
(lp1341
g48
(g69
g50
NtRp1342
(dp1343
g53
(dp1344
g73
g74
ssg62
g1338
sg55
(lp1345
S'server_software'
p1346
asbag48
(g69
g50
NtRp1347
(dp1348
g53
(dp1349
g80
g81
ssg62
g1338
sg55
(lp1350
S':'
asbag48
(g69
g50
NtRp1351
(dp1352
g53
(dp1353
sg62
g1338
sg55
(lp1354
g48
(g49
g50
NtRp1355
(dp1356
g53
(dp1357
g61
I4
ssg62
g1351
sg55
(lp1358
S'Rocket 1.2.4'
p1359
asbasbasbag48
(g64
g50
NtRp1360
(dp1361
g53
(dp1362
sg62
g764
sg55
(lp1363
g48
(g69
g50
NtRp1364
(dp1365
g53
(dp1366
g73
g74
ssg62
g1360
sg55
(lp1367
S'web2py_crontype'
p1368
asbag48
(g69
g50
NtRp1369
(dp1370
g53
(dp1371
g80
g81
ssg62
g1360
sg55
(lp1372
S':'
asbag48
(g69
g50
NtRp1373
(dp1374
g53
(dp1375
sg62
g1360
sg55
(lp1376
g48
(g49
g50
NtRp1377
(dp1378
g53
(dp1379
g61
I4
ssg62
g1373
sg55
(lp1380
S'hard'
p1381
asbasbasbag48
(g64
g50
NtRp1382
(dp1383
g53
(dp1384
sg62
g764
sg55
(lp1385
g48
(g69
g50
NtRp1386
(dp1387
g53
(dp1388
g73
g74
ssg62
g1382
sg55
(lp1389
S'web2py_path'
p1390
asbag48
(g69
g50
NtRp1391
(dp1392
g53
(dp1393
g80
g81
ssg62
g1382
sg55
(lp1394
S':'
asbag48
(g69
g50
NtRp1395
(dp1396
g53
(dp1397
sg62
g1382
sg55
(lp1398
g48
(g49
g50
NtRp1399
(dp1400
g53
(dp1401
g61
I4
ssg62
g1395
sg55
(lp1402
g811
asbasbasbag48
(g64
g50
NtRp1403
(dp1404
g53
(dp1405
sg62
g764
sg55
(lp1406
g48
(g69
g50
NtRp1407
(dp1408
g53
(dp1409
g73
g74
ssg62
g1403
sg55
(lp1410
S'web2py_version'
p1411
asbag48
(g69
g50
NtRp1412
(dp1413
g53
(dp1414
g80
g81
ssg62
g1403
sg55
(lp1415
S':'
asbag48
(g69
g50
NtRp1416
(dp1417
g53
(dp1418
sg62
g1403
sg55
(lp1419
g48
(g49
g50
NtRp1420
(dp1421
g53
(dp1422
g61
I4
ssg62
g1416
sg55
(lp1423
g48
(g57
g50
NtRp1424
(dp1425
g53
(dp1426
g61
I3
ssg62
Nsg55
(lp1427
g48
(g64
g50
NtRp1428
(dp1429
g53
(dp1430
sg62
g1424
sg55
(lp1431
g48
(g69
g50
NtRp1432
(dp1433
g53
(dp1434
sg62
g1428
sg55
(lp1435
g48
(g49
g50
NtRp1436
(dp1437
g53
(dp1438
g61
I3
ssg62
g1432
sg55
(lp1439
S'1'
asbasbasbag48
(g64
g50
NtRp1440
(dp1441
g53
(dp1442
sg62
g1424
sg55
(lp1443
g48
(g69
g50
NtRp1444
(dp1445
g53
(dp1446
sg62
g1440
sg55
(lp1447
g48
(g49
g50
NtRp1448
(dp1449
g53
(dp1450
g61
I3
ssg62
g1444
sg55
(lp1451
S'99'
p1452
asbasbasbag48
(g64
g50
NtRp1453
(dp1454
g53
(dp1455
sg62
g1424
sg55
(lp1456
g48
(g69
g50
NtRp1457
(dp1458
g53
(dp1459
sg62
g1453
sg55
(lp1460
g48
(g49
g50
NtRp1461
(dp1462
g53
(dp1463
g61
I3
ssg62
g1457
sg55
(lp1464
S'2'
asbasbasbag48
(g64
g50
NtRp1465
(dp1466
g53
(dp1467
sg62
g1424
sg55
(lp1468
g48
(g69
g50
NtRp1469
(dp1470
g53
(dp1471
sg62
g1465
sg55
(lp1472
g48
(g49
g50
NtRp1473
(dp1474
g53
(dp1475
g61
I3
ssg62
g1469
sg55
(lp1476
S'datetime.datetime(2011, 9, 26, 6, 55, 33)'
p1477
asbasbasbag48
(g64
g50
NtRp1478
(dp1479
g53
(dp1480
sg62
g1424
sg55
(lp1481
g48
(g69
g50
NtRp1482
(dp1483
g53
(dp1484
sg62
g1478
sg55
(lp1485
g48
(g49
g50
NtRp1486
(dp1487
g53
(dp1488
g61
I3
ssg62
g1482
sg55
(lp1489
S'stable'
p1490
asbasbasbasbasbasbasbag48
(g64
g50
NtRp1491
(dp1492
g53
(dp1493
sg62
g764
sg55
(lp1494
g48
(g69
g50
NtRp1495
(dp1496
g53
(dp1497
g73
g74
ssg62
g1491
sg55
(lp1498
S'wsgi_errors'
p1499
asbag48
(g69
g50
NtRp1500
(dp1501
g53
(dp1502
g80
g81
ssg62
g1491
sg55
(lp1503
S':'
asbag48
(g69
g50
NtRp1504
(dp1505
g53
(dp1506
sg62
g1491
sg55
(lp1507
g48
(g49
g50
NtRp1508
(dp1509
g53
(dp1510
g61
I4
ssg62
g1504
sg55
(lp1511
S"<open file '<stderr>', mode 'w' at 0x015800B0>"
p1512
asbasbasbag48
(g64
g50
NtRp1513
(dp1514
g53
(dp1515
sg62
g764
sg55
(lp1516
g48
(g69
g50
NtRp1517
(dp1518
g53
(dp1519
g73
g74
ssg62
g1513
sg55
(lp1520
S'wsgi_file_wrapper'
p1521
asbag48
(g69
g50
NtRp1522
(dp1523
g53
(dp1524
g80
g81
ssg62
g1513
sg55
(lp1525
S':'
asbag48
(g69
g50
NtRp1526
(dp1527
g53
(dp1528
sg62
g1513
sg55
(lp1529
g48
(g49
g50
NtRp1530
(dp1531
g53
(dp1532
g61
I4
ssg62
g1526
sg55
(lp1533
S'<class wsgiref.util.FileWrapper at 0x02419AB0>'
p1534
asbasbasbag48
(g64
g50
NtRp1535
(dp1536
g53
(dp1537
sg62
g764
sg55
(lp1538
g48
(g69
g50
NtRp1539
(dp1540
g53
(dp1541
g73
g74
ssg62
g1535
sg55
(lp1542
S'wsgi_input'
p1543
asbag48
(g69
g50
NtRp1544
(dp1545
g53
(dp1546
g80
g81
ssg62
g1535
sg55
(lp1547
S':'
asbag48
(g69
g50
NtRp1548
(dp1549
g53
(dp1550
sg62
g1535
sg55
(lp1551
g48
(g49
g50
NtRp1552
(dp1553
g53
(dp1554
g61
I4
ssg62
g1548
sg55
(lp1555
S'<socket._fileobject object at 0x0693DAF0>'
p1556
asbasbasbag48
(g64
g50
NtRp1557
(dp1558
g53
(dp1559
sg62
g764
sg55
(lp1560
g48
(g69
g50
NtRp1561
(dp1562
g53
(dp1563
g73
g74
ssg62
g1557
sg55
(lp1564
S'wsgi_multiprocess'
p1565
asbag48
(g69
g50
NtRp1566
(dp1567
g53
(dp1568
g80
g81
ssg62
g1557
sg55
(lp1569
S':'
asbag48
(g69
g50
NtRp1570
(dp1571
g53
(dp1572
sg62
g1557
sg55
(lp1573
g48
(g49
g50
NtRp1574
(dp1575
g53
(dp1576
g61
I4
ssg62
g1570
sg55
(lp1577
g91
asbasbasbag48
(g64
g50
NtRp1578
(dp1579
g53
(dp1580
sg62
g764
sg55
(lp1581
g48
(g69
g50
NtRp1582
(dp1583
g53
(dp1584
g73
g74
ssg62
g1578
sg55
(lp1585
S'wsgi_multithread'
p1586
asbag48
(g69
g50
NtRp1587
(dp1588
g53
(dp1589
g80
g81
ssg62
g1578
sg55
(lp1590
S':'
asbag48
(g69
g50
NtRp1591
(dp1592
g53
(dp1593
sg62
g1578
sg55
(lp1594
g48
(g49
g50
NtRp1595
(dp1596
g53
(dp1597
g61
I4
ssg62
g1591
sg55
(lp1598
S'True'
p1599
asbasbasbag48
(g64
g50
NtRp1600
(dp1601
g53
(dp1602
sg62
g764
sg55
(lp1603
g48
(g69
g50
NtRp1604
(dp1605
g53
(dp1606
g73
g74
ssg62
g1600
sg55
(lp1607
S'wsgi_run_once'
p1608
asbag48
(g69
g50
NtRp1609
(dp1610
g53
(dp1611
g80
g81
ssg62
g1600
sg55
(lp1612
S':'
asbag48
(g69
g50
NtRp1613
(dp1614
g53
(dp1615
sg62
g1600
sg55
(lp1616
g48
(g49
g50
NtRp1617
(dp1618
g53
(dp1619
g61
I4
ssg62
g1613
sg55
(lp1620
g91
asbasbasbag48
(g64
g50
NtRp1621
(dp1622
g53
(dp1623
sg62
g764
sg55
(lp1624
g48
(g69
g50
NtRp1625
(dp1626
g53
(dp1627
g73
g74
ssg62
g1621
sg55
(lp1628
S'wsgi_url_scheme'
p1629
asbag48
(g69
g50
NtRp1630
(dp1631
g53
(dp1632
g80
g81
ssg62
g1621
sg55
(lp1633
S':'
asbag48
(g69
g50
NtRp1634
(dp1635
g53
(dp1636
sg62
g1621
sg55
(lp1637
g48
(g49
g50
NtRp1638
(dp1639
g53
(dp1640
g61
I4
ssg62
g1634
sg55
(lp1641
S'http'
p1642
asbasbasbag48
(g64
g50
NtRp1643
(dp1644
g53
(dp1645
sg62
g764
sg55
(lp1646
g48
(g69
g50
NtRp1647
(dp1648
g53
(dp1649
g73
g74
ssg62
g1643
sg55
(lp1650
S'wsgi_version'
p1651
asbag48
(g69
g50
NtRp1652
(dp1653
g53
(dp1654
g80
g81
ssg62
g1643
sg55
(lp1655
S':'
asbag48
(g69
g50
NtRp1656
(dp1657
g53
(dp1658
sg62
g1643
sg55
(lp1659
g48
(g49
g50
NtRp1660
(dp1661
g53
(dp1662
g61
I4
ssg62
g1656
sg55
(lp1663
g48
(g57
g50
NtRp1664
(dp1665
g53
(dp1666
g61
I3
ssg62
Nsg55
(lp1667
g48
(g64
g50
NtRp1668
(dp1669
g53
(dp1670
sg62
g1664
sg55
(lp1671
g48
(g69
g50
NtRp1672
(dp1673
g53
(dp1674
sg62
g1668
sg55
(lp1675
g48
(g49
g50
NtRp1676
(dp1677
g53
(dp1678
g61
I3
ssg62
g1672
sg55
(lp1679
S'1'
asbasbasbag48
(g64
g50
NtRp1680
(dp1681
g53
(dp1682
sg62
g1664
sg55
(lp1683
g48
(g69
g50
NtRp1684
(dp1685
g53
(dp1686
sg62
g1680
sg55
(lp1687
g48
(g49
g50
NtRp1688
(dp1689
g53
(dp1690
g61
I3
ssg62
g1684
sg55
(lp1691
S'0'
asbasbasbasbasbasbasbasbasbasbasbag48
(g64
g50
NtRp1692
(dp1693
g53
(dp1694
sg62
g58
sg55
(lp1695
g48
(g69
g50
NtRp1696
(dp1697
g53
(dp1698
g73
g74
ssg62
g1692
sg55
(lp1699
S'extension'
p1700
asbag48
(g69
g50
NtRp1701
(dp1702
g53
(dp1703
g80
g81
ssg62
g1692
sg55
(lp1704
S':'
asbag48
(g69
g50
NtRp1705
(dp1706
g53
(dp1707
sg62
g1692
sg55
(lp1708
g48
(g49
g50
NtRp1709
(dp1710
g53
(dp1711
g61
I5
ssg62
g1705
sg55
(lp1712
S'html'
p1713
asbasbasbag48
(g64
g50
NtRp1714
(dp1715
g53
(dp1716
sg62
g58
sg55
(lp1717
g48
(g69
g50
NtRp1718
(dp1719
g53
(dp1720
g73
g74
ssg62
g1714
sg55
(lp1721
S'folder'
p1722
asbag48
(g69
g50
NtRp1723
(dp1724
g53
(dp1725
g80
g81
ssg62
g1714
sg55
(lp1726
S':'
asbag48
(g69
g50
NtRp1727
(dp1728
g53
(dp1729
sg62
g1714
sg55
(lp1730
g48
(g49
g50
NtRp1731
(dp1732
g53
(dp1733
g61
I5
ssg62
g1727
sg55
(lp1734
S'C:\\Python32\\web2py_win\\web2py\\applications\\Casa_de_Apuestas\\'
p1735
asbasbasbag48
(g64
g50
NtRp1736
(dp1737
g53
(dp1738
sg62
g58
sg55
(lp1739
g48
(g69
g50
NtRp1740
(dp1741
g53
(dp1742
g73
g74
ssg62
g1736
sg55
(lp1743
S'function'
p1744
asbag48
(g69
g50
NtRp1745
(dp1746
g53
(dp1747
g80
g81
ssg62
g1736
sg55
(lp1748
S':'
asbag48
(g69
g50
NtRp1749
(dp1750
g53
(dp1751
sg62
g1736
sg55
(lp1752
g48
(g49
g50
NtRp1753
(dp1754
g53
(dp1755
g61
I5
ssg62
g1749
sg55
(lp1756
S'asignarResultado'
p1757
asbasbasbag48
(g64
g50
NtRp1758
(dp1759
g53
(dp1760
sg62
g58
sg55
(lp1761
g48
(g69
g50
NtRp1762
(dp1763
g53
(dp1764
g73
g74
ssg62
g1758
sg55
(lp1765
S'get_vars'
p1766
asbag48
(g69
g50
NtRp1767
(dp1768
g53
(dp1769
g80
g81
ssg62
g1758
sg55
(lp1770
S':'
asbag48
(g69
g50
NtRp1771
(dp1772
g53
(dp1773
sg62
g1758
sg55
(lp1774
g48
(g49
g50
NtRp1775
(dp1776
g53
(dp1777
g61
I5
ssg62
g1771
sg55
(lp1778
g48
(g57
g50
NtRp1779
(dp1780
g53
(dp1781
g61
I4
ssg62
Nsg55
(lp1782
sbasbasbasbag48
(g64
g50
NtRp1783
(dp1784
g53
(dp1785
sg62
g58
sg55
(lp1786
g48
(g69
g50
NtRp1787
(dp1788
g53
(dp1789
g73
g74
ssg62
g1783
sg55
(lp1790
S'global_settings'
p1791
asbag48
(g69
g50
NtRp1792
(dp1793
g53
(dp1794
g80
g81
ssg62
g1783
sg55
(lp1795
S':'
asbag48
(g69
g50
NtRp1796
(dp1797
g53
(dp1798
sg62
g1783
sg55
(lp1799
g48
(g49
g50
NtRp1800
(dp1801
g53
(dp1802
g61
I5
ssg62
g1796
sg55
(lp1803
g48
(g57
g50
NtRp1804
(dp1805
g53
(dp1806
g61
I4
ssg62
Nsg55
(lp1807
g48
(g64
g50
NtRp1808
(dp1809
g53
(dp1810
sg62
g1804
sg55
(lp1811
g48
(g69
g50
NtRp1812
(dp1813
g53
(dp1814
g73
g74
ssg62
g1808
sg55
(lp1815
g776
asbag48
(g69
g50
NtRp1816
(dp1817
g53
(dp1818
g80
g81
ssg62
g1808
sg55
(lp1819
S':'
asbag48
(g69
g50
NtRp1820
(dp1821
g53
(dp1822
sg62
g1808
sg55
(lp1823
g48
(g49
g50
NtRp1824
(dp1825
g53
(dp1826
g61
I4
ssg62
g1820
sg55
(lp1827
S"set(['C:\\\\Python32\\\\web2py_win\\\\web2py\\\\applications\\\\admin\\\\', 'C:\\\\Python32\\\\web2py_win\\\\web2py\\\\applications\\\\welcome\\\\', 'C:\\\\Python32\\\\web2py_win\\\\web2py\\\\applications\\\\Casa_de_Apuestas\\\\'])"
p1828
asbasbasbag48
(g64
g50
NtRp1829
(dp1830
g53
(dp1831
sg62
g1804
sg55
(lp1832
g48
(g69
g50
NtRp1833
(dp1834
g53
(dp1835
g73
g74
ssg62
g1829
sg55
(lp1836
g798
asbag48
(g69
g50
NtRp1837
(dp1838
g53
(dp1839
g80
g81
ssg62
g1829
sg55
(lp1840
S':'
asbag48
(g69
g50
NtRp1841
(dp1842
g53
(dp1843
sg62
g1829
sg55
(lp1844
g48
(g49
g50
NtRp1845
(dp1846
g53
(dp1847
g61
I4
ssg62
g1841
sg55
(lp1848
g811
asbasbasbag48
(g64
g50
NtRp1849
(dp1850
g53
(dp1851
sg62
g1804
sg55
(lp1852
g48
(g69
g50
NtRp1853
(dp1854
g53
(dp1855
g73
g74
ssg62
g1849
sg55
(lp1856
g820
asbag48
(g69
g50
NtRp1857
(dp1858
g53
(dp1859
g80
g81
ssg62
g1849
sg55
(lp1860
S':'
asbag48
(g69
g50
NtRp1861
(dp1862
g53
(dp1863
sg62
g1849
sg55
(lp1864
g48
(g49
g50
NtRp1865
(dp1866
g53
(dp1867
g61
I4
ssg62
g1861
sg55
(lp1868
g48
(g57
g50
NtRp1869
(dp1870
g53
(dp1871
g61
I3
ssg62
Nsg55
(lp1872
sbasbasbasbag48
(g64
g50
NtRp1873
(dp1874
g53
(dp1875
sg62
g1804
sg55
(lp1876
g48
(g69
g50
NtRp1877
(dp1878
g53
(dp1879
g73
g74
ssg62
g1873
sg55
(lp1880
g845
asbag48
(g69
g50
NtRp1881
(dp1882
g53
(dp1883
g80
g81
ssg62
g1873
sg55
(lp1884
S':'
asbag48
(g69
g50
NtRp1885
(dp1886
g53
(dp1887
sg62
g1873
sg55
(lp1888
g48
(g49
g50
NtRp1889
(dp1890
g53
(dp1891
g61
I4
ssg62
g1885
sg55
(lp1892
S"<Values at 0x2675fa8: {'verbose': False, 'ip': '127.0.0.1', 'shutdown_timeout': 5, 'taskbar': False, 'nocron': False, 'pid_filename': 'httpserver.pid', 'maxthreads': None, 'softcron': False, 'server_name': 'hector-vaio', 'bpython': False, 'nogui': False, 'port': 8000, 'extcron': False, 'debuglevel': 30, 'test': None, 'folder': 'C:\\\\Python32\\\\web2py_win\\\\web2py', 'config': '', 'import_models': False, 'winservice': '', 'shell': None, 'run': '', 'log_filename': 'httpserver.log', 'args': [''], 'ssl_ca_certificate': None, 'scheduler': None, 'profiler_filename': None, 'ssl_private_key': '', 'password': '<ask>', 'request_queue_size': 5, 'ssl_certificate': '', 'cronjob': False, 'plain': False, 'quiet': False, 'interfaces': None, 'minthreads': None, 'timeout': 10, 'numthreads': None, 'nobanner': False}>"
p1893
asbasbasbag48
(g64
g50
NtRp1894
(dp1895
g53
(dp1896
sg62
g1804
sg55
(lp1897
g48
(g69
g50
NtRp1898
(dp1899
g53
(dp1900
g73
g74
ssg62
g1894
sg55
(lp1901
g867
asbag48
(g69
g50
NtRp1902
(dp1903
g53
(dp1904
g80
g81
ssg62
g1894
sg55
(lp1905
S':'
asbag48
(g69
g50
NtRp1906
(dp1907
g53
(dp1908
sg62
g1894
sg55
(lp1909
g48
(g49
g50
NtRp1910
(dp1911
g53
(dp1912
g61
I4
ssg62
g1906
sg55
(lp1913
S'set([])'
p1914
asbasbasbag48
(g64
g50
NtRp1915
(dp1916
g53
(dp1917
sg62
g1804
sg55
(lp1918
g48
(g69
g50
NtRp1919
(dp1920
g53
(dp1921
g73
g74
ssg62
g1915
sg55
(lp1922
g889
asbag48
(g69
g50
NtRp1923
(dp1924
g53
(dp1925
g80
g81
ssg62
g1915
sg55
(lp1926
S':'
asbag48
(g69
g50
NtRp1927
(dp1928
g53
(dp1929
sg62
g1915
sg55
(lp1930
g48
(g49
g50
NtRp1931
(dp1932
g53
(dp1933
g61
I4
ssg62
g1927
sg55
(lp1934
g91
asbasbasbag48
(g64
g50
NtRp1935
(dp1936
g53
(dp1937
sg62
g1804
sg55
(lp1938
g48
(g69
g50
NtRp1939
(dp1940
g53
(dp1941
g73
g74
ssg62
g1935
sg55
(lp1942
g910
asbag48
(g69
g50
NtRp1943
(dp1944
g53
(dp1945
g80
g81
ssg62
g1935
sg55
(lp1946
S':'
asbag48
(g69
g50
NtRp1947
(dp1948
g53
(dp1949
sg62
g1935
sg55
(lp1950
g48
(g49
g50
NtRp1951
(dp1952
g53
(dp1953
g61
I4
ssg62
g1947
sg55
(lp1954
g923
asbasbasbag48
(g64
g50
NtRp1955
(dp1956
g53
(dp1957
sg62
g1804
sg55
(lp1958
g48
(g69
g50
NtRp1959
(dp1960
g53
(dp1961
g73
g74
ssg62
g1955
sg55
(lp1962
g1130
asbag48
(g69
g50
NtRp1963
(dp1964
g53
(dp1965
g80
g81
ssg62
g1955
sg55
(lp1966
S':'
asbag48
(g69
g50
NtRp1967
(dp1968
g53
(dp1969
sg62
g1955
sg55
(lp1970
g48
(g49
g50
NtRp1971
(dp1972
g53
(dp1973
g61
I4
ssg62
g1967
sg55
(lp1974
g91
asbasbasbag48
(g64
g50
NtRp1975
(dp1976
g53
(dp1977
sg62
g1804
sg55
(lp1978
g48
(g69
g50
NtRp1979
(dp1980
g53
(dp1981
g73
g74
ssg62
g1975
sg55
(lp1982
g1368
asbag48
(g69
g50
NtRp1983
(dp1984
g53
(dp1985
g80
g81
ssg62
g1975
sg55
(lp1986
S':'
asbag48
(g69
g50
NtRp1987
(dp1988
g53
(dp1989
sg62
g1975
sg55
(lp1990
g48
(g49
g50
NtRp1991
(dp1992
g53
(dp1993
g61
I4
ssg62
g1987
sg55
(lp1994
g1381
asbasbasbag48
(g64
g50
NtRp1995
(dp1996
g53
(dp1997
sg62
g1804
sg55
(lp1998
g48
(g69
g50
NtRp1999
(dp2000
g53
(dp2001
g73
g74
ssg62
g1995
sg55
(lp2002
g1411
asbag48
(g69
g50
NtRp2003
(dp2004
g53
(dp2005
g80
g81
ssg62
g1995
sg55
(lp2006
S':'
asbag48
(g69
g50
NtRp2007
(dp2008
g53
(dp2009
sg62
g1995
sg55
(lp2010
g48
(g49
g50
NtRp2011
(dp2012
g53
(dp2013
g61
I4
ssg62
g2007
sg55
(lp2014
g48
(g57
g50
NtRp2015
(dp2016
g53
(dp2017
g61
I3
ssg62
Nsg55
(lp2018
g48
(g64
g50
NtRp2019
(dp2020
g53
(dp2021
sg62
g2015
sg55
(lp2022
g48
(g69
g50
NtRp2023
(dp2024
g53
(dp2025
sg62
g2019
sg55
(lp2026
g48
(g49
g50
NtRp2027
(dp2028
g53
(dp2029
g61
I3
ssg62
g2023
sg55
(lp2030
S'1'
asbasbasbag48
(g64
g50
NtRp2031
(dp2032
g53
(dp2033
sg62
g2015
sg55
(lp2034
g48
(g69
g50
NtRp2035
(dp2036
g53
(dp2037
sg62
g2031
sg55
(lp2038
g48
(g49
g50
NtRp2039
(dp2040
g53
(dp2041
g61
I3
ssg62
g2035
sg55
(lp2042
S'99'
p2043
asbasbasbag48
(g64
g50
NtRp2044
(dp2045
g53
(dp2046
sg62
g2015
sg55
(lp2047
g48
(g69
g50
NtRp2048
(dp2049
g53
(dp2050
sg62
g2044
sg55
(lp2051
g48
(g49
g50
NtRp2052
(dp2053
g53
(dp2054
g61
I3
ssg62
g2048
sg55
(lp2055
S'2'
asbasbasbag48
(g64
g50
NtRp2056
(dp2057
g53
(dp2058
sg62
g2015
sg55
(lp2059
g48
(g69
g50
NtRp2060
(dp2061
g53
(dp2062
sg62
g2056
sg55
(lp2063
g48
(g49
g50
NtRp2064
(dp2065
g53
(dp2066
g61
I3
ssg62
g2060
sg55
(lp2067
S'datetime.datetime(2011, 9, 26, 6, 55, 33)'
p2068
asbasbasbag48
(g64
g50
NtRp2069
(dp2070
g53
(dp2071
sg62
g2015
sg55
(lp2072
g48
(g69
g50
NtRp2073
(dp2074
g53
(dp2075
sg62
g2069
sg55
(lp2076
g48
(g49
g50
NtRp2077
(dp2078
g53
(dp2079
g61
I3
ssg62
g2073
sg55
(lp2080
g1490
asbasbasbasbasbasbasbasbasbasbasbag48
(g64
g50
NtRp2081
(dp2082
g53
(dp2083
sg62
g58
sg55
(lp2084
g48
(g69
g50
NtRp2085
(dp2086
g53
(dp2087
g73
g74
ssg62
g2081
sg55
(lp2088
S'is_https'
p2089
asbag48
(g69
g50
NtRp2090
(dp2091
g53
(dp2092
g80
g81
ssg62
g2081
sg55
(lp2093
S':'
asbag48
(g69
g50
NtRp2094
(dp2095
g53
(dp2096
sg62
g2081
sg55
(lp2097
g48
(g49
g50
NtRp2098
(dp2099
g53
(dp2100
g61
I5
ssg62
g2094
sg55
(lp2101
g91
asbasbasbag48
(g64
g50
NtRp2102
(dp2103
g53
(dp2104
sg62
g58
sg55
(lp2105
g48
(g69
g50
NtRp2106
(dp2107
g53
(dp2108
g73
g74
ssg62
g2102
sg55
(lp2109
S'is_local'
p2110
asbag48
(g69
g50
NtRp2111
(dp2112
g53
(dp2113
g80
g81
ssg62
g2102
sg55
(lp2114
S':'
asbag48
(g69
g50
NtRp2115
(dp2116
g53
(dp2117
sg62
g2102
sg55
(lp2118
g48
(g49
g50
NtRp2119
(dp2120
g53
(dp2121
g61
I5
ssg62
g2115
sg55
(lp2122
g1599
asbasbasbag48
(g64
g50
NtRp2123
(dp2124
g53
(dp2125
sg62
g58
sg55
(lp2126
g48
(g69
g50
NtRp2127
(dp2128
g53
(dp2129
g73
g74
ssg62
g2123
sg55
(lp2130
S'is_restful'
p2131
asbag48
(g69
g50
NtRp2132
(dp2133
g53
(dp2134
g80
g81
ssg62
g2123
sg55
(lp2135
S':'
asbag48
(g69
g50
NtRp2136
(dp2137
g53
(dp2138
sg62
g2123
sg55
(lp2139
g48
(g49
g50
NtRp2140
(dp2141
g53
(dp2142
g61
I5
ssg62
g2136
sg55
(lp2143
g91
asbasbasbag48
(g64
g50
NtRp2144
(dp2145
g53
(dp2146
sg62
g58
sg55
(lp2147
g48
(g69
g50
NtRp2148
(dp2149
g53
(dp2150
g73
g74
ssg62
g2144
sg55
(lp2151
S'now'
p2152
asbag48
(g69
g50
NtRp2153
(dp2154
g53
(dp2155
g80
g81
ssg62
g2144
sg55
(lp2156
S':'
asbag48
(g69
g50
NtRp2157
(dp2158
g53
(dp2159
sg62
g2144
sg55
(lp2160
g48
(g49
g50
NtRp2161
(dp2162
g53
(dp2163
g61
I5
ssg62
g2157
sg55
(lp2164
S'datetime.datetime(2011, 12, 2, 1, 2, 35, 229000)'
p2165
asbasbasbag48
(g64
g50
NtRp2166
(dp2167
g53
(dp2168
sg62
g58
sg55
(lp2169
g48
(g69
g50
NtRp2170
(dp2171
g53
(dp2172
g73
g74
ssg62
g2166
sg55
(lp2173
S'post_vars'
p2174
asbag48
(g69
g50
NtRp2175
(dp2176
g53
(dp2177
g80
g81
ssg62
g2166
sg55
(lp2178
S':'
asbag48
(g69
g50
NtRp2179
(dp2180
g53
(dp2181
sg62
g2166
sg55
(lp2182
g48
(g49
g50
NtRp2183
(dp2184
g53
(dp2185
g61
I5
ssg62
g2179
sg55
(lp2186
g48
(g57
g50
NtRp2187
(dp2188
g53
(dp2189
g61
I4
ssg62
Nsg55
(lp2190
sbasbasbasbag48
(g64
g50
NtRp2191
(dp2192
g53
(dp2193
sg62
g58
sg55
(lp2194
g48
(g69
g50
NtRp2195
(dp2196
g53
(dp2197
g73
g74
ssg62
g2191
sg55
(lp2198
S'raw_args'
p2199
asbag48
(g69
g50
NtRp2200
(dp2201
g53
(dp2202
g80
g81
ssg62
g2191
sg55
(lp2203
S':'
asbag48
(g69
g50
NtRp2204
(dp2205
g53
(dp2206
sg62
g2191
sg55
(lp2207
g48
(g49
g50
NtRp2208
(dp2209
g53
(dp2210
g61
I5
ssg62
g2204
sg55
(lp2211
S'3'
asbasbasbag48
(g64
g50
NtRp2212
(dp2213
g53
(dp2214
sg62
g58
sg55
(lp2215
g48
(g69
g50
NtRp2216
(dp2217
g53
(dp2218
g73
g74
ssg62
g2212
sg55
(lp2219
S'url'
p2220
asbag48
(g69
g50
NtRp2221
(dp2222
g53
(dp2223
g80
g81
ssg62
g2212
sg55
(lp2224
S':'
asbag48
(g69
g50
NtRp2225
(dp2226
g53
(dp2227
sg62
g2212
sg55
(lp2228
g48
(g49
g50
NtRp2229
(dp2230
g53
(dp2231
g61
I5
ssg62
g2225
sg55
(lp2232
S'/Casa_de_Apuestas/default/asignarResultado/3'
p2233
asbasbasbag48
(g64
g50
NtRp2234
(dp2235
g53
(dp2236
sg62
g58
sg55
(lp2237
g48
(g69
g50
NtRp2238
(dp2239
g53
(dp2240
g73
g74
ssg62
g2234
sg55
(lp2241
S'utcnow'
p2242
asbag48
(g69
g50
NtRp2243
(dp2244
g53
(dp2245
g80
g81
ssg62
g2234
sg55
(lp2246
S':'
asbag48
(g69
g50
NtRp2247
(dp2248
g53
(dp2249
sg62
g2234
sg55
(lp2250
g48
(g49
g50
NtRp2251
(dp2252
g53
(dp2253
g61
I5
ssg62
g2247
sg55
(lp2254
S'datetime.datetime(2011, 12, 2, 5, 32, 35, 229000)'
p2255
asbasbasbag48
(g64
g50
NtRp2256
(dp2257
g53
(dp2258
sg62
g58
sg55
(lp2259
g48
(g69
g50
NtRp2260
(dp2261
g53
(dp2262
g73
g74
ssg62
g2256
sg55
(lp2263
S'uuid'
p2264
asbag48
(g69
g50
NtRp2265
(dp2266
g53
(dp2267
g80
g81
ssg62
g2256
sg55
(lp2268
S':'
asbag48
(g69
g50
NtRp2269
(dp2270
g53
(dp2271
sg62
g2256
sg55
(lp2272
g48
(g49
g50
NtRp2273
(dp2274
g53
(dp2275
g61
I5
ssg62
g2269
sg55
(lp2276
S'Casa_de_Apuestas/127.0.0.1.2011-12-02.01-02-35.a0d01b3b-05a8-43e2-b764-6957c2fd8f99'
p2277
asbasbasbag48
(g64
g50
NtRp2278
(dp2279
g53
(dp2280
sg62
g58
sg55
(lp2281
g48
(g69
g50
NtRp2282
(dp2283
g53
(dp2284
g73
g74
ssg62
g2278
sg55
(lp2285
S'vars'
p2286
asbag48
(g69
g50
NtRp2287
(dp2288
g53
(dp2289
g80
g81
ssg62
g2278
sg55
(lp2290
S':'
asbag48
(g69
g50
NtRp2291
(dp2292
g53
(dp2293
sg62
g2278
sg55
(lp2294
g48
(g49
g50
NtRp2295
(dp2296
g53
(dp2297
g61
I5
ssg62
g2291
sg55
(lp2298
g48
(g57
g50
NtRp2299
(dp2300
g53
(dp2301
g61
I4
ssg62
Nsg55
(lp2302
sbasbasbasbag48
(g64
g50
NtRp2303
(dp2304
g53
(dp2305
sg62
g58
sg55
(lp2306
g48
(g69
g50
NtRp2307
(dp2308
g53
(dp2309
g73
g74
ssg62
g2303
sg55
(lp2310
S'wsgi'
p2311
asbag48
(g69
g50
NtRp2312
(dp2313
g53
(dp2314
g80
g81
ssg62
g2303
sg55
(lp2315
S':'
asbag48
(g69
g50
NtRp2316
(dp2317
g53
(dp2318
sg62
g2303
sg55
(lp2319
g48
(g49
g50
NtRp2320
(dp2321
g53
(dp2322
g61
I5
ssg62
g2316
sg55
(lp2323
g48
(g57
g50
NtRp2324
(dp2325
g53
(dp2326
g61
I4
ssg62
Nsg55
(lp2327
g48
(g64
g50
NtRp2328
(dp2329
g53
(dp2330
sg62
g2324
sg55
(lp2331
g48
(g69
g50
NtRp2332
(dp2333
g53
(dp2334
g73
g74
ssg62
g2328
sg55
(lp2335
S'environ'
p2336
asbag48
(g69
g50
NtRp2337
(dp2338
g53
(dp2339
g80
g81
ssg62
g2328
sg55
(lp2340
S':'
asbag48
(g69
g50
NtRp2341
(dp2342
g53
(dp2343
sg62
g2328
sg55
(lp2344
g48
(g49
g50
NtRp2345
(dp2346
g53
(dp2347
g61
I4
ssg62
g2341
sg55
(lp2348
g48
(g57
g50
NtRp2349
(dp2350
g53
(dp2351
g61
I3
ssg62
Nsg55
(lp2352
g48
(g64
g50
NtRp2353
(dp2354
g53
(dp2355
sg62
g2349
sg55
(lp2356
g48
(g69
g50
NtRp2357
(dp2358
g53
(dp2359
g73
g74
ssg62
g2353
sg55
(lp2360
S'HTTP_ACCEPT'
p2361
asbag48
(g69
g50
NtRp2362
(dp2363
g53
(dp2364
g80
g81
ssg62
g2353
sg55
(lp2365
S':'
asbag48
(g69
g50
NtRp2366
(dp2367
g53
(dp2368
sg62
g2353
sg55
(lp2369
g48
(g49
g50
NtRp2370
(dp2371
g53
(dp2372
g61
I3
ssg62
g2366
sg55
(lp2373
g945
asbasbasbag48
(g64
g50
NtRp2374
(dp2375
g53
(dp2376
sg62
g2349
sg55
(lp2377
g48
(g69
g50
NtRp2378
(dp2379
g53
(dp2380
g73
g74
ssg62
g2374
sg55
(lp2381
S'HTTP_ACCEPT_CHARSET'
p2382
asbag48
(g69
g50
NtRp2383
(dp2384
g53
(dp2385
g80
g81
ssg62
g2374
sg55
(lp2386
S':'
asbag48
(g69
g50
NtRp2387
(dp2388
g53
(dp2389
sg62
g2374
sg55
(lp2390
g48
(g49
g50
NtRp2391
(dp2392
g53
(dp2393
g61
I3
ssg62
g2387
sg55
(lp2394
g967
asbasbasbag48
(g64
g50
NtRp2395
(dp2396
g53
(dp2397
sg62
g2349
sg55
(lp2398
g48
(g69
g50
NtRp2399
(dp2400
g53
(dp2401
g73
g74
ssg62
g2395
sg55
(lp2402
S'HTTP_ACCEPT_ENCODING'
p2403
asbag48
(g69
g50
NtRp2404
(dp2405
g53
(dp2406
g80
g81
ssg62
g2395
sg55
(lp2407
S':'
asbag48
(g69
g50
NtRp2408
(dp2409
g53
(dp2410
sg62
g2395
sg55
(lp2411
g48
(g49
g50
NtRp2412
(dp2413
g53
(dp2414
g61
I3
ssg62
g2408
sg55
(lp2415
g989
asbasbasbag48
(g64
g50
NtRp2416
(dp2417
g53
(dp2418
sg62
g2349
sg55
(lp2419
g48
(g69
g50
NtRp2420
(dp2421
g53
(dp2422
g73
g74
ssg62
g2416
sg55
(lp2423
S'HTTP_ACCEPT_LANGUAGE'
p2424
asbag48
(g69
g50
NtRp2425
(dp2426
g53
(dp2427
g80
g81
ssg62
g2416
sg55
(lp2428
S':'
asbag48
(g69
g50
NtRp2429
(dp2430
g53
(dp2431
sg62
g2416
sg55
(lp2432
g48
(g49
g50
NtRp2433
(dp2434
g53
(dp2435
g61
I3
ssg62
g2429
sg55
(lp2436
g1011
asbasbasbag48
(g64
g50
NtRp2437
(dp2438
g53
(dp2439
sg62
g2349
sg55
(lp2440
g48
(g69
g50
NtRp2441
(dp2442
g53
(dp2443
g73
g74
ssg62
g2437
sg55
(lp2444
S'HTTP_CONNECTION'
p2445
asbag48
(g69
g50
NtRp2446
(dp2447
g53
(dp2448
g80
g81
ssg62
g2437
sg55
(lp2449
S':'
asbag48
(g69
g50
NtRp2450
(dp2451
g53
(dp2452
sg62
g2437
sg55
(lp2453
g48
(g49
g50
NtRp2454
(dp2455
g53
(dp2456
g61
I3
ssg62
g2450
sg55
(lp2457
g1033
asbasbasbag48
(g64
g50
NtRp2458
(dp2459
g53
(dp2460
sg62
g2349
sg55
(lp2461
g48
(g69
g50
NtRp2462
(dp2463
g53
(dp2464
g73
g74
ssg62
g2458
sg55
(lp2465
S'HTTP_COOKIE'
p2466
asbag48
(g69
g50
NtRp2467
(dp2468
g53
(dp2469
g80
g81
ssg62
g2458
sg55
(lp2470
S':'
asbag48
(g69
g50
NtRp2471
(dp2472
g53
(dp2473
sg62
g2458
sg55
(lp2474
g48
(g49
g50
NtRp2475
(dp2476
g53
(dp2477
g61
I3
ssg62
g2471
sg55
(lp2478
g1055
asbasbasbag48
(g64
g50
NtRp2479
(dp2480
g53
(dp2481
sg62
g2349
sg55
(lp2482
g48
(g69
g50
NtRp2483
(dp2484
g53
(dp2485
g73
g74
ssg62
g2479
sg55
(lp2486
S'HTTP_HOST'
p2487
asbag48
(g69
g50
NtRp2488
(dp2489
g53
(dp2490
g80
g81
ssg62
g2479
sg55
(lp2491
S':'
asbag48
(g69
g50
NtRp2492
(dp2493
g53
(dp2494
sg62
g2479
sg55
(lp2495
g48
(g49
g50
NtRp2496
(dp2497
g53
(dp2498
g61
I3
ssg62
g2492
sg55
(lp2499
g1077
asbasbasbag48
(g64
g50
NtRp2500
(dp2501
g53
(dp2502
sg62
g2349
sg55
(lp2503
g48
(g69
g50
NtRp2504
(dp2505
g53
(dp2506
g73
g74
ssg62
g2500
sg55
(lp2507
S'HTTP_REFERER'
p2508
asbag48
(g69
g50
NtRp2509
(dp2510
g53
(dp2511
g80
g81
ssg62
g2500
sg55
(lp2512
S':'
asbag48
(g69
g50
NtRp2513
(dp2514
g53
(dp2515
sg62
g2500
sg55
(lp2516
g48
(g49
g50
NtRp2517
(dp2518
g53
(dp2519
g61
I3
ssg62
g2513
sg55
(lp2520
g1099
asbasbasbag48
(g64
g50
NtRp2521
(dp2522
g53
(dp2523
sg62
g2349
sg55
(lp2524
g48
(g69
g50
NtRp2525
(dp2526
g53
(dp2527
g73
g74
ssg62
g2521
sg55
(lp2528
S'HTTP_USER_AGENT'
p2529
asbag48
(g69
g50
NtRp2530
(dp2531
g53
(dp2532
g80
g81
ssg62
g2521
sg55
(lp2533
S':'
asbag48
(g69
g50
NtRp2534
(dp2535
g53
(dp2536
sg62
g2521
sg55
(lp2537
g48
(g49
g50
NtRp2538
(dp2539
g53
(dp2540
g61
I3
ssg62
g2534
sg55
(lp2541
g1121
asbasbasbag48
(g64
g50
NtRp2542
(dp2543
g53
(dp2544
sg62
g2349
sg55
(lp2545
g48
(g69
g50
NtRp2546
(dp2547
g53
(dp2548
g73
g74
ssg62
g2542
sg55
(lp2549
S'PATH_INFO'
p2550
asbag48
(g69
g50
NtRp2551
(dp2552
g53
(dp2553
g80
g81
ssg62
g2542
sg55
(lp2554
S':'
asbag48
(g69
g50
NtRp2555
(dp2556
g53
(dp2557
sg62
g2542
sg55
(lp2558
g48
(g49
g50
NtRp2559
(dp2560
g53
(dp2561
g61
I3
ssg62
g2555
sg55
(lp2562
g1164
asbasbasbag48
(g64
g50
NtRp2563
(dp2564
g53
(dp2565
sg62
g2349
sg55
(lp2566
g48
(g69
g50
NtRp2567
(dp2568
g53
(dp2569
g73
g74
ssg62
g2563
sg55
(lp2570
S'QUERY_STRING'
p2571
asbag48
(g69
g50
NtRp2572
(dp2573
g53
(dp2574
g80
g81
ssg62
g2563
sg55
(lp2575
S':'
asbag48
(g69
g50
NtRp2576
(dp2577
g53
(dp2578
sg62
g2563
sg55
(lp2579
g48
(g49
g50
NtRp2580
(dp2581
g53
(dp2582
g61
I3
ssg62
g2576
sg55
(lp2583
S''
asbasbasbag48
(g64
g50
NtRp2584
(dp2585
g53
(dp2586
sg62
g2349
sg55
(lp2587
g48
(g69
g50
NtRp2588
(dp2589
g53
(dp2590
g73
g74
ssg62
g2584
sg55
(lp2591
S'REMOTE_ADDR'
p2592
asbag48
(g69
g50
NtRp2593
(dp2594
g53
(dp2595
g80
g81
ssg62
g2584
sg55
(lp2596
S':'
asbag48
(g69
g50
NtRp2597
(dp2598
g53
(dp2599
sg62
g2584
sg55
(lp2600
g48
(g49
g50
NtRp2601
(dp2602
g53
(dp2603
g61
I3
ssg62
g2597
sg55
(lp2604
g193
asbasbasbag48
(g64
g50
NtRp2605
(dp2606
g53
(dp2607
sg62
g2349
sg55
(lp2608
g48
(g69
g50
NtRp2609
(dp2610
g53
(dp2611
g73
g74
ssg62
g2605
sg55
(lp2612
S'REMOTE_PORT'
p2613
asbag48
(g69
g50
NtRp2614
(dp2615
g53
(dp2616
g80
g81
ssg62
g2605
sg55
(lp2617
S':'
asbag48
(g69
g50
NtRp2618
(dp2619
g53
(dp2620
sg62
g2605
sg55
(lp2621
g48
(g49
g50
NtRp2622
(dp2623
g53
(dp2624
g61
I3
ssg62
g2618
sg55
(lp2625
g1228
asbasbasbag48
(g64
g50
NtRp2626
(dp2627
g53
(dp2628
sg62
g2349
sg55
(lp2629
g48
(g69
g50
NtRp2630
(dp2631
g53
(dp2632
g73
g74
ssg62
g2626
sg55
(lp2633
S'REQUEST_METHOD'
p2634
asbag48
(g69
g50
NtRp2635
(dp2636
g53
(dp2637
g80
g81
ssg62
g2626
sg55
(lp2638
S':'
asbag48
(g69
g50
NtRp2639
(dp2640
g53
(dp2641
sg62
g2626
sg55
(lp2642
g48
(g49
g50
NtRp2643
(dp2644
g53
(dp2645
g61
I3
ssg62
g2639
sg55
(lp2646
g1250
asbasbasbag48
(g64
g50
NtRp2647
(dp2648
g53
(dp2649
sg62
g2349
sg55
(lp2650
g48
(g69
g50
NtRp2651
(dp2652
g53
(dp2653
g73
g74
ssg62
g2647
sg55
(lp2654
S'SCRIPT_NAME'
p2655
asbag48
(g69
g50
NtRp2656
(dp2657
g53
(dp2658
g80
g81
ssg62
g2647
sg55
(lp2659
S':'
asbag48
(g69
g50
NtRp2660
(dp2661
g53
(dp2662
sg62
g2647
sg55
(lp2663
g48
(g49
g50
NtRp2664
(dp2665
g53
(dp2666
g61
I3
ssg62
g2660
sg55
(lp2667
S''
asbasbasbag48
(g64
g50
NtRp2668
(dp2669
g53
(dp2670
sg62
g2349
sg55
(lp2671
g48
(g69
g50
NtRp2672
(dp2673
g53
(dp2674
g73
g74
ssg62
g2668
sg55
(lp2675
S'SERVER_NAME'
p2676
asbag48
(g69
g50
NtRp2677
(dp2678
g53
(dp2679
g80
g81
ssg62
g2668
sg55
(lp2680
S':'
asbag48
(g69
g50
NtRp2681
(dp2682
g53
(dp2683
sg62
g2668
sg55
(lp2684
g48
(g49
g50
NtRp2685
(dp2686
g53
(dp2687
g61
I3
ssg62
g2681
sg55
(lp2688
g1293
asbasbasbag48
(g64
g50
NtRp2689
(dp2690
g53
(dp2691
sg62
g2349
sg55
(lp2692
g48
(g69
g50
NtRp2693
(dp2694
g53
(dp2695
g73
g74
ssg62
g2689
sg55
(lp2696
S'SERVER_PORT'
p2697
asbag48
(g69
g50
NtRp2698
(dp2699
g53
(dp2700
g80
g81
ssg62
g2689
sg55
(lp2701
S':'
asbag48
(g69
g50
NtRp2702
(dp2703
g53
(dp2704
sg62
g2689
sg55
(lp2705
g48
(g49
g50
NtRp2706
(dp2707
g53
(dp2708
g61
I3
ssg62
g2702
sg55
(lp2709
g1315
asbasbasbag48
(g64
g50
NtRp2710
(dp2711
g53
(dp2712
sg62
g2349
sg55
(lp2713
g48
(g69
g50
NtRp2714
(dp2715
g53
(dp2716
g73
g74
ssg62
g2710
sg55
(lp2717
S'SERVER_PROTOCOL'
p2718
asbag48
(g69
g50
NtRp2719
(dp2720
g53
(dp2721
g80
g81
ssg62
g2710
sg55
(lp2722
S':'
asbag48
(g69
g50
NtRp2723
(dp2724
g53
(dp2725
sg62
g2710
sg55
(lp2726
g48
(g49
g50
NtRp2727
(dp2728
g53
(dp2729
g61
I3
ssg62
g2723
sg55
(lp2730
g1337
asbasbasbag48
(g64
g50
NtRp2731
(dp2732
g53
(dp2733
sg62
g2349
sg55
(lp2734
g48
(g69
g50
NtRp2735
(dp2736
g53
(dp2737
g73
g74
ssg62
g2731
sg55
(lp2738
S'SERVER_SOFTWARE'
p2739
asbag48
(g69
g50
NtRp2740
(dp2741
g53
(dp2742
g80
g81
ssg62
g2731
sg55
(lp2743
S':'
asbag48
(g69
g50
NtRp2744
(dp2745
g53
(dp2746
sg62
g2731
sg55
(lp2747
g48
(g49
g50
NtRp2748
(dp2749
g53
(dp2750
g61
I3
ssg62
g2744
sg55
(lp2751
g1359
asbasbasbag48
(g64
g50
NtRp2752
(dp2753
g53
(dp2754
sg62
g2349
sg55
(lp2755
g48
(g69
g50
NtRp2756
(dp2757
g53
(dp2758
g73
g74
ssg62
g2752
sg55
(lp2759
S'wsgi.errors'
p2760
asbag48
(g69
g50
NtRp2761
(dp2762
g53
(dp2763
g80
g81
ssg62
g2752
sg55
(lp2764
S':'
asbag48
(g69
g50
NtRp2765
(dp2766
g53
(dp2767
sg62
g2752
sg55
(lp2768
g48
(g49
g50
NtRp2769
(dp2770
g53
(dp2771
g61
I3
ssg62
g2765
sg55
(lp2772
S"<open file '<stderr>', mode 'w' at 0x015800B0>"
p2773
asbasbasbag48
(g64
g50
NtRp2774
(dp2775
g53
(dp2776
sg62
g2349
sg55
(lp2777
g48
(g69
g50
NtRp2778
(dp2779
g53
(dp2780
g73
g74
ssg62
g2774
sg55
(lp2781
S'wsgi.file_wrapper'
p2782
asbag48
(g69
g50
NtRp2783
(dp2784
g53
(dp2785
g80
g81
ssg62
g2774
sg55
(lp2786
S':'
asbag48
(g69
g50
NtRp2787
(dp2788
g53
(dp2789
sg62
g2774
sg55
(lp2790
g48
(g49
g50
NtRp2791
(dp2792
g53
(dp2793
g61
I3
ssg62
g2787
sg55
(lp2794
S'<class wsgiref.util.FileWrapper at 0x02419AB0>'
p2795
asbasbasbag48
(g64
g50
NtRp2796
(dp2797
g53
(dp2798
sg62
g2349
sg55
(lp2799
g48
(g69
g50
NtRp2800
(dp2801
g53
(dp2802
g73
g74
ssg62
g2796
sg55
(lp2803
S'wsgi.input'
p2804
asbag48
(g69
g50
NtRp2805
(dp2806
g53
(dp2807
g80
g81
ssg62
g2796
sg55
(lp2808
S':'
asbag48
(g69
g50
NtRp2809
(dp2810
g53
(dp2811
sg62
g2796
sg55
(lp2812
g48
(g49
g50
NtRp2813
(dp2814
g53
(dp2815
g61
I3
ssg62
g2809
sg55
(lp2816
S'<cStringIO.StringO object at 0x07252BA0>'
p2817
asbasbasbag48
(g64
g50
NtRp2818
(dp2819
g53
(dp2820
sg62
g2349
sg55
(lp2821
g48
(g69
g50
NtRp2822
(dp2823
g53
(dp2824
g73
g74
ssg62
g2818
sg55
(lp2825
S'wsgi.multiprocess'
p2826
asbag48
(g69
g50
NtRp2827
(dp2828
g53
(dp2829
g80
g81
ssg62
g2818
sg55
(lp2830
S':'
asbag48
(g69
g50
NtRp2831
(dp2832
g53
(dp2833
sg62
g2818
sg55
(lp2834
g48
(g49
g50
NtRp2835
(dp2836
g53
(dp2837
g61
I3
ssg62
g2831
sg55
(lp2838
g91
asbasbasbag48
(g64
g50
NtRp2839
(dp2840
g53
(dp2841
sg62
g2349
sg55
(lp2842
g48
(g69
g50
NtRp2843
(dp2844
g53
(dp2845
g73
g74
ssg62
g2839
sg55
(lp2846
S'wsgi.multithread'
p2847
asbag48
(g69
g50
NtRp2848
(dp2849
g53
(dp2850
g80
g81
ssg62
g2839
sg55
(lp2851
S':'
asbag48
(g69
g50
NtRp2852
(dp2853
g53
(dp2854
sg62
g2839
sg55
(lp2855
g48
(g49
g50
NtRp2856
(dp2857
g53
(dp2858
g61
I3
ssg62
g2852
sg55
(lp2859
g1599
asbasbasbag48
(g64
g50
NtRp2860
(dp2861
g53
(dp2862
sg62
g2349
sg55
(lp2863
g48
(g69
g50
NtRp2864
(dp2865
g53
(dp2866
g73
g74
ssg62
g2860
sg55
(lp2867
S'wsgi.run_once'
p2868
asbag48
(g69
g50
NtRp2869
(dp2870
g53
(dp2871
g80
g81
ssg62
g2860
sg55
(lp2872
S':'
asbag48
(g69
g50
NtRp2873
(dp2874
g53
(dp2875
sg62
g2860
sg55
(lp2876
g48
(g49
g50
NtRp2877
(dp2878
g53
(dp2879
g61
I3
ssg62
g2873
sg55
(lp2880
g91
asbasbasbag48
(g64
g50
NtRp2881
(dp2882
g53
(dp2883
sg62
g2349
sg55
(lp2884
g48
(g69
g50
NtRp2885
(dp2886
g53
(dp2887
g73
g74
ssg62
g2881
sg55
(lp2888
S'wsgi.url_scheme'
p2889
asbag48
(g69
g50
NtRp2890
(dp2891
g53
(dp2892
g80
g81
ssg62
g2881
sg55
(lp2893
S':'
asbag48
(g69
g50
NtRp2894
(dp2895
g53
(dp2896
sg62
g2881
sg55
(lp2897
g48
(g49
g50
NtRp2898
(dp2899
g53
(dp2900
g61
I3
ssg62
g2894
sg55
(lp2901
g1642
asbasbasbag48
(g64
g50
NtRp2902
(dp2903
g53
(dp2904
sg62
g2349
sg55
(lp2905
g48
(g69
g50
NtRp2906
(dp2907
g53
(dp2908
g73
g74
ssg62
g2902
sg55
(lp2909
S'wsgi.version'
p2910
asbag48
(g69
g50
NtRp2911
(dp2912
g53
(dp2913
g80
g81
ssg62
g2902
sg55
(lp2914
S':'
asbag48
(g69
g50
NtRp2915
(dp2916
g53
(dp2917
sg62
g2902
sg55
(lp2918
g48
(g49
g50
NtRp2919
(dp2920
g53
(dp2921
g61
I3
ssg62
g2915
sg55
(lp2922
S'1'
asbasbasbasbasbasbasbasbasbasbasbasbasbsS'frames'
p2923
(lp2924
(dp2925
S'file'
p2926
S'C:\\Python32\\web2py_win\\web2py\\gluon\\restricted.py'
p2927
sS'dump'
p2928
(dp2929
sS'lnum'
p2930
I194
sS'lines'
p2931
(dp2932
sS'call'
p2933
S"(code='# -*- coding: utf-8 -*-\\n### required - do no del...esponse._vars=response._caller(asignarResultado)\\n', environment={'A': <class 'gluon.html.A'>, 'Auth': <class 'gluon.tools.Auth'>, 'B': <class 'gluon.html.B'>, 'BEAUTIFY': <class 'gluon.html.BEAUTIFY'>, 'BODY': <class 'gluon.html.BODY'>, 'BR': <class 'gluon.html.BR'>, 'BUTTON': <class 'gluon.html.BUTTON'>, 'CAT': <class 'gluon.html.CAT'>, 'CENTER': <class 'gluon.html.CENTER'>, 'CLEANUP': <class 'gluon.validators.CLEANUP'>, ...}, layer=r'C:\\Python32\\web2py_win\\web2py\\applications\\Casa_de_Apuestas\\controllers/default.py')"
p2934
sS'func'
p2935
S'restricted'
p2936
sa(dp2937
g2926
S'C:\\Python32\\web2py_win\\web2py\\applications\\Casa_de_Apuestas\\controllers\\default.py'
p2938
sg2928
(dp2939
sg2930
I124
sg2931
(dp2940
I113
S'    return dict(eventos=eventos)'
p2941
sI114
S''
sI115
S'def asignarResultado():'
p2942
sI116
S'    if not(request.args(0)):'
p2943
sI117
S'        eventos = db().select(db.eventos.ALL)'
p2944
sI118
S'        return dict(eventos=eventos)'
p2945
sI119
S'    else:'
p2946
sI120
S'        participantes = db(db.participantes.id == request.args(0)).select()'
p2947
sI121
S'        evento = db(db.eventos.id == request.args(0)).select().firstRow'
p2948
sI122
S'        return dict(participantes=participantes, evento=evento)'
p2949
ssg2933
S'()'
p2950
sg2935
S'<module>'
p2951
sa(dp2952
g2926
S'C:\\Python32\\web2py_win\\web2py\\gluon\\globals.py'
p2953
sg2928
(dp2954
sg2930
I149
sg2931
(dp2955
sg2933
S'(f=<function asignarResultado at 0x070B88F0>)'
p2956
sg2935
S'<lambda>'
p2957
sa(dp2958
g2926
S'C:\\Python32\\web2py_win\\web2py\\applications\\Casa_de_Apuestas\\controllers\\default.py'
p2959
sg2928
(dp2960
sg2930
I121
sg2931
(dp2961
I113
S'    return dict(eventos=eventos)'
p2962
sI114
S''
sI115
S'def asignarResultado():'
p2963
sI116
S'    if not(request.args(0)):'
p2964
sI117
S'        eventos = db().select(db.eventos.ALL)'
p2965
sI118
S'        return dict(eventos=eventos)'
p2966
sI119
S'    else:'
p2967
sI120
S'        participantes = db(db.participantes.id == request.args(0)).select()'
p2968
sI121
S'        evento = db(db.eventos.id == request.args(0)).select().firstRow'
p2969
sI122
S'        return dict(participantes=participantes, evento=evento)'
p2970
ssg2933
S'()'
p2971
sg2935
S'asignarResultado'
p2972
sasS'pyver'
p2973
S'Python 2.5.4: C:\\Python32\\web2py_win\\web2py\\web2py.exe'
p2974
sS'session'
p2975
g48
(g49
g50
NtRp2976
(dp2977
g53
(dp2978
sg55
(lp2979
g48
(g57
g50
NtRp2980
(dp2981
g53
(dp2982
g61
I5
ssg62
Nsg55
(lp2983
g48
(g64
g50
NtRp2984
(dp2985
g53
(dp2986
sg62
g2980
sg55
(lp2987
g48
(g69
g50
NtRp2988
(dp2989
g53
(dp2990
g73
g74
ssg62
g2984
sg55
(lp2991
S'auth'
p2992
asbag48
(g69
g50
NtRp2993
(dp2994
g53
(dp2995
g80
g81
ssg62
g2984
sg55
(lp2996
S':'
asbag48
(g69
g50
NtRp2997
(dp2998
g53
(dp2999
sg62
g2984
sg55
(lp3000
g48
(g49
g50
NtRp3001
(dp3002
g53
(dp3003
g61
I5
ssg62
g2997
sg55
(lp3004
g48
(g57
g50
NtRp3005
(dp3006
g53
(dp3007
g61
I4
ssg62
Nsg55
(lp3008
g48
(g64
g50
NtRp3009
(dp3010
g53
(dp3011
sg62
g3005
sg55
(lp3012
g48
(g69
g50
NtRp3013
(dp3014
g53
(dp3015
g73
g74
ssg62
g3009
sg55
(lp3016
S'expiration'
p3017
asbag48
(g69
g50
NtRp3018
(dp3019
g53
(dp3020
g80
g81
ssg62
g3009
sg55
(lp3021
S':'
asbag48
(g69
g50
NtRp3022
(dp3023
g53
(dp3024
sg62
g3009
sg55
(lp3025
g48
(g49
g50
NtRp3026
(dp3027
g53
(dp3028
g61
I4
ssg62
g3022
sg55
(lp3029
S'2592000'
p3030
asbasbasbag48
(g64
g50
NtRp3031
(dp3032
g53
(dp3033
sg62
g3005
sg55
(lp3034
g48
(g69
g50
NtRp3035
(dp3036
g53
(dp3037
g73
g74
ssg62
g3031
sg55
(lp3038
S'hmac_key'
p3039
asbag48
(g69
g50
NtRp3040
(dp3041
g53
(dp3042
g80
g81
ssg62
g3031
sg55
(lp3043
S':'
asbag48
(g69
g50
NtRp3044
(dp3045
g53
(dp3046
sg62
g3031
sg55
(lp3047
g48
(g49
g50
NtRp3048
(dp3049
g53
(dp3050
g61
I4
ssg62
g3044
sg55
(lp3051
S'ed821108-e743-4cce-826e-92db095bb5fc'
p3052
asbasbasbag48
(g64
g50
NtRp3053
(dp3054
g53
(dp3055
sg62
g3005
sg55
(lp3056
g48
(g69
g50
NtRp3057
(dp3058
g53
(dp3059
g73
g74
ssg62
g3053
sg55
(lp3060
S'last_visit'
p3061
asbag48
(g69
g50
NtRp3062
(dp3063
g53
(dp3064
g80
g81
ssg62
g3053
sg55
(lp3065
S':'
asbag48
(g69
g50
NtRp3066
(dp3067
g53
(dp3068
sg62
g3053
sg55
(lp3069
g48
(g49
g50
NtRp3070
(dp3071
g53
(dp3072
g61
I4
ssg62
g3066
sg55
(lp3073
S'datetime.datetime(2011, 12, 2, 0, 57, 34, 589000)'
p3074
asbasbasbag48
(g64
g50
NtRp3075
(dp3076
g53
(dp3077
sg62
g3005
sg55
(lp3078
g48
(g69
g50
NtRp3079
(dp3080
g53
(dp3081
g73
g74
ssg62
g3075
sg55
(lp3082
S'remember'
p3083
asbag48
(g69
g50
NtRp3084
(dp3085
g53
(dp3086
g80
g81
ssg62
g3075
sg55
(lp3087
S':'
asbag48
(g69
g50
NtRp3088
(dp3089
g53
(dp3090
sg62
g3075
sg55
(lp3091
g48
(g49
g50
NtRp3092
(dp3093
g53
(dp3094
g61
I4
ssg62
g3088
sg55
(lp3095
g91
asbasbasbag48
(g64
g50
NtRp3096
(dp3097
g53
(dp3098
sg62
g3005
sg55
(lp3099
g48
(g69
g50
NtRp3100
(dp3101
g53
(dp3102
g73
g74
ssg62
g3096
sg55
(lp3103
S'user'
p3104
asbag48
(g69
g50
NtRp3105
(dp3106
g53
(dp3107
g80
g81
ssg62
g3096
sg55
(lp3108
S':'
asbag48
(g69
g50
NtRp3109
(dp3110
g53
(dp3111
sg62
g3096
sg55
(lp3112
g48
(g49
g50
NtRp3113
(dp3114
g53
(dp3115
g61
I4
ssg62
g3109
sg55
(lp3116
g48
(g57
g50
NtRp3117
(dp3118
g53
(dp3119
g61
I3
ssg62
Nsg55
(lp3120
g48
(g64
g50
NtRp3121
(dp3122
g53
(dp3123
sg62
g3117
sg55
(lp3124
g48
(g69
g50
NtRp3125
(dp3126
g53
(dp3127
g73
g74
ssg62
g3121
sg55
(lp3128
S'apellido'
p3129
asbag48
(g69
g50
NtRp3130
(dp3131
g53
(dp3132
g80
g81
ssg62
g3121
sg55
(lp3133
S':'
asbag48
(g69
g50
NtRp3134
(dp3135
g53
(dp3136
sg62
g3121
sg55
(lp3137
g48
(g49
g50
NtRp3138
(dp3139
g53
(dp3140
g61
I3
ssg62
g3134
sg55
(lp3141
S'AdminPrueba'
p3142
asbasbasbag48
(g64
g50
NtRp3143
(dp3144
g53
(dp3145
sg62
g3117
sg55
(lp3146
g48
(g69
g50
NtRp3147
(dp3148
g53
(dp3149
g73
g74
ssg62
g3143
sg55
(lp3150
S'created_on'
p3151
asbag48
(g69
g50
NtRp3152
(dp3153
g53
(dp3154
g80
g81
ssg62
g3143
sg55
(lp3155
S':'
asbag48
(g69
g50
NtRp3156
(dp3157
g53
(dp3158
sg62
g3143
sg55
(lp3159
g48
(g49
g50
NtRp3160
(dp3161
g53
(dp3162
g61
I3
ssg62
g3156
sg55
(lp3163
S'datetime.datetime(2011, 12, 1, 15, 56, 58)'
p3164
asbasbasbag48
(g64
g50
NtRp3165
(dp3166
g53
(dp3167
sg62
g3117
sg55
(lp3168
g48
(g69
g50
NtRp3169
(dp3170
g53
(dp3171
g73
g74
ssg62
g3165
sg55
(lp3172
S'email'
p3173
asbag48
(g69
g50
NtRp3174
(dp3175
g53
(dp3176
g80
g81
ssg62
g3165
sg55
(lp3177
S':'
asbag48
(g69
g50
NtRp3178
(dp3179
g53
(dp3180
sg62
g3165
sg55
(lp3181
g48
(g49
g50
NtRp3182
(dp3183
g53
(dp3184
g61
I3
ssg62
g3178
sg55
(lp3185
S'admin@ucab.edu.ve'
p3186
asbasbasbag48
(g64
g50
NtRp3187
(dp3188
g53
(dp3189
sg62
g3117
sg55
(lp3190
g48
(g69
g50
NtRp3191
(dp3192
g53
(dp3193
g73
g74
ssg62
g3187
sg55
(lp3194
S'id'
p3195
asbag48
(g69
g50
NtRp3196
(dp3197
g53
(dp3198
g80
g81
ssg62
g3187
sg55
(lp3199
S':'
asbag48
(g69
g50
NtRp3200
(dp3201
g53
(dp3202
sg62
g3187
sg55
(lp3203
g48
(g49
g50
NtRp3204
(dp3205
g53
(dp3206
g61
I3
ssg62
g3200
sg55
(lp3207
S'14'
p3208
asbasbasbag48
(g64
g50
NtRp3209
(dp3210
g53
(dp3211
sg62
g3117
sg55
(lp3212
g48
(g69
g50
NtRp3213
(dp3214
g53
(dp3215
g73
g74
ssg62
g3209
sg55
(lp3216
S'modified_on'
p3217
asbag48
(g69
g50
NtRp3218
(dp3219
g53
(dp3220
g80
g81
ssg62
g3209
sg55
(lp3221
S':'
asbag48
(g69
g50
NtRp3222
(dp3223
g53
(dp3224
sg62
g3209
sg55
(lp3225
g48
(g49
g50
NtRp3226
(dp3227
g53
(dp3228
g61
I3
ssg62
g3222
sg55
(lp3229
S'datetime.datetime(2011, 12, 1, 15, 56, 58)'
p3230
asbasbasbag48
(g64
g50
NtRp3231
(dp3232
g53
(dp3233
sg62
g3117
sg55
(lp3234
g48
(g69
g50
NtRp3235
(dp3236
g53
(dp3237
g73
g74
ssg62
g3231
sg55
(lp3238
S'nick'
p3239
asbag48
(g69
g50
NtRp3240
(dp3241
g53
(dp3242
g80
g81
ssg62
g3231
sg55
(lp3243
S':'
asbag48
(g69
g50
NtRp3244
(dp3245
g53
(dp3246
sg62
g3231
sg55
(lp3247
g48
(g49
g50
NtRp3248
(dp3249
g53
(dp3250
g61
I3
ssg62
g3244
sg55
(lp3251
S'Admin2'
p3252
asbasbasbag48
(g64
g50
NtRp3253
(dp3254
g53
(dp3255
sg62
g3117
sg55
(lp3256
g48
(g69
g50
NtRp3257
(dp3258
g53
(dp3259
g73
g74
ssg62
g3253
sg55
(lp3260
S'nombre'
p3261
asbag48
(g69
g50
NtRp3262
(dp3263
g53
(dp3264
g80
g81
ssg62
g3253
sg55
(lp3265
S':'
asbag48
(g69
g50
NtRp3266
(dp3267
g53
(dp3268
sg62
g3253
sg55
(lp3269
g48
(g49
g50
NtRp3270
(dp3271
g53
(dp3272
g61
I3
ssg62
g3266
sg55
(lp3273
S'AdminPrueba'
p3274
asbasbasbag48
(g64
g50
NtRp3275
(dp3276
g53
(dp3277
sg62
g3117
sg55
(lp3278
g48
(g69
g50
NtRp3279
(dp3280
g53
(dp3281
g73
g74
ssg62
g3275
sg55
(lp3282
S'password'
p3283
asbag48
(g69
g50
NtRp3284
(dp3285
g53
(dp3286
g80
g81
ssg62
g3275
sg55
(lp3287
S':'
asbag48
(g69
g50
NtRp3288
(dp3289
g53
(dp3290
sg62
g3275
sg55
(lp3291
g48
(g49
g50
NtRp3292
(dp3293
g53
(dp3294
g61
I3
ssg62
g3288
sg55
(lp3295
S'd9112a75303bdd71a94bf896ec050b70'
p3296
asbasbasbag48
(g64
g50
NtRp3297
(dp3298
g53
(dp3299
sg62
g3117
sg55
(lp3300
g48
(g69
g50
NtRp3301
(dp3302
g53
(dp3303
g73
g74
ssg62
g3297
sg55
(lp3304
S'registration_id'
p3305
asbag48
(g69
g50
NtRp3306
(dp3307
g53
(dp3308
g80
g81
ssg62
g3297
sg55
(lp3309
S':'
asbag48
(g69
g50
NtRp3310
(dp3311
g53
(dp3312
sg62
g3297
sg55
(lp3313
g48
(g49
g50
NtRp3314
(dp3315
g53
(dp3316
g61
I3
ssg62
g3310
sg55
(lp3317
S'222'
p3318
asbasbasbag48
(g64
g50
NtRp3319
(dp3320
g53
(dp3321
sg62
g3117
sg55
(lp3322
g48
(g69
g50
NtRp3323
(dp3324
g53
(dp3325
g73
g74
ssg62
g3319
sg55
(lp3326
S'registration_key'
p3327
asbag48
(g69
g50
NtRp3328
(dp3329
g53
(dp3330
g80
g81
ssg62
g3319
sg55
(lp3331
S':'
asbag48
(g69
g50
NtRp3332
(dp3333
g53
(dp3334
sg62
g3319
sg55
(lp3335
g48
(g49
g50
NtRp3336
(dp3337
g53
(dp3338
g61
I3
ssg62
g3332
sg55
(lp3339
S''
asbasbasbag48
(g64
g50
NtRp3340
(dp3341
g53
(dp3342
sg62
g3117
sg55
(lp3343
g48
(g69
g50
NtRp3344
(dp3345
g53
(dp3346
g73
g74
ssg62
g3340
sg55
(lp3347
S'reset_password_key'
p3348
asbag48
(g69
g50
NtRp3349
(dp3350
g53
(dp3351
g80
g81
ssg62
g3340
sg55
(lp3352
S':'
asbag48
(g69
g50
NtRp3353
(dp3354
g53
(dp3355
sg62
g3340
sg55
(lp3356
g48
(g49
g50
NtRp3357
(dp3358
g53
(dp3359
g61
I3
ssg62
g3353
sg55
(lp3360
S''
asbasbasbasbasbasbasbasbasbasbasbasbasbsS'etype'
p3361
S"<type 'exceptions.AttributeError'>"
p3362
sS'date'
p3363
S'Fri Dec 02 01:02:35 2011'
p3364
sS'response'
p3365
g48
(g49
g50
NtRp3366
(dp3367
g53
(dp3368
sg55
(lp3369
g48
(g57
g50
NtRp3370
(dp3371
g53
(dp3372
g61
I5
ssg62
Nsg55
(lp3373
g48
(g64
g50
NtRp3374
(dp3375
g53
(dp3376
sg62
g3370
sg55
(lp3377
g48
(g69
g50
NtRp3378
(dp3379
g53
(dp3380
g73
g74
ssg62
g3374
sg55
(lp3381
g158
asbag48
(g69
g50
NtRp3382
(dp3383
g53
(dp3384
g80
g81
ssg62
g3374
sg55
(lp3385
S':'
asbag48
(g69
g50
NtRp3386
(dp3387
g53
(dp3388
sg62
g3374
sg55
(lp3389
g48
(g49
g50
NtRp3390
(dp3391
g53
(dp3392
g61
I5
ssg62
g3386
sg55
(lp3393
S'<cStringIO.StringO object at 0x063EE800>'
p3394
asbasbasbag48
(g64
g50
NtRp3395
(dp3396
g53
(dp3397
sg62
g3370
sg55
(lp3398
g48
(g69
g50
NtRp3399
(dp3400
g53
(dp3401
g73
g74
ssg62
g3395
sg55
(lp3402
g224
asbag48
(g69
g50
NtRp3403
(dp3404
g53
(dp3405
g80
g81
ssg62
g3395
sg55
(lp3406
S':'
asbag48
(g69
g50
NtRp3407
(dp3408
g53
(dp3409
sg62
g3395
sg55
(lp3410
g48
(g49
g50
NtRp3411
(dp3412
g53
(dp3413
g61
I5
ssg62
g3407
sg55
(lp3414
g48
(g57
g50
NtRp3415
(dp3416
g53
(dp3417
g61
I4
ssg62
Nsg55
(lp3418
g48
(g64
g50
NtRp3419
(dp3420
g53
(dp3421
sg62
g3415
sg55
(lp3422
g48
(g69
g50
NtRp3423
(dp3424
g53
(dp3425
g73
g74
ssg62
g3419
sg55
(lp3426
S'session_id_casa_de_apuestas'
p3427
asbag48
(g69
g50
NtRp3428
(dp3429
g53
(dp3430
g80
g81
ssg62
g3419
sg55
(lp3431
S':'
asbag48
(g69
g50
NtRp3432
(dp3433
g53
(dp3434
sg62
g3419
sg55
(lp3435
g48
(g49
g50
NtRp3436
(dp3437
g53
(dp3438
g61
I4
ssg62
g3432
sg55
(lp3439
g48
(g57
g50
NtRp3440
(dp3441
g53
(dp3442
g61
I3
ssg62
Nsg55
(lp3443
g48
(g64
g50
NtRp3444
(dp3445
g53
(dp3446
sg62
g3440
sg55
(lp3447
g48
(g69
g50
NtRp3448
(dp3449
g53
(dp3450
g73
g74
ssg62
g3444
sg55
(lp3451
g274
asbag48
(g69
g50
NtRp3452
(dp3453
g53
(dp3454
g80
g81
ssg62
g3444
sg55
(lp3455
S':'
asbag48
(g69
g50
NtRp3456
(dp3457
g53
(dp3458
sg62
g3444
sg55
(lp3459
g48
(g49
g50
NtRp3460
(dp3461
g53
(dp3462
g61
I3
ssg62
g3456
sg55
(lp3463
S''
asbasbasbag48
(g64
g50
NtRp3464
(dp3465
g53
(dp3466
sg62
g3440
sg55
(lp3467
g48
(g69
g50
NtRp3468
(dp3469
g53
(dp3470
g73
g74
ssg62
g3464
sg55
(lp3471
g295
asbag48
(g69
g50
NtRp3472
(dp3473
g53
(dp3474
g80
g81
ssg62
g3464
sg55
(lp3475
S':'
asbag48
(g69
g50
NtRp3476
(dp3477
g53
(dp3478
sg62
g3464
sg55
(lp3479
g48
(g49
g50
NtRp3480
(dp3481
g53
(dp3482
g61
I3
ssg62
g3476
sg55
(lp3483
S''
asbasbasbag48
(g64
g50
NtRp3484
(dp3485
g53
(dp3486
sg62
g3440
sg55
(lp3487
g48
(g69
g50
NtRp3488
(dp3489
g53
(dp3490
g73
g74
ssg62
g3484
sg55
(lp3491
g316
asbag48
(g69
g50
NtRp3492
(dp3493
g53
(dp3494
g80
g81
ssg62
g3484
sg55
(lp3495
S':'
asbag48
(g69
g50
NtRp3496
(dp3497
g53
(dp3498
sg62
g3484
sg55
(lp3499
g48
(g49
g50
NtRp3500
(dp3501
g53
(dp3502
g61
I3
ssg62
g3496
sg55
(lp3503
S''
asbasbasbag48
(g64
g50
NtRp3504
(dp3505
g53
(dp3506
sg62
g3440
sg55
(lp3507
g48
(g69
g50
NtRp3508
(dp3509
g53
(dp3510
g73
g74
ssg62
g3504
sg55
(lp3511
g337
asbag48
(g69
g50
NtRp3512
(dp3513
g53
(dp3514
g80
g81
ssg62
g3504
sg55
(lp3515
S':'
asbag48
(g69
g50
NtRp3516
(dp3517
g53
(dp3518
sg62
g3504
sg55
(lp3519
g48
(g49
g50
NtRp3520
(dp3521
g53
(dp3522
g61
I3
ssg62
g3516
sg55
(lp3523
S''
asbasbasbag48
(g64
g50
NtRp3524
(dp3525
g53
(dp3526
sg62
g3440
sg55
(lp3527
g48
(g69
g50
NtRp3528
(dp3529
g53
(dp3530
g73
g74
ssg62
g3524
sg55
(lp3531
g358
asbag48
(g69
g50
NtRp3532
(dp3533
g53
(dp3534
g80
g81
ssg62
g3524
sg55
(lp3535
S':'
asbag48
(g69
g50
NtRp3536
(dp3537
g53
(dp3538
sg62
g3524
sg55
(lp3539
g48
(g49
g50
NtRp3540
(dp3541
g53
(dp3542
g61
I3
ssg62
g3536
sg55
(lp3543
S'/'
asbasbasbag48
(g64
g50
NtRp3544
(dp3545
g53
(dp3546
sg62
g3440
sg55
(lp3547
g48
(g69
g50
NtRp3548
(dp3549
g53
(dp3550
g73
g74
ssg62
g3544
sg55
(lp3551
g379
asbag48
(g69
g50
NtRp3552
(dp3553
g53
(dp3554
g80
g81
ssg62
g3544
sg55
(lp3555
S':'
asbag48
(g69
g50
NtRp3556
(dp3557
g53
(dp3558
sg62
g3544
sg55
(lp3559
g48
(g49
g50
NtRp3560
(dp3561
g53
(dp3562
g61
I3
ssg62
g3556
sg55
(lp3563
S''
asbasbasbag48
(g64
g50
NtRp3564
(dp3565
g53
(dp3566
sg62
g3440
sg55
(lp3567
g48
(g69
g50
NtRp3568
(dp3569
g53
(dp3570
g73
g74
ssg62
g3564
sg55
(lp3571
g400
asbag48
(g69
g50
NtRp3572
(dp3573
g53
(dp3574
g80
g81
ssg62
g3564
sg55
(lp3575
S':'
asbag48
(g69
g50
NtRp3576
(dp3577
g53
(dp3578
sg62
g3564
sg55
(lp3579
g48
(g49
g50
NtRp3580
(dp3581
g53
(dp3582
g61
I3
ssg62
g3576
sg55
(lp3583
S''
asbasbasbasbasbasbasbasbasbasbasbag48
(g64
g50
NtRp3584
(dp3585
g53
(dp3586
sg62
g3370
sg55
(lp3587
g48
(g69
g50
NtRp3588
(dp3589
g53
(dp3590
g73
g74
ssg62
g3584
sg55
(lp3591
S'files'
p3592
asbag48
(g69
g50
NtRp3593
(dp3594
g53
(dp3595
g80
g81
ssg62
g3584
sg55
(lp3596
S':'
asbag48
(g69
g50
NtRp3597
(dp3598
g53
(dp3599
sg62
g3584
sg55
(lp3600
g48
(g49
g50
NtRp3601
(dp3602
g53
(dp3603
g61
I5
ssg62
g3597
sg55
(lp3604
g48
(g57
g50
NtRp3605
(dp3606
g53
(dp3607
g61
I4
ssg62
Nsg55
(lp3608
sbasbasbasbag48
(g64
g50
NtRp3609
(dp3610
g53
(dp3611
sg62
g3370
sg55
(lp3612
g48
(g69
g50
NtRp3613
(dp3614
g53
(dp3615
g73
g74
ssg62
g3609
sg55
(lp3616
S'flash'
p3617
asbag48
(g69
g50
NtRp3618
(dp3619
g53
(dp3620
g80
g81
ssg62
g3609
sg55
(lp3621
S':'
asbag48
(g69
g50
NtRp3622
(dp3623
g53
(dp3624
sg62
g3609
sg55
(lp3625
g48
(g49
g50
NtRp3626
(dp3627
g53
(dp3628
g61
I5
ssg62
g3622
sg55
(lp3629
S''
asbasbasbag48
(g64
g50
NtRp3630
(dp3631
g53
(dp3632
sg62
g3370
sg55
(lp3633
g48
(g69
g50
NtRp3634
(dp3635
g53
(dp3636
g73
g74
ssg62
g3630
sg55
(lp3637
S'generic_patterns'
p3638
asbag48
(g69
g50
NtRp3639
(dp3640
g53
(dp3641
g80
g81
ssg62
g3630
sg55
(lp3642
S':'
asbag48
(g69
g50
NtRp3643
(dp3644
g53
(dp3645
sg62
g3630
sg55
(lp3646
g48
(g49
g50
NtRp3647
(dp3648
g53
(dp3649
g61
I5
ssg62
g3643
sg55
(lp3650
g48
(g57
g50
NtRp3651
(dp3652
g53
(dp3653
g61
I4
ssg62
Nsg55
(lp3654
g48
(g64
g50
NtRp3655
(dp3656
g53
(dp3657
sg62
g3651
sg55
(lp3658
g48
(g69
g50
NtRp3659
(dp3660
g53
(dp3661
sg62
g3655
sg55
(lp3662
g48
(g49
g50
NtRp3663
(dp3664
g53
(dp3665
g61
I4
ssg62
g3659
sg55
(lp3666
S'*'
asbasbasbasbasbasbasbag48
(g64
g50
NtRp3667
(dp3668
g53
(dp3669
sg62
g3370
sg55
(lp3670
g48
(g69
g50
NtRp3671
(dp3672
g53
(dp3673
g73
g74
ssg62
g3667
sg55
(lp3674
S'headers'
p3675
asbag48
(g69
g50
NtRp3676
(dp3677
g53
(dp3678
g80
g81
ssg62
g3667
sg55
(lp3679
S':'
asbag48
(g69
g50
NtRp3680
(dp3681
g53
(dp3682
sg62
g3667
sg55
(lp3683
g48
(g49
g50
NtRp3684
(dp3685
g53
(dp3686
g61
I5
ssg62
g3680
sg55
(lp3687
g48
(g57
g50
NtRp3688
(dp3689
g53
(dp3690
g61
I4
ssg62
Nsg55
(lp3691
g48
(g64
g50
NtRp3692
(dp3693
g53
(dp3694
sg62
g3688
sg55
(lp3695
g48
(g69
g50
NtRp3696
(dp3697
g53
(dp3698
g73
g74
ssg62
g3692
sg55
(lp3699
S'Cache-Control'
p3700
asbag48
(g69
g50
NtRp3701
(dp3702
g53
(dp3703
g80
g81
ssg62
g3692
sg55
(lp3704
S':'
asbag48
(g69
g50
NtRp3705
(dp3706
g53
(dp3707
sg62
g3692
sg55
(lp3708
g48
(g49
g50
NtRp3709
(dp3710
g53
(dp3711
g61
I4
ssg62
g3705
sg55
(lp3712
S'no-store, no-cache, must-revalidate, post-check=0, pre-check=0'
p3713
asbasbasbag48
(g64
g50
NtRp3714
(dp3715
g53
(dp3716
sg62
g3688
sg55
(lp3717
g48
(g69
g50
NtRp3718
(dp3719
g53
(dp3720
g73
g74
ssg62
g3714
sg55
(lp3721
S'Content-Type'
p3722
asbag48
(g69
g50
NtRp3723
(dp3724
g53
(dp3725
g80
g81
ssg62
g3714
sg55
(lp3726
S':'
asbag48
(g69
g50
NtRp3727
(dp3728
g53
(dp3729
sg62
g3714
sg55
(lp3730
g48
(g49
g50
NtRp3731
(dp3732
g53
(dp3733
g61
I4
ssg62
g3727
sg55
(lp3734
S'text/html; charset=utf-8'
p3735
asbasbasbag48
(g64
g50
NtRp3736
(dp3737
g53
(dp3738
sg62
g3688
sg55
(lp3739
g48
(g69
g50
NtRp3740
(dp3741
g53
(dp3742
g73
g74
ssg62
g3736
sg55
(lp3743
S'Expires'
p3744
asbag48
(g69
g50
NtRp3745
(dp3746
g53
(dp3747
g80
g81
ssg62
g3736
sg55
(lp3748
S':'
asbag48
(g69
g50
NtRp3749
(dp3750
g53
(dp3751
sg62
g3736
sg55
(lp3752
g48
(g49
g50
NtRp3753
(dp3754
g53
(dp3755
g61
I4
ssg62
g3749
sg55
(lp3756
S'Fri, 02 Dec 2011 05:32:35 GMT'
p3757
asbasbasbag48
(g64
g50
NtRp3758
(dp3759
g53
(dp3760
sg62
g3688
sg55
(lp3761
g48
(g69
g50
NtRp3762
(dp3763
g53
(dp3764
g73
g74
ssg62
g3758
sg55
(lp3765
S'Pragma'
p3766
asbag48
(g69
g50
NtRp3767
(dp3768
g53
(dp3769
g80
g81
ssg62
g3758
sg55
(lp3770
S':'
asbag48
(g69
g50
NtRp3771
(dp3772
g53
(dp3773
sg62
g3758
sg55
(lp3774
g48
(g49
g50
NtRp3775
(dp3776
g53
(dp3777
g61
I4
ssg62
g3771
sg55
(lp3778
S'no-cache'
p3779
asbasbasbag48
(g64
g50
NtRp3780
(dp3781
g53
(dp3782
sg62
g3688
sg55
(lp3783
g48
(g69
g50
NtRp3784
(dp3785
g53
(dp3786
g73
g74
ssg62
g3780
sg55
(lp3787
S'X-Powered-By'
p3788
asbag48
(g69
g50
NtRp3789
(dp3790
g53
(dp3791
g80
g81
ssg62
g3780
sg55
(lp3792
S':'
asbag48
(g69
g50
NtRp3793
(dp3794
g53
(dp3795
sg62
g3780
sg55
(lp3796
g48
(g49
g50
NtRp3797
(dp3798
g53
(dp3799
g61
I4
ssg62
g3793
sg55
(lp3800
S'web2py'
p3801
asbasbasbasbasbasbasbag48
(g64
g50
NtRp3802
(dp3803
g53
(dp3804
sg62
g3370
sg55
(lp3805
g48
(g69
g50
NtRp3806
(dp3807
g53
(dp3808
g73
g74
ssg62
g3802
sg55
(lp3809
S'menu'
p3810
asbag48
(g69
g50
NtRp3811
(dp3812
g53
(dp3813
g80
g81
ssg62
g3802
sg55
(lp3814
S':'
asbag48
(g69
g50
NtRp3815
(dp3816
g53
(dp3817
sg62
g3802
sg55
(lp3818
g48
(g49
g50
NtRp3819
(dp3820
g53
(dp3821
g61
I5
ssg62
g3815
sg55
(lp3822
g48
(g57
g50
NtRp3823
(dp3824
g53
(dp3825
g61
I4
ssg62
Nsg55
(lp3826
g48
(g64
g50
NtRp3827
(dp3828
g53
(dp3829
sg62
g3823
sg55
(lp3830
g48
(g69
g50
NtRp3831
(dp3832
g53
(dp3833
sg62
g3827
sg55
(lp3834
g48
(g49
g50
NtRp3835
(dp3836
g53
(dp3837
g61
I4
ssg62
g3831
sg55
(lp3838
g48
(g57
g50
NtRp3839
(dp3840
g53
(dp3841
g61
I3
ssg62
Nsg55
(lp3842
g48
(g64
g50
NtRp3843
(dp3844
g53
(dp3845
sg62
g3839
sg55
(lp3846
g48
(g69
g50
NtRp3847
(dp3848
g53
(dp3849
sg62
g3843
sg55
(lp3850
g48
(g49
g50
NtRp3851
(dp3852
g53
(dp3853
g61
I3
ssg62
g3847
sg55
(lp3854
cgluon.languages
lazyT_unpickle
p3855
(S's\x05\x00\x00\x00Index'
tRp3856
asbasbasbag48
(g64
g50
NtRp3857
(dp3858
g53
(dp3859
sg62
g3839
sg55
(lp3860
g48
(g69
g50
NtRp3861
(dp3862
g53
(dp3863
sg62
g3857
sg55
(lp3864
g48
(g49
g50
NtRp3865
(dp3866
g53
(dp3867
g61
I3
ssg62
g3861
sg55
(lp3868
g91
asbasbasbag48
(g64
g50
NtRp3869
(dp3870
g53
(dp3871
sg62
g3839
sg55
(lp3872
g48
(g69
g50
NtRp3873
(dp3874
g53
(dp3875
sg62
g3869
sg55
(lp3876
g48
(g49
g50
NtRp3877
(dp3878
g53
(dp3879
g61
I3
ssg62
g3873
sg55
(lp3880
S'/Casa_de_Apuestas/default/index'
p3881
asbasbasbag48
(g64
g50
NtRp3882
(dp3883
g53
(dp3884
sg62
g3839
sg55
(lp3885
g48
(g69
g50
NtRp3886
(dp3887
g53
(dp3888
sg62
g3882
sg55
(lp3889
g48
(g49
g50
NtRp3890
(dp3891
g53
(dp3892
g61
I3
ssg62
g3886
sg55
(lp3893
g48
(g57
g50
NtRp3894
(dp3895
g53
(dp3896
g61
I2
ssg62
Nsg55
(lp3897
sbasbasbasbasbasbasbasbasbasbasbasbag48
(g64
g50
NtRp3898
(dp3899
g53
(dp3900
sg62
g3370
sg55
(lp3901
g48
(g69
g50
NtRp3902
(dp3903
g53
(dp3904
g73
g74
ssg62
g3898
sg55
(lp3905
S'meta'
p3906
asbag48
(g69
g50
NtRp3907
(dp3908
g53
(dp3909
g80
g81
ssg62
g3898
sg55
(lp3910
S':'
asbag48
(g69
g50
NtRp3911
(dp3912
g53
(dp3913
sg62
g3898
sg55
(lp3914
g48
(g49
g50
NtRp3915
(dp3916
g53
(dp3917
g61
I5
ssg62
g3911
sg55
(lp3918
g48
(g57
g50
NtRp3919
(dp3920
g53
(dp3921
g61
I4
ssg62
Nsg55
(lp3922
g48
(g64
g50
NtRp3923
(dp3924
g53
(dp3925
sg62
g3919
sg55
(lp3926
g48
(g69
g50
NtRp3927
(dp3928
g53
(dp3929
g73
g74
ssg62
g3923
sg55
(lp3930
S'author'
p3931
asbag48
(g69
g50
NtRp3932
(dp3933
g53
(dp3934
g80
g81
ssg62
g3923
sg55
(lp3935
S':'
asbag48
(g69
g50
NtRp3936
(dp3937
g53
(dp3938
sg62
g3923
sg55
(lp3939
g48
(g49
g50
NtRp3940
(dp3941
g53
(dp3942
g61
I4
ssg62
g3936
sg55
(lp3943
S'JSG Systems <jsg@example.com>'
p3944
asbasbasbag48
(g64
g50
NtRp3945
(dp3946
g53
(dp3947
sg62
g3919
sg55
(lp3948
g48
(g69
g50
NtRp3949
(dp3950
g53
(dp3951
g73
g74
ssg62
g3945
sg55
(lp3952
S'description'
p3953
asbag48
(g69
g50
NtRp3954
(dp3955
g53
(dp3956
g80
g81
ssg62
g3945
sg55
(lp3957
S':'
asbag48
(g69
g50
NtRp3958
(dp3959
g53
(dp3960
sg62
g3945
sg55
(lp3961
g48
(g49
g50
NtRp3962
(dp3963
g53
(dp3964
g61
I4
ssg62
g3958
sg55
(lp3965
S''
asbasbasbag48
(g64
g50
NtRp3966
(dp3967
g53
(dp3968
sg62
g3919
sg55
(lp3969
g48
(g69
g50
NtRp3970
(dp3971
g53
(dp3972
g73
g74
ssg62
g3966
sg55
(lp3973
S'keywords'
p3974
asbag48
(g69
g50
NtRp3975
(dp3976
g53
(dp3977
g80
g81
ssg62
g3966
sg55
(lp3978
S':'
asbag48
(g69
g50
NtRp3979
(dp3980
g53
(dp3981
sg62
g3966
sg55
(lp3982
g48
(g49
g50
NtRp3983
(dp3984
g53
(dp3985
g61
I4
ssg62
g3979
sg55
(lp3986
S'casa, apuestas'
p3987
asbasbasbasbasbasbasbag48
(g64
g50
NtRp3988
(dp3989
g53
(dp3990
sg62
g3370
sg55
(lp3991
g48
(g69
g50
NtRp3992
(dp3993
g53
(dp3994
g73
g74
ssg62
g3988
sg55
(lp3995
S'postprocessing'
p3996
asbag48
(g69
g50
NtRp3997
(dp3998
g53
(dp3999
g80
g81
ssg62
g3988
sg55
(lp4000
S':'
asbag48
(g69
g50
NtRp4001
(dp4002
g53
(dp4003
sg62
g3988
sg55
(lp4004
g48
(g49
g50
NtRp4005
(dp4006
g53
(dp4007
g61
I5
ssg62
g4001
sg55
(lp4008
g48
(g57
g50
NtRp4009
(dp4010
g53
(dp4011
g61
I4
ssg62
Nsg55
(lp4012
sbasbasbasbag48
(g64
g50
NtRp4013
(dp4014
g53
(dp4015
sg62
g3370
sg55
(lp4016
g48
(g69
g50
NtRp4017
(dp4018
g53
(dp4019
g73
g74
ssg62
g4013
sg55
(lp4020
S'session_file'
p4021
asbag48
(g69
g50
NtRp4022
(dp4023
g53
(dp4024
g80
g81
ssg62
g4013
sg55
(lp4025
S':'
asbag48
(g69
g50
NtRp4026
(dp4027
g53
(dp4028
sg62
g4013
sg55
(lp4029
g48
(g49
g50
NtRp4030
(dp4031
g53
(dp4032
g61
I5
ssg62
g4026
sg55
(lp4033
S"<open file 'C:\\Python32\\web2py_win\\web2py\\applications\\Casa_de_Apuestas\\sessions\\127.0.0.1-f2b73c5c-dc8e-4a91-88f1-8ab0d38c3580', mode 'rb+' at 0x066D6AD0>"
p4034
asbasbasbag48
(g64
g50
NtRp4035
(dp4036
g53
(dp4037
sg62
g3370
sg55
(lp4038
g48
(g69
g50
NtRp4039
(dp4040
g53
(dp4041
g73
g74
ssg62
g4035
sg55
(lp4042
S'session_filename'
p4043
asbag48
(g69
g50
NtRp4044
(dp4045
g53
(dp4046
g80
g81
ssg62
g4035
sg55
(lp4047
S':'
asbag48
(g69
g50
NtRp4048
(dp4049
g53
(dp4050
sg62
g4035
sg55
(lp4051
g48
(g49
g50
NtRp4052
(dp4053
g53
(dp4054
g61
I5
ssg62
g4048
sg55
(lp4055
S'C:\\Python32\\web2py_win\\web2py\\applications\\Casa_de_Apuestas\\sessions\\127.0.0.1-f2b73c5c-dc8e-4a91-88f1-8ab0d38c3580'
p4056
asbasbasbag48
(g64
g50
NtRp4057
(dp4058
g53
(dp4059
sg62
g3370
sg55
(lp4060
g48
(g69
g50
NtRp4061
(dp4062
g53
(dp4063
g73
g74
ssg62
g4057
sg55
(lp4064
S'session_id'
p4065
asbag48
(g69
g50
NtRp4066
(dp4067
g53
(dp4068
g80
g81
ssg62
g4057
sg55
(lp4069
S':'
asbag48
(g69
g50
NtRp4070
(dp4071
g53
(dp4072
sg62
g4057
sg55
(lp4073
g48
(g49
g50
NtRp4074
(dp4075
g53
(dp4076
g61
I5
ssg62
g4070
sg55
(lp4077
S'127.0.0.1-f2b73c5c-dc8e-4a91-88f1-8ab0d38c3580'
p4078
asbasbasbag48
(g64
g50
NtRp4079
(dp4080
g53
(dp4081
sg62
g3370
sg55
(lp4082
g48
(g69
g50
NtRp4083
(dp4084
g53
(dp4085
g73
g74
ssg62
g4079
sg55
(lp4086
S'session_id_name'
p4087
asbag48
(g69
g50
NtRp4088
(dp4089
g53
(dp4090
g80
g81
ssg62
g4079
sg55
(lp4091
S':'
asbag48
(g69
g50
NtRp4092
(dp4093
g53
(dp4094
sg62
g4079
sg55
(lp4095
g48
(g49
g50
NtRp4096
(dp4097
g53
(dp4098
g61
I5
ssg62
g4092
sg55
(lp4099
g3427
asbasbasbag48
(g64
g50
NtRp4100
(dp4101
g53
(dp4102
sg62
g3370
sg55
(lp4103
g48
(g69
g50
NtRp4104
(dp4105
g53
(dp4106
g73
g74
ssg62
g4100
sg55
(lp4107
S'session_locked'
p4108
asbag48
(g69
g50
NtRp4109
(dp4110
g53
(dp4111
g80
g81
ssg62
g4100
sg55
(lp4112
S':'
asbag48
(g69
g50
NtRp4113
(dp4114
g53
(dp4115
sg62
g4100
sg55
(lp4116
g48
(g49
g50
NtRp4117
(dp4118
g53
(dp4119
g61
I5
ssg62
g4113
sg55
(lp4120
g1599
asbasbasbag48
(g64
g50
NtRp4121
(dp4122
g53
(dp4123
sg62
g3370
sg55
(lp4124
g48
(g69
g50
NtRp4125
(dp4126
g53
(dp4127
g73
g74
ssg62
g4121
sg55
(lp4128
S'session_new'
p4129
asbag48
(g69
g50
NtRp4130
(dp4131
g53
(dp4132
g80
g81
ssg62
g4121
sg55
(lp4133
S':'
asbag48
(g69
g50
NtRp4134
(dp4135
g53
(dp4136
sg62
g4121
sg55
(lp4137
g48
(g49
g50
NtRp4138
(dp4139
g53
(dp4140
g61
I5
ssg62
g4134
sg55
(lp4141
g91
asbasbasbag48
(g64
g50
NtRp4142
(dp4143
g53
(dp4144
sg62
g3370
sg55
(lp4145
g48
(g69
g50
NtRp4146
(dp4147
g53
(dp4148
g73
g74
ssg62
g4142
sg55
(lp4149
S'status'
p4150
asbag48
(g69
g50
NtRp4151
(dp4152
g53
(dp4153
g80
g81
ssg62
g4142
sg55
(lp4154
S':'
asbag48
(g69
g50
NtRp4155
(dp4156
g53
(dp4157
sg62
g4142
sg55
(lp4158
g48
(g49
g50
NtRp4159
(dp4160
g53
(dp4161
g61
I5
ssg62
g4155
sg55
(lp4162
S'200'
p4163
asbasbasbag48
(g64
g50
NtRp4164
(dp4165
g53
(dp4166
sg62
g3370
sg55
(lp4167
g48
(g69
g50
NtRp4168
(dp4169
g53
(dp4170
g73
g74
ssg62
g4164
sg55
(lp4171
S'subtitle'
p4172
asbag48
(g69
g50
NtRp4173
(dp4174
g53
(dp4175
g80
g81
ssg62
g4164
sg55
(lp4176
S':'
asbag48
(g69
g50
NtRp4177
(dp4178
g53
(dp4179
sg62
g4164
sg55
(lp4180
g48
(g49
g50
NtRp4181
(dp4182
g53
(dp4183
g61
I5
ssg62
g4177
sg55
(lp4184
S''
asbasbasbag48
(g64
g50
NtRp4185
(dp4186
g53
(dp4187
sg62
g3370
sg55
(lp4188
g48
(g69
g50
NtRp4189
(dp4190
g53
(dp4191
g73
g74
ssg62
g4185
sg55
(lp4192
S'title'
p4193
asbag48
(g69
g50
NtRp4194
(dp4195
g53
(dp4196
g80
g81
ssg62
g4185
sg55
(lp4197
S':'
asbag48
(g69
g50
NtRp4198
(dp4199
g53
(dp4200
sg62
g4185
sg55
(lp4201
g48
(g49
g50
NtRp4202
(dp4203
g53
(dp4204
g61
I5
ssg62
g4198
sg55
(lp4205
S'Casa de Apuestas'
p4206
asbasbasbag48
(g64
g50
NtRp4207
(dp4208
g53
(dp4209
sg62
g3370
sg55
(lp4210
g48
(g69
g50
NtRp4211
(dp4212
g53
(dp4213
g73
g74
ssg62
g4207
sg55
(lp4214
g2264
asbag48
(g69
g50
NtRp4215
(dp4216
g53
(dp4217
g80
g81
ssg62
g4207
sg55
(lp4218
S':'
asbag48
(g69
g50
NtRp4219
(dp4220
g53
(dp4221
sg62
g4207
sg55
(lp4222
g48
(g49
g50
NtRp4223
(dp4224
g53
(dp4225
g61
I5
ssg62
g4219
sg55
(lp4226
g2277
asbasbasbag48
(g64
g50
NtRp4227
(dp4228
g53
(dp4229
sg62
g3370
sg55
(lp4230
g48
(g69
g50
NtRp4231
(dp4232
g53
(dp4233
g73
g74
ssg62
g4227
sg55
(lp4234
S'view'
p4235
asbag48
(g69
g50
NtRp4236
(dp4237
g53
(dp4238
g80
g81
ssg62
g4227
sg55
(lp4239
S':'
asbag48
(g69
g50
NtRp4240
(dp4241
g53
(dp4242
sg62
g4227
sg55
(lp4243
g48
(g49
g50
NtRp4244
(dp4245
g53
(dp4246
g61
I5
ssg62
g4240
sg55
(lp4247
S'default/asignarResultado.html'
p4248
asbasbasbasbasbsS'locals'
p4249
(dp4250
S'participantes'
p4251
S'<gluon.dal.Rows object at 0x072EB6B0>'
p4252
sssS'traceback'
p4253
S'Traceback (most recent call last):\n  File "gluon/restricted.py", line 194, in restricted\n  File "C:\\Python32\\web2py_win\\web2py\\applications\\Casa_de_Apuestas\\controllers/default.py", line 124, in <module>\n  File "gluon/globals.py", line 149, in <lambda>\n  File "C:\\Python32\\web2py_win\\web2py\\applications\\Casa_de_Apuestas\\controllers/default.py", line 121, in asignarResultado\nAttributeError: \'Rows\' object has no attribute \'firstRow\'\n'
p4254
s.