(dp1
S'output'
p2
S''
sS'layer'
p3
S'C:\\Users\\Gary\\Desktop\\web2py\\applications\\Casa_de_Apuestas\\controllers/default.py'
p4
sS'code'
p5
S"# -*- coding: utf-8 -*-\n### required - do no delete\ndef user(): return dict(form=auth())\ndef download(): return response.download(request,db)\ndef call(): return service()\n### end requires\n\n@auth.requires_login()\ndef index():\n    return dict()\n\ndef error():\n    return dict()\n\n\ndef maquinas():\n    return dict()\n\n\ndef crearCategoria():\n    categorias = db().select(db.categorias.ALL)\n    form = crud.create(db.categorias)\n    return dict(form=form, categorias=categorias)\n\ndef crearEvento():\n    eventos= db().select(db.eventos.ALL)\n    form = crud.create(db.eventos)\n    return dict(form=form,eventos=eventos)\n\ndef crearParticipante():\n    participantes= db().select(db.participantes.ALL)\n    form = crud.create(db.participantes)\n    return dict(form=form,participantes=participantes)\n\ndef crearEventoParticipante():\n    eventosparticipantes= db().select(db.eventos_participantes.ALL)\n    form = crud.create(db.eventos_participantes)\n    return dict(form=form,eventosparticipantes=eventosparticipantes)\n\ndef crearUsuario():\n    usuarios= db().select(db.auth_user.ALL)\n    form = crud.create(db.auth_user)\n    return dict(form=form,usuarios=usuarios)\n\ndef crearMaquina():\n    maquinas= db().select(db.maquinas.ALL)\n    form = crud.create(db.maquinas)\n    return dict(form=form,maquinas=maquinas)\n\ndef generar_xml(rows):\n    idx=range(len(rows.colnames))\n    colnames=[item.replace('.','_') for item in rows.colnames]\n    records=[]\n    for row in rows.response:\n        records.append(TAG['record'](*[TAG[colnames[i]](row[i]) for i in idx]))\n    return str(TAG['records'](*records))\n    #return str(estrin)\n\ndef prueba_xml():\n    import hashlib\n    codificador = hashlib.md5()\n    response.headers['Content-Type']='application/xml'\n    #a = generar_xml(db().select(db.participantes.ALL));\n    codificador.update(generar_xml(db().select(db.participantes.ALL)))\n    #return generar_xml(db().select(db.participantes.ALL))\n    return dict(var=codificador.hexdigest(), var1=codificador1.hexdigest())\n\ndef mostrarCategoria():\n    categorias= db().select(db.categorias.ALL, orderby=db.categorias.id)\n    return dict(categorias=categorias)\n\ndef showCategoria():\n    form = crud.update(db.categorias,request.args(0),next=URL('mostrarCategoria'))\n    return dict(form=form)\n\n\ndef mostrarEvento():\n    eventos= db().select(db.eventos.ALL, orderby=db.eventos.id)\n    return dict(eventos=eventos)\n\ndef showEvento():\n    form = crud.update(db.eventos,request.args(0),next=URL('mostrarEvento'))\n    return dict(form=form)\n\n\ndef mostrarParticipante():\n    participantes= db().select(db.participantes.ALL, orderby=db.participantes.id)\n    return dict(participantes=participantes)\n\ndef showParticipante():\n    form = crud.update(db.participantes,request.args(0),next=URL('mostrarParticipante'))\n    return dict(form=form)\n    \ndef mostrarMaquina():\n    maquinas= db().select(db.maquinas.ALL, orderby=db.maquinas.id)\n    return dict(maquinas=maquinas)\n\ndef showMaquinas():\n    form = crud.update(db.maquinas,request.args(0),next=URL('mostrarMaquina'))\n    return dict(form=form)\n    \ndef mostrarUsuario():\n    usuarios= db().select(db.auth_user.ALL, orderby=db.auth_user.id)\n    return dict(usuarios=usuarios)\n\ndef showUsuario():\n    form = crud.update(db.auth_user,request.args(0),next=URL('mostrarUsuario'))\n    return dict(form=form)\n\nresponse._vars=response._caller(prueba_xml)\n"
p6
sS'snapshot'
p7
(dp8
S'exception'
p9
(dp10
S'__hash__'
p11
S"<method-wrapper '__hash__' of exceptions.NameError object at 0x076F9B48>"
p12
sS'__setattr__'
p13
S"<method-wrapper '__setattr__' of exceptions.NameError object at 0x076F9B48>"
p14
sS'__reduce_ex__'
p15
S'<built-in method __reduce_ex__ of exceptions.NameError object at 0x076F9B48>'
p16
sS'__getslice__'
p17
S"<method-wrapper '__getslice__' of exceptions.NameError object at 0x076F9B48>"
p18
sS'__getitem__'
p19
S"<method-wrapper '__getitem__' of exceptions.NameError object at 0x076F9B48>"
p20
sS'__setstate__'
p21
S'<built-in method __setstate__ of exceptions.NameError object at 0x076F9B48>'
p22
sS'__reduce__'
p23
S'<built-in method __reduce__ of exceptions.NameError object at 0x076F9B48>'
p24
sS'__str__'
p25
S"<method-wrapper '__str__' of exceptions.NameError object at 0x076F9B48>"
p26
sS'args'
p27
S'("global name \'codificador1\' is not defined",)'
p28
sS'__getattribute__'
p29
S"<method-wrapper '__getattribute__' of exceptions.NameError object at 0x076F9B48>"
p30
sS'__class__'
p31
S"<type 'exceptions.NameError'>"
p32
sS'__delattr__'
p33
S"<method-wrapper '__delattr__' of exceptions.NameError object at 0x076F9B48>"
p34
sS'__repr__'
p35
S"<method-wrapper '__repr__' of exceptions.NameError object at 0x076F9B48>"
p36
sS'__dict__'
p37
S'{}'
p38
sS'__doc__'
p39
S"'Name not found globally.'"
p40
sS'__init__'
p41
S"<method-wrapper '__init__' of exceptions.NameError object at 0x076F9B48>"
p42
sS'__new__'
p43
S'<built-in method __new__ of type object at 0x1E1CD8D8>'
p44
ssS'evalue'
p45
S"global name 'codificador1' is not defined"
p46
sS'request'
p47
ccopy_reg
_reconstructor
p48
(cgluon.html
BEAUTIFY
p49
c__builtin__
object
p50
NtRp51
(dp52
S'attributes'
p53
(dp54
sS'components'
p55
(lp56
g48
(cgluon.html
TABLE
p57
g50
NtRp58
(dp59
g53
(dp60
S'level'
p61
I5
ssS'parent'
p62
Nsg55
(lp63
g48
(cgluon.html
TR
p64
g50
NtRp65
(dp66
g53
(dp67
sg62
g58
sg55
(lp68
g48
(cgluon.html
TD
p69
g50
NtRp70
(dp71
g53
(dp72
S'_style'
p73
S'font-weight:bold;'
p74
ssg62
g65
sg55
(lp75
S'ajax'
p76
asbag48
(g69
g50
NtRp77
(dp78
g53
(dp79
S'_valign'
p80
S'top'
p81
ssg62
g65
sg55
(lp82
S':'
asbag48
(g69
g50
NtRp83
(dp84
g53
(dp85
sg62
g65
sg55
(lp86
g48
(g49
g50
NtRp87
(dp88
g53
(dp89
g61
I5
ssg62
g83
sg55
(lp90
S'False'
p91
asbasbasbag48
(g64
g50
NtRp92
(dp93
g53
(dp94
sg62
g58
sg55
(lp95
g48
(g69
g50
NtRp96
(dp97
g53
(dp98
g73
g74
ssg62
g92
sg55
(lp99
S'application'
p100
asbag48
(g69
g50
NtRp101
(dp102
g53
(dp103
g80
g81
ssg62
g92
sg55
(lp104
S':'
asbag48
(g69
g50
NtRp105
(dp106
g53
(dp107
sg62
g92
sg55
(lp108
g48
(g49
g50
NtRp109
(dp110
g53
(dp111
g61
I5
ssg62
g105
sg55
(lp112
S'Casa_de_Apuestas'
p113
asbasbasbag48
(g64
g50
NtRp114
(dp115
g53
(dp116
sg62
g58
sg55
(lp117
g48
(g69
g50
NtRp118
(dp119
g53
(dp120
g73
g74
ssg62
g114
sg55
(lp121
g27
asbag48
(g69
g50
NtRp122
(dp123
g53
(dp124
g80
g81
ssg62
g114
sg55
(lp125
S':'
asbag48
(g69
g50
NtRp126
(dp127
g53
(dp128
sg62
g114
sg55
(lp129
g48
(g49
g50
NtRp130
(dp131
g53
(dp132
g61
I5
ssg62
g126
sg55
(lp133
g48
(g57
g50
NtRp134
(dp135
g53
(dp136
g61
I4
ssg62
Nsg55
(lp137
sbasbasbasbag48
(g64
g50
NtRp138
(dp139
g53
(dp140
sg62
g58
sg55
(lp141
g48
(g69
g50
NtRp142
(dp143
g53
(dp144
g73
g74
ssg62
g138
sg55
(lp145
S'body'
p146
asbag48
(g69
g50
NtRp147
(dp148
g53
(dp149
g80
g81
ssg62
g138
sg55
(lp150
S':'
asbag48
(g69
g50
NtRp151
(dp152
g53
(dp153
sg62
g138
sg55
(lp154
g48
(g49
g50
NtRp155
(dp156
g53
(dp157
g61
I5
ssg62
g151
sg55
(lp158
S'<cStringIO.StringO object at 0x07579E40>'
p159
asbasbasbag48
(g64
g50
NtRp160
(dp161
g53
(dp162
sg62
g58
sg55
(lp163
g48
(g69
g50
NtRp164
(dp165
g53
(dp166
g73
g74
ssg62
g160
sg55
(lp167
S'client'
p168
asbag48
(g69
g50
NtRp169
(dp170
g53
(dp171
g80
g81
ssg62
g160
sg55
(lp172
S':'
asbag48
(g69
g50
NtRp173
(dp174
g53
(dp175
sg62
g160
sg55
(lp176
g48
(g49
g50
NtRp177
(dp178
g53
(dp179
g61
I5
ssg62
g173
sg55
(lp180
S'127.0.0.1'
p181
asbasbasbag48
(g64
g50
NtRp182
(dp183
g53
(dp184
sg62
g58
sg55
(lp185
g48
(g69
g50
NtRp186
(dp187
g53
(dp188
g73
g74
ssg62
g182
sg55
(lp189
S'controller'
p190
asbag48
(g69
g50
NtRp191
(dp192
g53
(dp193
g80
g81
ssg62
g182
sg55
(lp194
S':'
asbag48
(g69
g50
NtRp195
(dp196
g53
(dp197
sg62
g182
sg55
(lp198
g48
(g49
g50
NtRp199
(dp200
g53
(dp201
g61
I5
ssg62
g195
sg55
(lp202
S'default'
p203
asbasbasbag48
(g64
g50
NtRp204
(dp205
g53
(dp206
sg62
g58
sg55
(lp207
g48
(g69
g50
NtRp208
(dp209
g53
(dp210
g73
g74
ssg62
g204
sg55
(lp211
S'cookies'
p212
asbag48
(g69
g50
NtRp213
(dp214
g53
(dp215
g80
g81
ssg62
g204
sg55
(lp216
S':'
asbag48
(g69
g50
NtRp217
(dp218
g53
(dp219
sg62
g204
sg55
(lp220
g48
(g49
g50
NtRp221
(dp222
g53
(dp223
g61
I5
ssg62
g217
sg55
(lp224
g48
(g57
g50
NtRp225
(dp226
g53
(dp227
g61
I4
ssg62
Nsg55
(lp228
sbasbasbasbag48
(g64
g50
NtRp229
(dp230
g53
(dp231
sg62
g58
sg55
(lp232
g48
(g69
g50
NtRp233
(dp234
g53
(dp235
g73
g74
ssg62
g229
sg55
(lp236
S'env'
p237
asbag48
(g69
g50
NtRp238
(dp239
g53
(dp240
g80
g81
ssg62
g229
sg55
(lp241
S':'
asbag48
(g69
g50
NtRp242
(dp243
g53
(dp244
sg62
g229
sg55
(lp245
g48
(g49
g50
NtRp246
(dp247
g53
(dp248
g61
I5
ssg62
g242
sg55
(lp249
g48
(g57
g50
NtRp250
(dp251
g53
(dp252
g61
I4
ssg62
Nsg55
(lp253
g48
(g64
g50
NtRp254
(dp255
g53
(dp256
sg62
g250
sg55
(lp257
g48
(g69
g50
NtRp258
(dp259
g53
(dp260
g73
g74
ssg62
g254
sg55
(lp261
S'app_folders'
p262
asbag48
(g69
g50
NtRp263
(dp264
g53
(dp265
g80
g81
ssg62
g254
sg55
(lp266
S':'
asbag48
(g69
g50
NtRp267
(dp268
g53
(dp269
sg62
g254
sg55
(lp270
g48
(g49
g50
NtRp271
(dp272
g53
(dp273
g61
I4
ssg62
g267
sg55
(lp274
S"set(['C:\\\\Users\\\\Gary\\\\Desktop\\\\web2py\\\\applications\\\\Casa_de_Apuestas\\\\', 'C:\\\\Users\\\\Gary\\\\Desktop\\\\web2py\\\\applications\\\\welcome\\\\', 'C:\\\\Users\\\\Gary\\\\Desktop\\\\web2py\\\\applications\\\\admin\\\\'])"
p275
asbasbasbag48
(g64
g50
NtRp276
(dp277
g53
(dp278
sg62
g250
sg55
(lp279
g48
(g69
g50
NtRp280
(dp281
g53
(dp282
g73
g74
ssg62
g276
sg55
(lp283
S'applications_parent'
p284
asbag48
(g69
g50
NtRp285
(dp286
g53
(dp287
g80
g81
ssg62
g276
sg55
(lp288
S':'
asbag48
(g69
g50
NtRp289
(dp290
g53
(dp291
sg62
g276
sg55
(lp292
g48
(g49
g50
NtRp293
(dp294
g53
(dp295
g61
I4
ssg62
g289
sg55
(lp296
S'C:\\Users\\Gary\\Desktop\\web2py'
p297
asbasbasbag48
(g64
g50
NtRp298
(dp299
g53
(dp300
sg62
g250
sg55
(lp301
g48
(g69
g50
NtRp302
(dp303
g53
(dp304
g73
g74
ssg62
g298
sg55
(lp305
S'cmd_args'
p306
asbag48
(g69
g50
NtRp307
(dp308
g53
(dp309
g80
g81
ssg62
g298
sg55
(lp310
S':'
asbag48
(g69
g50
NtRp311
(dp312
g53
(dp313
sg62
g298
sg55
(lp314
g48
(g49
g50
NtRp315
(dp316
g53
(dp317
g61
I4
ssg62
g311
sg55
(lp318
g48
(g57
g50
NtRp319
(dp320
g53
(dp321
g61
I3
ssg62
Nsg55
(lp322
sbasbasbasbag48
(g64
g50
NtRp323
(dp324
g53
(dp325
sg62
g250
sg55
(lp326
g48
(g69
g50
NtRp327
(dp328
g53
(dp329
g73
g74
ssg62
g323
sg55
(lp330
S'cmd_options'
p331
asbag48
(g69
g50
NtRp332
(dp333
g53
(dp334
g80
g81
ssg62
g323
sg55
(lp335
S':'
asbag48
(g69
g50
NtRp336
(dp337
g53
(dp338
sg62
g323
sg55
(lp339
g48
(g49
g50
NtRp340
(dp341
g53
(dp342
g61
I4
ssg62
g336
sg55
(lp343
S"<Values at 0x32a2e90: {'verbose': False, 'ip': '127.0.0.1', 'shutdown_timeout': 5, 'taskbar': False, 'nocron': False, 'pid_filename': 'httpserver.pid', 'maxthreads': None, 'softcron': False, 'server_name': 'GABM', 'bpython': False, 'nogui': False, 'port': 8000, 'extcron': False, 'debuglevel': 30, 'test': None, 'folder': 'C:\\\\Users\\\\Gary\\\\Desktop\\\\web2py', 'config': '', 'import_models': False, 'winservice': '', 'shell': None, 'run': '', 'log_filename': 'httpserver.log', 'args': [''], 'ssl_ca_certificate': None, 'scheduler': None, 'profiler_filename': None, 'ssl_private_key': '', 'password': '<ask>', 'request_queue_size': 5, 'ssl_certificate': '', 'cronjob': False, 'plain': False, 'quiet': False, 'interfaces': None, 'minthreads': None, 'timeout': 10, 'numthreads': None, 'nobanner': False}>"
p344
asbasbasbag48
(g64
g50
NtRp345
(dp346
g53
(dp347
sg62
g250
sg55
(lp348
g48
(g69
g50
NtRp349
(dp350
g53
(dp351
g73
g74
ssg62
g345
sg55
(lp352
S'db_sessions'
p353
asbag48
(g69
g50
NtRp354
(dp355
g53
(dp356
g80
g81
ssg62
g345
sg55
(lp357
S':'
asbag48
(g69
g50
NtRp358
(dp359
g53
(dp360
sg62
g345
sg55
(lp361
g48
(g49
g50
NtRp362
(dp363
g53
(dp364
g61
I4
ssg62
g358
sg55
(lp365
S'set([])'
p366
asbasbasbag48
(g64
g50
NtRp367
(dp368
g53
(dp369
sg62
g250
sg55
(lp370
g48
(g69
g50
NtRp371
(dp372
g53
(dp373
g73
g74
ssg62
g367
sg55
(lp374
S'debugging'
p375
asbag48
(g69
g50
NtRp376
(dp377
g53
(dp378
g80
g81
ssg62
g367
sg55
(lp379
S':'
asbag48
(g69
g50
NtRp380
(dp381
g53
(dp382
sg62
g367
sg55
(lp383
g48
(g49
g50
NtRp384
(dp385
g53
(dp386
g61
I4
ssg62
g380
sg55
(lp387
g91
asbasbasbag48
(g64
g50
NtRp388
(dp389
g53
(dp390
sg62
g250
sg55
(lp391
g48
(g69
g50
NtRp392
(dp393
g53
(dp394
g73
g74
ssg62
g388
sg55
(lp395
S'gluon_parent'
p396
asbag48
(g69
g50
NtRp397
(dp398
g53
(dp399
g80
g81
ssg62
g388
sg55
(lp400
S':'
asbag48
(g69
g50
NtRp401
(dp402
g53
(dp403
sg62
g388
sg55
(lp404
g48
(g49
g50
NtRp405
(dp406
g53
(dp407
g61
I4
ssg62
g401
sg55
(lp408
S'C:\\Users\\Gary\\Desktop\\web2py'
p409
asbasbasbag48
(g64
g50
NtRp410
(dp411
g53
(dp412
sg62
g250
sg55
(lp413
g48
(g69
g50
NtRp414
(dp415
g53
(dp416
g73
g74
ssg62
g410
sg55
(lp417
S'http_accept'
p418
asbag48
(g69
g50
NtRp419
(dp420
g53
(dp421
g80
g81
ssg62
g410
sg55
(lp422
S':'
asbag48
(g69
g50
NtRp423
(dp424
g53
(dp425
sg62
g410
sg55
(lp426
g48
(g49
g50
NtRp427
(dp428
g53
(dp429
g61
I4
ssg62
g423
sg55
(lp430
S'text/html,application/xhtml+xml,application/xml;q=0.9,*/*;q=0.8'
p431
asbasbasbag48
(g64
g50
NtRp432
(dp433
g53
(dp434
sg62
g250
sg55
(lp435
g48
(g69
g50
NtRp436
(dp437
g53
(dp438
g73
g74
ssg62
g432
sg55
(lp439
S'http_accept_charset'
p440
asbag48
(g69
g50
NtRp441
(dp442
g53
(dp443
g80
g81
ssg62
g432
sg55
(lp444
S':'
asbag48
(g69
g50
NtRp445
(dp446
g53
(dp447
sg62
g432
sg55
(lp448
g48
(g49
g50
NtRp449
(dp450
g53
(dp451
g61
I4
ssg62
g445
sg55
(lp452
S'ISO-8859-1,utf-8;q=0.7,*;q=0.3'
p453
asbasbasbag48
(g64
g50
NtRp454
(dp455
g53
(dp456
sg62
g250
sg55
(lp457
g48
(g69
g50
NtRp458
(dp459
g53
(dp460
g73
g74
ssg62
g454
sg55
(lp461
S'http_accept_encoding'
p462
asbag48
(g69
g50
NtRp463
(dp464
g53
(dp465
g80
g81
ssg62
g454
sg55
(lp466
S':'
asbag48
(g69
g50
NtRp467
(dp468
g53
(dp469
sg62
g454
sg55
(lp470
g48
(g49
g50
NtRp471
(dp472
g53
(dp473
g61
I4
ssg62
g467
sg55
(lp474
S'gzip,deflate,sdch'
p475
asbasbasbag48
(g64
g50
NtRp476
(dp477
g53
(dp478
sg62
g250
sg55
(lp479
g48
(g69
g50
NtRp480
(dp481
g53
(dp482
g73
g74
ssg62
g476
sg55
(lp483
S'http_accept_language'
p484
asbag48
(g69
g50
NtRp485
(dp486
g53
(dp487
g80
g81
ssg62
g476
sg55
(lp488
S':'
asbag48
(g69
g50
NtRp489
(dp490
g53
(dp491
sg62
g476
sg55
(lp492
g48
(g49
g50
NtRp493
(dp494
g53
(dp495
g61
I4
ssg62
g489
sg55
(lp496
S'es-ES,es;q=0.8'
p497
asbasbasbag48
(g64
g50
NtRp498
(dp499
g53
(dp500
sg62
g250
sg55
(lp501
g48
(g69
g50
NtRp502
(dp503
g53
(dp504
g73
g74
ssg62
g498
sg55
(lp505
S'http_connection'
p506
asbag48
(g69
g50
NtRp507
(dp508
g53
(dp509
g80
g81
ssg62
g498
sg55
(lp510
S':'
asbag48
(g69
g50
NtRp511
(dp512
g53
(dp513
sg62
g498
sg55
(lp514
g48
(g49
g50
NtRp515
(dp516
g53
(dp517
g61
I4
ssg62
g511
sg55
(lp518
S'keep-alive'
p519
asbasbasbag48
(g64
g50
NtRp520
(dp521
g53
(dp522
sg62
g250
sg55
(lp523
g48
(g69
g50
NtRp524
(dp525
g53
(dp526
g73
g74
ssg62
g520
sg55
(lp527
S'http_cookie'
p528
asbag48
(g69
g50
NtRp529
(dp530
g53
(dp531
g80
g81
ssg62
g520
sg55
(lp532
S':'
asbag48
(g69
g50
NtRp533
(dp534
g53
(dp535
sg62
g520
sg55
(lp536
g48
(g49
g50
NtRp537
(dp538
g53
(dp539
g61
I4
ssg62
g533
sg55
(lp540
S'__utma_a2a=4767789439.1350865281.1319308355.1319308355.1319308355.2'
p541
asbasbasbag48
(g64
g50
NtRp542
(dp543
g53
(dp544
sg62
g250
sg55
(lp545
g48
(g69
g50
NtRp546
(dp547
g53
(dp548
g73
g74
ssg62
g542
sg55
(lp549
S'http_host'
p550
asbag48
(g69
g50
NtRp551
(dp552
g53
(dp553
g80
g81
ssg62
g542
sg55
(lp554
S':'
asbag48
(g69
g50
NtRp555
(dp556
g53
(dp557
sg62
g542
sg55
(lp558
g48
(g49
g50
NtRp559
(dp560
g53
(dp561
g61
I4
ssg62
g555
sg55
(lp562
S'127.0.0.1:8000'
p563
asbasbasbag48
(g64
g50
NtRp564
(dp565
g53
(dp566
sg62
g250
sg55
(lp567
g48
(g69
g50
NtRp568
(dp569
g53
(dp570
g73
g74
ssg62
g564
sg55
(lp571
S'http_referer'
p572
asbag48
(g69
g50
NtRp573
(dp574
g53
(dp575
g80
g81
ssg62
g564
sg55
(lp576
S':'
asbag48
(g69
g50
NtRp577
(dp578
g53
(dp579
sg62
g564
sg55
(lp580
g48
(g49
g50
NtRp581
(dp582
g53
(dp583
g61
I4
ssg62
g577
sg55
(lp584
S'http://127.0.0.1:8000/admin/default/edit/Casa_de_Apuestas/views/default/prueba_xml.html'
p585
asbasbasbag48
(g64
g50
NtRp586
(dp587
g53
(dp588
sg62
g250
sg55
(lp589
g48
(g69
g50
NtRp590
(dp591
g53
(dp592
g73
g74
ssg62
g586
sg55
(lp593
S'http_user_agent'
p594
asbag48
(g69
g50
NtRp595
(dp596
g53
(dp597
g80
g81
ssg62
g586
sg55
(lp598
S':'
asbag48
(g69
g50
NtRp599
(dp600
g53
(dp601
sg62
g586
sg55
(lp602
g48
(g49
g50
NtRp603
(dp604
g53
(dp605
g61
I4
ssg62
g599
sg55
(lp606
S'Mozilla/5.0 (Windows NT 6.1; WOW64) AppleWebKit/535.2 (KHTML, like Gecko) Chrome/15.0.874.121 Safari/535.2'
p607
asbasbasbag48
(g64
g50
NtRp608
(dp609
g53
(dp610
sg62
g250
sg55
(lp611
g48
(g69
g50
NtRp612
(dp613
g53
(dp614
g73
g74
ssg62
g608
sg55
(lp615
S'is_jython'
p616
asbag48
(g69
g50
NtRp617
(dp618
g53
(dp619
g80
g81
ssg62
g608
sg55
(lp620
S':'
asbag48
(g69
g50
NtRp621
(dp622
g53
(dp623
sg62
g608
sg55
(lp624
g48
(g49
g50
NtRp625
(dp626
g53
(dp627
g61
I4
ssg62
g621
sg55
(lp628
g91
asbasbasbag48
(g64
g50
NtRp629
(dp630
g53
(dp631
sg62
g250
sg55
(lp632
g48
(g69
g50
NtRp633
(dp634
g53
(dp635
g73
g74
ssg62
g629
sg55
(lp636
S'path_info'
p637
asbag48
(g69
g50
NtRp638
(dp639
g53
(dp640
g80
g81
ssg62
g629
sg55
(lp641
S':'
asbag48
(g69
g50
NtRp642
(dp643
g53
(dp644
sg62
g629
sg55
(lp645
g48
(g49
g50
NtRp646
(dp647
g53
(dp648
g61
I4
ssg62
g642
sg55
(lp649
S'/Casa_de_Apuestas/default/prueba_xml'
p650
asbasbasbag48
(g64
g50
NtRp651
(dp652
g53
(dp653
sg62
g250
sg55
(lp654
g48
(g69
g50
NtRp655
(dp656
g53
(dp657
g73
g74
ssg62
g651
sg55
(lp658
S'query_string'
p659
asbag48
(g69
g50
NtRp660
(dp661
g53
(dp662
g80
g81
ssg62
g651
sg55
(lp663
S':'
asbag48
(g69
g50
NtRp664
(dp665
g53
(dp666
sg62
g651
sg55
(lp667
g48
(g49
g50
NtRp668
(dp669
g53
(dp670
g61
I4
ssg62
g664
sg55
(lp671
S''
asbasbasbag48
(g64
g50
NtRp672
(dp673
g53
(dp674
sg62
g250
sg55
(lp675
g48
(g69
g50
NtRp676
(dp677
g53
(dp678
g73
g74
ssg62
g672
sg55
(lp679
S'remote_addr'
p680
asbag48
(g69
g50
NtRp681
(dp682
g53
(dp683
g80
g81
ssg62
g672
sg55
(lp684
S':'
asbag48
(g69
g50
NtRp685
(dp686
g53
(dp687
sg62
g672
sg55
(lp688
g48
(g49
g50
NtRp689
(dp690
g53
(dp691
g61
I4
ssg62
g685
sg55
(lp692
g181
asbasbasbag48
(g64
g50
NtRp693
(dp694
g53
(dp695
sg62
g250
sg55
(lp696
g48
(g69
g50
NtRp697
(dp698
g53
(dp699
g73
g74
ssg62
g693
sg55
(lp700
S'remote_port'
p701
asbag48
(g69
g50
NtRp702
(dp703
g53
(dp704
g80
g81
ssg62
g693
sg55
(lp705
S':'
asbag48
(g69
g50
NtRp706
(dp707
g53
(dp708
sg62
g693
sg55
(lp709
g48
(g49
g50
NtRp710
(dp711
g53
(dp712
g61
I4
ssg62
g706
sg55
(lp713
S'59415'
p714
asbasbasbag48
(g64
g50
NtRp715
(dp716
g53
(dp717
sg62
g250
sg55
(lp718
g48
(g69
g50
NtRp719
(dp720
g53
(dp721
g73
g74
ssg62
g715
sg55
(lp722
S'request_method'
p723
asbag48
(g69
g50
NtRp724
(dp725
g53
(dp726
g80
g81
ssg62
g715
sg55
(lp727
S':'
asbag48
(g69
g50
NtRp728
(dp729
g53
(dp730
sg62
g715
sg55
(lp731
g48
(g49
g50
NtRp732
(dp733
g53
(dp734
g61
I4
ssg62
g728
sg55
(lp735
S'GET'
p736
asbasbasbag48
(g64
g50
NtRp737
(dp738
g53
(dp739
sg62
g250
sg55
(lp740
g48
(g69
g50
NtRp741
(dp742
g53
(dp743
g73
g74
ssg62
g737
sg55
(lp744
S'script_name'
p745
asbag48
(g69
g50
NtRp746
(dp747
g53
(dp748
g80
g81
ssg62
g737
sg55
(lp749
S':'
asbag48
(g69
g50
NtRp750
(dp751
g53
(dp752
sg62
g737
sg55
(lp753
g48
(g49
g50
NtRp754
(dp755
g53
(dp756
g61
I4
ssg62
g750
sg55
(lp757
S''
asbasbasbag48
(g64
g50
NtRp758
(dp759
g53
(dp760
sg62
g250
sg55
(lp761
g48
(g69
g50
NtRp762
(dp763
g53
(dp764
g73
g74
ssg62
g758
sg55
(lp765
S'server_name'
p766
asbag48
(g69
g50
NtRp767
(dp768
g53
(dp769
g80
g81
ssg62
g758
sg55
(lp770
S':'
asbag48
(g69
g50
NtRp771
(dp772
g53
(dp773
sg62
g758
sg55
(lp774
g48
(g49
g50
NtRp775
(dp776
g53
(dp777
g61
I4
ssg62
g771
sg55
(lp778
S'GABM'
p779
asbasbasbag48
(g64
g50
NtRp780
(dp781
g53
(dp782
sg62
g250
sg55
(lp783
g48
(g69
g50
NtRp784
(dp785
g53
(dp786
g73
g74
ssg62
g780
sg55
(lp787
S'server_port'
p788
asbag48
(g69
g50
NtRp789
(dp790
g53
(dp791
g80
g81
ssg62
g780
sg55
(lp792
S':'
asbag48
(g69
g50
NtRp793
(dp794
g53
(dp795
sg62
g780
sg55
(lp796
g48
(g49
g50
NtRp797
(dp798
g53
(dp799
g61
I4
ssg62
g793
sg55
(lp800
S'8000'
p801
asbasbasbag48
(g64
g50
NtRp802
(dp803
g53
(dp804
sg62
g250
sg55
(lp805
g48
(g69
g50
NtRp806
(dp807
g53
(dp808
g73
g74
ssg62
g802
sg55
(lp809
S'server_protocol'
p810
asbag48
(g69
g50
NtRp811
(dp812
g53
(dp813
g80
g81
ssg62
g802
sg55
(lp814
S':'
asbag48
(g69
g50
NtRp815
(dp816
g53
(dp817
sg62
g802
sg55
(lp818
g48
(g49
g50
NtRp819
(dp820
g53
(dp821
g61
I4
ssg62
g815
sg55
(lp822
S'HTTP/1.1'
p823
asbasbasbag48
(g64
g50
NtRp824
(dp825
g53
(dp826
sg62
g250
sg55
(lp827
g48
(g69
g50
NtRp828
(dp829
g53
(dp830
g73
g74
ssg62
g824
sg55
(lp831
S'server_software'
p832
asbag48
(g69
g50
NtRp833
(dp834
g53
(dp835
g80
g81
ssg62
g824
sg55
(lp836
S':'
asbag48
(g69
g50
NtRp837
(dp838
g53
(dp839
sg62
g824
sg55
(lp840
g48
(g49
g50
NtRp841
(dp842
g53
(dp843
g61
I4
ssg62
g837
sg55
(lp844
S'Rocket 1.2.4'
p845
asbasbasbag48
(g64
g50
NtRp846
(dp847
g53
(dp848
sg62
g250
sg55
(lp849
g48
(g69
g50
NtRp850
(dp851
g53
(dp852
g73
g74
ssg62
g846
sg55
(lp853
S'web2py_crontype'
p854
asbag48
(g69
g50
NtRp855
(dp856
g53
(dp857
g80
g81
ssg62
g846
sg55
(lp858
S':'
asbag48
(g69
g50
NtRp859
(dp860
g53
(dp861
sg62
g846
sg55
(lp862
g48
(g49
g50
NtRp863
(dp864
g53
(dp865
g61
I4
ssg62
g859
sg55
(lp866
S'hard'
p867
asbasbasbag48
(g64
g50
NtRp868
(dp869
g53
(dp870
sg62
g250
sg55
(lp871
g48
(g69
g50
NtRp872
(dp873
g53
(dp874
g73
g74
ssg62
g868
sg55
(lp875
S'web2py_path'
p876
asbag48
(g69
g50
NtRp877
(dp878
g53
(dp879
g80
g81
ssg62
g868
sg55
(lp880
S':'
asbag48
(g69
g50
NtRp881
(dp882
g53
(dp883
sg62
g868
sg55
(lp884
g48
(g49
g50
NtRp885
(dp886
g53
(dp887
g61
I4
ssg62
g881
sg55
(lp888
g297
asbasbasbag48
(g64
g50
NtRp889
(dp890
g53
(dp891
sg62
g250
sg55
(lp892
g48
(g69
g50
NtRp893
(dp894
g53
(dp895
g73
g74
ssg62
g889
sg55
(lp896
S'web2py_version'
p897
asbag48
(g69
g50
NtRp898
(dp899
g53
(dp900
g80
g81
ssg62
g889
sg55
(lp901
S':'
asbag48
(g69
g50
NtRp902
(dp903
g53
(dp904
sg62
g889
sg55
(lp905
g48
(g49
g50
NtRp906
(dp907
g53
(dp908
g61
I4
ssg62
g902
sg55
(lp909
g48
(g57
g50
NtRp910
(dp911
g53
(dp912
g61
I3
ssg62
Nsg55
(lp913
g48
(g64
g50
NtRp914
(dp915
g53
(dp916
sg62
g910
sg55
(lp917
g48
(g69
g50
NtRp918
(dp919
g53
(dp920
sg62
g914
sg55
(lp921
g48
(g49
g50
NtRp922
(dp923
g53
(dp924
g61
I3
ssg62
g918
sg55
(lp925
S'1'
asbasbasbag48
(g64
g50
NtRp926
(dp927
g53
(dp928
sg62
g910
sg55
(lp929
g48
(g69
g50
NtRp930
(dp931
g53
(dp932
sg62
g926
sg55
(lp933
g48
(g49
g50
NtRp934
(dp935
g53
(dp936
g61
I3
ssg62
g930
sg55
(lp937
S'99'
p938
asbasbasbag48
(g64
g50
NtRp939
(dp940
g53
(dp941
sg62
g910
sg55
(lp942
g48
(g69
g50
NtRp943
(dp944
g53
(dp945
sg62
g939
sg55
(lp946
g48
(g49
g50
NtRp947
(dp948
g53
(dp949
g61
I3
ssg62
g943
sg55
(lp950
S'2'
asbasbasbag48
(g64
g50
NtRp951
(dp952
g53
(dp953
sg62
g910
sg55
(lp954
g48
(g69
g50
NtRp955
(dp956
g53
(dp957
sg62
g951
sg55
(lp958
g48
(g49
g50
NtRp959
(dp960
g53
(dp961
g61
I3
ssg62
g955
sg55
(lp962
S'datetime.datetime(2011, 9, 26, 6, 55, 33)'
p963
asbasbasbag48
(g64
g50
NtRp964
(dp965
g53
(dp966
sg62
g910
sg55
(lp967
g48
(g69
g50
NtRp968
(dp969
g53
(dp970
sg62
g964
sg55
(lp971
g48
(g49
g50
NtRp972
(dp973
g53
(dp974
g61
I3
ssg62
g968
sg55
(lp975
S'stable'
p976
asbasbasbasbasbasbasbag48
(g64
g50
NtRp977
(dp978
g53
(dp979
sg62
g250
sg55
(lp980
g48
(g69
g50
NtRp981
(dp982
g53
(dp983
g73
g74
ssg62
g977
sg55
(lp984
S'wsgi_errors'
p985
asbag48
(g69
g50
NtRp986
(dp987
g53
(dp988
g80
g81
ssg62
g977
sg55
(lp989
S':'
asbag48
(g69
g50
NtRp990
(dp991
g53
(dp992
sg62
g977
sg55
(lp993
g48
(g49
g50
NtRp994
(dp995
g53
(dp996
g61
I4
ssg62
g990
sg55
(lp997
S"<open file '<stderr>', mode 'w' at 0x004200B0>"
p998
asbasbasbag48
(g64
g50
NtRp999
(dp1000
g53
(dp1001
sg62
g250
sg55
(lp1002
g48
(g69
g50
NtRp1003
(dp1004
g53
(dp1005
g73
g74
ssg62
g999
sg55
(lp1006
S'wsgi_file_wrapper'
p1007
asbag48
(g69
g50
NtRp1008
(dp1009
g53
(dp1010
g80
g81
ssg62
g999
sg55
(lp1011
S':'
asbag48
(g69
g50
NtRp1012
(dp1013
g53
(dp1014
sg62
g999
sg55
(lp1015
g48
(g49
g50
NtRp1016
(dp1017
g53
(dp1018
g61
I4
ssg62
g1012
sg55
(lp1019
S'<class wsgiref.util.FileWrapper at 0x0303FC90>'
p1020
asbasbasbag48
(g64
g50
NtRp1021
(dp1022
g53
(dp1023
sg62
g250
sg55
(lp1024
g48
(g69
g50
NtRp1025
(dp1026
g53
(dp1027
g73
g74
ssg62
g1021
sg55
(lp1028
S'wsgi_input'
p1029
asbag48
(g69
g50
NtRp1030
(dp1031
g53
(dp1032
g80
g81
ssg62
g1021
sg55
(lp1033
S':'
asbag48
(g69
g50
NtRp1034
(dp1035
g53
(dp1036
sg62
g1021
sg55
(lp1037
g48
(g49
g50
NtRp1038
(dp1039
g53
(dp1040
g61
I4
ssg62
g1034
sg55
(lp1041
S'<socket._fileobject object at 0x06E37530>'
p1042
asbasbasbag48
(g64
g50
NtRp1043
(dp1044
g53
(dp1045
sg62
g250
sg55
(lp1046
g48
(g69
g50
NtRp1047
(dp1048
g53
(dp1049
g73
g74
ssg62
g1043
sg55
(lp1050
S'wsgi_multiprocess'
p1051
asbag48
(g69
g50
NtRp1052
(dp1053
g53
(dp1054
g80
g81
ssg62
g1043
sg55
(lp1055
S':'
asbag48
(g69
g50
NtRp1056
(dp1057
g53
(dp1058
sg62
g1043
sg55
(lp1059
g48
(g49
g50
NtRp1060
(dp1061
g53
(dp1062
g61
I4
ssg62
g1056
sg55
(lp1063
g91
asbasbasbag48
(g64
g50
NtRp1064
(dp1065
g53
(dp1066
sg62
g250
sg55
(lp1067
g48
(g69
g50
NtRp1068
(dp1069
g53
(dp1070
g73
g74
ssg62
g1064
sg55
(lp1071
S'wsgi_multithread'
p1072
asbag48
(g69
g50
NtRp1073
(dp1074
g53
(dp1075
g80
g81
ssg62
g1064
sg55
(lp1076
S':'
asbag48
(g69
g50
NtRp1077
(dp1078
g53
(dp1079
sg62
g1064
sg55
(lp1080
g48
(g49
g50
NtRp1081
(dp1082
g53
(dp1083
g61
I4
ssg62
g1077
sg55
(lp1084
S'True'
p1085
asbasbasbag48
(g64
g50
NtRp1086
(dp1087
g53
(dp1088
sg62
g250
sg55
(lp1089
g48
(g69
g50
NtRp1090
(dp1091
g53
(dp1092
g73
g74
ssg62
g1086
sg55
(lp1093
S'wsgi_run_once'
p1094
asbag48
(g69
g50
NtRp1095
(dp1096
g53
(dp1097
g80
g81
ssg62
g1086
sg55
(lp1098
S':'
asbag48
(g69
g50
NtRp1099
(dp1100
g53
(dp1101
sg62
g1086
sg55
(lp1102
g48
(g49
g50
NtRp1103
(dp1104
g53
(dp1105
g61
I4
ssg62
g1099
sg55
(lp1106
g91
asbasbasbag48
(g64
g50
NtRp1107
(dp1108
g53
(dp1109
sg62
g250
sg55
(lp1110
g48
(g69
g50
NtRp1111
(dp1112
g53
(dp1113
g73
g74
ssg62
g1107
sg55
(lp1114
S'wsgi_url_scheme'
p1115
asbag48
(g69
g50
NtRp1116
(dp1117
g53
(dp1118
g80
g81
ssg62
g1107
sg55
(lp1119
S':'
asbag48
(g69
g50
NtRp1120
(dp1121
g53
(dp1122
sg62
g1107
sg55
(lp1123
g48
(g49
g50
NtRp1124
(dp1125
g53
(dp1126
g61
I4
ssg62
g1120
sg55
(lp1127
S'http'
p1128
asbasbasbag48
(g64
g50
NtRp1129
(dp1130
g53
(dp1131
sg62
g250
sg55
(lp1132
g48
(g69
g50
NtRp1133
(dp1134
g53
(dp1135
g73
g74
ssg62
g1129
sg55
(lp1136
S'wsgi_version'
p1137
asbag48
(g69
g50
NtRp1138
(dp1139
g53
(dp1140
g80
g81
ssg62
g1129
sg55
(lp1141
S':'
asbag48
(g69
g50
NtRp1142
(dp1143
g53
(dp1144
sg62
g1129
sg55
(lp1145
g48
(g49
g50
NtRp1146
(dp1147
g53
(dp1148
g61
I4
ssg62
g1142
sg55
(lp1149
g48
(g57
g50
NtRp1150
(dp1151
g53
(dp1152
g61
I3
ssg62
Nsg55
(lp1153
g48
(g64
g50
NtRp1154
(dp1155
g53
(dp1156
sg62
g1150
sg55
(lp1157
g48
(g69
g50
NtRp1158
(dp1159
g53
(dp1160
sg62
g1154
sg55
(lp1161
g48
(g49
g50
NtRp1162
(dp1163
g53
(dp1164
g61
I3
ssg62
g1158
sg55
(lp1165
S'1'
asbasbasbag48
(g64
g50
NtRp1166
(dp1167
g53
(dp1168
sg62
g1150
sg55
(lp1169
g48
(g69
g50
NtRp1170
(dp1171
g53
(dp1172
sg62
g1166
sg55
(lp1173
g48
(g49
g50
NtRp1174
(dp1175
g53
(dp1176
g61
I3
ssg62
g1170
sg55
(lp1177
S'0'
asbasbasbasbasbasbasbasbasbasbasbag48
(g64
g50
NtRp1178
(dp1179
g53
(dp1180
sg62
g58
sg55
(lp1181
g48
(g69
g50
NtRp1182
(dp1183
g53
(dp1184
g73
g74
ssg62
g1178
sg55
(lp1185
S'extension'
p1186
asbag48
(g69
g50
NtRp1187
(dp1188
g53
(dp1189
g80
g81
ssg62
g1178
sg55
(lp1190
S':'
asbag48
(g69
g50
NtRp1191
(dp1192
g53
(dp1193
sg62
g1178
sg55
(lp1194
g48
(g49
g50
NtRp1195
(dp1196
g53
(dp1197
g61
I5
ssg62
g1191
sg55
(lp1198
S'html'
p1199
asbasbasbag48
(g64
g50
NtRp1200
(dp1201
g53
(dp1202
sg62
g58
sg55
(lp1203
g48
(g69
g50
NtRp1204
(dp1205
g53
(dp1206
g73
g74
ssg62
g1200
sg55
(lp1207
S'folder'
p1208
asbag48
(g69
g50
NtRp1209
(dp1210
g53
(dp1211
g80
g81
ssg62
g1200
sg55
(lp1212
S':'
asbag48
(g69
g50
NtRp1213
(dp1214
g53
(dp1215
sg62
g1200
sg55
(lp1216
g48
(g49
g50
NtRp1217
(dp1218
g53
(dp1219
g61
I5
ssg62
g1213
sg55
(lp1220
S'C:\\Users\\Gary\\Desktop\\web2py\\applications\\Casa_de_Apuestas\\'
p1221
asbasbasbag48
(g64
g50
NtRp1222
(dp1223
g53
(dp1224
sg62
g58
sg55
(lp1225
g48
(g69
g50
NtRp1226
(dp1227
g53
(dp1228
g73
g74
ssg62
g1222
sg55
(lp1229
S'function'
p1230
asbag48
(g69
g50
NtRp1231
(dp1232
g53
(dp1233
g80
g81
ssg62
g1222
sg55
(lp1234
S':'
asbag48
(g69
g50
NtRp1235
(dp1236
g53
(dp1237
sg62
g1222
sg55
(lp1238
g48
(g49
g50
NtRp1239
(dp1240
g53
(dp1241
g61
I5
ssg62
g1235
sg55
(lp1242
S'prueba_xml'
p1243
asbasbasbag48
(g64
g50
NtRp1244
(dp1245
g53
(dp1246
sg62
g58
sg55
(lp1247
g48
(g69
g50
NtRp1248
(dp1249
g53
(dp1250
g73
g74
ssg62
g1244
sg55
(lp1251
S'get_vars'
p1252
asbag48
(g69
g50
NtRp1253
(dp1254
g53
(dp1255
g80
g81
ssg62
g1244
sg55
(lp1256
S':'
asbag48
(g69
g50
NtRp1257
(dp1258
g53
(dp1259
sg62
g1244
sg55
(lp1260
g48
(g49
g50
NtRp1261
(dp1262
g53
(dp1263
g61
I5
ssg62
g1257
sg55
(lp1264
g48
(g57
g50
NtRp1265
(dp1266
g53
(dp1267
g61
I4
ssg62
Nsg55
(lp1268
sbasbasbasbag48
(g64
g50
NtRp1269
(dp1270
g53
(dp1271
sg62
g58
sg55
(lp1272
g48
(g69
g50
NtRp1273
(dp1274
g53
(dp1275
g73
g74
ssg62
g1269
sg55
(lp1276
S'global_settings'
p1277
asbag48
(g69
g50
NtRp1278
(dp1279
g53
(dp1280
g80
g81
ssg62
g1269
sg55
(lp1281
S':'
asbag48
(g69
g50
NtRp1282
(dp1283
g53
(dp1284
sg62
g1269
sg55
(lp1285
g48
(g49
g50
NtRp1286
(dp1287
g53
(dp1288
g61
I5
ssg62
g1282
sg55
(lp1289
g48
(g57
g50
NtRp1290
(dp1291
g53
(dp1292
g61
I4
ssg62
Nsg55
(lp1293
g48
(g64
g50
NtRp1294
(dp1295
g53
(dp1296
sg62
g1290
sg55
(lp1297
g48
(g69
g50
NtRp1298
(dp1299
g53
(dp1300
g73
g74
ssg62
g1294
sg55
(lp1301
g262
asbag48
(g69
g50
NtRp1302
(dp1303
g53
(dp1304
g80
g81
ssg62
g1294
sg55
(lp1305
S':'
asbag48
(g69
g50
NtRp1306
(dp1307
g53
(dp1308
sg62
g1294
sg55
(lp1309
g48
(g49
g50
NtRp1310
(dp1311
g53
(dp1312
g61
I4
ssg62
g1306
sg55
(lp1313
S"set(['C:\\\\Users\\\\Gary\\\\Desktop\\\\web2py\\\\applications\\\\Casa_de_Apuestas\\\\', 'C:\\\\Users\\\\Gary\\\\Desktop\\\\web2py\\\\applications\\\\welcome\\\\', 'C:\\\\Users\\\\Gary\\\\Desktop\\\\web2py\\\\applications\\\\admin\\\\'])"
p1314
asbasbasbag48
(g64
g50
NtRp1315
(dp1316
g53
(dp1317
sg62
g1290
sg55
(lp1318
g48
(g69
g50
NtRp1319
(dp1320
g53
(dp1321
g73
g74
ssg62
g1315
sg55
(lp1322
g284
asbag48
(g69
g50
NtRp1323
(dp1324
g53
(dp1325
g80
g81
ssg62
g1315
sg55
(lp1326
S':'
asbag48
(g69
g50
NtRp1327
(dp1328
g53
(dp1329
sg62
g1315
sg55
(lp1330
g48
(g49
g50
NtRp1331
(dp1332
g53
(dp1333
g61
I4
ssg62
g1327
sg55
(lp1334
g297
asbasbasbag48
(g64
g50
NtRp1335
(dp1336
g53
(dp1337
sg62
g1290
sg55
(lp1338
g48
(g69
g50
NtRp1339
(dp1340
g53
(dp1341
g73
g74
ssg62
g1335
sg55
(lp1342
g306
asbag48
(g69
g50
NtRp1343
(dp1344
g53
(dp1345
g80
g81
ssg62
g1335
sg55
(lp1346
S':'
asbag48
(g69
g50
NtRp1347
(dp1348
g53
(dp1349
sg62
g1335
sg55
(lp1350
g48
(g49
g50
NtRp1351
(dp1352
g53
(dp1353
g61
I4
ssg62
g1347
sg55
(lp1354
g48
(g57
g50
NtRp1355
(dp1356
g53
(dp1357
g61
I3
ssg62
Nsg55
(lp1358
sbasbasbasbag48
(g64
g50
NtRp1359
(dp1360
g53
(dp1361
sg62
g1290
sg55
(lp1362
g48
(g69
g50
NtRp1363
(dp1364
g53
(dp1365
g73
g74
ssg62
g1359
sg55
(lp1366
g331
asbag48
(g69
g50
NtRp1367
(dp1368
g53
(dp1369
g80
g81
ssg62
g1359
sg55
(lp1370
S':'
asbag48
(g69
g50
NtRp1371
(dp1372
g53
(dp1373
sg62
g1359
sg55
(lp1374
g48
(g49
g50
NtRp1375
(dp1376
g53
(dp1377
g61
I4
ssg62
g1371
sg55
(lp1378
S"<Values at 0x32a2e90: {'verbose': False, 'ip': '127.0.0.1', 'shutdown_timeout': 5, 'taskbar': False, 'nocron': False, 'pid_filename': 'httpserver.pid', 'maxthreads': None, 'softcron': False, 'server_name': 'GABM', 'bpython': False, 'nogui': False, 'port': 8000, 'extcron': False, 'debuglevel': 30, 'test': None, 'folder': 'C:\\\\Users\\\\Gary\\\\Desktop\\\\web2py', 'config': '', 'import_models': False, 'winservice': '', 'shell': None, 'run': '', 'log_filename': 'httpserver.log', 'args': [''], 'ssl_ca_certificate': None, 'scheduler': None, 'profiler_filename': None, 'ssl_private_key': '', 'password': '<ask>', 'request_queue_size': 5, 'ssl_certificate': '', 'cronjob': False, 'plain': False, 'quiet': False, 'interfaces': None, 'minthreads': None, 'timeout': 10, 'numthreads': None, 'nobanner': False}>"
p1379
asbasbasbag48
(g64
g50
NtRp1380
(dp1381
g53
(dp1382
sg62
g1290
sg55
(lp1383
g48
(g69
g50
NtRp1384
(dp1385
g53
(dp1386
g73
g74
ssg62
g1380
sg55
(lp1387
g353
asbag48
(g69
g50
NtRp1388
(dp1389
g53
(dp1390
g80
g81
ssg62
g1380
sg55
(lp1391
S':'
asbag48
(g69
g50
NtRp1392
(dp1393
g53
(dp1394
sg62
g1380
sg55
(lp1395
g48
(g49
g50
NtRp1396
(dp1397
g53
(dp1398
g61
I4
ssg62
g1392
sg55
(lp1399
S'set([])'
p1400
asbasbasbag48
(g64
g50
NtRp1401
(dp1402
g53
(dp1403
sg62
g1290
sg55
(lp1404
g48
(g69
g50
NtRp1405
(dp1406
g53
(dp1407
g73
g74
ssg62
g1401
sg55
(lp1408
g375
asbag48
(g69
g50
NtRp1409
(dp1410
g53
(dp1411
g80
g81
ssg62
g1401
sg55
(lp1412
S':'
asbag48
(g69
g50
NtRp1413
(dp1414
g53
(dp1415
sg62
g1401
sg55
(lp1416
g48
(g49
g50
NtRp1417
(dp1418
g53
(dp1419
g61
I4
ssg62
g1413
sg55
(lp1420
g91
asbasbasbag48
(g64
g50
NtRp1421
(dp1422
g53
(dp1423
sg62
g1290
sg55
(lp1424
g48
(g69
g50
NtRp1425
(dp1426
g53
(dp1427
g73
g74
ssg62
g1421
sg55
(lp1428
g396
asbag48
(g69
g50
NtRp1429
(dp1430
g53
(dp1431
g80
g81
ssg62
g1421
sg55
(lp1432
S':'
asbag48
(g69
g50
NtRp1433
(dp1434
g53
(dp1435
sg62
g1421
sg55
(lp1436
g48
(g49
g50
NtRp1437
(dp1438
g53
(dp1439
g61
I4
ssg62
g1433
sg55
(lp1440
g409
asbasbasbag48
(g64
g50
NtRp1441
(dp1442
g53
(dp1443
sg62
g1290
sg55
(lp1444
g48
(g69
g50
NtRp1445
(dp1446
g53
(dp1447
g73
g74
ssg62
g1441
sg55
(lp1448
g616
asbag48
(g69
g50
NtRp1449
(dp1450
g53
(dp1451
g80
g81
ssg62
g1441
sg55
(lp1452
S':'
asbag48
(g69
g50
NtRp1453
(dp1454
g53
(dp1455
sg62
g1441
sg55
(lp1456
g48
(g49
g50
NtRp1457
(dp1458
g53
(dp1459
g61
I4
ssg62
g1453
sg55
(lp1460
g91
asbasbasbag48
(g64
g50
NtRp1461
(dp1462
g53
(dp1463
sg62
g1290
sg55
(lp1464
g48
(g69
g50
NtRp1465
(dp1466
g53
(dp1467
g73
g74
ssg62
g1461
sg55
(lp1468
g854
asbag48
(g69
g50
NtRp1469
(dp1470
g53
(dp1471
g80
g81
ssg62
g1461
sg55
(lp1472
S':'
asbag48
(g69
g50
NtRp1473
(dp1474
g53
(dp1475
sg62
g1461
sg55
(lp1476
g48
(g49
g50
NtRp1477
(dp1478
g53
(dp1479
g61
I4
ssg62
g1473
sg55
(lp1480
g867
asbasbasbag48
(g64
g50
NtRp1481
(dp1482
g53
(dp1483
sg62
g1290
sg55
(lp1484
g48
(g69
g50
NtRp1485
(dp1486
g53
(dp1487
g73
g74
ssg62
g1481
sg55
(lp1488
g897
asbag48
(g69
g50
NtRp1489
(dp1490
g53
(dp1491
g80
g81
ssg62
g1481
sg55
(lp1492
S':'
asbag48
(g69
g50
NtRp1493
(dp1494
g53
(dp1495
sg62
g1481
sg55
(lp1496
g48
(g49
g50
NtRp1497
(dp1498
g53
(dp1499
g61
I4
ssg62
g1493
sg55
(lp1500
g48
(g57
g50
NtRp1501
(dp1502
g53
(dp1503
g61
I3
ssg62
Nsg55
(lp1504
g48
(g64
g50
NtRp1505
(dp1506
g53
(dp1507
sg62
g1501
sg55
(lp1508
g48
(g69
g50
NtRp1509
(dp1510
g53
(dp1511
sg62
g1505
sg55
(lp1512
g48
(g49
g50
NtRp1513
(dp1514
g53
(dp1515
g61
I3
ssg62
g1509
sg55
(lp1516
S'1'
asbasbasbag48
(g64
g50
NtRp1517
(dp1518
g53
(dp1519
sg62
g1501
sg55
(lp1520
g48
(g69
g50
NtRp1521
(dp1522
g53
(dp1523
sg62
g1517
sg55
(lp1524
g48
(g49
g50
NtRp1525
(dp1526
g53
(dp1527
g61
I3
ssg62
g1521
sg55
(lp1528
S'99'
p1529
asbasbasbag48
(g64
g50
NtRp1530
(dp1531
g53
(dp1532
sg62
g1501
sg55
(lp1533
g48
(g69
g50
NtRp1534
(dp1535
g53
(dp1536
sg62
g1530
sg55
(lp1537
g48
(g49
g50
NtRp1538
(dp1539
g53
(dp1540
g61
I3
ssg62
g1534
sg55
(lp1541
S'2'
asbasbasbag48
(g64
g50
NtRp1542
(dp1543
g53
(dp1544
sg62
g1501
sg55
(lp1545
g48
(g69
g50
NtRp1546
(dp1547
g53
(dp1548
sg62
g1542
sg55
(lp1549
g48
(g49
g50
NtRp1550
(dp1551
g53
(dp1552
g61
I3
ssg62
g1546
sg55
(lp1553
S'datetime.datetime(2011, 9, 26, 6, 55, 33)'
p1554
asbasbasbag48
(g64
g50
NtRp1555
(dp1556
g53
(dp1557
sg62
g1501
sg55
(lp1558
g48
(g69
g50
NtRp1559
(dp1560
g53
(dp1561
sg62
g1555
sg55
(lp1562
g48
(g49
g50
NtRp1563
(dp1564
g53
(dp1565
g61
I3
ssg62
g1559
sg55
(lp1566
g976
asbasbasbasbasbasbasbasbasbasbasbag48
(g64
g50
NtRp1567
(dp1568
g53
(dp1569
sg62
g58
sg55
(lp1570
g48
(g69
g50
NtRp1571
(dp1572
g53
(dp1573
g73
g74
ssg62
g1567
sg55
(lp1574
S'is_https'
p1575
asbag48
(g69
g50
NtRp1576
(dp1577
g53
(dp1578
g80
g81
ssg62
g1567
sg55
(lp1579
S':'
asbag48
(g69
g50
NtRp1580
(dp1581
g53
(dp1582
sg62
g1567
sg55
(lp1583
g48
(g49
g50
NtRp1584
(dp1585
g53
(dp1586
g61
I5
ssg62
g1580
sg55
(lp1587
g91
asbasbasbag48
(g64
g50
NtRp1588
(dp1589
g53
(dp1590
sg62
g58
sg55
(lp1591
g48
(g69
g50
NtRp1592
(dp1593
g53
(dp1594
g73
g74
ssg62
g1588
sg55
(lp1595
S'is_local'
p1596
asbag48
(g69
g50
NtRp1597
(dp1598
g53
(dp1599
g80
g81
ssg62
g1588
sg55
(lp1600
S':'
asbag48
(g69
g50
NtRp1601
(dp1602
g53
(dp1603
sg62
g1588
sg55
(lp1604
g48
(g49
g50
NtRp1605
(dp1606
g53
(dp1607
g61
I5
ssg62
g1601
sg55
(lp1608
g1085
asbasbasbag48
(g64
g50
NtRp1609
(dp1610
g53
(dp1611
sg62
g58
sg55
(lp1612
g48
(g69
g50
NtRp1613
(dp1614
g53
(dp1615
g73
g74
ssg62
g1609
sg55
(lp1616
S'is_restful'
p1617
asbag48
(g69
g50
NtRp1618
(dp1619
g53
(dp1620
g80
g81
ssg62
g1609
sg55
(lp1621
S':'
asbag48
(g69
g50
NtRp1622
(dp1623
g53
(dp1624
sg62
g1609
sg55
(lp1625
g48
(g49
g50
NtRp1626
(dp1627
g53
(dp1628
g61
I5
ssg62
g1622
sg55
(lp1629
g91
asbasbasbag48
(g64
g50
NtRp1630
(dp1631
g53
(dp1632
sg62
g58
sg55
(lp1633
g48
(g69
g50
NtRp1634
(dp1635
g53
(dp1636
g73
g74
ssg62
g1630
sg55
(lp1637
S'now'
p1638
asbag48
(g69
g50
NtRp1639
(dp1640
g53
(dp1641
g80
g81
ssg62
g1630
sg55
(lp1642
S':'
asbag48
(g69
g50
NtRp1643
(dp1644
g53
(dp1645
sg62
g1630
sg55
(lp1646
g48
(g49
g50
NtRp1647
(dp1648
g53
(dp1649
g61
I5
ssg62
g1643
sg55
(lp1650
S'datetime.datetime(2011, 11, 18, 23, 30, 48, 860000)'
p1651
asbasbasbag48
(g64
g50
NtRp1652
(dp1653
g53
(dp1654
sg62
g58
sg55
(lp1655
g48
(g69
g50
NtRp1656
(dp1657
g53
(dp1658
g73
g74
ssg62
g1652
sg55
(lp1659
S'post_vars'
p1660
asbag48
(g69
g50
NtRp1661
(dp1662
g53
(dp1663
g80
g81
ssg62
g1652
sg55
(lp1664
S':'
asbag48
(g69
g50
NtRp1665
(dp1666
g53
(dp1667
sg62
g1652
sg55
(lp1668
g48
(g49
g50
NtRp1669
(dp1670
g53
(dp1671
g61
I5
ssg62
g1665
sg55
(lp1672
g48
(g57
g50
NtRp1673
(dp1674
g53
(dp1675
g61
I4
ssg62
Nsg55
(lp1676
sbasbasbasbag48
(g64
g50
NtRp1677
(dp1678
g53
(dp1679
sg62
g58
sg55
(lp1680
g48
(g69
g50
NtRp1681
(dp1682
g53
(dp1683
g73
g74
ssg62
g1677
sg55
(lp1684
S'url'
p1685
asbag48
(g69
g50
NtRp1686
(dp1687
g53
(dp1688
g80
g81
ssg62
g1677
sg55
(lp1689
S':'
asbag48
(g69
g50
NtRp1690
(dp1691
g53
(dp1692
sg62
g1677
sg55
(lp1693
g48
(g49
g50
NtRp1694
(dp1695
g53
(dp1696
g61
I5
ssg62
g1690
sg55
(lp1697
S'/Casa_de_Apuestas/default/prueba_xml'
p1698
asbasbasbag48
(g64
g50
NtRp1699
(dp1700
g53
(dp1701
sg62
g58
sg55
(lp1702
g48
(g69
g50
NtRp1703
(dp1704
g53
(dp1705
g73
g74
ssg62
g1699
sg55
(lp1706
S'utcnow'
p1707
asbag48
(g69
g50
NtRp1708
(dp1709
g53
(dp1710
g80
g81
ssg62
g1699
sg55
(lp1711
S':'
asbag48
(g69
g50
NtRp1712
(dp1713
g53
(dp1714
sg62
g1699
sg55
(lp1715
g48
(g49
g50
NtRp1716
(dp1717
g53
(dp1718
g61
I5
ssg62
g1712
sg55
(lp1719
S'datetime.datetime(2011, 11, 19, 4, 0, 48, 865000)'
p1720
asbasbasbag48
(g64
g50
NtRp1721
(dp1722
g53
(dp1723
sg62
g58
sg55
(lp1724
g48
(g69
g50
NtRp1725
(dp1726
g53
(dp1727
g73
g74
ssg62
g1721
sg55
(lp1728
S'uuid'
p1729
asbag48
(g69
g50
NtRp1730
(dp1731
g53
(dp1732
g80
g81
ssg62
g1721
sg55
(lp1733
S':'
asbag48
(g69
g50
NtRp1734
(dp1735
g53
(dp1736
sg62
g1721
sg55
(lp1737
g48
(g49
g50
NtRp1738
(dp1739
g53
(dp1740
g61
I5
ssg62
g1734
sg55
(lp1741
S'Casa_de_Apuestas/127.0.0.1.2011-11-18.23-30-48.6ccd9fcb-9d6e-4e04-bea9-f3d2200e2569'
p1742
asbasbasbag48
(g64
g50
NtRp1743
(dp1744
g53
(dp1745
sg62
g58
sg55
(lp1746
g48
(g69
g50
NtRp1747
(dp1748
g53
(dp1749
g73
g74
ssg62
g1743
sg55
(lp1750
S'vars'
p1751
asbag48
(g69
g50
NtRp1752
(dp1753
g53
(dp1754
g80
g81
ssg62
g1743
sg55
(lp1755
S':'
asbag48
(g69
g50
NtRp1756
(dp1757
g53
(dp1758
sg62
g1743
sg55
(lp1759
g48
(g49
g50
NtRp1760
(dp1761
g53
(dp1762
g61
I5
ssg62
g1756
sg55
(lp1763
g48
(g57
g50
NtRp1764
(dp1765
g53
(dp1766
g61
I4
ssg62
Nsg55
(lp1767
sbasbasbasbag48
(g64
g50
NtRp1768
(dp1769
g53
(dp1770
sg62
g58
sg55
(lp1771
g48
(g69
g50
NtRp1772
(dp1773
g53
(dp1774
g73
g74
ssg62
g1768
sg55
(lp1775
S'wsgi'
p1776
asbag48
(g69
g50
NtRp1777
(dp1778
g53
(dp1779
g80
g81
ssg62
g1768
sg55
(lp1780
S':'
asbag48
(g69
g50
NtRp1781
(dp1782
g53
(dp1783
sg62
g1768
sg55
(lp1784
g48
(g49
g50
NtRp1785
(dp1786
g53
(dp1787
g61
I5
ssg62
g1781
sg55
(lp1788
g48
(g57
g50
NtRp1789
(dp1790
g53
(dp1791
g61
I4
ssg62
Nsg55
(lp1792
g48
(g64
g50
NtRp1793
(dp1794
g53
(dp1795
sg62
g1789
sg55
(lp1796
g48
(g69
g50
NtRp1797
(dp1798
g53
(dp1799
g73
g74
ssg62
g1793
sg55
(lp1800
S'environ'
p1801
asbag48
(g69
g50
NtRp1802
(dp1803
g53
(dp1804
g80
g81
ssg62
g1793
sg55
(lp1805
S':'
asbag48
(g69
g50
NtRp1806
(dp1807
g53
(dp1808
sg62
g1793
sg55
(lp1809
g48
(g49
g50
NtRp1810
(dp1811
g53
(dp1812
g61
I4
ssg62
g1806
sg55
(lp1813
g48
(g57
g50
NtRp1814
(dp1815
g53
(dp1816
g61
I3
ssg62
Nsg55
(lp1817
g48
(g64
g50
NtRp1818
(dp1819
g53
(dp1820
sg62
g1814
sg55
(lp1821
g48
(g69
g50
NtRp1822
(dp1823
g53
(dp1824
g73
g74
ssg62
g1818
sg55
(lp1825
S'HTTP_ACCEPT'
p1826
asbag48
(g69
g50
NtRp1827
(dp1828
g53
(dp1829
g80
g81
ssg62
g1818
sg55
(lp1830
S':'
asbag48
(g69
g50
NtRp1831
(dp1832
g53
(dp1833
sg62
g1818
sg55
(lp1834
g48
(g49
g50
NtRp1835
(dp1836
g53
(dp1837
g61
I3
ssg62
g1831
sg55
(lp1838
g431
asbasbasbag48
(g64
g50
NtRp1839
(dp1840
g53
(dp1841
sg62
g1814
sg55
(lp1842
g48
(g69
g50
NtRp1843
(dp1844
g53
(dp1845
g73
g74
ssg62
g1839
sg55
(lp1846
S'HTTP_ACCEPT_CHARSET'
p1847
asbag48
(g69
g50
NtRp1848
(dp1849
g53
(dp1850
g80
g81
ssg62
g1839
sg55
(lp1851
S':'
asbag48
(g69
g50
NtRp1852
(dp1853
g53
(dp1854
sg62
g1839
sg55
(lp1855
g48
(g49
g50
NtRp1856
(dp1857
g53
(dp1858
g61
I3
ssg62
g1852
sg55
(lp1859
g453
asbasbasbag48
(g64
g50
NtRp1860
(dp1861
g53
(dp1862
sg62
g1814
sg55
(lp1863
g48
(g69
g50
NtRp1864
(dp1865
g53
(dp1866
g73
g74
ssg62
g1860
sg55
(lp1867
S'HTTP_ACCEPT_ENCODING'
p1868
asbag48
(g69
g50
NtRp1869
(dp1870
g53
(dp1871
g80
g81
ssg62
g1860
sg55
(lp1872
S':'
asbag48
(g69
g50
NtRp1873
(dp1874
g53
(dp1875
sg62
g1860
sg55
(lp1876
g48
(g49
g50
NtRp1877
(dp1878
g53
(dp1879
g61
I3
ssg62
g1873
sg55
(lp1880
g475
asbasbasbag48
(g64
g50
NtRp1881
(dp1882
g53
(dp1883
sg62
g1814
sg55
(lp1884
g48
(g69
g50
NtRp1885
(dp1886
g53
(dp1887
g73
g74
ssg62
g1881
sg55
(lp1888
S'HTTP_ACCEPT_LANGUAGE'
p1889
asbag48
(g69
g50
NtRp1890
(dp1891
g53
(dp1892
g80
g81
ssg62
g1881
sg55
(lp1893
S':'
asbag48
(g69
g50
NtRp1894
(dp1895
g53
(dp1896
sg62
g1881
sg55
(lp1897
g48
(g49
g50
NtRp1898
(dp1899
g53
(dp1900
g61
I3
ssg62
g1894
sg55
(lp1901
g497
asbasbasbag48
(g64
g50
NtRp1902
(dp1903
g53
(dp1904
sg62
g1814
sg55
(lp1905
g48
(g69
g50
NtRp1906
(dp1907
g53
(dp1908
g73
g74
ssg62
g1902
sg55
(lp1909
S'HTTP_CONNECTION'
p1910
asbag48
(g69
g50
NtRp1911
(dp1912
g53
(dp1913
g80
g81
ssg62
g1902
sg55
(lp1914
S':'
asbag48
(g69
g50
NtRp1915
(dp1916
g53
(dp1917
sg62
g1902
sg55
(lp1918
g48
(g49
g50
NtRp1919
(dp1920
g53
(dp1921
g61
I3
ssg62
g1915
sg55
(lp1922
g519
asbasbasbag48
(g64
g50
NtRp1923
(dp1924
g53
(dp1925
sg62
g1814
sg55
(lp1926
g48
(g69
g50
NtRp1927
(dp1928
g53
(dp1929
g73
g74
ssg62
g1923
sg55
(lp1930
S'HTTP_COOKIE'
p1931
asbag48
(g69
g50
NtRp1932
(dp1933
g53
(dp1934
g80
g81
ssg62
g1923
sg55
(lp1935
S':'
asbag48
(g69
g50
NtRp1936
(dp1937
g53
(dp1938
sg62
g1923
sg55
(lp1939
g48
(g49
g50
NtRp1940
(dp1941
g53
(dp1942
g61
I3
ssg62
g1936
sg55
(lp1943
g541
asbasbasbag48
(g64
g50
NtRp1944
(dp1945
g53
(dp1946
sg62
g1814
sg55
(lp1947
g48
(g69
g50
NtRp1948
(dp1949
g53
(dp1950
g73
g74
ssg62
g1944
sg55
(lp1951
S'HTTP_HOST'
p1952
asbag48
(g69
g50
NtRp1953
(dp1954
g53
(dp1955
g80
g81
ssg62
g1944
sg55
(lp1956
S':'
asbag48
(g69
g50
NtRp1957
(dp1958
g53
(dp1959
sg62
g1944
sg55
(lp1960
g48
(g49
g50
NtRp1961
(dp1962
g53
(dp1963
g61
I3
ssg62
g1957
sg55
(lp1964
g563
asbasbasbag48
(g64
g50
NtRp1965
(dp1966
g53
(dp1967
sg62
g1814
sg55
(lp1968
g48
(g69
g50
NtRp1969
(dp1970
g53
(dp1971
g73
g74
ssg62
g1965
sg55
(lp1972
S'HTTP_REFERER'
p1973
asbag48
(g69
g50
NtRp1974
(dp1975
g53
(dp1976
g80
g81
ssg62
g1965
sg55
(lp1977
S':'
asbag48
(g69
g50
NtRp1978
(dp1979
g53
(dp1980
sg62
g1965
sg55
(lp1981
g48
(g49
g50
NtRp1982
(dp1983
g53
(dp1984
g61
I3
ssg62
g1978
sg55
(lp1985
g585
asbasbasbag48
(g64
g50
NtRp1986
(dp1987
g53
(dp1988
sg62
g1814
sg55
(lp1989
g48
(g69
g50
NtRp1990
(dp1991
g53
(dp1992
g73
g74
ssg62
g1986
sg55
(lp1993
S'HTTP_USER_AGENT'
p1994
asbag48
(g69
g50
NtRp1995
(dp1996
g53
(dp1997
g80
g81
ssg62
g1986
sg55
(lp1998
S':'
asbag48
(g69
g50
NtRp1999
(dp2000
g53
(dp2001
sg62
g1986
sg55
(lp2002
g48
(g49
g50
NtRp2003
(dp2004
g53
(dp2005
g61
I3
ssg62
g1999
sg55
(lp2006
g607
asbasbasbag48
(g64
g50
NtRp2007
(dp2008
g53
(dp2009
sg62
g1814
sg55
(lp2010
g48
(g69
g50
NtRp2011
(dp2012
g53
(dp2013
g73
g74
ssg62
g2007
sg55
(lp2014
S'PATH_INFO'
p2015
asbag48
(g69
g50
NtRp2016
(dp2017
g53
(dp2018
g80
g81
ssg62
g2007
sg55
(lp2019
S':'
asbag48
(g69
g50
NtRp2020
(dp2021
g53
(dp2022
sg62
g2007
sg55
(lp2023
g48
(g49
g50
NtRp2024
(dp2025
g53
(dp2026
g61
I3
ssg62
g2020
sg55
(lp2027
g650
asbasbasbag48
(g64
g50
NtRp2028
(dp2029
g53
(dp2030
sg62
g1814
sg55
(lp2031
g48
(g69
g50
NtRp2032
(dp2033
g53
(dp2034
g73
g74
ssg62
g2028
sg55
(lp2035
S'QUERY_STRING'
p2036
asbag48
(g69
g50
NtRp2037
(dp2038
g53
(dp2039
g80
g81
ssg62
g2028
sg55
(lp2040
S':'
asbag48
(g69
g50
NtRp2041
(dp2042
g53
(dp2043
sg62
g2028
sg55
(lp2044
g48
(g49
g50
NtRp2045
(dp2046
g53
(dp2047
g61
I3
ssg62
g2041
sg55
(lp2048
S''
asbasbasbag48
(g64
g50
NtRp2049
(dp2050
g53
(dp2051
sg62
g1814
sg55
(lp2052
g48
(g69
g50
NtRp2053
(dp2054
g53
(dp2055
g73
g74
ssg62
g2049
sg55
(lp2056
S'REMOTE_ADDR'
p2057
asbag48
(g69
g50
NtRp2058
(dp2059
g53
(dp2060
g80
g81
ssg62
g2049
sg55
(lp2061
S':'
asbag48
(g69
g50
NtRp2062
(dp2063
g53
(dp2064
sg62
g2049
sg55
(lp2065
g48
(g49
g50
NtRp2066
(dp2067
g53
(dp2068
g61
I3
ssg62
g2062
sg55
(lp2069
g181
asbasbasbag48
(g64
g50
NtRp2070
(dp2071
g53
(dp2072
sg62
g1814
sg55
(lp2073
g48
(g69
g50
NtRp2074
(dp2075
g53
(dp2076
g73
g74
ssg62
g2070
sg55
(lp2077
S'REMOTE_PORT'
p2078
asbag48
(g69
g50
NtRp2079
(dp2080
g53
(dp2081
g80
g81
ssg62
g2070
sg55
(lp2082
S':'
asbag48
(g69
g50
NtRp2083
(dp2084
g53
(dp2085
sg62
g2070
sg55
(lp2086
g48
(g49
g50
NtRp2087
(dp2088
g53
(dp2089
g61
I3
ssg62
g2083
sg55
(lp2090
g714
asbasbasbag48
(g64
g50
NtRp2091
(dp2092
g53
(dp2093
sg62
g1814
sg55
(lp2094
g48
(g69
g50
NtRp2095
(dp2096
g53
(dp2097
g73
g74
ssg62
g2091
sg55
(lp2098
S'REQUEST_METHOD'
p2099
asbag48
(g69
g50
NtRp2100
(dp2101
g53
(dp2102
g80
g81
ssg62
g2091
sg55
(lp2103
S':'
asbag48
(g69
g50
NtRp2104
(dp2105
g53
(dp2106
sg62
g2091
sg55
(lp2107
g48
(g49
g50
NtRp2108
(dp2109
g53
(dp2110
g61
I3
ssg62
g2104
sg55
(lp2111
g736
asbasbasbag48
(g64
g50
NtRp2112
(dp2113
g53
(dp2114
sg62
g1814
sg55
(lp2115
g48
(g69
g50
NtRp2116
(dp2117
g53
(dp2118
g73
g74
ssg62
g2112
sg55
(lp2119
S'SCRIPT_NAME'
p2120
asbag48
(g69
g50
NtRp2121
(dp2122
g53
(dp2123
g80
g81
ssg62
g2112
sg55
(lp2124
S':'
asbag48
(g69
g50
NtRp2125
(dp2126
g53
(dp2127
sg62
g2112
sg55
(lp2128
g48
(g49
g50
NtRp2129
(dp2130
g53
(dp2131
g61
I3
ssg62
g2125
sg55
(lp2132
S''
asbasbasbag48
(g64
g50
NtRp2133
(dp2134
g53
(dp2135
sg62
g1814
sg55
(lp2136
g48
(g69
g50
NtRp2137
(dp2138
g53
(dp2139
g73
g74
ssg62
g2133
sg55
(lp2140
S'SERVER_NAME'
p2141
asbag48
(g69
g50
NtRp2142
(dp2143
g53
(dp2144
g80
g81
ssg62
g2133
sg55
(lp2145
S':'
asbag48
(g69
g50
NtRp2146
(dp2147
g53
(dp2148
sg62
g2133
sg55
(lp2149
g48
(g49
g50
NtRp2150
(dp2151
g53
(dp2152
g61
I3
ssg62
g2146
sg55
(lp2153
g779
asbasbasbag48
(g64
g50
NtRp2154
(dp2155
g53
(dp2156
sg62
g1814
sg55
(lp2157
g48
(g69
g50
NtRp2158
(dp2159
g53
(dp2160
g73
g74
ssg62
g2154
sg55
(lp2161
S'SERVER_PORT'
p2162
asbag48
(g69
g50
NtRp2163
(dp2164
g53
(dp2165
g80
g81
ssg62
g2154
sg55
(lp2166
S':'
asbag48
(g69
g50
NtRp2167
(dp2168
g53
(dp2169
sg62
g2154
sg55
(lp2170
g48
(g49
g50
NtRp2171
(dp2172
g53
(dp2173
g61
I3
ssg62
g2167
sg55
(lp2174
g801
asbasbasbag48
(g64
g50
NtRp2175
(dp2176
g53
(dp2177
sg62
g1814
sg55
(lp2178
g48
(g69
g50
NtRp2179
(dp2180
g53
(dp2181
g73
g74
ssg62
g2175
sg55
(lp2182
S'SERVER_PROTOCOL'
p2183
asbag48
(g69
g50
NtRp2184
(dp2185
g53
(dp2186
g80
g81
ssg62
g2175
sg55
(lp2187
S':'
asbag48
(g69
g50
NtRp2188
(dp2189
g53
(dp2190
sg62
g2175
sg55
(lp2191
g48
(g49
g50
NtRp2192
(dp2193
g53
(dp2194
g61
I3
ssg62
g2188
sg55
(lp2195
g823
asbasbasbag48
(g64
g50
NtRp2196
(dp2197
g53
(dp2198
sg62
g1814
sg55
(lp2199
g48
(g69
g50
NtRp2200
(dp2201
g53
(dp2202
g73
g74
ssg62
g2196
sg55
(lp2203
S'SERVER_SOFTWARE'
p2204
asbag48
(g69
g50
NtRp2205
(dp2206
g53
(dp2207
g80
g81
ssg62
g2196
sg55
(lp2208
S':'
asbag48
(g69
g50
NtRp2209
(dp2210
g53
(dp2211
sg62
g2196
sg55
(lp2212
g48
(g49
g50
NtRp2213
(dp2214
g53
(dp2215
g61
I3
ssg62
g2209
sg55
(lp2216
g845
asbasbasbag48
(g64
g50
NtRp2217
(dp2218
g53
(dp2219
sg62
g1814
sg55
(lp2220
g48
(g69
g50
NtRp2221
(dp2222
g53
(dp2223
g73
g74
ssg62
g2217
sg55
(lp2224
S'wsgi.errors'
p2225
asbag48
(g69
g50
NtRp2226
(dp2227
g53
(dp2228
g80
g81
ssg62
g2217
sg55
(lp2229
S':'
asbag48
(g69
g50
NtRp2230
(dp2231
g53
(dp2232
sg62
g2217
sg55
(lp2233
g48
(g49
g50
NtRp2234
(dp2235
g53
(dp2236
g61
I3
ssg62
g2230
sg55
(lp2237
S"<open file '<stderr>', mode 'w' at 0x004200B0>"
p2238
asbasbasbag48
(g64
g50
NtRp2239
(dp2240
g53
(dp2241
sg62
g1814
sg55
(lp2242
g48
(g69
g50
NtRp2243
(dp2244
g53
(dp2245
g73
g74
ssg62
g2239
sg55
(lp2246
S'wsgi.file_wrapper'
p2247
asbag48
(g69
g50
NtRp2248
(dp2249
g53
(dp2250
g80
g81
ssg62
g2239
sg55
(lp2251
S':'
asbag48
(g69
g50
NtRp2252
(dp2253
g53
(dp2254
sg62
g2239
sg55
(lp2255
g48
(g49
g50
NtRp2256
(dp2257
g53
(dp2258
g61
I3
ssg62
g2252
sg55
(lp2259
S'<class wsgiref.util.FileWrapper at 0x0303FC90>'
p2260
asbasbasbag48
(g64
g50
NtRp2261
(dp2262
g53
(dp2263
sg62
g1814
sg55
(lp2264
g48
(g69
g50
NtRp2265
(dp2266
g53
(dp2267
g73
g74
ssg62
g2261
sg55
(lp2268
S'wsgi.input'
p2269
asbag48
(g69
g50
NtRp2270
(dp2271
g53
(dp2272
g80
g81
ssg62
g2261
sg55
(lp2273
S':'
asbag48
(g69
g50
NtRp2274
(dp2275
g53
(dp2276
sg62
g2261
sg55
(lp2277
g48
(g49
g50
NtRp2278
(dp2279
g53
(dp2280
g61
I3
ssg62
g2274
sg55
(lp2281
S'<cStringIO.StringO object at 0x07579E40>'
p2282
asbasbasbag48
(g64
g50
NtRp2283
(dp2284
g53
(dp2285
sg62
g1814
sg55
(lp2286
g48
(g69
g50
NtRp2287
(dp2288
g53
(dp2289
g73
g74
ssg62
g2283
sg55
(lp2290
S'wsgi.multiprocess'
p2291
asbag48
(g69
g50
NtRp2292
(dp2293
g53
(dp2294
g80
g81
ssg62
g2283
sg55
(lp2295
S':'
asbag48
(g69
g50
NtRp2296
(dp2297
g53
(dp2298
sg62
g2283
sg55
(lp2299
g48
(g49
g50
NtRp2300
(dp2301
g53
(dp2302
g61
I3
ssg62
g2296
sg55
(lp2303
g91
asbasbasbag48
(g64
g50
NtRp2304
(dp2305
g53
(dp2306
sg62
g1814
sg55
(lp2307
g48
(g69
g50
NtRp2308
(dp2309
g53
(dp2310
g73
g74
ssg62
g2304
sg55
(lp2311
S'wsgi.multithread'
p2312
asbag48
(g69
g50
NtRp2313
(dp2314
g53
(dp2315
g80
g81
ssg62
g2304
sg55
(lp2316
S':'
asbag48
(g69
g50
NtRp2317
(dp2318
g53
(dp2319
sg62
g2304
sg55
(lp2320
g48
(g49
g50
NtRp2321
(dp2322
g53
(dp2323
g61
I3
ssg62
g2317
sg55
(lp2324
g1085
asbasbasbag48
(g64
g50
NtRp2325
(dp2326
g53
(dp2327
sg62
g1814
sg55
(lp2328
g48
(g69
g50
NtRp2329
(dp2330
g53
(dp2331
g73
g74
ssg62
g2325
sg55
(lp2332
S'wsgi.run_once'
p2333
asbag48
(g69
g50
NtRp2334
(dp2335
g53
(dp2336
g80
g81
ssg62
g2325
sg55
(lp2337
S':'
asbag48
(g69
g50
NtRp2338
(dp2339
g53
(dp2340
sg62
g2325
sg55
(lp2341
g48
(g49
g50
NtRp2342
(dp2343
g53
(dp2344
g61
I3
ssg62
g2338
sg55
(lp2345
g91
asbasbasbag48
(g64
g50
NtRp2346
(dp2347
g53
(dp2348
sg62
g1814
sg55
(lp2349
g48
(g69
g50
NtRp2350
(dp2351
g53
(dp2352
g73
g74
ssg62
g2346
sg55
(lp2353
S'wsgi.url_scheme'
p2354
asbag48
(g69
g50
NtRp2355
(dp2356
g53
(dp2357
g80
g81
ssg62
g2346
sg55
(lp2358
S':'
asbag48
(g69
g50
NtRp2359
(dp2360
g53
(dp2361
sg62
g2346
sg55
(lp2362
g48
(g49
g50
NtRp2363
(dp2364
g53
(dp2365
g61
I3
ssg62
g2359
sg55
(lp2366
g1128
asbasbasbag48
(g64
g50
NtRp2367
(dp2368
g53
(dp2369
sg62
g1814
sg55
(lp2370
g48
(g69
g50
NtRp2371
(dp2372
g53
(dp2373
g73
g74
ssg62
g2367
sg55
(lp2374
S'wsgi.version'
p2375
asbag48
(g69
g50
NtRp2376
(dp2377
g53
(dp2378
g80
g81
ssg62
g2367
sg55
(lp2379
S':'
asbag48
(g69
g50
NtRp2380
(dp2381
g53
(dp2382
sg62
g2367
sg55
(lp2383
g48
(g49
g50
NtRp2384
(dp2385
g53
(dp2386
g61
I3
ssg62
g2380
sg55
(lp2387
S'1'
asbasbasbasbasbasbasbasbasbasbasbasbasbsS'frames'
p2388
(lp2389
(dp2390
S'file'
p2391
S'C:\\Users\\Gary\\Desktop\\web2py\\gluon\\restricted.py'
p2392
sS'dump'
p2393
(dp2394
sS'lnum'
p2395
I194
sS'lines'
p2396
(dp2397
sS'call'
p2398
S"(code='# -*- coding: utf-8 -*-\\n### required - do no del...rm)\\n\\nresponse._vars=response._caller(prueba_xml)\\n', environment={'A': <class 'gluon.html.A'>, 'Auth': <class 'gluon.tools.Auth'>, 'B': <class 'gluon.html.B'>, 'BEAUTIFY': <class 'gluon.html.BEAUTIFY'>, 'BODY': <class 'gluon.html.BODY'>, 'BR': <class 'gluon.html.BR'>, 'BUTTON': <class 'gluon.html.BUTTON'>, 'CAT': <class 'gluon.html.CAT'>, 'CENTER': <class 'gluon.html.CENTER'>, 'CLEANUP': <class 'gluon.validators.CLEANUP'>, ...}, layer=r'C:\\Users\\Gary\\Desktop\\web2py\\applications\\Casa_de_Apuestas\\controllers/default.py')"
p2399
sS'func'
p2400
S'restricted'
p2401
sa(dp2402
g2391
S'C:\\Users\\Gary\\Desktop\\web2py\\applications\\Casa_de_Apuestas\\controllers\\default.py'
p2403
sg2393
(dp2404
sg2395
I110
sg2396
(dp2405
I99
S"    form = crud.update(db.maquinas,request.args(0),next=URL('mostrarMaquina'))"
p2406
sI100
S'    return dict(form=form)'
p2407
sI101
S''
sI102
S'def mostrarUsuario():'
p2408
sI103
S'    usuarios= db().select(db.auth_user.ALL, orderby=db.auth_user.id)'
p2409
sI104
S'    return dict(usuarios=usuarios)'
p2410
sI105
S''
sI106
S'def showUsuario():'
p2411
sI107
S"    form = crud.update(db.auth_user,request.args(0),next=URL('mostrarUsuario'))"
p2412
sI108
S'    return dict(form=form)'
p2413
ssg2398
S'()'
p2414
sg2400
S'<module>'
p2415
sa(dp2416
g2391
S'C:\\Users\\Gary\\Desktop\\web2py\\gluon\\globals.py'
p2417
sg2393
(dp2418
sg2395
I149
sg2396
(dp2419
sg2398
S'(f=<function prueba_xml at 0x06EECF30>)'
p2420
sg2400
S'<lambda>'
p2421
sa(dp2422
g2391
S'C:\\Users\\Gary\\Desktop\\web2py\\applications\\Casa_de_Apuestas\\controllers\\default.py'
p2423
sg2393
(dp2424
sg2395
I66
sg2396
(dp2425
I64
S'    codificador.update(generar_xml(db().select(db.participantes.ALL)))'
p2426
sI65
S'    #return generar_xml(db().select(db.participantes.ALL))'
p2427
sI66
S'    return dict(var=codificador.hexdigest(), var1=codificador1.hexdigest())'
p2428
sI67
S''
sI68
S'def mostrarCategoria():'
p2429
sI69
S'    categorias= db().select(db.categorias.ALL, orderby=db.categorias.id)'
p2430
sI70
S'    return dict(categorias=categorias)'
p2431
sI61
S'    codificador = hashlib.md5()'
p2432
sI62
S"    response.headers['Content-Type']='application/xml'"
p2433
sI63
S'    #a = generar_xml(db().select(db.participantes.ALL));'
p2434
ssg2398
S'()'
p2435
sg2400
S'prueba_xml'
p2436
sasS'pyver'
p2437
S'Python 2.5.4: C:\\Users\\Gary\\Desktop\\web2py\\web2py.exe'
p2438
sS'session'
p2439
g48
(g49
g50
NtRp2440
(dp2441
g53
(dp2442
sg55
(lp2443
g48
(g57
g50
NtRp2444
(dp2445
g53
(dp2446
g61
I5
ssg62
Nsg55
(lp2447
sbasbsS'etype'
p2448
S"<type 'exceptions.NameError'>"
p2449
sS'date'
p2450
S'Fri Nov 18 23:30:50 2011'
p2451
sS'response'
p2452
g48
(g49
g50
NtRp2453
(dp2454
g53
(dp2455
sg55
(lp2456
g48
(g57
g50
NtRp2457
(dp2458
g53
(dp2459
g61
I5
ssg62
Nsg55
(lp2460
g48
(g64
g50
NtRp2461
(dp2462
g53
(dp2463
sg62
g2457
sg55
(lp2464
g48
(g69
g50
NtRp2465
(dp2466
g53
(dp2467
g73
g74
ssg62
g2461
sg55
(lp2468
g146
asbag48
(g69
g50
NtRp2469
(dp2470
g53
(dp2471
g80
g81
ssg62
g2461
sg55
(lp2472
S':'
asbag48
(g69
g50
NtRp2473
(dp2474
g53
(dp2475
sg62
g2461
sg55
(lp2476
g48
(g49
g50
NtRp2477
(dp2478
g53
(dp2479
g61
I5
ssg62
g2473
sg55
(lp2480
S'<cStringIO.StringO object at 0x07579320>'
p2481
asbasbasbag48
(g64
g50
NtRp2482
(dp2483
g53
(dp2484
sg62
g2457
sg55
(lp2485
g48
(g69
g50
NtRp2486
(dp2487
g53
(dp2488
g73
g74
ssg62
g2482
sg55
(lp2489
g212
asbag48
(g69
g50
NtRp2490
(dp2491
g53
(dp2492
g80
g81
ssg62
g2482
sg55
(lp2493
S':'
asbag48
(g69
g50
NtRp2494
(dp2495
g53
(dp2496
sg62
g2482
sg55
(lp2497
g48
(g49
g50
NtRp2498
(dp2499
g53
(dp2500
g61
I5
ssg62
g2494
sg55
(lp2501
g48
(g57
g50
NtRp2502
(dp2503
g53
(dp2504
g61
I4
ssg62
Nsg55
(lp2505
g48
(g64
g50
NtRp2506
(dp2507
g53
(dp2508
sg62
g2502
sg55
(lp2509
g48
(g69
g50
NtRp2510
(dp2511
g53
(dp2512
g73
g74
ssg62
g2506
sg55
(lp2513
S'session_id_casa_de_apuestas'
p2514
asbag48
(g69
g50
NtRp2515
(dp2516
g53
(dp2517
g80
g81
ssg62
g2506
sg55
(lp2518
S':'
asbag48
(g69
g50
NtRp2519
(dp2520
g53
(dp2521
sg62
g2506
sg55
(lp2522
g48
(g49
g50
NtRp2523
(dp2524
g53
(dp2525
g61
I4
ssg62
g2519
sg55
(lp2526
g48
(g57
g50
NtRp2527
(dp2528
g53
(dp2529
g61
I3
ssg62
Nsg55
(lp2530
g48
(g64
g50
NtRp2531
(dp2532
g53
(dp2533
sg62
g2527
sg55
(lp2534
g48
(g69
g50
NtRp2535
(dp2536
g53
(dp2537
g73
g74
ssg62
g2531
sg55
(lp2538
S'comment'
p2539
asbag48
(g69
g50
NtRp2540
(dp2541
g53
(dp2542
g80
g81
ssg62
g2531
sg55
(lp2543
S':'
asbag48
(g69
g50
NtRp2544
(dp2545
g53
(dp2546
sg62
g2531
sg55
(lp2547
g48
(g49
g50
NtRp2548
(dp2549
g53
(dp2550
g61
I3
ssg62
g2544
sg55
(lp2551
S''
asbasbasbag48
(g64
g50
NtRp2552
(dp2553
g53
(dp2554
sg62
g2527
sg55
(lp2555
g48
(g69
g50
NtRp2556
(dp2557
g53
(dp2558
g73
g74
ssg62
g2552
sg55
(lp2559
S'domain'
p2560
asbag48
(g69
g50
NtRp2561
(dp2562
g53
(dp2563
g80
g81
ssg62
g2552
sg55
(lp2564
S':'
asbag48
(g69
g50
NtRp2565
(dp2566
g53
(dp2567
sg62
g2552
sg55
(lp2568
g48
(g49
g50
NtRp2569
(dp2570
g53
(dp2571
g61
I3
ssg62
g2565
sg55
(lp2572
S''
asbasbasbag48
(g64
g50
NtRp2573
(dp2574
g53
(dp2575
sg62
g2527
sg55
(lp2576
g48
(g69
g50
NtRp2577
(dp2578
g53
(dp2579
g73
g74
ssg62
g2573
sg55
(lp2580
S'expires'
p2581
asbag48
(g69
g50
NtRp2582
(dp2583
g53
(dp2584
g80
g81
ssg62
g2573
sg55
(lp2585
S':'
asbag48
(g69
g50
NtRp2586
(dp2587
g53
(dp2588
sg62
g2573
sg55
(lp2589
g48
(g49
g50
NtRp2590
(dp2591
g53
(dp2592
g61
I3
ssg62
g2586
sg55
(lp2593
S''
asbasbasbag48
(g64
g50
NtRp2594
(dp2595
g53
(dp2596
sg62
g2527
sg55
(lp2597
g48
(g69
g50
NtRp2598
(dp2599
g53
(dp2600
g73
g74
ssg62
g2594
sg55
(lp2601
S'max-age'
p2602
asbag48
(g69
g50
NtRp2603
(dp2604
g53
(dp2605
g80
g81
ssg62
g2594
sg55
(lp2606
S':'
asbag48
(g69
g50
NtRp2607
(dp2608
g53
(dp2609
sg62
g2594
sg55
(lp2610
g48
(g49
g50
NtRp2611
(dp2612
g53
(dp2613
g61
I3
ssg62
g2607
sg55
(lp2614
S''
asbasbasbag48
(g64
g50
NtRp2615
(dp2616
g53
(dp2617
sg62
g2527
sg55
(lp2618
g48
(g69
g50
NtRp2619
(dp2620
g53
(dp2621
g73
g74
ssg62
g2615
sg55
(lp2622
S'path'
p2623
asbag48
(g69
g50
NtRp2624
(dp2625
g53
(dp2626
g80
g81
ssg62
g2615
sg55
(lp2627
S':'
asbag48
(g69
g50
NtRp2628
(dp2629
g53
(dp2630
sg62
g2615
sg55
(lp2631
g48
(g49
g50
NtRp2632
(dp2633
g53
(dp2634
g61
I3
ssg62
g2628
sg55
(lp2635
S'/'
asbasbasbag48
(g64
g50
NtRp2636
(dp2637
g53
(dp2638
sg62
g2527
sg55
(lp2639
g48
(g69
g50
NtRp2640
(dp2641
g53
(dp2642
g73
g74
ssg62
g2636
sg55
(lp2643
S'secure'
p2644
asbag48
(g69
g50
NtRp2645
(dp2646
g53
(dp2647
g80
g81
ssg62
g2636
sg55
(lp2648
S':'
asbag48
(g69
g50
NtRp2649
(dp2650
g53
(dp2651
sg62
g2636
sg55
(lp2652
g48
(g49
g50
NtRp2653
(dp2654
g53
(dp2655
g61
I3
ssg62
g2649
sg55
(lp2656
S''
asbasbasbag48
(g64
g50
NtRp2657
(dp2658
g53
(dp2659
sg62
g2527
sg55
(lp2660
g48
(g69
g50
NtRp2661
(dp2662
g53
(dp2663
g73
g74
ssg62
g2657
sg55
(lp2664
S'version'
p2665
asbag48
(g69
g50
NtRp2666
(dp2667
g53
(dp2668
g80
g81
ssg62
g2657
sg55
(lp2669
S':'
asbag48
(g69
g50
NtRp2670
(dp2671
g53
(dp2672
sg62
g2657
sg55
(lp2673
g48
(g49
g50
NtRp2674
(dp2675
g53
(dp2676
g61
I3
ssg62
g2670
sg55
(lp2677
S''
asbasbasbasbasbasbasbasbasbasbasbag48
(g64
g50
NtRp2678
(dp2679
g53
(dp2680
sg62
g2457
sg55
(lp2681
g48
(g69
g50
NtRp2682
(dp2683
g53
(dp2684
g73
g74
ssg62
g2678
sg55
(lp2685
S'files'
p2686
asbag48
(g69
g50
NtRp2687
(dp2688
g53
(dp2689
g80
g81
ssg62
g2678
sg55
(lp2690
S':'
asbag48
(g69
g50
NtRp2691
(dp2692
g53
(dp2693
sg62
g2678
sg55
(lp2694
g48
(g49
g50
NtRp2695
(dp2696
g53
(dp2697
g61
I5
ssg62
g2691
sg55
(lp2698
g48
(g57
g50
NtRp2699
(dp2700
g53
(dp2701
g61
I4
ssg62
Nsg55
(lp2702
sbasbasbasbag48
(g64
g50
NtRp2703
(dp2704
g53
(dp2705
sg62
g2457
sg55
(lp2706
g48
(g69
g50
NtRp2707
(dp2708
g53
(dp2709
g73
g74
ssg62
g2703
sg55
(lp2710
S'flash'
p2711
asbag48
(g69
g50
NtRp2712
(dp2713
g53
(dp2714
g80
g81
ssg62
g2703
sg55
(lp2715
S':'
asbag48
(g69
g50
NtRp2716
(dp2717
g53
(dp2718
sg62
g2703
sg55
(lp2719
g48
(g49
g50
NtRp2720
(dp2721
g53
(dp2722
g61
I5
ssg62
g2716
sg55
(lp2723
S''
asbasbasbag48
(g64
g50
NtRp2724
(dp2725
g53
(dp2726
sg62
g2457
sg55
(lp2727
g48
(g69
g50
NtRp2728
(dp2729
g53
(dp2730
g73
g74
ssg62
g2724
sg55
(lp2731
S'generic_patterns'
p2732
asbag48
(g69
g50
NtRp2733
(dp2734
g53
(dp2735
g80
g81
ssg62
g2724
sg55
(lp2736
S':'
asbag48
(g69
g50
NtRp2737
(dp2738
g53
(dp2739
sg62
g2724
sg55
(lp2740
g48
(g49
g50
NtRp2741
(dp2742
g53
(dp2743
g61
I5
ssg62
g2737
sg55
(lp2744
g48
(g57
g50
NtRp2745
(dp2746
g53
(dp2747
g61
I4
ssg62
Nsg55
(lp2748
g48
(g64
g50
NtRp2749
(dp2750
g53
(dp2751
sg62
g2745
sg55
(lp2752
g48
(g69
g50
NtRp2753
(dp2754
g53
(dp2755
sg62
g2749
sg55
(lp2756
g48
(g49
g50
NtRp2757
(dp2758
g53
(dp2759
g61
I4
ssg62
g2753
sg55
(lp2760
S'*'
asbasbasbasbasbasbasbag48
(g64
g50
NtRp2761
(dp2762
g53
(dp2763
sg62
g2457
sg55
(lp2764
g48
(g69
g50
NtRp2765
(dp2766
g53
(dp2767
g73
g74
ssg62
g2761
sg55
(lp2768
S'headers'
p2769
asbag48
(g69
g50
NtRp2770
(dp2771
g53
(dp2772
g80
g81
ssg62
g2761
sg55
(lp2773
S':'
asbag48
(g69
g50
NtRp2774
(dp2775
g53
(dp2776
sg62
g2761
sg55
(lp2777
g48
(g49
g50
NtRp2778
(dp2779
g53
(dp2780
g61
I5
ssg62
g2774
sg55
(lp2781
g48
(g57
g50
NtRp2782
(dp2783
g53
(dp2784
g61
I4
ssg62
Nsg55
(lp2785
g48
(g64
g50
NtRp2786
(dp2787
g53
(dp2788
sg62
g2782
sg55
(lp2789
g48
(g69
g50
NtRp2790
(dp2791
g53
(dp2792
g73
g74
ssg62
g2786
sg55
(lp2793
S'Cache-Control'
p2794
asbag48
(g69
g50
NtRp2795
(dp2796
g53
(dp2797
g80
g81
ssg62
g2786
sg55
(lp2798
S':'
asbag48
(g69
g50
NtRp2799
(dp2800
g53
(dp2801
sg62
g2786
sg55
(lp2802
g48
(g49
g50
NtRp2803
(dp2804
g53
(dp2805
g61
I4
ssg62
g2799
sg55
(lp2806
S'no-store, no-cache, must-revalidate, post-check=0, pre-check=0'
p2807
asbasbasbag48
(g64
g50
NtRp2808
(dp2809
g53
(dp2810
sg62
g2782
sg55
(lp2811
g48
(g69
g50
NtRp2812
(dp2813
g53
(dp2814
g73
g74
ssg62
g2808
sg55
(lp2815
S'Content-Type'
p2816
asbag48
(g69
g50
NtRp2817
(dp2818
g53
(dp2819
g80
g81
ssg62
g2808
sg55
(lp2820
S':'
asbag48
(g69
g50
NtRp2821
(dp2822
g53
(dp2823
sg62
g2808
sg55
(lp2824
g48
(g49
g50
NtRp2825
(dp2826
g53
(dp2827
g61
I4
ssg62
g2821
sg55
(lp2828
S'application/xml'
p2829
asbasbasbag48
(g64
g50
NtRp2830
(dp2831
g53
(dp2832
sg62
g2782
sg55
(lp2833
g48
(g69
g50
NtRp2834
(dp2835
g53
(dp2836
g73
g74
ssg62
g2830
sg55
(lp2837
S'Expires'
p2838
asbag48
(g69
g50
NtRp2839
(dp2840
g53
(dp2841
g80
g81
ssg62
g2830
sg55
(lp2842
S':'
asbag48
(g69
g50
NtRp2843
(dp2844
g53
(dp2845
sg62
g2830
sg55
(lp2846
g48
(g49
g50
NtRp2847
(dp2848
g53
(dp2849
g61
I4
ssg62
g2843
sg55
(lp2850
S'Sat, 19 Nov 2011 04:00:49 GMT'
p2851
asbasbasbag48
(g64
g50
NtRp2852
(dp2853
g53
(dp2854
sg62
g2782
sg55
(lp2855
g48
(g69
g50
NtRp2856
(dp2857
g53
(dp2858
g73
g74
ssg62
g2852
sg55
(lp2859
S'Pragma'
p2860
asbag48
(g69
g50
NtRp2861
(dp2862
g53
(dp2863
g80
g81
ssg62
g2852
sg55
(lp2864
S':'
asbag48
(g69
g50
NtRp2865
(dp2866
g53
(dp2867
sg62
g2852
sg55
(lp2868
g48
(g49
g50
NtRp2869
(dp2870
g53
(dp2871
g61
I4
ssg62
g2865
sg55
(lp2872
S'no-cache'
p2873
asbasbasbag48
(g64
g50
NtRp2874
(dp2875
g53
(dp2876
sg62
g2782
sg55
(lp2877
g48
(g69
g50
NtRp2878
(dp2879
g53
(dp2880
g73
g74
ssg62
g2874
sg55
(lp2881
S'X-Powered-By'
p2882
asbag48
(g69
g50
NtRp2883
(dp2884
g53
(dp2885
g80
g81
ssg62
g2874
sg55
(lp2886
S':'
asbag48
(g69
g50
NtRp2887
(dp2888
g53
(dp2889
sg62
g2874
sg55
(lp2890
g48
(g49
g50
NtRp2891
(dp2892
g53
(dp2893
g61
I4
ssg62
g2887
sg55
(lp2894
S'web2py'
p2895
asbasbasbasbasbasbasbag48
(g64
g50
NtRp2896
(dp2897
g53
(dp2898
sg62
g2457
sg55
(lp2899
g48
(g69
g50
NtRp2900
(dp2901
g53
(dp2902
g73
g74
ssg62
g2896
sg55
(lp2903
S'menu'
p2904
asbag48
(g69
g50
NtRp2905
(dp2906
g53
(dp2907
g80
g81
ssg62
g2896
sg55
(lp2908
S':'
asbag48
(g69
g50
NtRp2909
(dp2910
g53
(dp2911
sg62
g2896
sg55
(lp2912
g48
(g49
g50
NtRp2913
(dp2914
g53
(dp2915
g61
I5
ssg62
g2909
sg55
(lp2916
g48
(g57
g50
NtRp2917
(dp2918
g53
(dp2919
g61
I4
ssg62
Nsg55
(lp2920
g48
(g64
g50
NtRp2921
(dp2922
g53
(dp2923
sg62
g2917
sg55
(lp2924
g48
(g69
g50
NtRp2925
(dp2926
g53
(dp2927
sg62
g2921
sg55
(lp2928
g48
(g49
g50
NtRp2929
(dp2930
g53
(dp2931
g61
I4
ssg62
g2925
sg55
(lp2932
g48
(g57
g50
NtRp2933
(dp2934
g53
(dp2935
g61
I3
ssg62
Nsg55
(lp2936
g48
(g64
g50
NtRp2937
(dp2938
g53
(dp2939
sg62
g2933
sg55
(lp2940
g48
(g69
g50
NtRp2941
(dp2942
g53
(dp2943
sg62
g2937
sg55
(lp2944
g48
(g49
g50
NtRp2945
(dp2946
g53
(dp2947
g61
I3
ssg62
g2941
sg55
(lp2948
cgluon.languages
lazyT_unpickle
p2949
(S't\x06\x00\x00\x00Indice'
tRp2950
asbasbasbag48
(g64
g50
NtRp2951
(dp2952
g53
(dp2953
sg62
g2933
sg55
(lp2954
g48
(g69
g50
NtRp2955
(dp2956
g53
(dp2957
sg62
g2951
sg55
(lp2958
g48
(g49
g50
NtRp2959
(dp2960
g53
(dp2961
g61
I3
ssg62
g2955
sg55
(lp2962
g91
asbasbasbag48
(g64
g50
NtRp2963
(dp2964
g53
(dp2965
sg62
g2933
sg55
(lp2966
g48
(g69
g50
NtRp2967
(dp2968
g53
(dp2969
sg62
g2963
sg55
(lp2970
g48
(g49
g50
NtRp2971
(dp2972
g53
(dp2973
g61
I3
ssg62
g2967
sg55
(lp2974
S'/Casa_de_Apuestas/default/index'
p2975
asbasbasbag48
(g64
g50
NtRp2976
(dp2977
g53
(dp2978
sg62
g2933
sg55
(lp2979
g48
(g69
g50
NtRp2980
(dp2981
g53
(dp2982
sg62
g2976
sg55
(lp2983
g48
(g49
g50
NtRp2984
(dp2985
g53
(dp2986
g61
I3
ssg62
g2980
sg55
(lp2987
g48
(g57
g50
NtRp2988
(dp2989
g53
(dp2990
g61
I2
ssg62
Nsg55
(lp2991
sbasbasbasbasbasbasbasbasbasbasbasbag48
(g64
g50
NtRp2992
(dp2993
g53
(dp2994
sg62
g2457
sg55
(lp2995
g48
(g69
g50
NtRp2996
(dp2997
g53
(dp2998
g73
g74
ssg62
g2992
sg55
(lp2999
S'meta'
p3000
asbag48
(g69
g50
NtRp3001
(dp3002
g53
(dp3003
g80
g81
ssg62
g2992
sg55
(lp3004
S':'
asbag48
(g69
g50
NtRp3005
(dp3006
g53
(dp3007
sg62
g2992
sg55
(lp3008
g48
(g49
g50
NtRp3009
(dp3010
g53
(dp3011
g61
I5
ssg62
g3005
sg55
(lp3012
g48
(g57
g50
NtRp3013
(dp3014
g53
(dp3015
g61
I4
ssg62
Nsg55
(lp3016
g48
(g64
g50
NtRp3017
(dp3018
g53
(dp3019
sg62
g3013
sg55
(lp3020
g48
(g69
g50
NtRp3021
(dp3022
g53
(dp3023
g73
g74
ssg62
g3017
sg55
(lp3024
S'author'
p3025
asbag48
(g69
g50
NtRp3026
(dp3027
g53
(dp3028
g80
g81
ssg62
g3017
sg55
(lp3029
S':'
asbag48
(g69
g50
NtRp3030
(dp3031
g53
(dp3032
sg62
g3017
sg55
(lp3033
g48
(g49
g50
NtRp3034
(dp3035
g53
(dp3036
g61
I4
ssg62
g3030
sg55
(lp3037
S'JSG Systems <jsg@example.com>'
p3038
asbasbasbag48
(g64
g50
NtRp3039
(dp3040
g53
(dp3041
sg62
g3013
sg55
(lp3042
g48
(g69
g50
NtRp3043
(dp3044
g53
(dp3045
g73
g74
ssg62
g3039
sg55
(lp3046
S'description'
p3047
asbag48
(g69
g50
NtRp3048
(dp3049
g53
(dp3050
g80
g81
ssg62
g3039
sg55
(lp3051
S':'
asbag48
(g69
g50
NtRp3052
(dp3053
g53
(dp3054
sg62
g3039
sg55
(lp3055
g48
(g49
g50
NtRp3056
(dp3057
g53
(dp3058
g61
I4
ssg62
g3052
sg55
(lp3059
S''
asbasbasbag48
(g64
g50
NtRp3060
(dp3061
g53
(dp3062
sg62
g3013
sg55
(lp3063
g48
(g69
g50
NtRp3064
(dp3065
g53
(dp3066
g73
g74
ssg62
g3060
sg55
(lp3067
S'keywords'
p3068
asbag48
(g69
g50
NtRp3069
(dp3070
g53
(dp3071
g80
g81
ssg62
g3060
sg55
(lp3072
S':'
asbag48
(g69
g50
NtRp3073
(dp3074
g53
(dp3075
sg62
g3060
sg55
(lp3076
g48
(g49
g50
NtRp3077
(dp3078
g53
(dp3079
g61
I4
ssg62
g3073
sg55
(lp3080
S'casa, apuestas'
p3081
asbasbasbasbasbasbasbag48
(g64
g50
NtRp3082
(dp3083
g53
(dp3084
sg62
g2457
sg55
(lp3085
g48
(g69
g50
NtRp3086
(dp3087
g53
(dp3088
g73
g74
ssg62
g3082
sg55
(lp3089
S'postprocessing'
p3090
asbag48
(g69
g50
NtRp3091
(dp3092
g53
(dp3093
g80
g81
ssg62
g3082
sg55
(lp3094
S':'
asbag48
(g69
g50
NtRp3095
(dp3096
g53
(dp3097
sg62
g3082
sg55
(lp3098
g48
(g49
g50
NtRp3099
(dp3100
g53
(dp3101
g61
I5
ssg62
g3095
sg55
(lp3102
g48
(g57
g50
NtRp3103
(dp3104
g53
(dp3105
g61
I4
ssg62
Nsg55
(lp3106
sbasbasbasbag48
(g64
g50
NtRp3107
(dp3108
g53
(dp3109
sg62
g2457
sg55
(lp3110
g48
(g69
g50
NtRp3111
(dp3112
g53
(dp3113
g73
g74
ssg62
g3107
sg55
(lp3114
S'session_filename'
p3115
asbag48
(g69
g50
NtRp3116
(dp3117
g53
(dp3118
g80
g81
ssg62
g3107
sg55
(lp3119
S':'
asbag48
(g69
g50
NtRp3120
(dp3121
g53
(dp3122
sg62
g3107
sg55
(lp3123
g48
(g49
g50
NtRp3124
(dp3125
g53
(dp3126
g61
I5
ssg62
g3120
sg55
(lp3127
S'C:\\Users\\Gary\\Desktop\\web2py\\applications\\Casa_de_Apuestas\\sessions\\127.0.0.1-6d3206cd-6bef-4f25-917d-7ce557849630'
p3128
asbasbasbag48
(g64
g50
NtRp3129
(dp3130
g53
(dp3131
sg62
g2457
sg55
(lp3132
g48
(g69
g50
NtRp3133
(dp3134
g53
(dp3135
g73
g74
ssg62
g3129
sg55
(lp3136
S'session_id'
p3137
asbag48
(g69
g50
NtRp3138
(dp3139
g53
(dp3140
g80
g81
ssg62
g3129
sg55
(lp3141
S':'
asbag48
(g69
g50
NtRp3142
(dp3143
g53
(dp3144
sg62
g3129
sg55
(lp3145
g48
(g49
g50
NtRp3146
(dp3147
g53
(dp3148
g61
I5
ssg62
g3142
sg55
(lp3149
S'127.0.0.1-6d3206cd-6bef-4f25-917d-7ce557849630'
p3150
asbasbasbag48
(g64
g50
NtRp3151
(dp3152
g53
(dp3153
sg62
g2457
sg55
(lp3154
g48
(g69
g50
NtRp3155
(dp3156
g53
(dp3157
g73
g74
ssg62
g3151
sg55
(lp3158
S'session_id_name'
p3159
asbag48
(g69
g50
NtRp3160
(dp3161
g53
(dp3162
g80
g81
ssg62
g3151
sg55
(lp3163
S':'
asbag48
(g69
g50
NtRp3164
(dp3165
g53
(dp3166
sg62
g3151
sg55
(lp3167
g48
(g49
g50
NtRp3168
(dp3169
g53
(dp3170
g61
I5
ssg62
g3164
sg55
(lp3171
g2514
asbasbasbag48
(g64
g50
NtRp3172
(dp3173
g53
(dp3174
sg62
g2457
sg55
(lp3175
g48
(g69
g50
NtRp3176
(dp3177
g53
(dp3178
g73
g74
ssg62
g3172
sg55
(lp3179
S'session_new'
p3180
asbag48
(g69
g50
NtRp3181
(dp3182
g53
(dp3183
g80
g81
ssg62
g3172
sg55
(lp3184
S':'
asbag48
(g69
g50
NtRp3185
(dp3186
g53
(dp3187
sg62
g3172
sg55
(lp3188
g48
(g49
g50
NtRp3189
(dp3190
g53
(dp3191
g61
I5
ssg62
g3185
sg55
(lp3192
g1085
asbasbasbag48
(g64
g50
NtRp3193
(dp3194
g53
(dp3195
sg62
g2457
sg55
(lp3196
g48
(g69
g50
NtRp3197
(dp3198
g53
(dp3199
g73
g74
ssg62
g3193
sg55
(lp3200
S'status'
p3201
asbag48
(g69
g50
NtRp3202
(dp3203
g53
(dp3204
g80
g81
ssg62
g3193
sg55
(lp3205
S':'
asbag48
(g69
g50
NtRp3206
(dp3207
g53
(dp3208
sg62
g3193
sg55
(lp3209
g48
(g49
g50
NtRp3210
(dp3211
g53
(dp3212
g61
I5
ssg62
g3206
sg55
(lp3213
S'200'
p3214
asbasbasbag48
(g64
g50
NtRp3215
(dp3216
g53
(dp3217
sg62
g2457
sg55
(lp3218
g48
(g69
g50
NtRp3219
(dp3220
g53
(dp3221
g73
g74
ssg62
g3215
sg55
(lp3222
S'subtitle'
p3223
asbag48
(g69
g50
NtRp3224
(dp3225
g53
(dp3226
g80
g81
ssg62
g3215
sg55
(lp3227
S':'
asbag48
(g69
g50
NtRp3228
(dp3229
g53
(dp3230
sg62
g3215
sg55
(lp3231
g48
(g49
g50
NtRp3232
(dp3233
g53
(dp3234
g61
I5
ssg62
g3228
sg55
(lp3235
S''
asbasbasbag48
(g64
g50
NtRp3236
(dp3237
g53
(dp3238
sg62
g2457
sg55
(lp3239
g48
(g69
g50
NtRp3240
(dp3241
g53
(dp3242
g73
g74
ssg62
g3236
sg55
(lp3243
S'title'
p3244
asbag48
(g69
g50
NtRp3245
(dp3246
g53
(dp3247
g80
g81
ssg62
g3236
sg55
(lp3248
S':'
asbag48
(g69
g50
NtRp3249
(dp3250
g53
(dp3251
sg62
g3236
sg55
(lp3252
g48
(g49
g50
NtRp3253
(dp3254
g53
(dp3255
g61
I5
ssg62
g3249
sg55
(lp3256
S'Casa de Apuestas'
p3257
asbasbasbag48
(g64
g50
NtRp3258
(dp3259
g53
(dp3260
sg62
g2457
sg55
(lp3261
g48
(g69
g50
NtRp3262
(dp3263
g53
(dp3264
g73
g74
ssg62
g3258
sg55
(lp3265
g1729
asbag48
(g69
g50
NtRp3266
(dp3267
g53
(dp3268
g80
g81
ssg62
g3258
sg55
(lp3269
S':'
asbag48
(g69
g50
NtRp3270
(dp3271
g53
(dp3272
sg62
g3258
sg55
(lp3273
g48
(g49
g50
NtRp3274
(dp3275
g53
(dp3276
g61
I5
ssg62
g3270
sg55
(lp3277
g1742
asbasbasbag48
(g64
g50
NtRp3278
(dp3279
g53
(dp3280
sg62
g2457
sg55
(lp3281
g48
(g69
g50
NtRp3282
(dp3283
g53
(dp3284
g73
g74
ssg62
g3278
sg55
(lp3285
S'view'
p3286
asbag48
(g69
g50
NtRp3287
(dp3288
g53
(dp3289
g80
g81
ssg62
g3278
sg55
(lp3290
S':'
asbag48
(g69
g50
NtRp3291
(dp3292
g53
(dp3293
sg62
g3278
sg55
(lp3294
g48
(g49
g50
NtRp3295
(dp3296
g53
(dp3297
g61
I5
ssg62
g3291
sg55
(lp3298
S'default/prueba_xml.html'
p3299
asbasbasbasbasbsS'locals'
p3300
(dp3301
S'hashlib'
p3302
S"<module 'hashlib' from 'C:\\Users\\Gary\\Desktop\\web2py\\library.zip\\hashlib.pyc'>"
p3303
sS'codificador'
p3304
S'<md5 HASH object @ 0783B7C0>'
p3305
sssS'traceback'
p3306
S'Traceback (most recent call last):\n  File "gluon/restricted.py", line 194, in restricted\n  File "C:\\Users\\Gary\\Desktop\\web2py\\applications\\Casa_de_Apuestas\\controllers/default.py", line 110, in <module>\n  File "gluon/globals.py", line 149, in <lambda>\n  File "C:\\Users\\Gary\\Desktop\\web2py\\applications\\Casa_de_Apuestas\\controllers/default.py", line 66, in prueba_xml\nNameError: global name \'codificador1\' is not defined\n'
p3307
s.