(dp1
S'output'
p2
S''
sS'layer'
p3
S'C:\\Python32\\web2py\\applications\\Casa_de_Apuestas\\controllers/appadmin.py'
p4
sS'code'
p5
S'# -*- coding: utf-8 -*-\n\n# ##########################################################\n# ## make sure administrator is on localhost\n# ###########################################################\n\nimport os\nimport socket\nimport datetime\nimport copy\nimport gluon.contenttype\nimport gluon.fileutils\n\n# ## critical --- make a copy of the environment\n\nglobal_env = copy.copy(globals())\nglobal_env[\'datetime\'] = datetime\n\nhttp_host = request.env.http_host.split(\':\')[0]\nremote_addr = request.env.remote_addr\ntry:\n    hosts = (http_host, socket.gethostname(),\n             socket.gethostbyname(http_host),\n             \'::1\',\'127.0.0.1\',\'::ffff:127.0.0.1\')\nexcept:\n    hosts = (http_host, )\n\nif request.env.http_x_forwarded_for or request.env.wsgi_url_scheme\\\n     in [\'https\', \'HTTPS\']:\n    session.secure()\nelif (remote_addr not in hosts) and (remote_addr != "127.0.0.1"):\n    raise HTTP(200, T(\'appadmin is disabled because insecure channel\'))\n\nif (request.application==\'admin\' and not session.authorized) or \\\n        (request.application!=\'admin\' and not gluon.fileutils.check_credentials(request)):\n    redirect(URL(\'admin\', \'default\', \'index\'))\n\nignore_rw = True\nresponse.view = \'appadmin.html\'\nresponse.menu = [[T(\'design\'), False, URL(\'admin\', \'default\', \'design\',\n                 args=[request.application])], [T(\'db\'), False,\n                 URL(\'index\')], [T(\'state\'), False,\n                 URL(\'state\')], [T(\'cache\'), False,\n                 URL(\'ccache\')]]\n\n# ##########################################################\n# ## auxiliary functions\n# ###########################################################\n\n\ndef get_databases(request):\n    dbs = {}\n    for (key, value) in global_env.items():\n        cond = False\n        try:\n            cond = isinstance(value, GQLDB)\n        except:\n            cond = isinstance(value, SQLDB)\n        if cond:\n            dbs[key] = value\n    return dbs\n\n\ndatabases = get_databases(None)\n\n\ndef eval_in_global_env(text):\n    exec (\'_ret=%s\' % text, {}, global_env)\n    return global_env[\'_ret\']\n\n\ndef get_database(request):\n    if request.args and request.args[0] in databases:\n        return eval_in_global_env(request.args[0])\n    else:\n        session.flash = T(\'invalid request\')\n        redirect(URL(\'index\'))\n\n\ndef get_table(request):\n    db = get_database(request)\n    if len(request.args) > 1 and request.args[1] in db.tables:\n        return (db, request.args[1])\n    else:\n        session.flash = T(\'invalid request\')\n        redirect(URL(\'index\'))\n\n\ndef get_query(request):\n    try:\n        return eval_in_global_env(request.vars.query)\n    except Exception:\n        return None\n\n\ndef query_by_table_type(tablename,db,request=request):\n    keyed = hasattr(db[tablename],\'_primarykey\')\n    if keyed:\n        firstkey = db[tablename][db[tablename]._primarykey[0]]\n        cond = \'>0\'\n        if firstkey.type in [\'string\', \'text\']:\n            cond = \'!=""\'\n        qry = \'%s.%s.%s%s\' % (request.args[0], request.args[1], firstkey.name, cond)\n    else:\n        qry = \'%s.%s.id>0\' % tuple(request.args[:2])\n    return qry\n\n\n\n# ##########################################################\n# ## list all databases and tables\n# ###########################################################\n\n\ndef index():\n    return dict(databases=databases)\n\n\n# ##########################################################\n# ## insert a new record\n# ###########################################################\n\n\ndef insert():\n    (db, table) = get_table(request)\n    form = SQLFORM(db[table], ignore_rw=ignore_rw)\n    if form.accepts(request.vars, session):\n        response.flash = T(\'new record inserted\')\n    return dict(form=form,table=db[table])\n\n\n# ##########################################################\n# ## list all records in table and insert new record\n# ###########################################################\n\n\ndef download():\n    import os\n    db = get_database(request)\n    return response.download(request,db)\n\ndef csv():\n    import gluon.contenttype\n    response.headers[\'Content-Type\'] = \\\n        gluon.contenttype.contenttype(\'.csv\')\n    db = get_database(request)\n    query = get_query(request)\n    if not query:\n        return None\n    response.headers[\'Content-disposition\'] = \'attachment; filename=%s_%s.csv\'\\\n         % tuple(request.vars.query.split(\'.\')[:2])\n    return str(db(query).select())\n\n\ndef import_csv(table, file):\n    table.import_from_csv_file(file)\n\ndef select():\n    import re\n    db = get_database(request)\n    dbname = request.args[0]\n    regex = re.compile(\'(?P<table>\\w+)\\.(?P<field>\\w+)=(?P<value>\\d+)\')\n    if len(request.args)>1 and hasattr(db[request.args[1]],\'_primarykey\'):\n        regex = re.compile(\'(?P<table>\\w+)\\.(?P<field>\\w+)=(?P<value>.+)\')\n    if request.vars.query:\n        match = regex.match(request.vars.query)\n        if match:\n            request.vars.query = \'%s.%s.%s==%s\' % (request.args[0],\n                    match.group(\'table\'), match.group(\'field\'),\n                    match.group(\'value\'))\n    else:\n        request.vars.query = session.last_query\n    query = get_query(request)\n    if request.vars.start:\n        start = int(request.vars.start)\n    else:\n        start = 0\n    nrows = 0\n    stop = start + 100\n    table = None\n    rows = []\n    orderby = request.vars.orderby\n    if orderby:\n        orderby = dbname + \'.\' + orderby\n        if orderby == session.last_orderby:\n            if orderby[0] == \'~\':\n                orderby = orderby[1:]\n            else:\n                orderby = \'~\' + orderby\n    session.last_orderby = orderby\n    session.last_query = request.vars.query\n    form = FORM(TABLE(TR(T(\'Query:\'), \'\', INPUT(_style=\'width:400px\',\n                _name=\'query\', _value=request.vars.query or \'\',\n                requires=IS_NOT_EMPTY(error_message=T("Cannot be empty")))), TR(T(\'Update:\'),\n                INPUT(_name=\'update_check\', _type=\'checkbox\',\n                value=False), INPUT(_style=\'width:400px\',\n                _name=\'update_fields\', _value=request.vars.update_fields\n                 or \'\')), TR(T(\'Delete:\'), INPUT(_name=\'delete_check\',\n                _class=\'delete\', _type=\'checkbox\', value=False), \'\'),\n                TR(\'\', \'\', INPUT(_type=\'submit\', _value=\'submit\'))),\n                _action=URL(r=request,args=request.args))\n    if request.vars.csvfile != None:\n        try:\n            import_csv(db[request.vars.table],\n                       request.vars.csvfile.file)\n            response.flash = T(\'data uploaded\')\n        except Exception, e:\n            response.flash = DIV(T(\'unable to parse csv file\'),PRE(str(e)))\n    if form.accepts(request.vars, formname=None):\n#         regex = re.compile(request.args[0] + \'\\.(?P<table>\\w+)\\.id\\>0\')\n        regex = re.compile(request.args[0] + \'\\.(?P<table>\\w+)\\..+\')\n\n        match = regex.match(form.vars.query.strip())\n        if match:\n            table = match.group(\'table\')\n        try:\n            nrows = db(query).count()\n            if form.vars.update_check and form.vars.update_fields:\n                db(query).update(**eval_in_global_env(\'dict(%s)\'\n                                  % form.vars.update_fields))\n                response.flash = T(\'%s rows updated\', nrows)\n            elif form.vars.delete_check:\n                db(query).delete()\n                response.flash = T(\'%s rows deleted\', nrows)\n            nrows = db(query).count()\n            if orderby:\n                rows = db(query).select(limitby=(start, stop),\n                        orderby=eval_in_global_env(orderby))\n            else:\n                rows = db(query).select(limitby=(start, stop))\n        except Exception, e:\n            (rows, nrows) = ([], 0)\n            response.flash = DIV(T(\'Invalid Query\'),PRE(str(e)))\n    return dict(\n        form=form,\n        table=table,\n        start=start,\n        stop=stop,\n        nrows=nrows,\n        rows=rows,\n        query=request.vars.query,\n        )\n\n\n# ##########################################################\n# ## edit delete one record\n# ###########################################################\n\n\ndef update():\n    (db, table) = get_table(request)\n    keyed = hasattr(db[table],\'_primarykey\')\n    record = None\n    if keyed:\n        key = [f for f in request.vars if f in db[table]._primarykey]\n        if key:\n            record = db(db[table][key[0]] == request.vars[key[0]]).select().first()\n    else:\n        record = db(db[table].id == request.args(2)).select().first()\n\n    if not record:\n        qry = query_by_table_type(table, db)\n        session.flash = T(\'record does not exist\')\n        redirect(URL(\'select\', args=request.args[:1],\n                     vars=dict(query=qry)))\n\n    if keyed:\n        for k in db[table]._primarykey:\n            db[table][k].writable=False\n\n    form = SQLFORM(db[table], record, deletable=True, delete_label=T(\'Check to delete\'),\n                   ignore_rw=ignore_rw and not keyed,\n                   linkto=URL(\'select\',\n                   args=request.args[:1]), upload=URL(r=request,\n                   f=\'download\', args=request.args[:1]))\n\n    if form.accepts(request.vars, session):\n        session.flash = T(\'done!\')\n        qry = query_by_table_type(table, db)\n        redirect(URL(\'select\', args=request.args[:1],\n                 vars=dict(query=qry)))\n    return dict(form=form,table=db[table])\n\n\n# ##########################################################\n# ## get global variables\n# ###########################################################\n\n\ndef state():\n    return dict()\n\ndef ccache():\n    form = FORM(\n        P(TAG.BUTTON("Clear CACHE?", _type="submit", _name="yes", _value="yes")),\n        P(TAG.BUTTON("Clear RAM", _type="submit", _name="ram", _value="ram")),\n        P(TAG.BUTTON("Clear DISK", _type="submit", _name="disk", _value="disk")),\n    )\n\n    if form.accepts(request.vars, session):\n        clear_ram = False\n        clear_disk = False\n        session.flash = ""\n        if request.vars.yes:\n            clear_ram = clear_disk = True\n        if request.vars.ram:\n            clear_ram = True\n        if request.vars.disk:\n            clear_disk = True\n\n        if clear_ram:\n            cache.ram.clear()\n            session.flash += "Ram Cleared "\n        if clear_disk:\n            cache.disk.clear()\n            session.flash += "Disk Cleared"\n\n        redirect(URL(r=request))\n\n    try:\n        from guppy import hpy; hp=hpy()\n    except ImportError:\n        hp = False\n\n    import shelve, os, copy, time, math\n    from gluon import portalocker\n\n    ram = {\n        \'bytes\': 0,\n        \'objects\': 0,\n        \'hits\': 0,\n        \'misses\': 0,\n        \'ratio\': 0,\n        \'oldest\': time.time()\n    }\n    disk = copy.copy(ram)\n    total = copy.copy(ram)\n\n    for key, value in cache.ram.storage.items():\n        if isinstance(value, dict):\n            ram[\'hits\'] = value[\'hit_total\'] - value[\'misses\']\n            ram[\'misses\'] = value[\'misses\']\n            try:\n                ram[\'ratio\'] = ram[\'hits\'] * 100 / value[\'hit_total\']\n            except (KeyError, ZeroDivisionError):\n                ram[\'ratio\'] = 0\n        else:\n            if hp:\n                ram[\'bytes\'] += hp.iso(value[1]).size\n                ram[\'objects\'] += hp.iso(value[1]).count\n\n                if value[0] < ram[\'oldest\']:\n                    ram[\'oldest\'] = value[0]\n\n    locker = open(os.path.join(request.folder,\n                                        \'cache/cache.lock\'), \'a\')\n    portalocker.lock(locker, portalocker.LOCK_EX)\n    disk_storage = shelve.open(os.path.join(request.folder, \'cache/cache.shelve\'))\n    try:\n        for key, value in disk_storage.items():\n            if isinstance(value, dict):\n                disk[\'hits\'] = value[\'hit_total\'] - value[\'misses\']\n                disk[\'misses\'] = value[\'misses\']\n                try:\n                    disk[\'ratio\'] = disk[\'hits\'] * 100 / value[\'hit_total\']\n                except (KeyError, ZeroDivisionError):\n                    disk[\'ratio\'] = 0\n            else:\n                if hp:\n                    disk[\'bytes\'] += hp.iso(value[1]).size\n                    disk[\'objects\'] += hp.iso(value[1]).count\n                    if value[0] < disk[\'oldest\']:\n                        disk[\'oldest\'] = value[0]\n    finally:\n        portalocker.unlock(locker)\n        locker.close()\n        disk_storage.close()\n\n    total[\'bytes\'] = ram[\'bytes\'] + disk[\'bytes\']\n    total[\'objects\'] = ram[\'objects\'] + disk[\'objects\']\n    total[\'hits\'] = ram[\'hits\'] + disk[\'hits\']\n    total[\'misses\'] = ram[\'misses\'] + disk[\'misses\']\n    try:\n        total[\'ratio\'] = total[\'hits\'] * 100 / (total[\'hits\'] + total[\'misses\'])\n    except (KeyError, ZeroDivisionError):\n        total[\'ratio\'] = 0\n\n    if disk[\'oldest\'] < ram[\'oldest\']:\n        total[\'oldest\'] = disk[\'oldest\']\n    else:\n        total[\'oldest\'] = ram[\'oldest\']\n\n    def GetInHMS(seconds):\n        hours = math.floor(seconds / 3600)\n        seconds -= hours * 3600\n        minutes = math.floor(seconds / 60)\n        seconds -= minutes * 60\n        seconds = math.floor(seconds)\n\n        return (hours, minutes, seconds)\n\n    ram[\'oldest\'] = GetInHMS(time.time() - ram[\'oldest\'])\n    disk[\'oldest\'] = GetInHMS(time.time() - disk[\'oldest\'])\n    total[\'oldest\'] = GetInHMS(time.time() - total[\'oldest\'])\n\n    return dict(form=form, total=total,\n                ram=ram, disk=disk)\n\n\nresponse._vars=response._caller(insert)\n'
p6
sS'snapshot'
p7
(dp8
S'exception'
p9
(dp10
S'__hash__'
p11
S"<method-wrapper '__hash__' of OperationalError object at 0x02EC1DC8>"
p12
sS'__module__'
p13
S"'sqlite3'"
p14
sS'__reduce_ex__'
p15
S'<built-in method __reduce_ex__ of OperationalError object at 0x02EC1DC8>'
p16
sS'__getslice__'
p17
S"<method-wrapper '__getslice__' of OperationalError object at 0x02EC1DC8>"
p18
sS'__getitem__'
p19
S"<method-wrapper '__getitem__' of OperationalError object at 0x02EC1DC8>"
p20
sS'__setstate__'
p21
S'<built-in method __setstate__ of OperationalError object at 0x02EC1DC8>'
p22
sS'__reduce__'
p23
S'<built-in method __reduce__ of OperationalError object at 0x02EC1DC8>'
p24
sS'__str__'
p25
S"<method-wrapper '__str__' of OperationalError object at 0x02EC1DC8>"
p26
sS'args'
p27
S"('no such table: eventosparticipantes',)"
p28
sS'__getattribute__'
p29
S"<method-wrapper '__getattribute__' of OperationalError object at 0x02EC1DC8>"
p30
sS'__class__'
p31
S"<class 'sqlite3.OperationalError'>"
p32
sS'__delattr__'
p33
S"<method-wrapper '__delattr__' of OperationalError object at 0x02EC1DC8>"
p34
sS'__repr__'
p35
S"<method-wrapper '__repr__' of OperationalError object at 0x02EC1DC8>"
p36
sS'__setattr__'
p37
S"<method-wrapper '__setattr__' of OperationalError object at 0x02EC1DC8>"
p38
sS'__dict__'
p39
S'{}'
p40
sS'__weakref__'
p41
S'None'
p42
sS'__doc__'
p43
S'None'
p44
sS'__init__'
p45
S"<method-wrapper '__init__' of OperationalError object at 0x02EC1DC8>"
p46
sS'__new__'
p47
S'<built-in method __new__ of type object at 0x1E1CCCB0>'
p48
ssS'evalue'
p49
S'no such table: eventosparticipantes'
p50
sS'request'
p51
ccopy_reg
_reconstructor
p52
(cgluon.html
BEAUTIFY
p53
c__builtin__
object
p54
NtRp55
(dp56
S'attributes'
p57
(dp58
sS'components'
p59
(lp60
g52
(cgluon.html
TABLE
p61
g54
NtRp62
(dp63
g57
(dp64
S'level'
p65
I5
ssS'parent'
p66
Nsg59
(lp67
g52
(cgluon.html
TR
p68
g54
NtRp69
(dp70
g57
(dp71
sg66
g62
sg59
(lp72
g52
(cgluon.html
TD
p73
g54
NtRp74
(dp75
g57
(dp76
S'_style'
p77
S'font-weight:bold;'
p78
ssg66
g69
sg59
(lp79
S'ajax'
p80
asbag52
(g73
g54
NtRp81
(dp82
g57
(dp83
S'_valign'
p84
S'top'
p85
ssg66
g69
sg59
(lp86
S':'
asbag52
(g73
g54
NtRp87
(dp88
g57
(dp89
sg66
g69
sg59
(lp90
g52
(g53
g54
NtRp91
(dp92
g57
(dp93
g65
I5
ssg66
g87
sg59
(lp94
S'False'
p95
asbasbasbag52
(g68
g54
NtRp96
(dp97
g57
(dp98
sg66
g62
sg59
(lp99
g52
(g73
g54
NtRp100
(dp101
g57
(dp102
g77
g78
ssg66
g96
sg59
(lp103
S'application'
p104
asbag52
(g73
g54
NtRp105
(dp106
g57
(dp107
g84
g85
ssg66
g96
sg59
(lp108
S':'
asbag52
(g73
g54
NtRp109
(dp110
g57
(dp111
sg66
g96
sg59
(lp112
g52
(g53
g54
NtRp113
(dp114
g57
(dp115
g65
I5
ssg66
g109
sg59
(lp116
S'Casa_de_Apuestas'
p117
asbasbasbag52
(g68
g54
NtRp118
(dp119
g57
(dp120
sg66
g62
sg59
(lp121
g52
(g73
g54
NtRp122
(dp123
g57
(dp124
g77
g78
ssg66
g118
sg59
(lp125
g27
asbag52
(g73
g54
NtRp126
(dp127
g57
(dp128
g84
g85
ssg66
g118
sg59
(lp129
S':'
asbag52
(g73
g54
NtRp130
(dp131
g57
(dp132
sg66
g118
sg59
(lp133
g52
(g53
g54
NtRp134
(dp135
g57
(dp136
g65
I5
ssg66
g130
sg59
(lp137
g52
(g61
g54
NtRp138
(dp139
g57
(dp140
g65
I4
ssg66
Nsg59
(lp141
g52
(g68
g54
NtRp142
(dp143
g57
(dp144
sg66
g138
sg59
(lp145
g52
(g73
g54
NtRp146
(dp147
g57
(dp148
sg66
g142
sg59
(lp149
g52
(g53
g54
NtRp150
(dp151
g57
(dp152
g65
I4
ssg66
g146
sg59
(lp153
S'db'
p154
asbasbasbag52
(g68
g54
NtRp155
(dp156
g57
(dp157
sg66
g138
sg59
(lp158
g52
(g73
g54
NtRp159
(dp160
g57
(dp161
sg66
g155
sg59
(lp162
g52
(g53
g54
NtRp163
(dp164
g57
(dp165
g65
I4
ssg66
g159
sg59
(lp166
S'eventosparticipantes'
p167
asbasbasbasbasbasbasbag52
(g68
g54
NtRp168
(dp169
g57
(dp170
sg66
g62
sg59
(lp171
g52
(g73
g54
NtRp172
(dp173
g57
(dp174
g77
g78
ssg66
g168
sg59
(lp175
S'body'
p176
asbag52
(g73
g54
NtRp177
(dp178
g57
(dp179
g84
g85
ssg66
g168
sg59
(lp180
S':'
asbag52
(g73
g54
NtRp181
(dp182
g57
(dp183
sg66
g168
sg59
(lp184
g52
(g53
g54
NtRp185
(dp186
g57
(dp187
g65
I5
ssg66
g181
sg59
(lp188
S"<open file '<fdopen>', mode 'w+b' at 0x02E96800>"
p189
asbasbasbag52
(g68
g54
NtRp190
(dp191
g57
(dp192
sg66
g62
sg59
(lp193
g52
(g73
g54
NtRp194
(dp195
g57
(dp196
g77
g78
ssg66
g190
sg59
(lp197
S'client'
p198
asbag52
(g73
g54
NtRp199
(dp200
g57
(dp201
g84
g85
ssg66
g190
sg59
(lp202
S':'
asbag52
(g73
g54
NtRp203
(dp204
g57
(dp205
sg66
g190
sg59
(lp206
g52
(g53
g54
NtRp207
(dp208
g57
(dp209
g65
I5
ssg66
g203
sg59
(lp210
S'127.0.0.1'
p211
asbasbasbag52
(g68
g54
NtRp212
(dp213
g57
(dp214
sg66
g62
sg59
(lp215
g52
(g73
g54
NtRp216
(dp217
g57
(dp218
g77
g78
ssg66
g212
sg59
(lp219
S'controller'
p220
asbag52
(g73
g54
NtRp221
(dp222
g57
(dp223
g84
g85
ssg66
g212
sg59
(lp224
S':'
asbag52
(g73
g54
NtRp225
(dp226
g57
(dp227
sg66
g212
sg59
(lp228
g52
(g53
g54
NtRp229
(dp230
g57
(dp231
g65
I5
ssg66
g225
sg59
(lp232
S'appadmin'
p233
asbasbasbag52
(g68
g54
NtRp234
(dp235
g57
(dp236
sg66
g62
sg59
(lp237
g52
(g73
g54
NtRp238
(dp239
g57
(dp240
g77
g78
ssg66
g234
sg59
(lp241
S'cookies'
p242
asbag52
(g73
g54
NtRp243
(dp244
g57
(dp245
g84
g85
ssg66
g234
sg59
(lp246
S':'
asbag52
(g73
g54
NtRp247
(dp248
g57
(dp249
sg66
g234
sg59
(lp250
g52
(g53
g54
NtRp251
(dp252
g57
(dp253
g65
I5
ssg66
g247
sg59
(lp254
g52
(g61
g54
NtRp255
(dp256
g57
(dp257
g65
I4
ssg66
Nsg59
(lp258
g52
(g68
g54
NtRp259
(dp260
g57
(dp261
sg66
g255
sg59
(lp262
g52
(g73
g54
NtRp263
(dp264
g57
(dp265
g77
g78
ssg66
g259
sg59
(lp266
S'session_id_admin'
p267
asbag52
(g73
g54
NtRp268
(dp269
g57
(dp270
g84
g85
ssg66
g259
sg59
(lp271
S':'
asbag52
(g73
g54
NtRp272
(dp273
g57
(dp274
sg66
g259
sg59
(lp275
g52
(g53
g54
NtRp276
(dp277
g57
(dp278
g65
I4
ssg66
g272
sg59
(lp279
g52
(g61
g54
NtRp280
(dp281
g57
(dp282
g65
I3
ssg66
Nsg59
(lp283
g52
(g68
g54
NtRp284
(dp285
g57
(dp286
sg66
g280
sg59
(lp287
g52
(g73
g54
NtRp288
(dp289
g57
(dp290
g77
g78
ssg66
g284
sg59
(lp291
S'comment'
p292
asbag52
(g73
g54
NtRp293
(dp294
g57
(dp295
g84
g85
ssg66
g284
sg59
(lp296
S':'
asbag52
(g73
g54
NtRp297
(dp298
g57
(dp299
sg66
g284
sg59
(lp300
g52
(g53
g54
NtRp301
(dp302
g57
(dp303
g65
I3
ssg66
g297
sg59
(lp304
S''
asbasbasbag52
(g68
g54
NtRp305
(dp306
g57
(dp307
sg66
g280
sg59
(lp308
g52
(g73
g54
NtRp309
(dp310
g57
(dp311
g77
g78
ssg66
g305
sg59
(lp312
S'domain'
p313
asbag52
(g73
g54
NtRp314
(dp315
g57
(dp316
g84
g85
ssg66
g305
sg59
(lp317
S':'
asbag52
(g73
g54
NtRp318
(dp319
g57
(dp320
sg66
g305
sg59
(lp321
g52
(g53
g54
NtRp322
(dp323
g57
(dp324
g65
I3
ssg66
g318
sg59
(lp325
S''
asbasbasbag52
(g68
g54
NtRp326
(dp327
g57
(dp328
sg66
g280
sg59
(lp329
g52
(g73
g54
NtRp330
(dp331
g57
(dp332
g77
g78
ssg66
g326
sg59
(lp333
S'expires'
p334
asbag52
(g73
g54
NtRp335
(dp336
g57
(dp337
g84
g85
ssg66
g326
sg59
(lp338
S':'
asbag52
(g73
g54
NtRp339
(dp340
g57
(dp341
sg66
g326
sg59
(lp342
g52
(g53
g54
NtRp343
(dp344
g57
(dp345
g65
I3
ssg66
g339
sg59
(lp346
S''
asbasbasbag52
(g68
g54
NtRp347
(dp348
g57
(dp349
sg66
g280
sg59
(lp350
g52
(g73
g54
NtRp351
(dp352
g57
(dp353
g77
g78
ssg66
g347
sg59
(lp354
S'max-age'
p355
asbag52
(g73
g54
NtRp356
(dp357
g57
(dp358
g84
g85
ssg66
g347
sg59
(lp359
S':'
asbag52
(g73
g54
NtRp360
(dp361
g57
(dp362
sg66
g347
sg59
(lp363
g52
(g53
g54
NtRp364
(dp365
g57
(dp366
g65
I3
ssg66
g360
sg59
(lp367
S''
asbasbasbag52
(g68
g54
NtRp368
(dp369
g57
(dp370
sg66
g280
sg59
(lp371
g52
(g73
g54
NtRp372
(dp373
g57
(dp374
g77
g78
ssg66
g368
sg59
(lp375
S'path'
p376
asbag52
(g73
g54
NtRp377
(dp378
g57
(dp379
g84
g85
ssg66
g368
sg59
(lp380
S':'
asbag52
(g73
g54
NtRp381
(dp382
g57
(dp383
sg66
g368
sg59
(lp384
g52
(g53
g54
NtRp385
(dp386
g57
(dp387
g65
I3
ssg66
g381
sg59
(lp388
S''
asbasbasbag52
(g68
g54
NtRp389
(dp390
g57
(dp391
sg66
g280
sg59
(lp392
g52
(g73
g54
NtRp393
(dp394
g57
(dp395
g77
g78
ssg66
g389
sg59
(lp396
S'secure'
p397
asbag52
(g73
g54
NtRp398
(dp399
g57
(dp400
g84
g85
ssg66
g389
sg59
(lp401
S':'
asbag52
(g73
g54
NtRp402
(dp403
g57
(dp404
sg66
g389
sg59
(lp405
g52
(g53
g54
NtRp406
(dp407
g57
(dp408
g65
I3
ssg66
g402
sg59
(lp409
S''
asbasbasbag52
(g68
g54
NtRp410
(dp411
g57
(dp412
sg66
g280
sg59
(lp413
g52
(g73
g54
NtRp414
(dp415
g57
(dp416
g77
g78
ssg66
g410
sg59
(lp417
S'version'
p418
asbag52
(g73
g54
NtRp419
(dp420
g57
(dp421
g84
g85
ssg66
g410
sg59
(lp422
S':'
asbag52
(g73
g54
NtRp423
(dp424
g57
(dp425
sg66
g410
sg59
(lp426
g52
(g53
g54
NtRp427
(dp428
g57
(dp429
g65
I3
ssg66
g423
sg59
(lp430
S''
asbasbasbasbasbasbasbag52
(g68
g54
NtRp431
(dp432
g57
(dp433
sg66
g255
sg59
(lp434
g52
(g73
g54
NtRp435
(dp436
g57
(dp437
g77
g78
ssg66
g431
sg59
(lp438
S'session_id_casa_de_apuestas'
p439
asbag52
(g73
g54
NtRp440
(dp441
g57
(dp442
g84
g85
ssg66
g431
sg59
(lp443
S':'
asbag52
(g73
g54
NtRp444
(dp445
g57
(dp446
sg66
g431
sg59
(lp447
g52
(g53
g54
NtRp448
(dp449
g57
(dp450
g65
I4
ssg66
g444
sg59
(lp451
g52
(g61
g54
NtRp452
(dp453
g57
(dp454
g65
I3
ssg66
Nsg59
(lp455
g52
(g68
g54
NtRp456
(dp457
g57
(dp458
sg66
g452
sg59
(lp459
g52
(g73
g54
NtRp460
(dp461
g57
(dp462
g77
g78
ssg66
g456
sg59
(lp463
g292
asbag52
(g73
g54
NtRp464
(dp465
g57
(dp466
g84
g85
ssg66
g456
sg59
(lp467
S':'
asbag52
(g73
g54
NtRp468
(dp469
g57
(dp470
sg66
g456
sg59
(lp471
g52
(g53
g54
NtRp472
(dp473
g57
(dp474
g65
I3
ssg66
g468
sg59
(lp475
S''
asbasbasbag52
(g68
g54
NtRp476
(dp477
g57
(dp478
sg66
g452
sg59
(lp479
g52
(g73
g54
NtRp480
(dp481
g57
(dp482
g77
g78
ssg66
g476
sg59
(lp483
g313
asbag52
(g73
g54
NtRp484
(dp485
g57
(dp486
g84
g85
ssg66
g476
sg59
(lp487
S':'
asbag52
(g73
g54
NtRp488
(dp489
g57
(dp490
sg66
g476
sg59
(lp491
g52
(g53
g54
NtRp492
(dp493
g57
(dp494
g65
I3
ssg66
g488
sg59
(lp495
S''
asbasbasbag52
(g68
g54
NtRp496
(dp497
g57
(dp498
sg66
g452
sg59
(lp499
g52
(g73
g54
NtRp500
(dp501
g57
(dp502
g77
g78
ssg66
g496
sg59
(lp503
g334
asbag52
(g73
g54
NtRp504
(dp505
g57
(dp506
g84
g85
ssg66
g496
sg59
(lp507
S':'
asbag52
(g73
g54
NtRp508
(dp509
g57
(dp510
sg66
g496
sg59
(lp511
g52
(g53
g54
NtRp512
(dp513
g57
(dp514
g65
I3
ssg66
g508
sg59
(lp515
S''
asbasbasbag52
(g68
g54
NtRp516
(dp517
g57
(dp518
sg66
g452
sg59
(lp519
g52
(g73
g54
NtRp520
(dp521
g57
(dp522
g77
g78
ssg66
g516
sg59
(lp523
g355
asbag52
(g73
g54
NtRp524
(dp525
g57
(dp526
g84
g85
ssg66
g516
sg59
(lp527
S':'
asbag52
(g73
g54
NtRp528
(dp529
g57
(dp530
sg66
g516
sg59
(lp531
g52
(g53
g54
NtRp532
(dp533
g57
(dp534
g65
I3
ssg66
g528
sg59
(lp535
S''
asbasbasbag52
(g68
g54
NtRp536
(dp537
g57
(dp538
sg66
g452
sg59
(lp539
g52
(g73
g54
NtRp540
(dp541
g57
(dp542
g77
g78
ssg66
g536
sg59
(lp543
g376
asbag52
(g73
g54
NtRp544
(dp545
g57
(dp546
g84
g85
ssg66
g536
sg59
(lp547
S':'
asbag52
(g73
g54
NtRp548
(dp549
g57
(dp550
sg66
g536
sg59
(lp551
g52
(g53
g54
NtRp552
(dp553
g57
(dp554
g65
I3
ssg66
g548
sg59
(lp555
S''
asbasbasbag52
(g68
g54
NtRp556
(dp557
g57
(dp558
sg66
g452
sg59
(lp559
g52
(g73
g54
NtRp560
(dp561
g57
(dp562
g77
g78
ssg66
g556
sg59
(lp563
g397
asbag52
(g73
g54
NtRp564
(dp565
g57
(dp566
g84
g85
ssg66
g556
sg59
(lp567
S':'
asbag52
(g73
g54
NtRp568
(dp569
g57
(dp570
sg66
g556
sg59
(lp571
g52
(g53
g54
NtRp572
(dp573
g57
(dp574
g65
I3
ssg66
g568
sg59
(lp575
S''
asbasbasbag52
(g68
g54
NtRp576
(dp577
g57
(dp578
sg66
g452
sg59
(lp579
g52
(g73
g54
NtRp580
(dp581
g57
(dp582
g77
g78
ssg66
g576
sg59
(lp583
g418
asbag52
(g73
g54
NtRp584
(dp585
g57
(dp586
g84
g85
ssg66
g576
sg59
(lp587
S':'
asbag52
(g73
g54
NtRp588
(dp589
g57
(dp590
sg66
g576
sg59
(lp591
g52
(g53
g54
NtRp592
(dp593
g57
(dp594
g65
I3
ssg66
g588
sg59
(lp595
S''
asbasbasbasbasbasbasbag52
(g68
g54
NtRp596
(dp597
g57
(dp598
sg66
g255
sg59
(lp599
g52
(g73
g54
NtRp600
(dp601
g57
(dp602
g77
g78
ssg66
g596
sg59
(lp603
S'session_id_images'
p604
asbag52
(g73
g54
NtRp605
(dp606
g57
(dp607
g84
g85
ssg66
g596
sg59
(lp608
S':'
asbag52
(g73
g54
NtRp609
(dp610
g57
(dp611
sg66
g596
sg59
(lp612
g52
(g53
g54
NtRp613
(dp614
g57
(dp615
g65
I4
ssg66
g609
sg59
(lp616
g52
(g61
g54
NtRp617
(dp618
g57
(dp619
g65
I3
ssg66
Nsg59
(lp620
g52
(g68
g54
NtRp621
(dp622
g57
(dp623
sg66
g617
sg59
(lp624
g52
(g73
g54
NtRp625
(dp626
g57
(dp627
g77
g78
ssg66
g621
sg59
(lp628
g292
asbag52
(g73
g54
NtRp629
(dp630
g57
(dp631
g84
g85
ssg66
g621
sg59
(lp632
S':'
asbag52
(g73
g54
NtRp633
(dp634
g57
(dp635
sg66
g621
sg59
(lp636
g52
(g53
g54
NtRp637
(dp638
g57
(dp639
g65
I3
ssg66
g633
sg59
(lp640
S''
asbasbasbag52
(g68
g54
NtRp641
(dp642
g57
(dp643
sg66
g617
sg59
(lp644
g52
(g73
g54
NtRp645
(dp646
g57
(dp647
g77
g78
ssg66
g641
sg59
(lp648
g313
asbag52
(g73
g54
NtRp649
(dp650
g57
(dp651
g84
g85
ssg66
g641
sg59
(lp652
S':'
asbag52
(g73
g54
NtRp653
(dp654
g57
(dp655
sg66
g641
sg59
(lp656
g52
(g53
g54
NtRp657
(dp658
g57
(dp659
g65
I3
ssg66
g653
sg59
(lp660
S''
asbasbasbag52
(g68
g54
NtRp661
(dp662
g57
(dp663
sg66
g617
sg59
(lp664
g52
(g73
g54
NtRp665
(dp666
g57
(dp667
g77
g78
ssg66
g661
sg59
(lp668
g334
asbag52
(g73
g54
NtRp669
(dp670
g57
(dp671
g84
g85
ssg66
g661
sg59
(lp672
S':'
asbag52
(g73
g54
NtRp673
(dp674
g57
(dp675
sg66
g661
sg59
(lp676
g52
(g53
g54
NtRp677
(dp678
g57
(dp679
g65
I3
ssg66
g673
sg59
(lp680
S''
asbasbasbag52
(g68
g54
NtRp681
(dp682
g57
(dp683
sg66
g617
sg59
(lp684
g52
(g73
g54
NtRp685
(dp686
g57
(dp687
g77
g78
ssg66
g681
sg59
(lp688
g355
asbag52
(g73
g54
NtRp689
(dp690
g57
(dp691
g84
g85
ssg66
g681
sg59
(lp692
S':'
asbag52
(g73
g54
NtRp693
(dp694
g57
(dp695
sg66
g681
sg59
(lp696
g52
(g53
g54
NtRp697
(dp698
g57
(dp699
g65
I3
ssg66
g693
sg59
(lp700
S''
asbasbasbag52
(g68
g54
NtRp701
(dp702
g57
(dp703
sg66
g617
sg59
(lp704
g52
(g73
g54
NtRp705
(dp706
g57
(dp707
g77
g78
ssg66
g701
sg59
(lp708
g376
asbag52
(g73
g54
NtRp709
(dp710
g57
(dp711
g84
g85
ssg66
g701
sg59
(lp712
S':'
asbag52
(g73
g54
NtRp713
(dp714
g57
(dp715
sg66
g701
sg59
(lp716
g52
(g53
g54
NtRp717
(dp718
g57
(dp719
g65
I3
ssg66
g713
sg59
(lp720
S''
asbasbasbag52
(g68
g54
NtRp721
(dp722
g57
(dp723
sg66
g617
sg59
(lp724
g52
(g73
g54
NtRp725
(dp726
g57
(dp727
g77
g78
ssg66
g721
sg59
(lp728
g397
asbag52
(g73
g54
NtRp729
(dp730
g57
(dp731
g84
g85
ssg66
g721
sg59
(lp732
S':'
asbag52
(g73
g54
NtRp733
(dp734
g57
(dp735
sg66
g721
sg59
(lp736
g52
(g53
g54
NtRp737
(dp738
g57
(dp739
g65
I3
ssg66
g733
sg59
(lp740
S''
asbasbasbag52
(g68
g54
NtRp741
(dp742
g57
(dp743
sg66
g617
sg59
(lp744
g52
(g73
g54
NtRp745
(dp746
g57
(dp747
g77
g78
ssg66
g741
sg59
(lp748
g418
asbag52
(g73
g54
NtRp749
(dp750
g57
(dp751
g84
g85
ssg66
g741
sg59
(lp752
S':'
asbag52
(g73
g54
NtRp753
(dp754
g57
(dp755
sg66
g741
sg59
(lp756
g52
(g53
g54
NtRp757
(dp758
g57
(dp759
g65
I3
ssg66
g753
sg59
(lp760
S''
asbasbasbasbasbasbasbag52
(g68
g54
NtRp761
(dp762
g57
(dp763
sg66
g255
sg59
(lp764
g52
(g73
g54
NtRp765
(dp766
g57
(dp767
g77
g78
ssg66
g761
sg59
(lp768
S'session_id_welcome'
p769
asbag52
(g73
g54
NtRp770
(dp771
g57
(dp772
g84
g85
ssg66
g761
sg59
(lp773
S':'
asbag52
(g73
g54
NtRp774
(dp775
g57
(dp776
sg66
g761
sg59
(lp777
g52
(g53
g54
NtRp778
(dp779
g57
(dp780
g65
I4
ssg66
g774
sg59
(lp781
g52
(g61
g54
NtRp782
(dp783
g57
(dp784
g65
I3
ssg66
Nsg59
(lp785
g52
(g68
g54
NtRp786
(dp787
g57
(dp788
sg66
g782
sg59
(lp789
g52
(g73
g54
NtRp790
(dp791
g57
(dp792
g77
g78
ssg66
g786
sg59
(lp793
g292
asbag52
(g73
g54
NtRp794
(dp795
g57
(dp796
g84
g85
ssg66
g786
sg59
(lp797
S':'
asbag52
(g73
g54
NtRp798
(dp799
g57
(dp800
sg66
g786
sg59
(lp801
g52
(g53
g54
NtRp802
(dp803
g57
(dp804
g65
I3
ssg66
g798
sg59
(lp805
S''
asbasbasbag52
(g68
g54
NtRp806
(dp807
g57
(dp808
sg66
g782
sg59
(lp809
g52
(g73
g54
NtRp810
(dp811
g57
(dp812
g77
g78
ssg66
g806
sg59
(lp813
g313
asbag52
(g73
g54
NtRp814
(dp815
g57
(dp816
g84
g85
ssg66
g806
sg59
(lp817
S':'
asbag52
(g73
g54
NtRp818
(dp819
g57
(dp820
sg66
g806
sg59
(lp821
g52
(g53
g54
NtRp822
(dp823
g57
(dp824
g65
I3
ssg66
g818
sg59
(lp825
S''
asbasbasbag52
(g68
g54
NtRp826
(dp827
g57
(dp828
sg66
g782
sg59
(lp829
g52
(g73
g54
NtRp830
(dp831
g57
(dp832
g77
g78
ssg66
g826
sg59
(lp833
g334
asbag52
(g73
g54
NtRp834
(dp835
g57
(dp836
g84
g85
ssg66
g826
sg59
(lp837
S':'
asbag52
(g73
g54
NtRp838
(dp839
g57
(dp840
sg66
g826
sg59
(lp841
g52
(g53
g54
NtRp842
(dp843
g57
(dp844
g65
I3
ssg66
g838
sg59
(lp845
S''
asbasbasbag52
(g68
g54
NtRp846
(dp847
g57
(dp848
sg66
g782
sg59
(lp849
g52
(g73
g54
NtRp850
(dp851
g57
(dp852
g77
g78
ssg66
g846
sg59
(lp853
g355
asbag52
(g73
g54
NtRp854
(dp855
g57
(dp856
g84
g85
ssg66
g846
sg59
(lp857
S':'
asbag52
(g73
g54
NtRp858
(dp859
g57
(dp860
sg66
g846
sg59
(lp861
g52
(g53
g54
NtRp862
(dp863
g57
(dp864
g65
I3
ssg66
g858
sg59
(lp865
S''
asbasbasbag52
(g68
g54
NtRp866
(dp867
g57
(dp868
sg66
g782
sg59
(lp869
g52
(g73
g54
NtRp870
(dp871
g57
(dp872
g77
g78
ssg66
g866
sg59
(lp873
g376
asbag52
(g73
g54
NtRp874
(dp875
g57
(dp876
g84
g85
ssg66
g866
sg59
(lp877
S':'
asbag52
(g73
g54
NtRp878
(dp879
g57
(dp880
sg66
g866
sg59
(lp881
g52
(g53
g54
NtRp882
(dp883
g57
(dp884
g65
I3
ssg66
g878
sg59
(lp885
S''
asbasbasbag52
(g68
g54
NtRp886
(dp887
g57
(dp888
sg66
g782
sg59
(lp889
g52
(g73
g54
NtRp890
(dp891
g57
(dp892
g77
g78
ssg66
g886
sg59
(lp893
g397
asbag52
(g73
g54
NtRp894
(dp895
g57
(dp896
g84
g85
ssg66
g886
sg59
(lp897
S':'
asbag52
(g73
g54
NtRp898
(dp899
g57
(dp900
sg66
g886
sg59
(lp901
g52
(g53
g54
NtRp902
(dp903
g57
(dp904
g65
I3
ssg66
g898
sg59
(lp905
S''
asbasbasbag52
(g68
g54
NtRp906
(dp907
g57
(dp908
sg66
g782
sg59
(lp909
g52
(g73
g54
NtRp910
(dp911
g57
(dp912
g77
g78
ssg66
g906
sg59
(lp913
g418
asbag52
(g73
g54
NtRp914
(dp915
g57
(dp916
g84
g85
ssg66
g906
sg59
(lp917
S':'
asbag52
(g73
g54
NtRp918
(dp919
g57
(dp920
sg66
g906
sg59
(lp921
g52
(g53
g54
NtRp922
(dp923
g57
(dp924
g65
I3
ssg66
g918
sg59
(lp925
S''
asbasbasbasbasbasbasbasbasbasbasbag52
(g68
g54
NtRp926
(dp927
g57
(dp928
sg66
g62
sg59
(lp929
g52
(g73
g54
NtRp930
(dp931
g57
(dp932
g77
g78
ssg66
g926
sg59
(lp933
S'env'
p934
asbag52
(g73
g54
NtRp935
(dp936
g57
(dp937
g84
g85
ssg66
g926
sg59
(lp938
S':'
asbag52
(g73
g54
NtRp939
(dp940
g57
(dp941
sg66
g926
sg59
(lp942
g52
(g53
g54
NtRp943
(dp944
g57
(dp945
g65
I5
ssg66
g939
sg59
(lp946
g52
(g61
g54
NtRp947
(dp948
g57
(dp949
g65
I4
ssg66
Nsg59
(lp950
g52
(g68
g54
NtRp951
(dp952
g57
(dp953
sg66
g947
sg59
(lp954
g52
(g73
g54
NtRp955
(dp956
g57
(dp957
g77
g78
ssg66
g951
sg59
(lp958
S'app_folders'
p959
asbag52
(g73
g54
NtRp960
(dp961
g57
(dp962
g84
g85
ssg66
g951
sg59
(lp963
S':'
asbag52
(g73
g54
NtRp964
(dp965
g57
(dp966
sg66
g951
sg59
(lp967
g52
(g53
g54
NtRp968
(dp969
g57
(dp970
g65
I4
ssg66
g964
sg59
(lp971
S"set(['C:\\\\Python32\\\\web2py\\\\applications\\\\Casa_de_Apuestas\\\\', 'C:\\\\Python32\\\\web2py\\\\applications\\\\images\\\\', 'C:\\\\Python32\\\\web2py\\\\applications\\\\welcome\\\\', 'C:\\\\Python32\\\\web2py\\\\applications\\\\admin\\\\'])"
p972
asbasbasbag52
(g68
g54
NtRp973
(dp974
g57
(dp975
sg66
g947
sg59
(lp976
g52
(g73
g54
NtRp977
(dp978
g57
(dp979
g77
g78
ssg66
g973
sg59
(lp980
S'applications_parent'
p981
asbag52
(g73
g54
NtRp982
(dp983
g57
(dp984
g84
g85
ssg66
g973
sg59
(lp985
S':'
asbag52
(g73
g54
NtRp986
(dp987
g57
(dp988
sg66
g973
sg59
(lp989
g52
(g53
g54
NtRp990
(dp991
g57
(dp992
g65
I4
ssg66
g986
sg59
(lp993
S'C:\\Python32\\web2py'
p994
asbasbasbag52
(g68
g54
NtRp995
(dp996
g57
(dp997
sg66
g947
sg59
(lp998
g52
(g73
g54
NtRp999
(dp1000
g57
(dp1001
g77
g78
ssg66
g995
sg59
(lp1002
S'cmd_args'
p1003
asbag52
(g73
g54
NtRp1004
(dp1005
g57
(dp1006
g84
g85
ssg66
g995
sg59
(lp1007
S':'
asbag52
(g73
g54
NtRp1008
(dp1009
g57
(dp1010
sg66
g995
sg59
(lp1011
g52
(g53
g54
NtRp1012
(dp1013
g57
(dp1014
g65
I4
ssg66
g1008
sg59
(lp1015
g52
(g61
g54
NtRp1016
(dp1017
g57
(dp1018
g65
I3
ssg66
Nsg59
(lp1019
sbasbasbasbag52
(g68
g54
NtRp1020
(dp1021
g57
(dp1022
sg66
g947
sg59
(lp1023
g52
(g73
g54
NtRp1024
(dp1025
g57
(dp1026
g77
g78
ssg66
g1020
sg59
(lp1027
S'cmd_options'
p1028
asbag52
(g73
g54
NtRp1029
(dp1030
g57
(dp1031
g84
g85
ssg66
g1020
sg59
(lp1032
S':'
asbag52
(g73
g54
NtRp1033
(dp1034
g57
(dp1035
sg66
g1020
sg59
(lp1036
g52
(g53
g54
NtRp1037
(dp1038
g57
(dp1039
g65
I4
ssg66
g1033
sg59
(lp1040
S"<Values at 0x2d18f30: {'verbose': False, 'ip': '127.0.0.1', 'shutdown_timeout': 5, 'taskbar': False, 'nocron': False, 'pid_filename': 'httpserver.pid', 'maxthreads': None, 'softcron': False, 'server_name': 'hector-asus', 'bpython': False, 'nogui': False, 'port': 8000, 'extcron': False, 'debuglevel': 30, 'test': None, 'folder': 'C:\\\\Python32\\\\web2py', 'config': '', 'import_models': False, 'winservice': '', 'shell': None, 'run': '', 'log_filename': 'httpserver.log', 'args': [''], 'ssl_ca_certificate': None, 'scheduler': None, 'profiler_filename': None, 'ssl_private_key': '', 'password': '<ask>', 'request_queue_size': 5, 'ssl_certificate': '', 'cronjob': False, 'plain': False, 'quiet': False, 'interfaces': None, 'minthreads': None, 'timeout': 10, 'numthreads': None, 'nobanner': False}>"
p1041
asbasbasbag52
(g68
g54
NtRp1042
(dp1043
g57
(dp1044
sg66
g947
sg59
(lp1045
g52
(g73
g54
NtRp1046
(dp1047
g57
(dp1048
g77
g78
ssg66
g1042
sg59
(lp1049
S'content_length'
p1050
asbag52
(g73
g54
NtRp1051
(dp1052
g57
(dp1053
g84
g85
ssg66
g1042
sg59
(lp1054
S':'
asbag52
(g73
g54
NtRp1055
(dp1056
g57
(dp1057
sg66
g1042
sg59
(lp1058
g52
(g53
g54
NtRp1059
(dp1060
g57
(dp1061
g65
I4
ssg66
g1055
sg59
(lp1062
S'601'
p1063
asbasbasbag52
(g68
g54
NtRp1064
(dp1065
g57
(dp1066
sg66
g947
sg59
(lp1067
g52
(g73
g54
NtRp1068
(dp1069
g57
(dp1070
g77
g78
ssg66
g1064
sg59
(lp1071
S'content_type'
p1072
asbag52
(g73
g54
NtRp1073
(dp1074
g57
(dp1075
g84
g85
ssg66
g1064
sg59
(lp1076
S':'
asbag52
(g73
g54
NtRp1077
(dp1078
g57
(dp1079
sg66
g1064
sg59
(lp1080
g52
(g53
g54
NtRp1081
(dp1082
g57
(dp1083
g65
I4
ssg66
g1077
sg59
(lp1084
S'multipart/form-data; boundary=----WebKitFormBoundaryGNcVghd1vQH63XA8'
p1085
asbasbasbag52
(g68
g54
NtRp1086
(dp1087
g57
(dp1088
sg66
g947
sg59
(lp1089
g52
(g73
g54
NtRp1090
(dp1091
g57
(dp1092
g77
g78
ssg66
g1086
sg59
(lp1093
S'db_sessions'
p1094
asbag52
(g73
g54
NtRp1095
(dp1096
g57
(dp1097
g84
g85
ssg66
g1086
sg59
(lp1098
S':'
asbag52
(g73
g54
NtRp1099
(dp1100
g57
(dp1101
sg66
g1086
sg59
(lp1102
g52
(g53
g54
NtRp1103
(dp1104
g57
(dp1105
g65
I4
ssg66
g1099
sg59
(lp1106
S'set([])'
p1107
asbasbasbag52
(g68
g54
NtRp1108
(dp1109
g57
(dp1110
sg66
g947
sg59
(lp1111
g52
(g73
g54
NtRp1112
(dp1113
g57
(dp1114
g77
g78
ssg66
g1108
sg59
(lp1115
S'debugging'
p1116
asbag52
(g73
g54
NtRp1117
(dp1118
g57
(dp1119
g84
g85
ssg66
g1108
sg59
(lp1120
S':'
asbag52
(g73
g54
NtRp1121
(dp1122
g57
(dp1123
sg66
g1108
sg59
(lp1124
g52
(g53
g54
NtRp1125
(dp1126
g57
(dp1127
g65
I4
ssg66
g1121
sg59
(lp1128
g95
asbasbasbag52
(g68
g54
NtRp1129
(dp1130
g57
(dp1131
sg66
g947
sg59
(lp1132
g52
(g73
g54
NtRp1133
(dp1134
g57
(dp1135
g77
g78
ssg66
g1129
sg59
(lp1136
S'gluon_parent'
p1137
asbag52
(g73
g54
NtRp1138
(dp1139
g57
(dp1140
g84
g85
ssg66
g1129
sg59
(lp1141
S':'
asbag52
(g73
g54
NtRp1142
(dp1143
g57
(dp1144
sg66
g1129
sg59
(lp1145
g52
(g53
g54
NtRp1146
(dp1147
g57
(dp1148
g65
I4
ssg66
g1142
sg59
(lp1149
S'C:\\Python32\\web2py'
p1150
asbasbasbag52
(g68
g54
NtRp1151
(dp1152
g57
(dp1153
sg66
g947
sg59
(lp1154
g52
(g73
g54
NtRp1155
(dp1156
g57
(dp1157
g77
g78
ssg66
g1151
sg59
(lp1158
S'http_accept'
p1159
asbag52
(g73
g54
NtRp1160
(dp1161
g57
(dp1162
g84
g85
ssg66
g1151
sg59
(lp1163
S':'
asbag52
(g73
g54
NtRp1164
(dp1165
g57
(dp1166
sg66
g1151
sg59
(lp1167
g52
(g53
g54
NtRp1168
(dp1169
g57
(dp1170
g65
I4
ssg66
g1164
sg59
(lp1171
S'text/html,application/xhtml+xml,application/xml;q=0.9,*/*;q=0.8'
p1172
asbasbasbag52
(g68
g54
NtRp1173
(dp1174
g57
(dp1175
sg66
g947
sg59
(lp1176
g52
(g73
g54
NtRp1177
(dp1178
g57
(dp1179
g77
g78
ssg66
g1173
sg59
(lp1180
S'http_accept_charset'
p1181
asbag52
(g73
g54
NtRp1182
(dp1183
g57
(dp1184
g84
g85
ssg66
g1173
sg59
(lp1185
S':'
asbag52
(g73
g54
NtRp1186
(dp1187
g57
(dp1188
sg66
g1173
sg59
(lp1189
g52
(g53
g54
NtRp1190
(dp1191
g57
(dp1192
g65
I4
ssg66
g1186
sg59
(lp1193
S'ISO-8859-1,utf-8;q=0.7,*;q=0.3'
p1194
asbasbasbag52
(g68
g54
NtRp1195
(dp1196
g57
(dp1197
sg66
g947
sg59
(lp1198
g52
(g73
g54
NtRp1199
(dp1200
g57
(dp1201
g77
g78
ssg66
g1195
sg59
(lp1202
S'http_accept_encoding'
p1203
asbag52
(g73
g54
NtRp1204
(dp1205
g57
(dp1206
g84
g85
ssg66
g1195
sg59
(lp1207
S':'
asbag52
(g73
g54
NtRp1208
(dp1209
g57
(dp1210
sg66
g1195
sg59
(lp1211
g52
(g53
g54
NtRp1212
(dp1213
g57
(dp1214
g65
I4
ssg66
g1208
sg59
(lp1215
S'gzip,deflate,sdch'
p1216
asbasbasbag52
(g68
g54
NtRp1217
(dp1218
g57
(dp1219
sg66
g947
sg59
(lp1220
g52
(g73
g54
NtRp1221
(dp1222
g57
(dp1223
g77
g78
ssg66
g1217
sg59
(lp1224
S'http_accept_language'
p1225
asbag52
(g73
g54
NtRp1226
(dp1227
g57
(dp1228
g84
g85
ssg66
g1217
sg59
(lp1229
S':'
asbag52
(g73
g54
NtRp1230
(dp1231
g57
(dp1232
sg66
g1217
sg59
(lp1233
g52
(g53
g54
NtRp1234
(dp1235
g57
(dp1236
g65
I4
ssg66
g1230
sg59
(lp1237
S'en-US,en;q=0.8'
p1238
asbasbasbag52
(g68
g54
NtRp1239
(dp1240
g57
(dp1241
sg66
g947
sg59
(lp1242
g52
(g73
g54
NtRp1243
(dp1244
g57
(dp1245
g77
g78
ssg66
g1239
sg59
(lp1246
S'http_cache_control'
p1247
asbag52
(g73
g54
NtRp1248
(dp1249
g57
(dp1250
g84
g85
ssg66
g1239
sg59
(lp1251
S':'
asbag52
(g73
g54
NtRp1252
(dp1253
g57
(dp1254
sg66
g1239
sg59
(lp1255
g52
(g53
g54
NtRp1256
(dp1257
g57
(dp1258
g65
I4
ssg66
g1252
sg59
(lp1259
S'max-age=0'
p1260
asbasbasbag52
(g68
g54
NtRp1261
(dp1262
g57
(dp1263
sg66
g947
sg59
(lp1264
g52
(g73
g54
NtRp1265
(dp1266
g57
(dp1267
g77
g78
ssg66
g1261
sg59
(lp1268
S'http_connection'
p1269
asbag52
(g73
g54
NtRp1270
(dp1271
g57
(dp1272
g84
g85
ssg66
g1261
sg59
(lp1273
S':'
asbag52
(g73
g54
NtRp1274
(dp1275
g57
(dp1276
sg66
g1261
sg59
(lp1277
g52
(g53
g54
NtRp1278
(dp1279
g57
(dp1280
g65
I4
ssg66
g1274
sg59
(lp1281
S'keep-alive'
p1282
asbasbasbag52
(g68
g54
NtRp1283
(dp1284
g57
(dp1285
sg66
g947
sg59
(lp1286
g52
(g73
g54
NtRp1287
(dp1288
g57
(dp1289
g77
g78
ssg66
g1283
sg59
(lp1290
S'http_content_length'
p1291
asbag52
(g73
g54
NtRp1292
(dp1293
g57
(dp1294
g84
g85
ssg66
g1283
sg59
(lp1295
S':'
asbag52
(g73
g54
NtRp1296
(dp1297
g57
(dp1298
sg66
g1283
sg59
(lp1299
g52
(g53
g54
NtRp1300
(dp1301
g57
(dp1302
g65
I4
ssg66
g1296
sg59
(lp1303
g1063
asbasbasbag52
(g68
g54
NtRp1304
(dp1305
g57
(dp1306
sg66
g947
sg59
(lp1307
g52
(g73
g54
NtRp1308
(dp1309
g57
(dp1310
g77
g78
ssg66
g1304
sg59
(lp1311
S'http_content_type'
p1312
asbag52
(g73
g54
NtRp1313
(dp1314
g57
(dp1315
g84
g85
ssg66
g1304
sg59
(lp1316
S':'
asbag52
(g73
g54
NtRp1317
(dp1318
g57
(dp1319
sg66
g1304
sg59
(lp1320
g52
(g53
g54
NtRp1321
(dp1322
g57
(dp1323
g65
I4
ssg66
g1317
sg59
(lp1324
g1085
asbasbasbag52
(g68
g54
NtRp1325
(dp1326
g57
(dp1327
sg66
g947
sg59
(lp1328
g52
(g73
g54
NtRp1329
(dp1330
g57
(dp1331
g77
g78
ssg66
g1325
sg59
(lp1332
S'http_cookie'
p1333
asbag52
(g73
g54
NtRp1334
(dp1335
g57
(dp1336
g84
g85
ssg66
g1325
sg59
(lp1337
S':'
asbag52
(g73
g54
NtRp1338
(dp1339
g57
(dp1340
sg66
g1325
sg59
(lp1341
g52
(g53
g54
NtRp1342
(dp1343
g57
(dp1344
g65
I4
ssg66
g1338
sg59
(lp1345
S'session_id_welcome=127.0.0.1-07b05742-4fc1-4474-90ad-860dbbef112b; session_id_images=127.0.0.1-b7aa86f2-0acd-49d9-92fc-557581040429; session_id_admin=127.0.0.1-5155ace7-c952-49d3-a385-f66534093f7a; session_id_casa_de_apuestas=127.0.0.1-ff075696-a054-47b7-bd6f-733e6903bb65'
p1346
asbasbasbag52
(g68
g54
NtRp1347
(dp1348
g57
(dp1349
sg66
g947
sg59
(lp1350
g52
(g73
g54
NtRp1351
(dp1352
g57
(dp1353
g77
g78
ssg66
g1347
sg59
(lp1354
S'http_host'
p1355
asbag52
(g73
g54
NtRp1356
(dp1357
g57
(dp1358
g84
g85
ssg66
g1347
sg59
(lp1359
S':'
asbag52
(g73
g54
NtRp1360
(dp1361
g57
(dp1362
sg66
g1347
sg59
(lp1363
g52
(g53
g54
NtRp1364
(dp1365
g57
(dp1366
g65
I4
ssg66
g1360
sg59
(lp1367
S'127.0.0.1:8000'
p1368
asbasbasbag52
(g68
g54
NtRp1369
(dp1370
g57
(dp1371
sg66
g947
sg59
(lp1372
g52
(g73
g54
NtRp1373
(dp1374
g57
(dp1375
g77
g78
ssg66
g1369
sg59
(lp1376
S'http_origin'
p1377
asbag52
(g73
g54
NtRp1378
(dp1379
g57
(dp1380
g84
g85
ssg66
g1369
sg59
(lp1381
S':'
asbag52
(g73
g54
NtRp1382
(dp1383
g57
(dp1384
sg66
g1369
sg59
(lp1385
g52
(g53
g54
NtRp1386
(dp1387
g57
(dp1388
g65
I4
ssg66
g1382
sg59
(lp1389
S'http://127.0.0.1:8000'
p1390
asbasbasbag52
(g68
g54
NtRp1391
(dp1392
g57
(dp1393
sg66
g947
sg59
(lp1394
g52
(g73
g54
NtRp1395
(dp1396
g57
(dp1397
g77
g78
ssg66
g1391
sg59
(lp1398
S'http_referer'
p1399
asbag52
(g73
g54
NtRp1400
(dp1401
g57
(dp1402
g84
g85
ssg66
g1391
sg59
(lp1403
S':'
asbag52
(g73
g54
NtRp1404
(dp1405
g57
(dp1406
sg66
g1391
sg59
(lp1407
g52
(g53
g54
NtRp1408
(dp1409
g57
(dp1410
g65
I4
ssg66
g1404
sg59
(lp1411
S'http://127.0.0.1:8000/Casa_de_Apuestas/appadmin/insert/db/eventosparticipantes'
p1412
asbasbasbag52
(g68
g54
NtRp1413
(dp1414
g57
(dp1415
sg66
g947
sg59
(lp1416
g52
(g73
g54
NtRp1417
(dp1418
g57
(dp1419
g77
g78
ssg66
g1413
sg59
(lp1420
S'http_user_agent'
p1421
asbag52
(g73
g54
NtRp1422
(dp1423
g57
(dp1424
g84
g85
ssg66
g1413
sg59
(lp1425
S':'
asbag52
(g73
g54
NtRp1426
(dp1427
g57
(dp1428
sg66
g1413
sg59
(lp1429
g52
(g53
g54
NtRp1430
(dp1431
g57
(dp1432
g65
I4
ssg66
g1426
sg59
(lp1433
S'Mozilla/5.0 (Windows NT 6.1; WOW64) AppleWebKit/535.2 (KHTML, like Gecko) Chrome/15.0.874.106 Safari/535.2'
p1434
asbasbasbag52
(g68
g54
NtRp1435
(dp1436
g57
(dp1437
sg66
g947
sg59
(lp1438
g52
(g73
g54
NtRp1439
(dp1440
g57
(dp1441
g77
g78
ssg66
g1435
sg59
(lp1442
S'is_jython'
p1443
asbag52
(g73
g54
NtRp1444
(dp1445
g57
(dp1446
g84
g85
ssg66
g1435
sg59
(lp1447
S':'
asbag52
(g73
g54
NtRp1448
(dp1449
g57
(dp1450
sg66
g1435
sg59
(lp1451
g52
(g53
g54
NtRp1452
(dp1453
g57
(dp1454
g65
I4
ssg66
g1448
sg59
(lp1455
g95
asbasbasbag52
(g68
g54
NtRp1456
(dp1457
g57
(dp1458
sg66
g947
sg59
(lp1459
g52
(g73
g54
NtRp1460
(dp1461
g57
(dp1462
g77
g78
ssg66
g1456
sg59
(lp1463
S'path_info'
p1464
asbag52
(g73
g54
NtRp1465
(dp1466
g57
(dp1467
g84
g85
ssg66
g1456
sg59
(lp1468
S':'
asbag52
(g73
g54
NtRp1469
(dp1470
g57
(dp1471
sg66
g1456
sg59
(lp1472
g52
(g53
g54
NtRp1473
(dp1474
g57
(dp1475
g65
I4
ssg66
g1469
sg59
(lp1476
S'/Casa_de_Apuestas/appadmin/insert/db/eventosparticipantes'
p1477
asbasbasbag52
(g68
g54
NtRp1478
(dp1479
g57
(dp1480
sg66
g947
sg59
(lp1481
g52
(g73
g54
NtRp1482
(dp1483
g57
(dp1484
g77
g78
ssg66
g1478
sg59
(lp1485
S'query_string'
p1486
asbag52
(g73
g54
NtRp1487
(dp1488
g57
(dp1489
g84
g85
ssg66
g1478
sg59
(lp1490
S':'
asbag52
(g73
g54
NtRp1491
(dp1492
g57
(dp1493
sg66
g1478
sg59
(lp1494
g52
(g53
g54
NtRp1495
(dp1496
g57
(dp1497
g65
I4
ssg66
g1491
sg59
(lp1498
S''
asbasbasbag52
(g68
g54
NtRp1499
(dp1500
g57
(dp1501
sg66
g947
sg59
(lp1502
g52
(g73
g54
NtRp1503
(dp1504
g57
(dp1505
g77
g78
ssg66
g1499
sg59
(lp1506
S'remote_addr'
p1507
asbag52
(g73
g54
NtRp1508
(dp1509
g57
(dp1510
g84
g85
ssg66
g1499
sg59
(lp1511
S':'
asbag52
(g73
g54
NtRp1512
(dp1513
g57
(dp1514
sg66
g1499
sg59
(lp1515
g52
(g53
g54
NtRp1516
(dp1517
g57
(dp1518
g65
I4
ssg66
g1512
sg59
(lp1519
g211
asbasbasbag52
(g68
g54
NtRp1520
(dp1521
g57
(dp1522
sg66
g947
sg59
(lp1523
g52
(g73
g54
NtRp1524
(dp1525
g57
(dp1526
g77
g78
ssg66
g1520
sg59
(lp1527
S'remote_port'
p1528
asbag52
(g73
g54
NtRp1529
(dp1530
g57
(dp1531
g84
g85
ssg66
g1520
sg59
(lp1532
S':'
asbag52
(g73
g54
NtRp1533
(dp1534
g57
(dp1535
sg66
g1520
sg59
(lp1536
g52
(g53
g54
NtRp1537
(dp1538
g57
(dp1539
g65
I4
ssg66
g1533
sg59
(lp1540
S'49685'
p1541
asbasbasbag52
(g68
g54
NtRp1542
(dp1543
g57
(dp1544
sg66
g947
sg59
(lp1545
g52
(g73
g54
NtRp1546
(dp1547
g57
(dp1548
g77
g78
ssg66
g1542
sg59
(lp1549
S'request_method'
p1550
asbag52
(g73
g54
NtRp1551
(dp1552
g57
(dp1553
g84
g85
ssg66
g1542
sg59
(lp1554
S':'
asbag52
(g73
g54
NtRp1555
(dp1556
g57
(dp1557
sg66
g1542
sg59
(lp1558
g52
(g53
g54
NtRp1559
(dp1560
g57
(dp1561
g65
I4
ssg66
g1555
sg59
(lp1562
S'POST'
p1563
asbasbasbag52
(g68
g54
NtRp1564
(dp1565
g57
(dp1566
sg66
g947
sg59
(lp1567
g52
(g73
g54
NtRp1568
(dp1569
g57
(dp1570
g77
g78
ssg66
g1564
sg59
(lp1571
S'script_name'
p1572
asbag52
(g73
g54
NtRp1573
(dp1574
g57
(dp1575
g84
g85
ssg66
g1564
sg59
(lp1576
S':'
asbag52
(g73
g54
NtRp1577
(dp1578
g57
(dp1579
sg66
g1564
sg59
(lp1580
g52
(g53
g54
NtRp1581
(dp1582
g57
(dp1583
g65
I4
ssg66
g1577
sg59
(lp1584
S''
asbasbasbag52
(g68
g54
NtRp1585
(dp1586
g57
(dp1587
sg66
g947
sg59
(lp1588
g52
(g73
g54
NtRp1589
(dp1590
g57
(dp1591
g77
g78
ssg66
g1585
sg59
(lp1592
S'server_name'
p1593
asbag52
(g73
g54
NtRp1594
(dp1595
g57
(dp1596
g84
g85
ssg66
g1585
sg59
(lp1597
S':'
asbag52
(g73
g54
NtRp1598
(dp1599
g57
(dp1600
sg66
g1585
sg59
(lp1601
g52
(g53
g54
NtRp1602
(dp1603
g57
(dp1604
g65
I4
ssg66
g1598
sg59
(lp1605
S'hector-asus'
p1606
asbasbasbag52
(g68
g54
NtRp1607
(dp1608
g57
(dp1609
sg66
g947
sg59
(lp1610
g52
(g73
g54
NtRp1611
(dp1612
g57
(dp1613
g77
g78
ssg66
g1607
sg59
(lp1614
S'server_port'
p1615
asbag52
(g73
g54
NtRp1616
(dp1617
g57
(dp1618
g84
g85
ssg66
g1607
sg59
(lp1619
S':'
asbag52
(g73
g54
NtRp1620
(dp1621
g57
(dp1622
sg66
g1607
sg59
(lp1623
g52
(g53
g54
NtRp1624
(dp1625
g57
(dp1626
g65
I4
ssg66
g1620
sg59
(lp1627
S'8000'
p1628
asbasbasbag52
(g68
g54
NtRp1629
(dp1630
g57
(dp1631
sg66
g947
sg59
(lp1632
g52
(g73
g54
NtRp1633
(dp1634
g57
(dp1635
g77
g78
ssg66
g1629
sg59
(lp1636
S'server_protocol'
p1637
asbag52
(g73
g54
NtRp1638
(dp1639
g57
(dp1640
g84
g85
ssg66
g1629
sg59
(lp1641
S':'
asbag52
(g73
g54
NtRp1642
(dp1643
g57
(dp1644
sg66
g1629
sg59
(lp1645
g52
(g53
g54
NtRp1646
(dp1647
g57
(dp1648
g65
I4
ssg66
g1642
sg59
(lp1649
S'HTTP/1.1'
p1650
asbasbasbag52
(g68
g54
NtRp1651
(dp1652
g57
(dp1653
sg66
g947
sg59
(lp1654
g52
(g73
g54
NtRp1655
(dp1656
g57
(dp1657
g77
g78
ssg66
g1651
sg59
(lp1658
S'server_software'
p1659
asbag52
(g73
g54
NtRp1660
(dp1661
g57
(dp1662
g84
g85
ssg66
g1651
sg59
(lp1663
S':'
asbag52
(g73
g54
NtRp1664
(dp1665
g57
(dp1666
sg66
g1651
sg59
(lp1667
g52
(g53
g54
NtRp1668
(dp1669
g57
(dp1670
g65
I4
ssg66
g1664
sg59
(lp1671
S'Rocket 1.2.4'
p1672
asbasbasbag52
(g68
g54
NtRp1673
(dp1674
g57
(dp1675
sg66
g947
sg59
(lp1676
g52
(g73
g54
NtRp1677
(dp1678
g57
(dp1679
g77
g78
ssg66
g1673
sg59
(lp1680
S'web2py_crontype'
p1681
asbag52
(g73
g54
NtRp1682
(dp1683
g57
(dp1684
g84
g85
ssg66
g1673
sg59
(lp1685
S':'
asbag52
(g73
g54
NtRp1686
(dp1687
g57
(dp1688
sg66
g1673
sg59
(lp1689
g52
(g53
g54
NtRp1690
(dp1691
g57
(dp1692
g65
I4
ssg66
g1686
sg59
(lp1693
S'hard'
p1694
asbasbasbag52
(g68
g54
NtRp1695
(dp1696
g57
(dp1697
sg66
g947
sg59
(lp1698
g52
(g73
g54
NtRp1699
(dp1700
g57
(dp1701
g77
g78
ssg66
g1695
sg59
(lp1702
S'web2py_path'
p1703
asbag52
(g73
g54
NtRp1704
(dp1705
g57
(dp1706
g84
g85
ssg66
g1695
sg59
(lp1707
S':'
asbag52
(g73
g54
NtRp1708
(dp1709
g57
(dp1710
sg66
g1695
sg59
(lp1711
g52
(g53
g54
NtRp1712
(dp1713
g57
(dp1714
g65
I4
ssg66
g1708
sg59
(lp1715
g994
asbasbasbag52
(g68
g54
NtRp1716
(dp1717
g57
(dp1718
sg66
g947
sg59
(lp1719
g52
(g73
g54
NtRp1720
(dp1721
g57
(dp1722
g77
g78
ssg66
g1716
sg59
(lp1723
S'web2py_version'
p1724
asbag52
(g73
g54
NtRp1725
(dp1726
g57
(dp1727
g84
g85
ssg66
g1716
sg59
(lp1728
S':'
asbag52
(g73
g54
NtRp1729
(dp1730
g57
(dp1731
sg66
g1716
sg59
(lp1732
g52
(g53
g54
NtRp1733
(dp1734
g57
(dp1735
g65
I4
ssg66
g1729
sg59
(lp1736
g52
(g61
g54
NtRp1737
(dp1738
g57
(dp1739
g65
I3
ssg66
Nsg59
(lp1740
g52
(g68
g54
NtRp1741
(dp1742
g57
(dp1743
sg66
g1737
sg59
(lp1744
g52
(g73
g54
NtRp1745
(dp1746
g57
(dp1747
sg66
g1741
sg59
(lp1748
g52
(g53
g54
NtRp1749
(dp1750
g57
(dp1751
g65
I3
ssg66
g1745
sg59
(lp1752
S'1'
asbasbasbag52
(g68
g54
NtRp1753
(dp1754
g57
(dp1755
sg66
g1737
sg59
(lp1756
g52
(g73
g54
NtRp1757
(dp1758
g57
(dp1759
sg66
g1753
sg59
(lp1760
g52
(g53
g54
NtRp1761
(dp1762
g57
(dp1763
g65
I3
ssg66
g1757
sg59
(lp1764
S'99'
p1765
asbasbasbag52
(g68
g54
NtRp1766
(dp1767
g57
(dp1768
sg66
g1737
sg59
(lp1769
g52
(g73
g54
NtRp1770
(dp1771
g57
(dp1772
sg66
g1766
sg59
(lp1773
g52
(g53
g54
NtRp1774
(dp1775
g57
(dp1776
g65
I3
ssg66
g1770
sg59
(lp1777
S'2'
asbasbasbag52
(g68
g54
NtRp1778
(dp1779
g57
(dp1780
sg66
g1737
sg59
(lp1781
g52
(g73
g54
NtRp1782
(dp1783
g57
(dp1784
sg66
g1778
sg59
(lp1785
g52
(g53
g54
NtRp1786
(dp1787
g57
(dp1788
g65
I3
ssg66
g1782
sg59
(lp1789
S'datetime.datetime(2011, 9, 26, 6, 55, 33)'
p1790
asbasbasbag52
(g68
g54
NtRp1791
(dp1792
g57
(dp1793
sg66
g1737
sg59
(lp1794
g52
(g73
g54
NtRp1795
(dp1796
g57
(dp1797
sg66
g1791
sg59
(lp1798
g52
(g53
g54
NtRp1799
(dp1800
g57
(dp1801
g65
I3
ssg66
g1795
sg59
(lp1802
S'stable'
p1803
asbasbasbasbasbasbasbag52
(g68
g54
NtRp1804
(dp1805
g57
(dp1806
sg66
g947
sg59
(lp1807
g52
(g73
g54
NtRp1808
(dp1809
g57
(dp1810
g77
g78
ssg66
g1804
sg59
(lp1811
S'wsgi_errors'
p1812
asbag52
(g73
g54
NtRp1813
(dp1814
g57
(dp1815
g84
g85
ssg66
g1804
sg59
(lp1816
S':'
asbag52
(g73
g54
NtRp1817
(dp1818
g57
(dp1819
sg66
g1804
sg59
(lp1820
g52
(g53
g54
NtRp1821
(dp1822
g57
(dp1823
g65
I4
ssg66
g1817
sg59
(lp1824
S"<open file '<stderr>', mode 'w' at 0x01FA00B0>"
p1825
asbasbasbag52
(g68
g54
NtRp1826
(dp1827
g57
(dp1828
sg66
g947
sg59
(lp1829
g52
(g73
g54
NtRp1830
(dp1831
g57
(dp1832
g77
g78
ssg66
g1826
sg59
(lp1833
S'wsgi_file_wrapper'
p1834
asbag52
(g73
g54
NtRp1835
(dp1836
g57
(dp1837
g84
g85
ssg66
g1826
sg59
(lp1838
S':'
asbag52
(g73
g54
NtRp1839
(dp1840
g57
(dp1841
sg66
g1826
sg59
(lp1842
g52
(g53
g54
NtRp1843
(dp1844
g57
(dp1845
g65
I4
ssg66
g1839
sg59
(lp1846
S'<class wsgiref.util.FileWrapper at 0x02AB0D80>'
p1847
asbasbasbag52
(g68
g54
NtRp1848
(dp1849
g57
(dp1850
sg66
g947
sg59
(lp1851
g52
(g73
g54
NtRp1852
(dp1853
g57
(dp1854
g77
g78
ssg66
g1848
sg59
(lp1855
S'wsgi_input'
p1856
asbag52
(g73
g54
NtRp1857
(dp1858
g57
(dp1859
g84
g85
ssg66
g1848
sg59
(lp1860
S':'
asbag52
(g73
g54
NtRp1861
(dp1862
g57
(dp1863
sg66
g1848
sg59
(lp1864
g52
(g53
g54
NtRp1865
(dp1866
g57
(dp1867
g65
I4
ssg66
g1861
sg59
(lp1868
S'<socket._fileobject object at 0x0633F5B0>'
p1869
asbasbasbag52
(g68
g54
NtRp1870
(dp1871
g57
(dp1872
sg66
g947
sg59
(lp1873
g52
(g73
g54
NtRp1874
(dp1875
g57
(dp1876
g77
g78
ssg66
g1870
sg59
(lp1877
S'wsgi_multiprocess'
p1878
asbag52
(g73
g54
NtRp1879
(dp1880
g57
(dp1881
g84
g85
ssg66
g1870
sg59
(lp1882
S':'
asbag52
(g73
g54
NtRp1883
(dp1884
g57
(dp1885
sg66
g1870
sg59
(lp1886
g52
(g53
g54
NtRp1887
(dp1888
g57
(dp1889
g65
I4
ssg66
g1883
sg59
(lp1890
g95
asbasbasbag52
(g68
g54
NtRp1891
(dp1892
g57
(dp1893
sg66
g947
sg59
(lp1894
g52
(g73
g54
NtRp1895
(dp1896
g57
(dp1897
g77
g78
ssg66
g1891
sg59
(lp1898
S'wsgi_multithread'
p1899
asbag52
(g73
g54
NtRp1900
(dp1901
g57
(dp1902
g84
g85
ssg66
g1891
sg59
(lp1903
S':'
asbag52
(g73
g54
NtRp1904
(dp1905
g57
(dp1906
sg66
g1891
sg59
(lp1907
g52
(g53
g54
NtRp1908
(dp1909
g57
(dp1910
g65
I4
ssg66
g1904
sg59
(lp1911
S'True'
p1912
asbasbasbag52
(g68
g54
NtRp1913
(dp1914
g57
(dp1915
sg66
g947
sg59
(lp1916
g52
(g73
g54
NtRp1917
(dp1918
g57
(dp1919
g77
g78
ssg66
g1913
sg59
(lp1920
S'wsgi_run_once'
p1921
asbag52
(g73
g54
NtRp1922
(dp1923
g57
(dp1924
g84
g85
ssg66
g1913
sg59
(lp1925
S':'
asbag52
(g73
g54
NtRp1926
(dp1927
g57
(dp1928
sg66
g1913
sg59
(lp1929
g52
(g53
g54
NtRp1930
(dp1931
g57
(dp1932
g65
I4
ssg66
g1926
sg59
(lp1933
g95
asbasbasbag52
(g68
g54
NtRp1934
(dp1935
g57
(dp1936
sg66
g947
sg59
(lp1937
g52
(g73
g54
NtRp1938
(dp1939
g57
(dp1940
g77
g78
ssg66
g1934
sg59
(lp1941
S'wsgi_url_scheme'
p1942
asbag52
(g73
g54
NtRp1943
(dp1944
g57
(dp1945
g84
g85
ssg66
g1934
sg59
(lp1946
S':'
asbag52
(g73
g54
NtRp1947
(dp1948
g57
(dp1949
sg66
g1934
sg59
(lp1950
g52
(g53
g54
NtRp1951
(dp1952
g57
(dp1953
g65
I4
ssg66
g1947
sg59
(lp1954
S'http'
p1955
asbasbasbag52
(g68
g54
NtRp1956
(dp1957
g57
(dp1958
sg66
g947
sg59
(lp1959
g52
(g73
g54
NtRp1960
(dp1961
g57
(dp1962
g77
g78
ssg66
g1956
sg59
(lp1963
S'wsgi_version'
p1964
asbag52
(g73
g54
NtRp1965
(dp1966
g57
(dp1967
g84
g85
ssg66
g1956
sg59
(lp1968
S':'
asbag52
(g73
g54
NtRp1969
(dp1970
g57
(dp1971
sg66
g1956
sg59
(lp1972
g52
(g53
g54
NtRp1973
(dp1974
g57
(dp1975
g65
I4
ssg66
g1969
sg59
(lp1976
g52
(g61
g54
NtRp1977
(dp1978
g57
(dp1979
g65
I3
ssg66
Nsg59
(lp1980
g52
(g68
g54
NtRp1981
(dp1982
g57
(dp1983
sg66
g1977
sg59
(lp1984
g52
(g73
g54
NtRp1985
(dp1986
g57
(dp1987
sg66
g1981
sg59
(lp1988
g52
(g53
g54
NtRp1989
(dp1990
g57
(dp1991
g65
I3
ssg66
g1985
sg59
(lp1992
S'1'
asbasbasbag52
(g68
g54
NtRp1993
(dp1994
g57
(dp1995
sg66
g1977
sg59
(lp1996
g52
(g73
g54
NtRp1997
(dp1998
g57
(dp1999
sg66
g1993
sg59
(lp2000
g52
(g53
g54
NtRp2001
(dp2002
g57
(dp2003
g65
I3
ssg66
g1997
sg59
(lp2004
S'0'
asbasbasbasbasbasbasbasbasbasbasbag52
(g68
g54
NtRp2005
(dp2006
g57
(dp2007
sg66
g62
sg59
(lp2008
g52
(g73
g54
NtRp2009
(dp2010
g57
(dp2011
g77
g78
ssg66
g2005
sg59
(lp2012
S'extension'
p2013
asbag52
(g73
g54
NtRp2014
(dp2015
g57
(dp2016
g84
g85
ssg66
g2005
sg59
(lp2017
S':'
asbag52
(g73
g54
NtRp2018
(dp2019
g57
(dp2020
sg66
g2005
sg59
(lp2021
g52
(g53
g54
NtRp2022
(dp2023
g57
(dp2024
g65
I5
ssg66
g2018
sg59
(lp2025
S'html'
p2026
asbasbasbag52
(g68
g54
NtRp2027
(dp2028
g57
(dp2029
sg66
g62
sg59
(lp2030
g52
(g73
g54
NtRp2031
(dp2032
g57
(dp2033
g77
g78
ssg66
g2027
sg59
(lp2034
S'folder'
p2035
asbag52
(g73
g54
NtRp2036
(dp2037
g57
(dp2038
g84
g85
ssg66
g2027
sg59
(lp2039
S':'
asbag52
(g73
g54
NtRp2040
(dp2041
g57
(dp2042
sg66
g2027
sg59
(lp2043
g52
(g53
g54
NtRp2044
(dp2045
g57
(dp2046
g65
I5
ssg66
g2040
sg59
(lp2047
S'C:\\Python32\\web2py\\applications\\Casa_de_Apuestas\\'
p2048
asbasbasbag52
(g68
g54
NtRp2049
(dp2050
g57
(dp2051
sg66
g62
sg59
(lp2052
g52
(g73
g54
NtRp2053
(dp2054
g57
(dp2055
g77
g78
ssg66
g2049
sg59
(lp2056
S'function'
p2057
asbag52
(g73
g54
NtRp2058
(dp2059
g57
(dp2060
g84
g85
ssg66
g2049
sg59
(lp2061
S':'
asbag52
(g73
g54
NtRp2062
(dp2063
g57
(dp2064
sg66
g2049
sg59
(lp2065
g52
(g53
g54
NtRp2066
(dp2067
g57
(dp2068
g65
I5
ssg66
g2062
sg59
(lp2069
S'insert'
p2070
asbasbasbag52
(g68
g54
NtRp2071
(dp2072
g57
(dp2073
sg66
g62
sg59
(lp2074
g52
(g73
g54
NtRp2075
(dp2076
g57
(dp2077
g77
g78
ssg66
g2071
sg59
(lp2078
S'get_vars'
p2079
asbag52
(g73
g54
NtRp2080
(dp2081
g57
(dp2082
g84
g85
ssg66
g2071
sg59
(lp2083
S':'
asbag52
(g73
g54
NtRp2084
(dp2085
g57
(dp2086
sg66
g2071
sg59
(lp2087
g52
(g53
g54
NtRp2088
(dp2089
g57
(dp2090
g65
I5
ssg66
g2084
sg59
(lp2091
g52
(g61
g54
NtRp2092
(dp2093
g57
(dp2094
g65
I4
ssg66
Nsg59
(lp2095
sbasbasbasbag52
(g68
g54
NtRp2096
(dp2097
g57
(dp2098
sg66
g62
sg59
(lp2099
g52
(g73
g54
NtRp2100
(dp2101
g57
(dp2102
g77
g78
ssg66
g2096
sg59
(lp2103
S'global_settings'
p2104
asbag52
(g73
g54
NtRp2105
(dp2106
g57
(dp2107
g84
g85
ssg66
g2096
sg59
(lp2108
S':'
asbag52
(g73
g54
NtRp2109
(dp2110
g57
(dp2111
sg66
g2096
sg59
(lp2112
g52
(g53
g54
NtRp2113
(dp2114
g57
(dp2115
g65
I5
ssg66
g2109
sg59
(lp2116
g52
(g61
g54
NtRp2117
(dp2118
g57
(dp2119
g65
I4
ssg66
Nsg59
(lp2120
g52
(g68
g54
NtRp2121
(dp2122
g57
(dp2123
sg66
g2117
sg59
(lp2124
g52
(g73
g54
NtRp2125
(dp2126
g57
(dp2127
g77
g78
ssg66
g2121
sg59
(lp2128
g959
asbag52
(g73
g54
NtRp2129
(dp2130
g57
(dp2131
g84
g85
ssg66
g2121
sg59
(lp2132
S':'
asbag52
(g73
g54
NtRp2133
(dp2134
g57
(dp2135
sg66
g2121
sg59
(lp2136
g52
(g53
g54
NtRp2137
(dp2138
g57
(dp2139
g65
I4
ssg66
g2133
sg59
(lp2140
S"set(['C:\\\\Python32\\\\web2py\\\\applications\\\\Casa_de_Apuestas\\\\', 'C:\\\\Python32\\\\web2py\\\\applications\\\\images\\\\', 'C:\\\\Python32\\\\web2py\\\\applications\\\\welcome\\\\', 'C:\\\\Python32\\\\web2py\\\\applications\\\\admin\\\\'])"
p2141
asbasbasbag52
(g68
g54
NtRp2142
(dp2143
g57
(dp2144
sg66
g2117
sg59
(lp2145
g52
(g73
g54
NtRp2146
(dp2147
g57
(dp2148
g77
g78
ssg66
g2142
sg59
(lp2149
g981
asbag52
(g73
g54
NtRp2150
(dp2151
g57
(dp2152
g84
g85
ssg66
g2142
sg59
(lp2153
S':'
asbag52
(g73
g54
NtRp2154
(dp2155
g57
(dp2156
sg66
g2142
sg59
(lp2157
g52
(g53
g54
NtRp2158
(dp2159
g57
(dp2160
g65
I4
ssg66
g2154
sg59
(lp2161
g994
asbasbasbag52
(g68
g54
NtRp2162
(dp2163
g57
(dp2164
sg66
g2117
sg59
(lp2165
g52
(g73
g54
NtRp2166
(dp2167
g57
(dp2168
g77
g78
ssg66
g2162
sg59
(lp2169
g1003
asbag52
(g73
g54
NtRp2170
(dp2171
g57
(dp2172
g84
g85
ssg66
g2162
sg59
(lp2173
S':'
asbag52
(g73
g54
NtRp2174
(dp2175
g57
(dp2176
sg66
g2162
sg59
(lp2177
g52
(g53
g54
NtRp2178
(dp2179
g57
(dp2180
g65
I4
ssg66
g2174
sg59
(lp2181
g52
(g61
g54
NtRp2182
(dp2183
g57
(dp2184
g65
I3
ssg66
Nsg59
(lp2185
sbasbasbasbag52
(g68
g54
NtRp2186
(dp2187
g57
(dp2188
sg66
g2117
sg59
(lp2189
g52
(g73
g54
NtRp2190
(dp2191
g57
(dp2192
g77
g78
ssg66
g2186
sg59
(lp2193
g1028
asbag52
(g73
g54
NtRp2194
(dp2195
g57
(dp2196
g84
g85
ssg66
g2186
sg59
(lp2197
S':'
asbag52
(g73
g54
NtRp2198
(dp2199
g57
(dp2200
sg66
g2186
sg59
(lp2201
g52
(g53
g54
NtRp2202
(dp2203
g57
(dp2204
g65
I4
ssg66
g2198
sg59
(lp2205
S"<Values at 0x2d18f30: {'verbose': False, 'ip': '127.0.0.1', 'shutdown_timeout': 5, 'taskbar': False, 'nocron': False, 'pid_filename': 'httpserver.pid', 'maxthreads': None, 'softcron': False, 'server_name': 'hector-asus', 'bpython': False, 'nogui': False, 'port': 8000, 'extcron': False, 'debuglevel': 30, 'test': None, 'folder': 'C:\\\\Python32\\\\web2py', 'config': '', 'import_models': False, 'winservice': '', 'shell': None, 'run': '', 'log_filename': 'httpserver.log', 'args': [''], 'ssl_ca_certificate': None, 'scheduler': None, 'profiler_filename': None, 'ssl_private_key': '', 'password': '<ask>', 'request_queue_size': 5, 'ssl_certificate': '', 'cronjob': False, 'plain': False, 'quiet': False, 'interfaces': None, 'minthreads': None, 'timeout': 10, 'numthreads': None, 'nobanner': False}>"
p2206
asbasbasbag52
(g68
g54
NtRp2207
(dp2208
g57
(dp2209
sg66
g2117
sg59
(lp2210
g52
(g73
g54
NtRp2211
(dp2212
g57
(dp2213
g77
g78
ssg66
g2207
sg59
(lp2214
g1094
asbag52
(g73
g54
NtRp2215
(dp2216
g57
(dp2217
g84
g85
ssg66
g2207
sg59
(lp2218
S':'
asbag52
(g73
g54
NtRp2219
(dp2220
g57
(dp2221
sg66
g2207
sg59
(lp2222
g52
(g53
g54
NtRp2223
(dp2224
g57
(dp2225
g65
I4
ssg66
g2219
sg59
(lp2226
S'set([])'
p2227
asbasbasbag52
(g68
g54
NtRp2228
(dp2229
g57
(dp2230
sg66
g2117
sg59
(lp2231
g52
(g73
g54
NtRp2232
(dp2233
g57
(dp2234
g77
g78
ssg66
g2228
sg59
(lp2235
g1116
asbag52
(g73
g54
NtRp2236
(dp2237
g57
(dp2238
g84
g85
ssg66
g2228
sg59
(lp2239
S':'
asbag52
(g73
g54
NtRp2240
(dp2241
g57
(dp2242
sg66
g2228
sg59
(lp2243
g52
(g53
g54
NtRp2244
(dp2245
g57
(dp2246
g65
I4
ssg66
g2240
sg59
(lp2247
g95
asbasbasbag52
(g68
g54
NtRp2248
(dp2249
g57
(dp2250
sg66
g2117
sg59
(lp2251
g52
(g73
g54
NtRp2252
(dp2253
g57
(dp2254
g77
g78
ssg66
g2248
sg59
(lp2255
g1137
asbag52
(g73
g54
NtRp2256
(dp2257
g57
(dp2258
g84
g85
ssg66
g2248
sg59
(lp2259
S':'
asbag52
(g73
g54
NtRp2260
(dp2261
g57
(dp2262
sg66
g2248
sg59
(lp2263
g52
(g53
g54
NtRp2264
(dp2265
g57
(dp2266
g65
I4
ssg66
g2260
sg59
(lp2267
g1150
asbasbasbag52
(g68
g54
NtRp2268
(dp2269
g57
(dp2270
sg66
g2117
sg59
(lp2271
g52
(g73
g54
NtRp2272
(dp2273
g57
(dp2274
g77
g78
ssg66
g2268
sg59
(lp2275
g1443
asbag52
(g73
g54
NtRp2276
(dp2277
g57
(dp2278
g84
g85
ssg66
g2268
sg59
(lp2279
S':'
asbag52
(g73
g54
NtRp2280
(dp2281
g57
(dp2282
sg66
g2268
sg59
(lp2283
g52
(g53
g54
NtRp2284
(dp2285
g57
(dp2286
g65
I4
ssg66
g2280
sg59
(lp2287
g95
asbasbasbag52
(g68
g54
NtRp2288
(dp2289
g57
(dp2290
sg66
g2117
sg59
(lp2291
g52
(g73
g54
NtRp2292
(dp2293
g57
(dp2294
g77
g78
ssg66
g2288
sg59
(lp2295
g1681
asbag52
(g73
g54
NtRp2296
(dp2297
g57
(dp2298
g84
g85
ssg66
g2288
sg59
(lp2299
S':'
asbag52
(g73
g54
NtRp2300
(dp2301
g57
(dp2302
sg66
g2288
sg59
(lp2303
g52
(g53
g54
NtRp2304
(dp2305
g57
(dp2306
g65
I4
ssg66
g2300
sg59
(lp2307
g1694
asbasbasbag52
(g68
g54
NtRp2308
(dp2309
g57
(dp2310
sg66
g2117
sg59
(lp2311
g52
(g73
g54
NtRp2312
(dp2313
g57
(dp2314
g77
g78
ssg66
g2308
sg59
(lp2315
g1724
asbag52
(g73
g54
NtRp2316
(dp2317
g57
(dp2318
g84
g85
ssg66
g2308
sg59
(lp2319
S':'
asbag52
(g73
g54
NtRp2320
(dp2321
g57
(dp2322
sg66
g2308
sg59
(lp2323
g52
(g53
g54
NtRp2324
(dp2325
g57
(dp2326
g65
I4
ssg66
g2320
sg59
(lp2327
g52
(g61
g54
NtRp2328
(dp2329
g57
(dp2330
g65
I3
ssg66
Nsg59
(lp2331
g52
(g68
g54
NtRp2332
(dp2333
g57
(dp2334
sg66
g2328
sg59
(lp2335
g52
(g73
g54
NtRp2336
(dp2337
g57
(dp2338
sg66
g2332
sg59
(lp2339
g52
(g53
g54
NtRp2340
(dp2341
g57
(dp2342
g65
I3
ssg66
g2336
sg59
(lp2343
S'1'
asbasbasbag52
(g68
g54
NtRp2344
(dp2345
g57
(dp2346
sg66
g2328
sg59
(lp2347
g52
(g73
g54
NtRp2348
(dp2349
g57
(dp2350
sg66
g2344
sg59
(lp2351
g52
(g53
g54
NtRp2352
(dp2353
g57
(dp2354
g65
I3
ssg66
g2348
sg59
(lp2355
S'99'
p2356
asbasbasbag52
(g68
g54
NtRp2357
(dp2358
g57
(dp2359
sg66
g2328
sg59
(lp2360
g52
(g73
g54
NtRp2361
(dp2362
g57
(dp2363
sg66
g2357
sg59
(lp2364
g52
(g53
g54
NtRp2365
(dp2366
g57
(dp2367
g65
I3
ssg66
g2361
sg59
(lp2368
S'2'
asbasbasbag52
(g68
g54
NtRp2369
(dp2370
g57
(dp2371
sg66
g2328
sg59
(lp2372
g52
(g73
g54
NtRp2373
(dp2374
g57
(dp2375
sg66
g2369
sg59
(lp2376
g52
(g53
g54
NtRp2377
(dp2378
g57
(dp2379
g65
I3
ssg66
g2373
sg59
(lp2380
S'datetime.datetime(2011, 9, 26, 6, 55, 33)'
p2381
asbasbasbag52
(g68
g54
NtRp2382
(dp2383
g57
(dp2384
sg66
g2328
sg59
(lp2385
g52
(g73
g54
NtRp2386
(dp2387
g57
(dp2388
sg66
g2382
sg59
(lp2389
g52
(g53
g54
NtRp2390
(dp2391
g57
(dp2392
g65
I3
ssg66
g2386
sg59
(lp2393
g1803
asbasbasbasbasbasbasbasbasbasbasbag52
(g68
g54
NtRp2394
(dp2395
g57
(dp2396
sg66
g62
sg59
(lp2397
g52
(g73
g54
NtRp2398
(dp2399
g57
(dp2400
g77
g78
ssg66
g2394
sg59
(lp2401
S'is_https'
p2402
asbag52
(g73
g54
NtRp2403
(dp2404
g57
(dp2405
g84
g85
ssg66
g2394
sg59
(lp2406
S':'
asbag52
(g73
g54
NtRp2407
(dp2408
g57
(dp2409
sg66
g2394
sg59
(lp2410
g52
(g53
g54
NtRp2411
(dp2412
g57
(dp2413
g65
I5
ssg66
g2407
sg59
(lp2414
g95
asbasbasbag52
(g68
g54
NtRp2415
(dp2416
g57
(dp2417
sg66
g62
sg59
(lp2418
g52
(g73
g54
NtRp2419
(dp2420
g57
(dp2421
g77
g78
ssg66
g2415
sg59
(lp2422
S'is_local'
p2423
asbag52
(g73
g54
NtRp2424
(dp2425
g57
(dp2426
g84
g85
ssg66
g2415
sg59
(lp2427
S':'
asbag52
(g73
g54
NtRp2428
(dp2429
g57
(dp2430
sg66
g2415
sg59
(lp2431
g52
(g53
g54
NtRp2432
(dp2433
g57
(dp2434
g65
I5
ssg66
g2428
sg59
(lp2435
g1912
asbasbasbag52
(g68
g54
NtRp2436
(dp2437
g57
(dp2438
sg66
g62
sg59
(lp2439
g52
(g73
g54
NtRp2440
(dp2441
g57
(dp2442
g77
g78
ssg66
g2436
sg59
(lp2443
S'is_restful'
p2444
asbag52
(g73
g54
NtRp2445
(dp2446
g57
(dp2447
g84
g85
ssg66
g2436
sg59
(lp2448
S':'
asbag52
(g73
g54
NtRp2449
(dp2450
g57
(dp2451
sg66
g2436
sg59
(lp2452
g52
(g53
g54
NtRp2453
(dp2454
g57
(dp2455
g65
I5
ssg66
g2449
sg59
(lp2456
g95
asbasbasbag52
(g68
g54
NtRp2457
(dp2458
g57
(dp2459
sg66
g62
sg59
(lp2460
g52
(g73
g54
NtRp2461
(dp2462
g57
(dp2463
g77
g78
ssg66
g2457
sg59
(lp2464
S'now'
p2465
asbag52
(g73
g54
NtRp2466
(dp2467
g57
(dp2468
g84
g85
ssg66
g2457
sg59
(lp2469
S':'
asbag52
(g73
g54
NtRp2470
(dp2471
g57
(dp2472
sg66
g2457
sg59
(lp2473
g52
(g53
g54
NtRp2474
(dp2475
g57
(dp2476
g65
I5
ssg66
g2470
sg59
(lp2477
S'datetime.datetime(2011, 11, 12, 17, 48, 25, 593000)'
p2478
asbasbasbag52
(g68
g54
NtRp2479
(dp2480
g57
(dp2481
sg66
g62
sg59
(lp2482
g52
(g73
g54
NtRp2483
(dp2484
g57
(dp2485
g77
g78
ssg66
g2479
sg59
(lp2486
S'post_vars'
p2487
asbag52
(g73
g54
NtRp2488
(dp2489
g57
(dp2490
g84
g85
ssg66
g2479
sg59
(lp2491
S':'
asbag52
(g73
g54
NtRp2492
(dp2493
g57
(dp2494
sg66
g2479
sg59
(lp2495
g52
(g53
g54
NtRp2496
(dp2497
g57
(dp2498
g65
I5
ssg66
g2492
sg59
(lp2499
g52
(g61
g54
NtRp2500
(dp2501
g57
(dp2502
g65
I4
ssg66
Nsg59
(lp2503
g52
(g68
g54
NtRp2504
(dp2505
g57
(dp2506
sg66
g2500
sg59
(lp2507
g52
(g73
g54
NtRp2508
(dp2509
g57
(dp2510
g77
g78
ssg66
g2504
sg59
(lp2511
S'eventos_id'
p2512
asbag52
(g73
g54
NtRp2513
(dp2514
g57
(dp2515
g84
g85
ssg66
g2504
sg59
(lp2516
S':'
asbag52
(g73
g54
NtRp2517
(dp2518
g57
(dp2519
sg66
g2504
sg59
(lp2520
g52
(g53
g54
NtRp2521
(dp2522
g57
(dp2523
g65
I4
ssg66
g2517
sg59
(lp2524
S'1'
asbasbasbag52
(g68
g54
NtRp2525
(dp2526
g57
(dp2527
sg66
g2500
sg59
(lp2528
g52
(g73
g54
NtRp2529
(dp2530
g57
(dp2531
g77
g78
ssg66
g2525
sg59
(lp2532
S'limite_apuesta'
p2533
asbag52
(g73
g54
NtRp2534
(dp2535
g57
(dp2536
g84
g85
ssg66
g2525
sg59
(lp2537
S':'
asbag52
(g73
g54
NtRp2538
(dp2539
g57
(dp2540
sg66
g2525
sg59
(lp2541
g52
(g53
g54
NtRp2542
(dp2543
g57
(dp2544
g65
I4
ssg66
g2538
sg59
(lp2545
S''
asbasbasbag52
(g68
g54
NtRp2546
(dp2547
g57
(dp2548
sg66
g2500
sg59
(lp2549
g52
(g73
g54
NtRp2550
(dp2551
g57
(dp2552
g77
g78
ssg66
g2546
sg59
(lp2553
S'participantes_id'
p2554
asbag52
(g73
g54
NtRp2555
(dp2556
g57
(dp2557
g84
g85
ssg66
g2546
sg59
(lp2558
S':'
asbag52
(g73
g54
NtRp2559
(dp2560
g57
(dp2561
sg66
g2546
sg59
(lp2562
g52
(g53
g54
NtRp2563
(dp2564
g57
(dp2565
g65
I4
ssg66
g2559
sg59
(lp2566
S'5'
asbasbasbasbasbasbasbag52
(g68
g54
NtRp2567
(dp2568
g57
(dp2569
sg66
g62
sg59
(lp2570
g52
(g73
g54
NtRp2571
(dp2572
g57
(dp2573
g77
g78
ssg66
g2567
sg59
(lp2574
S'raw_args'
p2575
asbag52
(g73
g54
NtRp2576
(dp2577
g57
(dp2578
g84
g85
ssg66
g2567
sg59
(lp2579
S':'
asbag52
(g73
g54
NtRp2580
(dp2581
g57
(dp2582
sg66
g2567
sg59
(lp2583
g52
(g53
g54
NtRp2584
(dp2585
g57
(dp2586
g65
I5
ssg66
g2580
sg59
(lp2587
S'db/eventosparticipantes'
p2588
asbasbasbag52
(g68
g54
NtRp2589
(dp2590
g57
(dp2591
sg66
g62
sg59
(lp2592
g52
(g73
g54
NtRp2593
(dp2594
g57
(dp2595
g77
g78
ssg66
g2589
sg59
(lp2596
S'url'
p2597
asbag52
(g73
g54
NtRp2598
(dp2599
g57
(dp2600
g84
g85
ssg66
g2589
sg59
(lp2601
S':'
asbag52
(g73
g54
NtRp2602
(dp2603
g57
(dp2604
sg66
g2589
sg59
(lp2605
g52
(g53
g54
NtRp2606
(dp2607
g57
(dp2608
g65
I5
ssg66
g2602
sg59
(lp2609
S'/Casa_de_Apuestas/appadmin/insert/db/eventosparticipantes'
p2610
asbasbasbag52
(g68
g54
NtRp2611
(dp2612
g57
(dp2613
sg66
g62
sg59
(lp2614
g52
(g73
g54
NtRp2615
(dp2616
g57
(dp2617
g77
g78
ssg66
g2611
sg59
(lp2618
S'utcnow'
p2619
asbag52
(g73
g54
NtRp2620
(dp2621
g57
(dp2622
g84
g85
ssg66
g2611
sg59
(lp2623
S':'
asbag52
(g73
g54
NtRp2624
(dp2625
g57
(dp2626
sg66
g2611
sg59
(lp2627
g52
(g53
g54
NtRp2628
(dp2629
g57
(dp2630
g65
I5
ssg66
g2624
sg59
(lp2631
S'datetime.datetime(2011, 11, 12, 22, 18, 25, 593000)'
p2632
asbasbasbag52
(g68
g54
NtRp2633
(dp2634
g57
(dp2635
sg66
g62
sg59
(lp2636
g52
(g73
g54
NtRp2637
(dp2638
g57
(dp2639
g77
g78
ssg66
g2633
sg59
(lp2640
S'uuid'
p2641
asbag52
(g73
g54
NtRp2642
(dp2643
g57
(dp2644
g84
g85
ssg66
g2633
sg59
(lp2645
S':'
asbag52
(g73
g54
NtRp2646
(dp2647
g57
(dp2648
sg66
g2633
sg59
(lp2649
g52
(g53
g54
NtRp2650
(dp2651
g57
(dp2652
g65
I5
ssg66
g2646
sg59
(lp2653
S'Casa_de_Apuestas/127.0.0.1.2011-11-12.17-48-25.23a9ac71-baf5-402b-a0a5-c28715d524bd'
p2654
asbasbasbag52
(g68
g54
NtRp2655
(dp2656
g57
(dp2657
sg66
g62
sg59
(lp2658
g52
(g73
g54
NtRp2659
(dp2660
g57
(dp2661
g77
g78
ssg66
g2655
sg59
(lp2662
S'vars'
p2663
asbag52
(g73
g54
NtRp2664
(dp2665
g57
(dp2666
g84
g85
ssg66
g2655
sg59
(lp2667
S':'
asbag52
(g73
g54
NtRp2668
(dp2669
g57
(dp2670
sg66
g2655
sg59
(lp2671
g52
(g53
g54
NtRp2672
(dp2673
g57
(dp2674
g65
I5
ssg66
g2668
sg59
(lp2675
g52
(g61
g54
NtRp2676
(dp2677
g57
(dp2678
g65
I4
ssg66
Nsg59
(lp2679
g52
(g68
g54
NtRp2680
(dp2681
g57
(dp2682
sg66
g2676
sg59
(lp2683
g52
(g73
g54
NtRp2684
(dp2685
g57
(dp2686
g77
g78
ssg66
g2680
sg59
(lp2687
g2512
asbag52
(g73
g54
NtRp2688
(dp2689
g57
(dp2690
g84
g85
ssg66
g2680
sg59
(lp2691
S':'
asbag52
(g73
g54
NtRp2692
(dp2693
g57
(dp2694
sg66
g2680
sg59
(lp2695
g52
(g53
g54
NtRp2696
(dp2697
g57
(dp2698
g65
I4
ssg66
g2692
sg59
(lp2699
S'1'
asbasbasbag52
(g68
g54
NtRp2700
(dp2701
g57
(dp2702
sg66
g2676
sg59
(lp2703
g52
(g73
g54
NtRp2704
(dp2705
g57
(dp2706
g77
g78
ssg66
g2700
sg59
(lp2707
g2533
asbag52
(g73
g54
NtRp2708
(dp2709
g57
(dp2710
g84
g85
ssg66
g2700
sg59
(lp2711
S':'
asbag52
(g73
g54
NtRp2712
(dp2713
g57
(dp2714
sg66
g2700
sg59
(lp2715
g52
(g53
g54
NtRp2716
(dp2717
g57
(dp2718
g65
I4
ssg66
g2712
sg59
(lp2719
S''
asbasbasbag52
(g68
g54
NtRp2720
(dp2721
g57
(dp2722
sg66
g2676
sg59
(lp2723
g52
(g73
g54
NtRp2724
(dp2725
g57
(dp2726
g77
g78
ssg66
g2720
sg59
(lp2727
g2554
asbag52
(g73
g54
NtRp2728
(dp2729
g57
(dp2730
g84
g85
ssg66
g2720
sg59
(lp2731
S':'
asbag52
(g73
g54
NtRp2732
(dp2733
g57
(dp2734
sg66
g2720
sg59
(lp2735
g52
(g53
g54
NtRp2736
(dp2737
g57
(dp2738
g65
I4
ssg66
g2732
sg59
(lp2739
S'5'
asbasbasbasbasbasbasbag52
(g68
g54
NtRp2740
(dp2741
g57
(dp2742
sg66
g62
sg59
(lp2743
g52
(g73
g54
NtRp2744
(dp2745
g57
(dp2746
g77
g78
ssg66
g2740
sg59
(lp2747
S'wsgi'
p2748
asbag52
(g73
g54
NtRp2749
(dp2750
g57
(dp2751
g84
g85
ssg66
g2740
sg59
(lp2752
S':'
asbag52
(g73
g54
NtRp2753
(dp2754
g57
(dp2755
sg66
g2740
sg59
(lp2756
g52
(g53
g54
NtRp2757
(dp2758
g57
(dp2759
g65
I5
ssg66
g2753
sg59
(lp2760
g52
(g61
g54
NtRp2761
(dp2762
g57
(dp2763
g65
I4
ssg66
Nsg59
(lp2764
g52
(g68
g54
NtRp2765
(dp2766
g57
(dp2767
sg66
g2761
sg59
(lp2768
g52
(g73
g54
NtRp2769
(dp2770
g57
(dp2771
g77
g78
ssg66
g2765
sg59
(lp2772
S'environ'
p2773
asbag52
(g73
g54
NtRp2774
(dp2775
g57
(dp2776
g84
g85
ssg66
g2765
sg59
(lp2777
S':'
asbag52
(g73
g54
NtRp2778
(dp2779
g57
(dp2780
sg66
g2765
sg59
(lp2781
g52
(g53
g54
NtRp2782
(dp2783
g57
(dp2784
g65
I4
ssg66
g2778
sg59
(lp2785
g52
(g61
g54
NtRp2786
(dp2787
g57
(dp2788
g65
I3
ssg66
Nsg59
(lp2789
g52
(g68
g54
NtRp2790
(dp2791
g57
(dp2792
sg66
g2786
sg59
(lp2793
g52
(g73
g54
NtRp2794
(dp2795
g57
(dp2796
g77
g78
ssg66
g2790
sg59
(lp2797
S'CONTENT_LENGTH'
p2798
asbag52
(g73
g54
NtRp2799
(dp2800
g57
(dp2801
g84
g85
ssg66
g2790
sg59
(lp2802
S':'
asbag52
(g73
g54
NtRp2803
(dp2804
g57
(dp2805
sg66
g2790
sg59
(lp2806
g52
(g53
g54
NtRp2807
(dp2808
g57
(dp2809
g65
I3
ssg66
g2803
sg59
(lp2810
g1063
asbasbasbag52
(g68
g54
NtRp2811
(dp2812
g57
(dp2813
sg66
g2786
sg59
(lp2814
g52
(g73
g54
NtRp2815
(dp2816
g57
(dp2817
g77
g78
ssg66
g2811
sg59
(lp2818
S'CONTENT_TYPE'
p2819
asbag52
(g73
g54
NtRp2820
(dp2821
g57
(dp2822
g84
g85
ssg66
g2811
sg59
(lp2823
S':'
asbag52
(g73
g54
NtRp2824
(dp2825
g57
(dp2826
sg66
g2811
sg59
(lp2827
g52
(g53
g54
NtRp2828
(dp2829
g57
(dp2830
g65
I3
ssg66
g2824
sg59
(lp2831
g1085
asbasbasbag52
(g68
g54
NtRp2832
(dp2833
g57
(dp2834
sg66
g2786
sg59
(lp2835
g52
(g73
g54
NtRp2836
(dp2837
g57
(dp2838
g77
g78
ssg66
g2832
sg59
(lp2839
S'HTTP_ACCEPT'
p2840
asbag52
(g73
g54
NtRp2841
(dp2842
g57
(dp2843
g84
g85
ssg66
g2832
sg59
(lp2844
S':'
asbag52
(g73
g54
NtRp2845
(dp2846
g57
(dp2847
sg66
g2832
sg59
(lp2848
g52
(g53
g54
NtRp2849
(dp2850
g57
(dp2851
g65
I3
ssg66
g2845
sg59
(lp2852
g1172
asbasbasbag52
(g68
g54
NtRp2853
(dp2854
g57
(dp2855
sg66
g2786
sg59
(lp2856
g52
(g73
g54
NtRp2857
(dp2858
g57
(dp2859
g77
g78
ssg66
g2853
sg59
(lp2860
S'HTTP_ACCEPT_CHARSET'
p2861
asbag52
(g73
g54
NtRp2862
(dp2863
g57
(dp2864
g84
g85
ssg66
g2853
sg59
(lp2865
S':'
asbag52
(g73
g54
NtRp2866
(dp2867
g57
(dp2868
sg66
g2853
sg59
(lp2869
g52
(g53
g54
NtRp2870
(dp2871
g57
(dp2872
g65
I3
ssg66
g2866
sg59
(lp2873
g1194
asbasbasbag52
(g68
g54
NtRp2874
(dp2875
g57
(dp2876
sg66
g2786
sg59
(lp2877
g52
(g73
g54
NtRp2878
(dp2879
g57
(dp2880
g77
g78
ssg66
g2874
sg59
(lp2881
S'HTTP_ACCEPT_ENCODING'
p2882
asbag52
(g73
g54
NtRp2883
(dp2884
g57
(dp2885
g84
g85
ssg66
g2874
sg59
(lp2886
S':'
asbag52
(g73
g54
NtRp2887
(dp2888
g57
(dp2889
sg66
g2874
sg59
(lp2890
g52
(g53
g54
NtRp2891
(dp2892
g57
(dp2893
g65
I3
ssg66
g2887
sg59
(lp2894
g1216
asbasbasbag52
(g68
g54
NtRp2895
(dp2896
g57
(dp2897
sg66
g2786
sg59
(lp2898
g52
(g73
g54
NtRp2899
(dp2900
g57
(dp2901
g77
g78
ssg66
g2895
sg59
(lp2902
S'HTTP_ACCEPT_LANGUAGE'
p2903
asbag52
(g73
g54
NtRp2904
(dp2905
g57
(dp2906
g84
g85
ssg66
g2895
sg59
(lp2907
S':'
asbag52
(g73
g54
NtRp2908
(dp2909
g57
(dp2910
sg66
g2895
sg59
(lp2911
g52
(g53
g54
NtRp2912
(dp2913
g57
(dp2914
g65
I3
ssg66
g2908
sg59
(lp2915
g1238
asbasbasbag52
(g68
g54
NtRp2916
(dp2917
g57
(dp2918
sg66
g2786
sg59
(lp2919
g52
(g73
g54
NtRp2920
(dp2921
g57
(dp2922
g77
g78
ssg66
g2916
sg59
(lp2923
S'HTTP_CACHE_CONTROL'
p2924
asbag52
(g73
g54
NtRp2925
(dp2926
g57
(dp2927
g84
g85
ssg66
g2916
sg59
(lp2928
S':'
asbag52
(g73
g54
NtRp2929
(dp2930
g57
(dp2931
sg66
g2916
sg59
(lp2932
g52
(g53
g54
NtRp2933
(dp2934
g57
(dp2935
g65
I3
ssg66
g2929
sg59
(lp2936
g1260
asbasbasbag52
(g68
g54
NtRp2937
(dp2938
g57
(dp2939
sg66
g2786
sg59
(lp2940
g52
(g73
g54
NtRp2941
(dp2942
g57
(dp2943
g77
g78
ssg66
g2937
sg59
(lp2944
S'HTTP_CONNECTION'
p2945
asbag52
(g73
g54
NtRp2946
(dp2947
g57
(dp2948
g84
g85
ssg66
g2937
sg59
(lp2949
S':'
asbag52
(g73
g54
NtRp2950
(dp2951
g57
(dp2952
sg66
g2937
sg59
(lp2953
g52
(g53
g54
NtRp2954
(dp2955
g57
(dp2956
g65
I3
ssg66
g2950
sg59
(lp2957
g1282
asbasbasbag52
(g68
g54
NtRp2958
(dp2959
g57
(dp2960
sg66
g2786
sg59
(lp2961
g52
(g73
g54
NtRp2962
(dp2963
g57
(dp2964
g77
g78
ssg66
g2958
sg59
(lp2965
S'HTTP_CONTENT_LENGTH'
p2966
asbag52
(g73
g54
NtRp2967
(dp2968
g57
(dp2969
g84
g85
ssg66
g2958
sg59
(lp2970
S':'
asbag52
(g73
g54
NtRp2971
(dp2972
g57
(dp2973
sg66
g2958
sg59
(lp2974
g52
(g53
g54
NtRp2975
(dp2976
g57
(dp2977
g65
I3
ssg66
g2971
sg59
(lp2978
g1063
asbasbasbag52
(g68
g54
NtRp2979
(dp2980
g57
(dp2981
sg66
g2786
sg59
(lp2982
g52
(g73
g54
NtRp2983
(dp2984
g57
(dp2985
g77
g78
ssg66
g2979
sg59
(lp2986
S'HTTP_CONTENT_TYPE'
p2987
asbag52
(g73
g54
NtRp2988
(dp2989
g57
(dp2990
g84
g85
ssg66
g2979
sg59
(lp2991
S':'
asbag52
(g73
g54
NtRp2992
(dp2993
g57
(dp2994
sg66
g2979
sg59
(lp2995
g52
(g53
g54
NtRp2996
(dp2997
g57
(dp2998
g65
I3
ssg66
g2992
sg59
(lp2999
g1085
asbasbasbag52
(g68
g54
NtRp3000
(dp3001
g57
(dp3002
sg66
g2786
sg59
(lp3003
g52
(g73
g54
NtRp3004
(dp3005
g57
(dp3006
g77
g78
ssg66
g3000
sg59
(lp3007
S'HTTP_COOKIE'
p3008
asbag52
(g73
g54
NtRp3009
(dp3010
g57
(dp3011
g84
g85
ssg66
g3000
sg59
(lp3012
S':'
asbag52
(g73
g54
NtRp3013
(dp3014
g57
(dp3015
sg66
g3000
sg59
(lp3016
g52
(g53
g54
NtRp3017
(dp3018
g57
(dp3019
g65
I3
ssg66
g3013
sg59
(lp3020
g1346
asbasbasbag52
(g68
g54
NtRp3021
(dp3022
g57
(dp3023
sg66
g2786
sg59
(lp3024
g52
(g73
g54
NtRp3025
(dp3026
g57
(dp3027
g77
g78
ssg66
g3021
sg59
(lp3028
S'HTTP_HOST'
p3029
asbag52
(g73
g54
NtRp3030
(dp3031
g57
(dp3032
g84
g85
ssg66
g3021
sg59
(lp3033
S':'
asbag52
(g73
g54
NtRp3034
(dp3035
g57
(dp3036
sg66
g3021
sg59
(lp3037
g52
(g53
g54
NtRp3038
(dp3039
g57
(dp3040
g65
I3
ssg66
g3034
sg59
(lp3041
g1368
asbasbasbag52
(g68
g54
NtRp3042
(dp3043
g57
(dp3044
sg66
g2786
sg59
(lp3045
g52
(g73
g54
NtRp3046
(dp3047
g57
(dp3048
g77
g78
ssg66
g3042
sg59
(lp3049
S'HTTP_ORIGIN'
p3050
asbag52
(g73
g54
NtRp3051
(dp3052
g57
(dp3053
g84
g85
ssg66
g3042
sg59
(lp3054
S':'
asbag52
(g73
g54
NtRp3055
(dp3056
g57
(dp3057
sg66
g3042
sg59
(lp3058
g52
(g53
g54
NtRp3059
(dp3060
g57
(dp3061
g65
I3
ssg66
g3055
sg59
(lp3062
g1390
asbasbasbag52
(g68
g54
NtRp3063
(dp3064
g57
(dp3065
sg66
g2786
sg59
(lp3066
g52
(g73
g54
NtRp3067
(dp3068
g57
(dp3069
g77
g78
ssg66
g3063
sg59
(lp3070
S'HTTP_REFERER'
p3071
asbag52
(g73
g54
NtRp3072
(dp3073
g57
(dp3074
g84
g85
ssg66
g3063
sg59
(lp3075
S':'
asbag52
(g73
g54
NtRp3076
(dp3077
g57
(dp3078
sg66
g3063
sg59
(lp3079
g52
(g53
g54
NtRp3080
(dp3081
g57
(dp3082
g65
I3
ssg66
g3076
sg59
(lp3083
g1412
asbasbasbag52
(g68
g54
NtRp3084
(dp3085
g57
(dp3086
sg66
g2786
sg59
(lp3087
g52
(g73
g54
NtRp3088
(dp3089
g57
(dp3090
g77
g78
ssg66
g3084
sg59
(lp3091
S'HTTP_USER_AGENT'
p3092
asbag52
(g73
g54
NtRp3093
(dp3094
g57
(dp3095
g84
g85
ssg66
g3084
sg59
(lp3096
S':'
asbag52
(g73
g54
NtRp3097
(dp3098
g57
(dp3099
sg66
g3084
sg59
(lp3100
g52
(g53
g54
NtRp3101
(dp3102
g57
(dp3103
g65
I3
ssg66
g3097
sg59
(lp3104
g1434
asbasbasbag52
(g68
g54
NtRp3105
(dp3106
g57
(dp3107
sg66
g2786
sg59
(lp3108
g52
(g73
g54
NtRp3109
(dp3110
g57
(dp3111
g77
g78
ssg66
g3105
sg59
(lp3112
S'PATH_INFO'
p3113
asbag52
(g73
g54
NtRp3114
(dp3115
g57
(dp3116
g84
g85
ssg66
g3105
sg59
(lp3117
S':'
asbag52
(g73
g54
NtRp3118
(dp3119
g57
(dp3120
sg66
g3105
sg59
(lp3121
g52
(g53
g54
NtRp3122
(dp3123
g57
(dp3124
g65
I3
ssg66
g3118
sg59
(lp3125
g1477
asbasbasbag52
(g68
g54
NtRp3126
(dp3127
g57
(dp3128
sg66
g2786
sg59
(lp3129
g52
(g73
g54
NtRp3130
(dp3131
g57
(dp3132
g77
g78
ssg66
g3126
sg59
(lp3133
S'QUERY_STRING'
p3134
asbag52
(g73
g54
NtRp3135
(dp3136
g57
(dp3137
g84
g85
ssg66
g3126
sg59
(lp3138
S':'
asbag52
(g73
g54
NtRp3139
(dp3140
g57
(dp3141
sg66
g3126
sg59
(lp3142
g52
(g53
g54
NtRp3143
(dp3144
g57
(dp3145
g65
I3
ssg66
g3139
sg59
(lp3146
S''
asbasbasbag52
(g68
g54
NtRp3147
(dp3148
g57
(dp3149
sg66
g2786
sg59
(lp3150
g52
(g73
g54
NtRp3151
(dp3152
g57
(dp3153
g77
g78
ssg66
g3147
sg59
(lp3154
S'REMOTE_ADDR'
p3155
asbag52
(g73
g54
NtRp3156
(dp3157
g57
(dp3158
g84
g85
ssg66
g3147
sg59
(lp3159
S':'
asbag52
(g73
g54
NtRp3160
(dp3161
g57
(dp3162
sg66
g3147
sg59
(lp3163
g52
(g53
g54
NtRp3164
(dp3165
g57
(dp3166
g65
I3
ssg66
g3160
sg59
(lp3167
g211
asbasbasbag52
(g68
g54
NtRp3168
(dp3169
g57
(dp3170
sg66
g2786
sg59
(lp3171
g52
(g73
g54
NtRp3172
(dp3173
g57
(dp3174
g77
g78
ssg66
g3168
sg59
(lp3175
S'REMOTE_PORT'
p3176
asbag52
(g73
g54
NtRp3177
(dp3178
g57
(dp3179
g84
g85
ssg66
g3168
sg59
(lp3180
S':'
asbag52
(g73
g54
NtRp3181
(dp3182
g57
(dp3183
sg66
g3168
sg59
(lp3184
g52
(g53
g54
NtRp3185
(dp3186
g57
(dp3187
g65
I3
ssg66
g3181
sg59
(lp3188
g1541
asbasbasbag52
(g68
g54
NtRp3189
(dp3190
g57
(dp3191
sg66
g2786
sg59
(lp3192
g52
(g73
g54
NtRp3193
(dp3194
g57
(dp3195
g77
g78
ssg66
g3189
sg59
(lp3196
S'REQUEST_METHOD'
p3197
asbag52
(g73
g54
NtRp3198
(dp3199
g57
(dp3200
g84
g85
ssg66
g3189
sg59
(lp3201
S':'
asbag52
(g73
g54
NtRp3202
(dp3203
g57
(dp3204
sg66
g3189
sg59
(lp3205
g52
(g53
g54
NtRp3206
(dp3207
g57
(dp3208
g65
I3
ssg66
g3202
sg59
(lp3209
g1563
asbasbasbag52
(g68
g54
NtRp3210
(dp3211
g57
(dp3212
sg66
g2786
sg59
(lp3213
g52
(g73
g54
NtRp3214
(dp3215
g57
(dp3216
g77
g78
ssg66
g3210
sg59
(lp3217
S'SCRIPT_NAME'
p3218
asbag52
(g73
g54
NtRp3219
(dp3220
g57
(dp3221
g84
g85
ssg66
g3210
sg59
(lp3222
S':'
asbag52
(g73
g54
NtRp3223
(dp3224
g57
(dp3225
sg66
g3210
sg59
(lp3226
g52
(g53
g54
NtRp3227
(dp3228
g57
(dp3229
g65
I3
ssg66
g3223
sg59
(lp3230
S''
asbasbasbag52
(g68
g54
NtRp3231
(dp3232
g57
(dp3233
sg66
g2786
sg59
(lp3234
g52
(g73
g54
NtRp3235
(dp3236
g57
(dp3237
g77
g78
ssg66
g3231
sg59
(lp3238
S'SERVER_NAME'
p3239
asbag52
(g73
g54
NtRp3240
(dp3241
g57
(dp3242
g84
g85
ssg66
g3231
sg59
(lp3243
S':'
asbag52
(g73
g54
NtRp3244
(dp3245
g57
(dp3246
sg66
g3231
sg59
(lp3247
g52
(g53
g54
NtRp3248
(dp3249
g57
(dp3250
g65
I3
ssg66
g3244
sg59
(lp3251
g1606
asbasbasbag52
(g68
g54
NtRp3252
(dp3253
g57
(dp3254
sg66
g2786
sg59
(lp3255
g52
(g73
g54
NtRp3256
(dp3257
g57
(dp3258
g77
g78
ssg66
g3252
sg59
(lp3259
S'SERVER_PORT'
p3260
asbag52
(g73
g54
NtRp3261
(dp3262
g57
(dp3263
g84
g85
ssg66
g3252
sg59
(lp3264
S':'
asbag52
(g73
g54
NtRp3265
(dp3266
g57
(dp3267
sg66
g3252
sg59
(lp3268
g52
(g53
g54
NtRp3269
(dp3270
g57
(dp3271
g65
I3
ssg66
g3265
sg59
(lp3272
g1628
asbasbasbag52
(g68
g54
NtRp3273
(dp3274
g57
(dp3275
sg66
g2786
sg59
(lp3276
g52
(g73
g54
NtRp3277
(dp3278
g57
(dp3279
g77
g78
ssg66
g3273
sg59
(lp3280
S'SERVER_PROTOCOL'
p3281
asbag52
(g73
g54
NtRp3282
(dp3283
g57
(dp3284
g84
g85
ssg66
g3273
sg59
(lp3285
S':'
asbag52
(g73
g54
NtRp3286
(dp3287
g57
(dp3288
sg66
g3273
sg59
(lp3289
g52
(g53
g54
NtRp3290
(dp3291
g57
(dp3292
g65
I3
ssg66
g3286
sg59
(lp3293
g1650
asbasbasbag52
(g68
g54
NtRp3294
(dp3295
g57
(dp3296
sg66
g2786
sg59
(lp3297
g52
(g73
g54
NtRp3298
(dp3299
g57
(dp3300
g77
g78
ssg66
g3294
sg59
(lp3301
S'SERVER_SOFTWARE'
p3302
asbag52
(g73
g54
NtRp3303
(dp3304
g57
(dp3305
g84
g85
ssg66
g3294
sg59
(lp3306
S':'
asbag52
(g73
g54
NtRp3307
(dp3308
g57
(dp3309
sg66
g3294
sg59
(lp3310
g52
(g53
g54
NtRp3311
(dp3312
g57
(dp3313
g65
I3
ssg66
g3307
sg59
(lp3314
g1672
asbasbasbag52
(g68
g54
NtRp3315
(dp3316
g57
(dp3317
sg66
g2786
sg59
(lp3318
g52
(g73
g54
NtRp3319
(dp3320
g57
(dp3321
g77
g78
ssg66
g3315
sg59
(lp3322
S'wsgi.errors'
p3323
asbag52
(g73
g54
NtRp3324
(dp3325
g57
(dp3326
g84
g85
ssg66
g3315
sg59
(lp3327
S':'
asbag52
(g73
g54
NtRp3328
(dp3329
g57
(dp3330
sg66
g3315
sg59
(lp3331
g52
(g53
g54
NtRp3332
(dp3333
g57
(dp3334
g65
I3
ssg66
g3328
sg59
(lp3335
S"<open file '<stderr>', mode 'w' at 0x01FA00B0>"
p3336
asbasbasbag52
(g68
g54
NtRp3337
(dp3338
g57
(dp3339
sg66
g2786
sg59
(lp3340
g52
(g73
g54
NtRp3341
(dp3342
g57
(dp3343
g77
g78
ssg66
g3337
sg59
(lp3344
S'wsgi.file_wrapper'
p3345
asbag52
(g73
g54
NtRp3346
(dp3347
g57
(dp3348
g84
g85
ssg66
g3337
sg59
(lp3349
S':'
asbag52
(g73
g54
NtRp3350
(dp3351
g57
(dp3352
sg66
g3337
sg59
(lp3353
g52
(g53
g54
NtRp3354
(dp3355
g57
(dp3356
g65
I3
ssg66
g3350
sg59
(lp3357
S'<class wsgiref.util.FileWrapper at 0x02AB0D80>'
p3358
asbasbasbag52
(g68
g54
NtRp3359
(dp3360
g57
(dp3361
sg66
g2786
sg59
(lp3362
g52
(g73
g54
NtRp3363
(dp3364
g57
(dp3365
g77
g78
ssg66
g3359
sg59
(lp3366
S'wsgi.input'
p3367
asbag52
(g73
g54
NtRp3368
(dp3369
g57
(dp3370
g84
g85
ssg66
g3359
sg59
(lp3371
S':'
asbag52
(g73
g54
NtRp3372
(dp3373
g57
(dp3374
sg66
g3359
sg59
(lp3375
g52
(g53
g54
NtRp3376
(dp3377
g57
(dp3378
g65
I3
ssg66
g3372
sg59
(lp3379
S"<open file '<fdopen>', mode 'w+b' at 0x02E96800>"
p3380
asbasbasbag52
(g68
g54
NtRp3381
(dp3382
g57
(dp3383
sg66
g2786
sg59
(lp3384
g52
(g73
g54
NtRp3385
(dp3386
g57
(dp3387
g77
g78
ssg66
g3381
sg59
(lp3388
S'wsgi.multiprocess'
p3389
asbag52
(g73
g54
NtRp3390
(dp3391
g57
(dp3392
g84
g85
ssg66
g3381
sg59
(lp3393
S':'
asbag52
(g73
g54
NtRp3394
(dp3395
g57
(dp3396
sg66
g3381
sg59
(lp3397
g52
(g53
g54
NtRp3398
(dp3399
g57
(dp3400
g65
I3
ssg66
g3394
sg59
(lp3401
g95
asbasbasbag52
(g68
g54
NtRp3402
(dp3403
g57
(dp3404
sg66
g2786
sg59
(lp3405
g52
(g73
g54
NtRp3406
(dp3407
g57
(dp3408
g77
g78
ssg66
g3402
sg59
(lp3409
S'wsgi.multithread'
p3410
asbag52
(g73
g54
NtRp3411
(dp3412
g57
(dp3413
g84
g85
ssg66
g3402
sg59
(lp3414
S':'
asbag52
(g73
g54
NtRp3415
(dp3416
g57
(dp3417
sg66
g3402
sg59
(lp3418
g52
(g53
g54
NtRp3419
(dp3420
g57
(dp3421
g65
I3
ssg66
g3415
sg59
(lp3422
g1912
asbasbasbag52
(g68
g54
NtRp3423
(dp3424
g57
(dp3425
sg66
g2786
sg59
(lp3426
g52
(g73
g54
NtRp3427
(dp3428
g57
(dp3429
g77
g78
ssg66
g3423
sg59
(lp3430
S'wsgi.run_once'
p3431
asbag52
(g73
g54
NtRp3432
(dp3433
g57
(dp3434
g84
g85
ssg66
g3423
sg59
(lp3435
S':'
asbag52
(g73
g54
NtRp3436
(dp3437
g57
(dp3438
sg66
g3423
sg59
(lp3439
g52
(g53
g54
NtRp3440
(dp3441
g57
(dp3442
g65
I3
ssg66
g3436
sg59
(lp3443
g95
asbasbasbag52
(g68
g54
NtRp3444
(dp3445
g57
(dp3446
sg66
g2786
sg59
(lp3447
g52
(g73
g54
NtRp3448
(dp3449
g57
(dp3450
g77
g78
ssg66
g3444
sg59
(lp3451
S'wsgi.url_scheme'
p3452
asbag52
(g73
g54
NtRp3453
(dp3454
g57
(dp3455
g84
g85
ssg66
g3444
sg59
(lp3456
S':'
asbag52
(g73
g54
NtRp3457
(dp3458
g57
(dp3459
sg66
g3444
sg59
(lp3460
g52
(g53
g54
NtRp3461
(dp3462
g57
(dp3463
g65
I3
ssg66
g3457
sg59
(lp3464
g1955
asbasbasbag52
(g68
g54
NtRp3465
(dp3466
g57
(dp3467
sg66
g2786
sg59
(lp3468
g52
(g73
g54
NtRp3469
(dp3470
g57
(dp3471
g77
g78
ssg66
g3465
sg59
(lp3472
S'wsgi.version'
p3473
asbag52
(g73
g54
NtRp3474
(dp3475
g57
(dp3476
g84
g85
ssg66
g3465
sg59
(lp3477
S':'
asbag52
(g73
g54
NtRp3478
(dp3479
g57
(dp3480
sg66
g3465
sg59
(lp3481
g52
(g53
g54
NtRp3482
(dp3483
g57
(dp3484
g65
I3
ssg66
g3478
sg59
(lp3485
S'1'
asbasbasbasbasbasbasbasbasbasbasbasbasbsS'frames'
p3486
(lp3487
(dp3488
S'file'
p3489
S'C:\\Python32\\web2py\\gluon\\restricted.py'
p3490
sS'dump'
p3491
(dp3492
sS'lnum'
p3493
I194
sS'lines'
p3494
(dp3495
sS'call'
p3496
S"(code='# -*- coding: utf-8 -*-\\n\\n# #####################...=disk)\\n\\n\\nresponse._vars=response._caller(insert)\\n', environment={'A': <class 'gluon.html.A'>, 'Auth': <class 'gluon.tools.Auth'>, 'B': <class 'gluon.html.B'>, 'BEAUTIFY': <class 'gluon.html.BEAUTIFY'>, 'BODY': <class 'gluon.html.BODY'>, 'BR': <class 'gluon.html.BR'>, 'BUTTON': <class 'gluon.html.BUTTON'>, 'CAT': <class 'gluon.html.CAT'>, 'CENTER': <class 'gluon.html.CENTER'>, 'CLEANUP': <class 'gluon.validators.CLEANUP'>, ...}, layer=r'C:\\Python32\\web2py\\applications\\Casa_de_Apuestas\\controllers/appadmin.py')"
p3497
sS'func'
p3498
S'restricted'
p3499
sa(dp3500
g3489
S'C:\\Python32\\web2py\\applications\\Casa_de_Apuestas\\controllers\\appadmin.py'
p3501
sg3491
(dp3502
sg3493
I410
sg3494
(dp3503
I399
S''
sI400
S'        return (hours, minutes, seconds)'
p3504
sI401
S''
sI402
S"    ram['oldest'] = GetInHMS(time.time() - ram['oldest'])"
p3505
sI403
S"    disk['oldest'] = GetInHMS(time.time() - disk['oldest'])"
p3506
sI404
S"    total['oldest'] = GetInHMS(time.time() - total['oldest'])"
p3507
sI405
S''
sI406
S'    return dict(form=form, total=total,'
p3508
sI407
S'                ram=ram, disk=disk)'
p3509
sI408
S''
ssg3496
S'()'
p3510
sg3498
S'<module>'
p3511
sa(dp3512
g3489
S'C:\\Python32\\web2py\\gluon\\globals.py'
p3513
sg3491
(dp3514
sg3493
I149
sg3494
(dp3515
sg3496
S'(f=<function insert at 0x06095D30>)'
p3516
sg3498
S'<lambda>'
p3517
sa(dp3518
g3489
S'C:\\Python32\\web2py\\applications\\Casa_de_Apuestas\\controllers\\appadmin.py'
p3519
sg3491
(dp3520
sg3493
I127
sg3494
(dp3521
I128
S"        response.flash = T('new record inserted')"
p3522
sI129
S'    return dict(form=form,table=db[table])'
p3523
sI130
S''
sI131
S''
sI122
S''
sI123
S''
sI124
S'def insert():'
p3524
sI125
S'    (db, table) = get_table(request)'
p3525
sI126
S'    form = SQLFORM(db[table], ignore_rw=ignore_rw)'
p3526
sI127
S'    if form.accepts(request.vars, session):'
p3527
ssg3496
S'()'
p3528
sg3498
S'insert'
p3529
sa(dp3530
g3489
S'C:\\Python32\\web2py\\gluon\\sqlhtml.py'
p3531
sg3491
(dp3532
sg3493
I1248
sg3494
(dp3533
sg3496
S"(self=<gluon.sqlhtml.SQLFORM object at 0x06422690>, request_vars=<Storage {'limite_apuesta': '', '_formkey': '98b...sparticipantes/create', 'participantes_id': '5'}>, session=<Storage {'_formkey[eventosparticipantes/create]...lQ\\xda\\xdd\\x0e\\xa2\\xd5\\x07*\\x15\\x1a~b\\xe9\\x02Q'}>, formname='eventosparticipantes/create', keepvalues=False, onvalidation=None, dbio=True, hideerror=False, detect_record_change=False)"
p3534
sg3498
S'accepts'
p3535
sa(dp3536
g3489
S'C:\\Python32\\web2py\\gluon\\dal.py'
p3537
sg3491
(dp3538
sg3493
I4976
sg3494
(dp3539
sg3496
S"(self=<Table {'ALL': <gluon.dal.SQLALL object at 0x02E...puesta': <gluon.dal.Field object at 0x02EBA9D0>}>, **fields={'eventos_id': '1', 'limite_apuesta': None, 'participantes_id': '5'})"
p3540
sg3498
g3529
sa(dp3541
g3489
S'C:\\Python32\\web2py\\gluon\\dal.py'
p3542
sg3491
(dp3543
sg3493
I886
sg3494
(dp3544
sg3496
S"(self=<gluon.dal.SQLiteAdapter object at 0x06615AD0>, table=<Table {'ALL': <gluon.dal.SQLALL object at 0x02E...puesta': <gluon.dal.Field object at 0x02EBA9D0>}>, fields=[(<gluon.dal.Field object at 0x02EBA450>, '1'), (<gluon.dal.Field object at 0x02EBA9D0>, None), (<gluon.dal.Field object at 0x02EBA2D0>, '5')])"
p3545
sg3498
g3529
sasS'pyver'
p3546
S'Python 2.5.4: C:\\Python32\\web2py\\web2py.exe'
p3547
sS'session'
p3548
g52
(g53
g54
NtRp3549
(dp3550
g57
(dp3551
sg59
(lp3552
g52
(g61
g54
NtRp3553
(dp3554
g57
(dp3555
g65
I5
ssg66
Nsg59
(lp3556
g52
(g68
g54
NtRp3557
(dp3558
g57
(dp3559
sg66
g3553
sg59
(lp3560
g52
(g73
g54
NtRp3561
(dp3562
g57
(dp3563
g77
g78
ssg66
g3557
sg59
(lp3564
S'last_query'
p3565
asbag52
(g73
g54
NtRp3566
(dp3567
g57
(dp3568
g84
g85
ssg66
g3557
sg59
(lp3569
S':'
asbag52
(g73
g54
NtRp3570
(dp3571
g57
(dp3572
sg66
g3557
sg59
(lp3573
g52
(g53
g54
NtRp3574
(dp3575
g57
(dp3576
g65
I5
ssg66
g3570
sg59
(lp3577
S'db.eventosparticipantes.eventos_id>0'
p3578
asbasbasbasbasbsS'etype'
p3579
S"<class 'sqlite3.OperationalError'>"
p3580
sS'date'
p3581
S'Sat Nov 12 17:48:25 2011'
p3582
sS'response'
p3583
g52
(g53
g54
NtRp3584
(dp3585
g57
(dp3586
sg59
(lp3587
g52
(g61
g54
NtRp3588
(dp3589
g57
(dp3590
g65
I5
ssg66
Nsg59
(lp3591
g52
(g68
g54
NtRp3592
(dp3593
g57
(dp3594
sg66
g3588
sg59
(lp3595
g52
(g73
g54
NtRp3596
(dp3597
g57
(dp3598
g77
g78
ssg66
g3592
sg59
(lp3599
g176
asbag52
(g73
g54
NtRp3600
(dp3601
g57
(dp3602
g84
g85
ssg66
g3592
sg59
(lp3603
S':'
asbag52
(g73
g54
NtRp3604
(dp3605
g57
(dp3606
sg66
g3592
sg59
(lp3607
g52
(g53
g54
NtRp3608
(dp3609
g57
(dp3610
g65
I5
ssg66
g3604
sg59
(lp3611
S'<cStringIO.StringO object at 0x067F4C20>'
p3612
asbasbasbag52
(g68
g54
NtRp3613
(dp3614
g57
(dp3615
sg66
g3588
sg59
(lp3616
g52
(g73
g54
NtRp3617
(dp3618
g57
(dp3619
g77
g78
ssg66
g3613
sg59
(lp3620
g242
asbag52
(g73
g54
NtRp3621
(dp3622
g57
(dp3623
g84
g85
ssg66
g3613
sg59
(lp3624
S':'
asbag52
(g73
g54
NtRp3625
(dp3626
g57
(dp3627
sg66
g3613
sg59
(lp3628
g52
(g53
g54
NtRp3629
(dp3630
g57
(dp3631
g65
I5
ssg66
g3625
sg59
(lp3632
g52
(g61
g54
NtRp3633
(dp3634
g57
(dp3635
g65
I4
ssg66
Nsg59
(lp3636
g52
(g68
g54
NtRp3637
(dp3638
g57
(dp3639
sg66
g3633
sg59
(lp3640
g52
(g73
g54
NtRp3641
(dp3642
g57
(dp3643
g77
g78
ssg66
g3637
sg59
(lp3644
S'session_id_casa_de_apuestas'
p3645
asbag52
(g73
g54
NtRp3646
(dp3647
g57
(dp3648
g84
g85
ssg66
g3637
sg59
(lp3649
S':'
asbag52
(g73
g54
NtRp3650
(dp3651
g57
(dp3652
sg66
g3637
sg59
(lp3653
g52
(g53
g54
NtRp3654
(dp3655
g57
(dp3656
g65
I4
ssg66
g3650
sg59
(lp3657
g52
(g61
g54
NtRp3658
(dp3659
g57
(dp3660
g65
I3
ssg66
Nsg59
(lp3661
g52
(g68
g54
NtRp3662
(dp3663
g57
(dp3664
sg66
g3658
sg59
(lp3665
g52
(g73
g54
NtRp3666
(dp3667
g57
(dp3668
g77
g78
ssg66
g3662
sg59
(lp3669
g292
asbag52
(g73
g54
NtRp3670
(dp3671
g57
(dp3672
g84
g85
ssg66
g3662
sg59
(lp3673
S':'
asbag52
(g73
g54
NtRp3674
(dp3675
g57
(dp3676
sg66
g3662
sg59
(lp3677
g52
(g53
g54
NtRp3678
(dp3679
g57
(dp3680
g65
I3
ssg66
g3674
sg59
(lp3681
S''
asbasbasbag52
(g68
g54
NtRp3682
(dp3683
g57
(dp3684
sg66
g3658
sg59
(lp3685
g52
(g73
g54
NtRp3686
(dp3687
g57
(dp3688
g77
g78
ssg66
g3682
sg59
(lp3689
g313
asbag52
(g73
g54
NtRp3690
(dp3691
g57
(dp3692
g84
g85
ssg66
g3682
sg59
(lp3693
S':'
asbag52
(g73
g54
NtRp3694
(dp3695
g57
(dp3696
sg66
g3682
sg59
(lp3697
g52
(g53
g54
NtRp3698
(dp3699
g57
(dp3700
g65
I3
ssg66
g3694
sg59
(lp3701
S''
asbasbasbag52
(g68
g54
NtRp3702
(dp3703
g57
(dp3704
sg66
g3658
sg59
(lp3705
g52
(g73
g54
NtRp3706
(dp3707
g57
(dp3708
g77
g78
ssg66
g3702
sg59
(lp3709
g334
asbag52
(g73
g54
NtRp3710
(dp3711
g57
(dp3712
g84
g85
ssg66
g3702
sg59
(lp3713
S':'
asbag52
(g73
g54
NtRp3714
(dp3715
g57
(dp3716
sg66
g3702
sg59
(lp3717
g52
(g53
g54
NtRp3718
(dp3719
g57
(dp3720
g65
I3
ssg66
g3714
sg59
(lp3721
S''
asbasbasbag52
(g68
g54
NtRp3722
(dp3723
g57
(dp3724
sg66
g3658
sg59
(lp3725
g52
(g73
g54
NtRp3726
(dp3727
g57
(dp3728
g77
g78
ssg66
g3722
sg59
(lp3729
g355
asbag52
(g73
g54
NtRp3730
(dp3731
g57
(dp3732
g84
g85
ssg66
g3722
sg59
(lp3733
S':'
asbag52
(g73
g54
NtRp3734
(dp3735
g57
(dp3736
sg66
g3722
sg59
(lp3737
g52
(g53
g54
NtRp3738
(dp3739
g57
(dp3740
g65
I3
ssg66
g3734
sg59
(lp3741
S''
asbasbasbag52
(g68
g54
NtRp3742
(dp3743
g57
(dp3744
sg66
g3658
sg59
(lp3745
g52
(g73
g54
NtRp3746
(dp3747
g57
(dp3748
g77
g78
ssg66
g3742
sg59
(lp3749
g376
asbag52
(g73
g54
NtRp3750
(dp3751
g57
(dp3752
g84
g85
ssg66
g3742
sg59
(lp3753
S':'
asbag52
(g73
g54
NtRp3754
(dp3755
g57
(dp3756
sg66
g3742
sg59
(lp3757
g52
(g53
g54
NtRp3758
(dp3759
g57
(dp3760
g65
I3
ssg66
g3754
sg59
(lp3761
S'/'
asbasbasbag52
(g68
g54
NtRp3762
(dp3763
g57
(dp3764
sg66
g3658
sg59
(lp3765
g52
(g73
g54
NtRp3766
(dp3767
g57
(dp3768
g77
g78
ssg66
g3762
sg59
(lp3769
g397
asbag52
(g73
g54
NtRp3770
(dp3771
g57
(dp3772
g84
g85
ssg66
g3762
sg59
(lp3773
S':'
asbag52
(g73
g54
NtRp3774
(dp3775
g57
(dp3776
sg66
g3762
sg59
(lp3777
g52
(g53
g54
NtRp3778
(dp3779
g57
(dp3780
g65
I3
ssg66
g3774
sg59
(lp3781
S''
asbasbasbag52
(g68
g54
NtRp3782
(dp3783
g57
(dp3784
sg66
g3658
sg59
(lp3785
g52
(g73
g54
NtRp3786
(dp3787
g57
(dp3788
g77
g78
ssg66
g3782
sg59
(lp3789
g418
asbag52
(g73
g54
NtRp3790
(dp3791
g57
(dp3792
g84
g85
ssg66
g3782
sg59
(lp3793
S':'
asbag52
(g73
g54
NtRp3794
(dp3795
g57
(dp3796
sg66
g3782
sg59
(lp3797
g52
(g53
g54
NtRp3798
(dp3799
g57
(dp3800
g65
I3
ssg66
g3794
sg59
(lp3801
S''
asbasbasbasbasbasbasbasbasbasbasbag52
(g68
g54
NtRp3802
(dp3803
g57
(dp3804
sg66
g3588
sg59
(lp3805
g52
(g73
g54
NtRp3806
(dp3807
g57
(dp3808
g77
g78
ssg66
g3802
sg59
(lp3809
S'files'
p3810
asbag52
(g73
g54
NtRp3811
(dp3812
g57
(dp3813
g84
g85
ssg66
g3802
sg59
(lp3814
S':'
asbag52
(g73
g54
NtRp3815
(dp3816
g57
(dp3817
sg66
g3802
sg59
(lp3818
g52
(g53
g54
NtRp3819
(dp3820
g57
(dp3821
g65
I5
ssg66
g3815
sg59
(lp3822
g52
(g61
g54
NtRp3823
(dp3824
g57
(dp3825
g65
I4
ssg66
Nsg59
(lp3826
sbasbasbasbag52
(g68
g54
NtRp3827
(dp3828
g57
(dp3829
sg66
g3588
sg59
(lp3830
g52
(g73
g54
NtRp3831
(dp3832
g57
(dp3833
g77
g78
ssg66
g3827
sg59
(lp3834
S'flash'
p3835
asbag52
(g73
g54
NtRp3836
(dp3837
g57
(dp3838
g84
g85
ssg66
g3827
sg59
(lp3839
S':'
asbag52
(g73
g54
NtRp3840
(dp3841
g57
(dp3842
sg66
g3827
sg59
(lp3843
g52
(g53
g54
NtRp3844
(dp3845
g57
(dp3846
g65
I5
ssg66
g3840
sg59
(lp3847
S''
asbasbasbag52
(g68
g54
NtRp3848
(dp3849
g57
(dp3850
sg66
g3588
sg59
(lp3851
g52
(g73
g54
NtRp3852
(dp3853
g57
(dp3854
g77
g78
ssg66
g3848
sg59
(lp3855
S'generic_patterns'
p3856
asbag52
(g73
g54
NtRp3857
(dp3858
g57
(dp3859
g84
g85
ssg66
g3848
sg59
(lp3860
S':'
asbag52
(g73
g54
NtRp3861
(dp3862
g57
(dp3863
sg66
g3848
sg59
(lp3864
g52
(g53
g54
NtRp3865
(dp3866
g57
(dp3867
g65
I5
ssg66
g3861
sg59
(lp3868
g52
(g61
g54
NtRp3869
(dp3870
g57
(dp3871
g65
I4
ssg66
Nsg59
(lp3872
g52
(g68
g54
NtRp3873
(dp3874
g57
(dp3875
sg66
g3869
sg59
(lp3876
g52
(g73
g54
NtRp3877
(dp3878
g57
(dp3879
sg66
g3873
sg59
(lp3880
g52
(g53
g54
NtRp3881
(dp3882
g57
(dp3883
g65
I4
ssg66
g3877
sg59
(lp3884
S'*'
asbasbasbasbasbasbasbag52
(g68
g54
NtRp3885
(dp3886
g57
(dp3887
sg66
g3588
sg59
(lp3888
g52
(g73
g54
NtRp3889
(dp3890
g57
(dp3891
g77
g78
ssg66
g3885
sg59
(lp3892
S'headers'
p3893
asbag52
(g73
g54
NtRp3894
(dp3895
g57
(dp3896
g84
g85
ssg66
g3885
sg59
(lp3897
S':'
asbag52
(g73
g54
NtRp3898
(dp3899
g57
(dp3900
sg66
g3885
sg59
(lp3901
g52
(g53
g54
NtRp3902
(dp3903
g57
(dp3904
g65
I5
ssg66
g3898
sg59
(lp3905
g52
(g61
g54
NtRp3906
(dp3907
g57
(dp3908
g65
I4
ssg66
Nsg59
(lp3909
g52
(g68
g54
NtRp3910
(dp3911
g57
(dp3912
sg66
g3906
sg59
(lp3913
g52
(g73
g54
NtRp3914
(dp3915
g57
(dp3916
g77
g78
ssg66
g3910
sg59
(lp3917
S'Cache-Control'
p3918
asbag52
(g73
g54
NtRp3919
(dp3920
g57
(dp3921
g84
g85
ssg66
g3910
sg59
(lp3922
S':'
asbag52
(g73
g54
NtRp3923
(dp3924
g57
(dp3925
sg66
g3910
sg59
(lp3926
g52
(g53
g54
NtRp3927
(dp3928
g57
(dp3929
g65
I4
ssg66
g3923
sg59
(lp3930
S'no-store, no-cache, must-revalidate, post-check=0, pre-check=0'
p3931
asbasbasbag52
(g68
g54
NtRp3932
(dp3933
g57
(dp3934
sg66
g3906
sg59
(lp3935
g52
(g73
g54
NtRp3936
(dp3937
g57
(dp3938
g77
g78
ssg66
g3932
sg59
(lp3939
S'Content-Type'
p3940
asbag52
(g73
g54
NtRp3941
(dp3942
g57
(dp3943
g84
g85
ssg66
g3932
sg59
(lp3944
S':'
asbag52
(g73
g54
NtRp3945
(dp3946
g57
(dp3947
sg66
g3932
sg59
(lp3948
g52
(g53
g54
NtRp3949
(dp3950
g57
(dp3951
g65
I4
ssg66
g3945
sg59
(lp3952
S'text/html; charset=utf-8'
p3953
asbasbasbag52
(g68
g54
NtRp3954
(dp3955
g57
(dp3956
sg66
g3906
sg59
(lp3957
g52
(g73
g54
NtRp3958
(dp3959
g57
(dp3960
g77
g78
ssg66
g3954
sg59
(lp3961
S'Expires'
p3962
asbag52
(g73
g54
NtRp3963
(dp3964
g57
(dp3965
g84
g85
ssg66
g3954
sg59
(lp3966
S':'
asbag52
(g73
g54
NtRp3967
(dp3968
g57
(dp3969
sg66
g3954
sg59
(lp3970
g52
(g53
g54
NtRp3971
(dp3972
g57
(dp3973
g65
I4
ssg66
g3967
sg59
(lp3974
S'Sat, 12 Nov 2011 22:18:25 GMT'
p3975
asbasbasbag52
(g68
g54
NtRp3976
(dp3977
g57
(dp3978
sg66
g3906
sg59
(lp3979
g52
(g73
g54
NtRp3980
(dp3981
g57
(dp3982
g77
g78
ssg66
g3976
sg59
(lp3983
S'Pragma'
p3984
asbag52
(g73
g54
NtRp3985
(dp3986
g57
(dp3987
g84
g85
ssg66
g3976
sg59
(lp3988
S':'
asbag52
(g73
g54
NtRp3989
(dp3990
g57
(dp3991
sg66
g3976
sg59
(lp3992
g52
(g53
g54
NtRp3993
(dp3994
g57
(dp3995
g65
I4
ssg66
g3989
sg59
(lp3996
S'no-cache'
p3997
asbasbasbag52
(g68
g54
NtRp3998
(dp3999
g57
(dp4000
sg66
g3906
sg59
(lp4001
g52
(g73
g54
NtRp4002
(dp4003
g57
(dp4004
g77
g78
ssg66
g3998
sg59
(lp4005
S'X-Powered-By'
p4006
asbag52
(g73
g54
NtRp4007
(dp4008
g57
(dp4009
g84
g85
ssg66
g3998
sg59
(lp4010
S':'
asbag52
(g73
g54
NtRp4011
(dp4012
g57
(dp4013
sg66
g3998
sg59
(lp4014
g52
(g53
g54
NtRp4015
(dp4016
g57
(dp4017
g65
I4
ssg66
g4011
sg59
(lp4018
S'web2py'
p4019
asbasbasbasbasbasbasbag52
(g68
g54
NtRp4020
(dp4021
g57
(dp4022
sg66
g3588
sg59
(lp4023
g52
(g73
g54
NtRp4024
(dp4025
g57
(dp4026
g77
g78
ssg66
g4020
sg59
(lp4027
S'menu'
p4028
asbag52
(g73
g54
NtRp4029
(dp4030
g57
(dp4031
g84
g85
ssg66
g4020
sg59
(lp4032
S':'
asbag52
(g73
g54
NtRp4033
(dp4034
g57
(dp4035
sg66
g4020
sg59
(lp4036
g52
(g53
g54
NtRp4037
(dp4038
g57
(dp4039
g65
I5
ssg66
g4033
sg59
(lp4040
g52
(g61
g54
NtRp4041
(dp4042
g57
(dp4043
g65
I4
ssg66
Nsg59
(lp4044
g52
(g68
g54
NtRp4045
(dp4046
g57
(dp4047
sg66
g4041
sg59
(lp4048
g52
(g73
g54
NtRp4049
(dp4050
g57
(dp4051
sg66
g4045
sg59
(lp4052
g52
(g53
g54
NtRp4053
(dp4054
g57
(dp4055
g65
I4
ssg66
g4049
sg59
(lp4056
g52
(g61
g54
NtRp4057
(dp4058
g57
(dp4059
g65
I3
ssg66
Nsg59
(lp4060
g52
(g68
g54
NtRp4061
(dp4062
g57
(dp4063
sg66
g4057
sg59
(lp4064
g52
(g73
g54
NtRp4065
(dp4066
g57
(dp4067
sg66
g4061
sg59
(lp4068
g52
(g53
g54
NtRp4069
(dp4070
g57
(dp4071
g65
I3
ssg66
g4065
sg59
(lp4072
cgluon.languages
lazyT_unpickle
p4073
(S's\x06\x00\x00\x00design'
tRp4074
asbasbasbag52
(g68
g54
NtRp4075
(dp4076
g57
(dp4077
sg66
g4057
sg59
(lp4078
g52
(g73
g54
NtRp4079
(dp4080
g57
(dp4081
sg66
g4075
sg59
(lp4082
g52
(g53
g54
NtRp4083
(dp4084
g57
(dp4085
g65
I3
ssg66
g4079
sg59
(lp4086
g95
asbasbasbag52
(g68
g54
NtRp4087
(dp4088
g57
(dp4089
sg66
g4057
sg59
(lp4090
g52
(g73
g54
NtRp4091
(dp4092
g57
(dp4093
sg66
g4087
sg59
(lp4094
g52
(g53
g54
NtRp4095
(dp4096
g57
(dp4097
g65
I3
ssg66
g4091
sg59
(lp4098
S'/admin/default/design/Casa_de_Apuestas'
p4099
asbasbasbasbasbasbasbag52
(g68
g54
NtRp4100
(dp4101
g57
(dp4102
sg66
g4041
sg59
(lp4103
g52
(g73
g54
NtRp4104
(dp4105
g57
(dp4106
sg66
g4100
sg59
(lp4107
g52
(g53
g54
NtRp4108
(dp4109
g57
(dp4110
g65
I4
ssg66
g4104
sg59
(lp4111
g52
(g61
g54
NtRp4112
(dp4113
g57
(dp4114
g65
I3
ssg66
Nsg59
(lp4115
g52
(g68
g54
NtRp4116
(dp4117
g57
(dp4118
sg66
g4112
sg59
(lp4119
g52
(g73
g54
NtRp4120
(dp4121
g57
(dp4122
sg66
g4116
sg59
(lp4123
g52
(g53
g54
NtRp4124
(dp4125
g57
(dp4126
g65
I3
ssg66
g4120
sg59
(lp4127
g4073
(S's\x02\x00\x00\x00db'
tRp4128
asbasbasbag52
(g68
g54
NtRp4129
(dp4130
g57
(dp4131
sg66
g4112
sg59
(lp4132
g52
(g73
g54
NtRp4133
(dp4134
g57
(dp4135
sg66
g4129
sg59
(lp4136
g52
(g53
g54
NtRp4137
(dp4138
g57
(dp4139
g65
I3
ssg66
g4133
sg59
(lp4140
g95
asbasbasbag52
(g68
g54
NtRp4141
(dp4142
g57
(dp4143
sg66
g4112
sg59
(lp4144
g52
(g73
g54
NtRp4145
(dp4146
g57
(dp4147
sg66
g4141
sg59
(lp4148
g52
(g53
g54
NtRp4149
(dp4150
g57
(dp4151
g65
I3
ssg66
g4145
sg59
(lp4152
S'/Casa_de_Apuestas/appadmin/index'
p4153
asbasbasbasbasbasbasbag52
(g68
g54
NtRp4154
(dp4155
g57
(dp4156
sg66
g4041
sg59
(lp4157
g52
(g73
g54
NtRp4158
(dp4159
g57
(dp4160
sg66
g4154
sg59
(lp4161
g52
(g53
g54
NtRp4162
(dp4163
g57
(dp4164
g65
I4
ssg66
g4158
sg59
(lp4165
g52
(g61
g54
NtRp4166
(dp4167
g57
(dp4168
g65
I3
ssg66
Nsg59
(lp4169
g52
(g68
g54
NtRp4170
(dp4171
g57
(dp4172
sg66
g4166
sg59
(lp4173
g52
(g73
g54
NtRp4174
(dp4175
g57
(dp4176
sg66
g4170
sg59
(lp4177
g52
(g53
g54
NtRp4178
(dp4179
g57
(dp4180
g65
I3
ssg66
g4174
sg59
(lp4181
g4073
(S's\x05\x00\x00\x00state'
tRp4182
asbasbasbag52
(g68
g54
NtRp4183
(dp4184
g57
(dp4185
sg66
g4166
sg59
(lp4186
g52
(g73
g54
NtRp4187
(dp4188
g57
(dp4189
sg66
g4183
sg59
(lp4190
g52
(g53
g54
NtRp4191
(dp4192
g57
(dp4193
g65
I3
ssg66
g4187
sg59
(lp4194
g95
asbasbasbag52
(g68
g54
NtRp4195
(dp4196
g57
(dp4197
sg66
g4166
sg59
(lp4198
g52
(g73
g54
NtRp4199
(dp4200
g57
(dp4201
sg66
g4195
sg59
(lp4202
g52
(g53
g54
NtRp4203
(dp4204
g57
(dp4205
g65
I3
ssg66
g4199
sg59
(lp4206
S'/Casa_de_Apuestas/appadmin/state'
p4207
asbasbasbasbasbasbasbag52
(g68
g54
NtRp4208
(dp4209
g57
(dp4210
sg66
g4041
sg59
(lp4211
g52
(g73
g54
NtRp4212
(dp4213
g57
(dp4214
sg66
g4208
sg59
(lp4215
g52
(g53
g54
NtRp4216
(dp4217
g57
(dp4218
g65
I4
ssg66
g4212
sg59
(lp4219
g52
(g61
g54
NtRp4220
(dp4221
g57
(dp4222
g65
I3
ssg66
Nsg59
(lp4223
g52
(g68
g54
NtRp4224
(dp4225
g57
(dp4226
sg66
g4220
sg59
(lp4227
g52
(g73
g54
NtRp4228
(dp4229
g57
(dp4230
sg66
g4224
sg59
(lp4231
g52
(g53
g54
NtRp4232
(dp4233
g57
(dp4234
g65
I3
ssg66
g4228
sg59
(lp4235
g4073
(S's\x05\x00\x00\x00cache'
tRp4236
asbasbasbag52
(g68
g54
NtRp4237
(dp4238
g57
(dp4239
sg66
g4220
sg59
(lp4240
g52
(g73
g54
NtRp4241
(dp4242
g57
(dp4243
sg66
g4237
sg59
(lp4244
g52
(g53
g54
NtRp4245
(dp4246
g57
(dp4247
g65
I3
ssg66
g4241
sg59
(lp4248
g95
asbasbasbag52
(g68
g54
NtRp4249
(dp4250
g57
(dp4251
sg66
g4220
sg59
(lp4252
g52
(g73
g54
NtRp4253
(dp4254
g57
(dp4255
sg66
g4249
sg59
(lp4256
g52
(g53
g54
NtRp4257
(dp4258
g57
(dp4259
g65
I3
ssg66
g4253
sg59
(lp4260
S'/Casa_de_Apuestas/appadmin/ccache'
p4261
asbasbasbasbasbasbasbasbasbasbasbag52
(g68
g54
NtRp4262
(dp4263
g57
(dp4264
sg66
g3588
sg59
(lp4265
g52
(g73
g54
NtRp4266
(dp4267
g57
(dp4268
g77
g78
ssg66
g4262
sg59
(lp4269
S'meta'
p4270
asbag52
(g73
g54
NtRp4271
(dp4272
g57
(dp4273
g84
g85
ssg66
g4262
sg59
(lp4274
S':'
asbag52
(g73
g54
NtRp4275
(dp4276
g57
(dp4277
sg66
g4262
sg59
(lp4278
g52
(g53
g54
NtRp4279
(dp4280
g57
(dp4281
g65
I5
ssg66
g4275
sg59
(lp4282
g52
(g61
g54
NtRp4283
(dp4284
g57
(dp4285
g65
I4
ssg66
Nsg59
(lp4286
g52
(g68
g54
NtRp4287
(dp4288
g57
(dp4289
sg66
g4283
sg59
(lp4290
g52
(g73
g54
NtRp4291
(dp4292
g57
(dp4293
g77
g78
ssg66
g4287
sg59
(lp4294
S'author'
p4295
asbag52
(g73
g54
NtRp4296
(dp4297
g57
(dp4298
g84
g85
ssg66
g4287
sg59
(lp4299
S':'
asbag52
(g73
g54
NtRp4300
(dp4301
g57
(dp4302
sg66
g4287
sg59
(lp4303
g52
(g53
g54
NtRp4304
(dp4305
g57
(dp4306
g65
I4
ssg66
g4300
sg59
(lp4307
S'JSG Systems <jsg@example.com>'
p4308
asbasbasbag52
(g68
g54
NtRp4309
(dp4310
g57
(dp4311
sg66
g4283
sg59
(lp4312
g52
(g73
g54
NtRp4313
(dp4314
g57
(dp4315
g77
g78
ssg66
g4309
sg59
(lp4316
S'description'
p4317
asbag52
(g73
g54
NtRp4318
(dp4319
g57
(dp4320
g84
g85
ssg66
g4309
sg59
(lp4321
S':'
asbag52
(g73
g54
NtRp4322
(dp4323
g57
(dp4324
sg66
g4309
sg59
(lp4325
g52
(g53
g54
NtRp4326
(dp4327
g57
(dp4328
g65
I4
ssg66
g4322
sg59
(lp4329
S''
asbasbasbag52
(g68
g54
NtRp4330
(dp4331
g57
(dp4332
sg66
g4283
sg59
(lp4333
g52
(g73
g54
NtRp4334
(dp4335
g57
(dp4336
g77
g78
ssg66
g4330
sg59
(lp4337
S'keywords'
p4338
asbag52
(g73
g54
NtRp4339
(dp4340
g57
(dp4341
g84
g85
ssg66
g4330
sg59
(lp4342
S':'
asbag52
(g73
g54
NtRp4343
(dp4344
g57
(dp4345
sg66
g4330
sg59
(lp4346
g52
(g53
g54
NtRp4347
(dp4348
g57
(dp4349
g65
I4
ssg66
g4343
sg59
(lp4350
S'casa, apuestas'
p4351
asbasbasbasbasbasbasbag52
(g68
g54
NtRp4352
(dp4353
g57
(dp4354
sg66
g3588
sg59
(lp4355
g52
(g73
g54
NtRp4356
(dp4357
g57
(dp4358
g77
g78
ssg66
g4352
sg59
(lp4359
S'postprocessing'
p4360
asbag52
(g73
g54
NtRp4361
(dp4362
g57
(dp4363
g84
g85
ssg66
g4352
sg59
(lp4364
S':'
asbag52
(g73
g54
NtRp4365
(dp4366
g57
(dp4367
sg66
g4352
sg59
(lp4368
g52
(g53
g54
NtRp4369
(dp4370
g57
(dp4371
g65
I5
ssg66
g4365
sg59
(lp4372
g52
(g61
g54
NtRp4373
(dp4374
g57
(dp4375
g65
I4
ssg66
Nsg59
(lp4376
sbasbasbasbag52
(g68
g54
NtRp4377
(dp4378
g57
(dp4379
sg66
g3588
sg59
(lp4380
g52
(g73
g54
NtRp4381
(dp4382
g57
(dp4383
g77
g78
ssg66
g4377
sg59
(lp4384
S'session_file'
p4385
asbag52
(g73
g54
NtRp4386
(dp4387
g57
(dp4388
g84
g85
ssg66
g4377
sg59
(lp4389
S':'
asbag52
(g73
g54
NtRp4390
(dp4391
g57
(dp4392
sg66
g4377
sg59
(lp4393
g52
(g53
g54
NtRp4394
(dp4395
g57
(dp4396
g65
I5
ssg66
g4390
sg59
(lp4397
S"<open file 'C:\\Python32\\web2py\\applications\\Casa_de_Apuestas\\sessions\\127.0.0.1-ff075696-a054-47b7-bd6f-733e6903bb65', mode 'rb+' at 0x02EF1608>"
p4398
asbasbasbag52
(g68
g54
NtRp4399
(dp4400
g57
(dp4401
sg66
g3588
sg59
(lp4402
g52
(g73
g54
NtRp4403
(dp4404
g57
(dp4405
g77
g78
ssg66
g4399
sg59
(lp4406
S'session_filename'
p4407
asbag52
(g73
g54
NtRp4408
(dp4409
g57
(dp4410
g84
g85
ssg66
g4399
sg59
(lp4411
S':'
asbag52
(g73
g54
NtRp4412
(dp4413
g57
(dp4414
sg66
g4399
sg59
(lp4415
g52
(g53
g54
NtRp4416
(dp4417
g57
(dp4418
g65
I5
ssg66
g4412
sg59
(lp4419
S'C:\\Python32\\web2py\\applications\\Casa_de_Apuestas\\sessions\\127.0.0.1-ff075696-a054-47b7-bd6f-733e6903bb65'
p4420
asbasbasbag52
(g68
g54
NtRp4421
(dp4422
g57
(dp4423
sg66
g3588
sg59
(lp4424
g52
(g73
g54
NtRp4425
(dp4426
g57
(dp4427
g77
g78
ssg66
g4421
sg59
(lp4428
S'session_id'
p4429
asbag52
(g73
g54
NtRp4430
(dp4431
g57
(dp4432
g84
g85
ssg66
g4421
sg59
(lp4433
S':'
asbag52
(g73
g54
NtRp4434
(dp4435
g57
(dp4436
sg66
g4421
sg59
(lp4437
g52
(g53
g54
NtRp4438
(dp4439
g57
(dp4440
g65
I5
ssg66
g4434
sg59
(lp4441
S'127.0.0.1-ff075696-a054-47b7-bd6f-733e6903bb65'
p4442
asbasbasbag52
(g68
g54
NtRp4443
(dp4444
g57
(dp4445
sg66
g3588
sg59
(lp4446
g52
(g73
g54
NtRp4447
(dp4448
g57
(dp4449
g77
g78
ssg66
g4443
sg59
(lp4450
S'session_id_name'
p4451
asbag52
(g73
g54
NtRp4452
(dp4453
g57
(dp4454
g84
g85
ssg66
g4443
sg59
(lp4455
S':'
asbag52
(g73
g54
NtRp4456
(dp4457
g57
(dp4458
sg66
g4443
sg59
(lp4459
g52
(g53
g54
NtRp4460
(dp4461
g57
(dp4462
g65
I5
ssg66
g4456
sg59
(lp4463
g3645
asbasbasbag52
(g68
g54
NtRp4464
(dp4465
g57
(dp4466
sg66
g3588
sg59
(lp4467
g52
(g73
g54
NtRp4468
(dp4469
g57
(dp4470
g77
g78
ssg66
g4464
sg59
(lp4471
S'session_locked'
p4472
asbag52
(g73
g54
NtRp4473
(dp4474
g57
(dp4475
g84
g85
ssg66
g4464
sg59
(lp4476
S':'
asbag52
(g73
g54
NtRp4477
(dp4478
g57
(dp4479
sg66
g4464
sg59
(lp4480
g52
(g53
g54
NtRp4481
(dp4482
g57
(dp4483
g65
I5
ssg66
g4477
sg59
(lp4484
g1912
asbasbasbag52
(g68
g54
NtRp4485
(dp4486
g57
(dp4487
sg66
g3588
sg59
(lp4488
g52
(g73
g54
NtRp4489
(dp4490
g57
(dp4491
g77
g78
ssg66
g4485
sg59
(lp4492
S'session_new'
p4493
asbag52
(g73
g54
NtRp4494
(dp4495
g57
(dp4496
g84
g85
ssg66
g4485
sg59
(lp4497
S':'
asbag52
(g73
g54
NtRp4498
(dp4499
g57
(dp4500
sg66
g4485
sg59
(lp4501
g52
(g53
g54
NtRp4502
(dp4503
g57
(dp4504
g65
I5
ssg66
g4498
sg59
(lp4505
g95
asbasbasbag52
(g68
g54
NtRp4506
(dp4507
g57
(dp4508
sg66
g3588
sg59
(lp4509
g52
(g73
g54
NtRp4510
(dp4511
g57
(dp4512
g77
g78
ssg66
g4506
sg59
(lp4513
S'status'
p4514
asbag52
(g73
g54
NtRp4515
(dp4516
g57
(dp4517
g84
g85
ssg66
g4506
sg59
(lp4518
S':'
asbag52
(g73
g54
NtRp4519
(dp4520
g57
(dp4521
sg66
g4506
sg59
(lp4522
g52
(g53
g54
NtRp4523
(dp4524
g57
(dp4525
g65
I5
ssg66
g4519
sg59
(lp4526
S'200'
p4527
asbasbasbag52
(g68
g54
NtRp4528
(dp4529
g57
(dp4530
sg66
g3588
sg59
(lp4531
g52
(g73
g54
NtRp4532
(dp4533
g57
(dp4534
g77
g78
ssg66
g4528
sg59
(lp4535
S'subtitle'
p4536
asbag52
(g73
g54
NtRp4537
(dp4538
g57
(dp4539
g84
g85
ssg66
g4528
sg59
(lp4540
S':'
asbag52
(g73
g54
NtRp4541
(dp4542
g57
(dp4543
sg66
g4528
sg59
(lp4544
g52
(g53
g54
NtRp4545
(dp4546
g57
(dp4547
g65
I5
ssg66
g4541
sg59
(lp4548
S''
asbasbasbag52
(g68
g54
NtRp4549
(dp4550
g57
(dp4551
sg66
g3588
sg59
(lp4552
g52
(g73
g54
NtRp4553
(dp4554
g57
(dp4555
g77
g78
ssg66
g4549
sg59
(lp4556
S'title'
p4557
asbag52
(g73
g54
NtRp4558
(dp4559
g57
(dp4560
g84
g85
ssg66
g4549
sg59
(lp4561
S':'
asbag52
(g73
g54
NtRp4562
(dp4563
g57
(dp4564
sg66
g4549
sg59
(lp4565
g52
(g53
g54
NtRp4566
(dp4567
g57
(dp4568
g65
I5
ssg66
g4562
sg59
(lp4569
S'Casa de Apuestas'
p4570
asbasbasbag52
(g68
g54
NtRp4571
(dp4572
g57
(dp4573
sg66
g3588
sg59
(lp4574
g52
(g73
g54
NtRp4575
(dp4576
g57
(dp4577
g77
g78
ssg66
g4571
sg59
(lp4578
g2641
asbag52
(g73
g54
NtRp4579
(dp4580
g57
(dp4581
g84
g85
ssg66
g4571
sg59
(lp4582
S':'
asbag52
(g73
g54
NtRp4583
(dp4584
g57
(dp4585
sg66
g4571
sg59
(lp4586
g52
(g53
g54
NtRp4587
(dp4588
g57
(dp4589
g65
I5
ssg66
g4583
sg59
(lp4590
g2654
asbasbasbag52
(g68
g54
NtRp4591
(dp4592
g57
(dp4593
sg66
g3588
sg59
(lp4594
g52
(g73
g54
NtRp4595
(dp4596
g57
(dp4597
g77
g78
ssg66
g4591
sg59
(lp4598
S'view'
p4599
asbag52
(g73
g54
NtRp4600
(dp4601
g57
(dp4602
g84
g85
ssg66
g4591
sg59
(lp4603
S':'
asbag52
(g73
g54
NtRp4604
(dp4605
g57
(dp4606
sg66
g4591
sg59
(lp4607
g52
(g53
g54
NtRp4608
(dp4609
g57
(dp4610
g65
I5
ssg66
g4604
sg59
(lp4611
S'appadmin.html'
p4612
asbasbasbasbasbsS'locals'
p4613
(dp4614
S'query'
p4615
S"'INSERT INTO eventosparticipantes(eventos_id,limite_apuesta,participantes_id) VALUES (1,NULL,5);'"
p4616
sS'self'
p4617
S'<gluon.dal.SQLiteAdapter object at 0x06615AD0>'
p4618
sS'e'
S"OperationalError('no such table: eventosparticipantes',)"
p4619
sS'fields'
p4620
S"[(<gluon.dal.Field object at 0x02EBA450>, '1'), (<gluon.dal.Field object at 0x02EBA9D0>, None), (<gluon.dal.Field object at 0x02EBA2D0>, '5')]"
p4621
sS'table'
p4622
S"<Table {'ALL': <gluon.dal.SQLALL object at 0x02E...puesta': <gluon.dal.Field object at 0x02EBA9D0>}>"
p4623
sssS'traceback'
p4624
S'Traceback (most recent call last):\n  File "gluon/restricted.py", line 194, in restricted\n  File "C:\\Python32\\web2py\\applications\\Casa_de_Apuestas\\controllers/appadmin.py", line 410, in <module>\n  File "gluon/globals.py", line 149, in <lambda>\n  File "C:\\Python32\\web2py\\applications\\Casa_de_Apuestas\\controllers/appadmin.py", line 127, in insert\n  File "gluon/sqlhtml.py", line 1248, in accepts\n  File "gluon/dal.py", line 4976, in insert\n  File "gluon/dal.py", line 886, in insert\nOperationalError: no such table: eventosparticipantes\n'
p4625
s.