(dp1
S'output'
p2
S''
sS'layer'
p3
S'C:\\Python32\\web2py\\applications\\Casa_de_Apuestas\\controllers/default.py'
p4
sS'code'
p5
S'# -*- coding: utf-8 -*-\n### required - do no delete\ndef user(): return dict(form=auth())\ndef download(): return response.download(request,db)\ndef call(): return service()\n### end requires\ndef index():\n    return dict()\n\ndef error():\n    return dict()\n   \n   \ndef maquinas():\n    return dict()\n    \ndef prueba():\n    #from Categoria import *\n    #a = Categoria("Hector", "Cara Rota")\n    #return a.getDescripcion()\n    a = get_databases(categorias)\n    return dict()\n\nresponse._vars=response._caller(prueba)\n'
p6
sS'snapshot'
p7
(dp8
S'exception'
p9
(dp10
S'__hash__'
p11
S"<method-wrapper '__hash__' of exceptions.NameError object at 0x060EF6E8>"
p12
sS'__setattr__'
p13
S"<method-wrapper '__setattr__' of exceptions.NameError object at 0x060EF6E8>"
p14
sS'__reduce_ex__'
p15
S'<built-in method __reduce_ex__ of exceptions.NameError object at 0x060EF6E8>'
p16
sS'__getslice__'
p17
S"<method-wrapper '__getslice__' of exceptions.NameError object at 0x060EF6E8>"
p18
sS'__getitem__'
p19
S"<method-wrapper '__getitem__' of exceptions.NameError object at 0x060EF6E8>"
p20
sS'__setstate__'
p21
S'<built-in method __setstate__ of exceptions.NameError object at 0x060EF6E8>'
p22
sS'__reduce__'
p23
S'<built-in method __reduce__ of exceptions.NameError object at 0x060EF6E8>'
p24
sS'__str__'
p25
S"<method-wrapper '__str__' of exceptions.NameError object at 0x060EF6E8>"
p26
sS'args'
p27
S'("global name \'get_databases\' is not defined",)'
p28
sS'__getattribute__'
p29
S"<method-wrapper '__getattribute__' of exceptions.NameError object at 0x060EF6E8>"
p30
sS'__class__'
p31
S"<type 'exceptions.NameError'>"
p32
sS'__delattr__'
p33
S"<method-wrapper '__delattr__' of exceptions.NameError object at 0x060EF6E8>"
p34
sS'__repr__'
p35
S"<method-wrapper '__repr__' of exceptions.NameError object at 0x060EF6E8>"
p36
sS'__dict__'
p37
S'{}'
p38
sS'__doc__'
p39
S"'Name not found globally.'"
p40
sS'__init__'
p41
S"<method-wrapper '__init__' of exceptions.NameError object at 0x060EF6E8>"
p42
sS'__new__'
p43
S'<built-in method __new__ of type object at 0x1E1CD8D8>'
p44
ssS'evalue'
p45
S"global name 'get_databases' is not defined"
p46
sS'request'
p47
ccopy_reg
_reconstructor
p48
(cgluon.html
BEAUTIFY
p49
c__builtin__
object
p50
NtRp51
(dp52
S'attributes'
p53
(dp54
sS'components'
p55
(lp56
g48
(cgluon.html
TABLE
p57
g50
NtRp58
(dp59
g53
(dp60
S'level'
p61
I5
ssS'parent'
p62
Nsg55
(lp63
g48
(cgluon.html
TR
p64
g50
NtRp65
(dp66
g53
(dp67
sg62
g58
sg55
(lp68
g48
(cgluon.html
TD
p69
g50
NtRp70
(dp71
g53
(dp72
S'_style'
p73
S'font-weight:bold;'
p74
ssg62
g65
sg55
(lp75
S'ajax'
p76
asbag48
(g69
g50
NtRp77
(dp78
g53
(dp79
S'_valign'
p80
S'top'
p81
ssg62
g65
sg55
(lp82
S':'
asbag48
(g69
g50
NtRp83
(dp84
g53
(dp85
sg62
g65
sg55
(lp86
g48
(g49
g50
NtRp87
(dp88
g53
(dp89
g61
I5
ssg62
g83
sg55
(lp90
S'False'
p91
asbasbasbag48
(g64
g50
NtRp92
(dp93
g53
(dp94
sg62
g58
sg55
(lp95
g48
(g69
g50
NtRp96
(dp97
g53
(dp98
g73
g74
ssg62
g92
sg55
(lp99
S'application'
p100
asbag48
(g69
g50
NtRp101
(dp102
g53
(dp103
g80
g81
ssg62
g92
sg55
(lp104
S':'
asbag48
(g69
g50
NtRp105
(dp106
g53
(dp107
sg62
g92
sg55
(lp108
g48
(g49
g50
NtRp109
(dp110
g53
(dp111
g61
I5
ssg62
g105
sg55
(lp112
S'Casa_de_Apuestas'
p113
asbasbasbag48
(g64
g50
NtRp114
(dp115
g53
(dp116
sg62
g58
sg55
(lp117
g48
(g69
g50
NtRp118
(dp119
g53
(dp120
g73
g74
ssg62
g114
sg55
(lp121
g27
asbag48
(g69
g50
NtRp122
(dp123
g53
(dp124
g80
g81
ssg62
g114
sg55
(lp125
S':'
asbag48
(g69
g50
NtRp126
(dp127
g53
(dp128
sg62
g114
sg55
(lp129
g48
(g49
g50
NtRp130
(dp131
g53
(dp132
g61
I5
ssg62
g126
sg55
(lp133
g48
(g57
g50
NtRp134
(dp135
g53
(dp136
g61
I4
ssg62
Nsg55
(lp137
sbasbasbasbag48
(g64
g50
NtRp138
(dp139
g53
(dp140
sg62
g58
sg55
(lp141
g48
(g69
g50
NtRp142
(dp143
g53
(dp144
g73
g74
ssg62
g138
sg55
(lp145
S'body'
p146
asbag48
(g69
g50
NtRp147
(dp148
g53
(dp149
g80
g81
ssg62
g138
sg55
(lp150
S':'
asbag48
(g69
g50
NtRp151
(dp152
g53
(dp153
sg62
g138
sg55
(lp154
g48
(g49
g50
NtRp155
(dp156
g53
(dp157
g61
I5
ssg62
g151
sg55
(lp158
S'<cStringIO.StringO object at 0x065E48E0>'
p159
asbasbasbag48
(g64
g50
NtRp160
(dp161
g53
(dp162
sg62
g58
sg55
(lp163
g48
(g69
g50
NtRp164
(dp165
g53
(dp166
g73
g74
ssg62
g160
sg55
(lp167
S'client'
p168
asbag48
(g69
g50
NtRp169
(dp170
g53
(dp171
g80
g81
ssg62
g160
sg55
(lp172
S':'
asbag48
(g69
g50
NtRp173
(dp174
g53
(dp175
sg62
g160
sg55
(lp176
g48
(g49
g50
NtRp177
(dp178
g53
(dp179
g61
I5
ssg62
g173
sg55
(lp180
S'127.0.0.1'
p181
asbasbasbag48
(g64
g50
NtRp182
(dp183
g53
(dp184
sg62
g58
sg55
(lp185
g48
(g69
g50
NtRp186
(dp187
g53
(dp188
g73
g74
ssg62
g182
sg55
(lp189
S'controller'
p190
asbag48
(g69
g50
NtRp191
(dp192
g53
(dp193
g80
g81
ssg62
g182
sg55
(lp194
S':'
asbag48
(g69
g50
NtRp195
(dp196
g53
(dp197
sg62
g182
sg55
(lp198
g48
(g49
g50
NtRp199
(dp200
g53
(dp201
g61
I5
ssg62
g195
sg55
(lp202
S'default'
p203
asbasbasbag48
(g64
g50
NtRp204
(dp205
g53
(dp206
sg62
g58
sg55
(lp207
g48
(g69
g50
NtRp208
(dp209
g53
(dp210
g73
g74
ssg62
g204
sg55
(lp211
S'cookies'
p212
asbag48
(g69
g50
NtRp213
(dp214
g53
(dp215
g80
g81
ssg62
g204
sg55
(lp216
S':'
asbag48
(g69
g50
NtRp217
(dp218
g53
(dp219
sg62
g204
sg55
(lp220
g48
(g49
g50
NtRp221
(dp222
g53
(dp223
g61
I5
ssg62
g217
sg55
(lp224
g48
(g57
g50
NtRp225
(dp226
g53
(dp227
g61
I4
ssg62
Nsg55
(lp228
g48
(g64
g50
NtRp229
(dp230
g53
(dp231
sg62
g225
sg55
(lp232
g48
(g69
g50
NtRp233
(dp234
g53
(dp235
g73
g74
ssg62
g229
sg55
(lp236
S'session_id_admin'
p237
asbag48
(g69
g50
NtRp238
(dp239
g53
(dp240
g80
g81
ssg62
g229
sg55
(lp241
S':'
asbag48
(g69
g50
NtRp242
(dp243
g53
(dp244
sg62
g229
sg55
(lp245
g48
(g49
g50
NtRp246
(dp247
g53
(dp248
g61
I4
ssg62
g242
sg55
(lp249
g48
(g57
g50
NtRp250
(dp251
g53
(dp252
g61
I3
ssg62
Nsg55
(lp253
g48
(g64
g50
NtRp254
(dp255
g53
(dp256
sg62
g250
sg55
(lp257
g48
(g69
g50
NtRp258
(dp259
g53
(dp260
g73
g74
ssg62
g254
sg55
(lp261
S'comment'
p262
asbag48
(g69
g50
NtRp263
(dp264
g53
(dp265
g80
g81
ssg62
g254
sg55
(lp266
S':'
asbag48
(g69
g50
NtRp267
(dp268
g53
(dp269
sg62
g254
sg55
(lp270
g48
(g49
g50
NtRp271
(dp272
g53
(dp273
g61
I3
ssg62
g267
sg55
(lp274
S''
asbasbasbag48
(g64
g50
NtRp275
(dp276
g53
(dp277
sg62
g250
sg55
(lp278
g48
(g69
g50
NtRp279
(dp280
g53
(dp281
g73
g74
ssg62
g275
sg55
(lp282
S'domain'
p283
asbag48
(g69
g50
NtRp284
(dp285
g53
(dp286
g80
g81
ssg62
g275
sg55
(lp287
S':'
asbag48
(g69
g50
NtRp288
(dp289
g53
(dp290
sg62
g275
sg55
(lp291
g48
(g49
g50
NtRp292
(dp293
g53
(dp294
g61
I3
ssg62
g288
sg55
(lp295
S''
asbasbasbag48
(g64
g50
NtRp296
(dp297
g53
(dp298
sg62
g250
sg55
(lp299
g48
(g69
g50
NtRp300
(dp301
g53
(dp302
g73
g74
ssg62
g296
sg55
(lp303
S'expires'
p304
asbag48
(g69
g50
NtRp305
(dp306
g53
(dp307
g80
g81
ssg62
g296
sg55
(lp308
S':'
asbag48
(g69
g50
NtRp309
(dp310
g53
(dp311
sg62
g296
sg55
(lp312
g48
(g49
g50
NtRp313
(dp314
g53
(dp315
g61
I3
ssg62
g309
sg55
(lp316
S''
asbasbasbag48
(g64
g50
NtRp317
(dp318
g53
(dp319
sg62
g250
sg55
(lp320
g48
(g69
g50
NtRp321
(dp322
g53
(dp323
g73
g74
ssg62
g317
sg55
(lp324
S'max-age'
p325
asbag48
(g69
g50
NtRp326
(dp327
g53
(dp328
g80
g81
ssg62
g317
sg55
(lp329
S':'
asbag48
(g69
g50
NtRp330
(dp331
g53
(dp332
sg62
g317
sg55
(lp333
g48
(g49
g50
NtRp334
(dp335
g53
(dp336
g61
I3
ssg62
g330
sg55
(lp337
S''
asbasbasbag48
(g64
g50
NtRp338
(dp339
g53
(dp340
sg62
g250
sg55
(lp341
g48
(g69
g50
NtRp342
(dp343
g53
(dp344
g73
g74
ssg62
g338
sg55
(lp345
S'path'
p346
asbag48
(g69
g50
NtRp347
(dp348
g53
(dp349
g80
g81
ssg62
g338
sg55
(lp350
S':'
asbag48
(g69
g50
NtRp351
(dp352
g53
(dp353
sg62
g338
sg55
(lp354
g48
(g49
g50
NtRp355
(dp356
g53
(dp357
g61
I3
ssg62
g351
sg55
(lp358
S''
asbasbasbag48
(g64
g50
NtRp359
(dp360
g53
(dp361
sg62
g250
sg55
(lp362
g48
(g69
g50
NtRp363
(dp364
g53
(dp365
g73
g74
ssg62
g359
sg55
(lp366
S'secure'
p367
asbag48
(g69
g50
NtRp368
(dp369
g53
(dp370
g80
g81
ssg62
g359
sg55
(lp371
S':'
asbag48
(g69
g50
NtRp372
(dp373
g53
(dp374
sg62
g359
sg55
(lp375
g48
(g49
g50
NtRp376
(dp377
g53
(dp378
g61
I3
ssg62
g372
sg55
(lp379
S''
asbasbasbag48
(g64
g50
NtRp380
(dp381
g53
(dp382
sg62
g250
sg55
(lp383
g48
(g69
g50
NtRp384
(dp385
g53
(dp386
g73
g74
ssg62
g380
sg55
(lp387
S'version'
p388
asbag48
(g69
g50
NtRp389
(dp390
g53
(dp391
g80
g81
ssg62
g380
sg55
(lp392
S':'
asbag48
(g69
g50
NtRp393
(dp394
g53
(dp395
sg62
g380
sg55
(lp396
g48
(g49
g50
NtRp397
(dp398
g53
(dp399
g61
I3
ssg62
g393
sg55
(lp400
S''
asbasbasbasbasbasbasbag48
(g64
g50
NtRp401
(dp402
g53
(dp403
sg62
g225
sg55
(lp404
g48
(g69
g50
NtRp405
(dp406
g53
(dp407
g73
g74
ssg62
g401
sg55
(lp408
S'session_id_casa_de_apuestas'
p409
asbag48
(g69
g50
NtRp410
(dp411
g53
(dp412
g80
g81
ssg62
g401
sg55
(lp413
S':'
asbag48
(g69
g50
NtRp414
(dp415
g53
(dp416
sg62
g401
sg55
(lp417
g48
(g49
g50
NtRp418
(dp419
g53
(dp420
g61
I4
ssg62
g414
sg55
(lp421
g48
(g57
g50
NtRp422
(dp423
g53
(dp424
g61
I3
ssg62
Nsg55
(lp425
g48
(g64
g50
NtRp426
(dp427
g53
(dp428
sg62
g422
sg55
(lp429
g48
(g69
g50
NtRp430
(dp431
g53
(dp432
g73
g74
ssg62
g426
sg55
(lp433
g262
asbag48
(g69
g50
NtRp434
(dp435
g53
(dp436
g80
g81
ssg62
g426
sg55
(lp437
S':'
asbag48
(g69
g50
NtRp438
(dp439
g53
(dp440
sg62
g426
sg55
(lp441
g48
(g49
g50
NtRp442
(dp443
g53
(dp444
g61
I3
ssg62
g438
sg55
(lp445
S''
asbasbasbag48
(g64
g50
NtRp446
(dp447
g53
(dp448
sg62
g422
sg55
(lp449
g48
(g69
g50
NtRp450
(dp451
g53
(dp452
g73
g74
ssg62
g446
sg55
(lp453
g283
asbag48
(g69
g50
NtRp454
(dp455
g53
(dp456
g80
g81
ssg62
g446
sg55
(lp457
S':'
asbag48
(g69
g50
NtRp458
(dp459
g53
(dp460
sg62
g446
sg55
(lp461
g48
(g49
g50
NtRp462
(dp463
g53
(dp464
g61
I3
ssg62
g458
sg55
(lp465
S''
asbasbasbag48
(g64
g50
NtRp466
(dp467
g53
(dp468
sg62
g422
sg55
(lp469
g48
(g69
g50
NtRp470
(dp471
g53
(dp472
g73
g74
ssg62
g466
sg55
(lp473
g304
asbag48
(g69
g50
NtRp474
(dp475
g53
(dp476
g80
g81
ssg62
g466
sg55
(lp477
S':'
asbag48
(g69
g50
NtRp478
(dp479
g53
(dp480
sg62
g466
sg55
(lp481
g48
(g49
g50
NtRp482
(dp483
g53
(dp484
g61
I3
ssg62
g478
sg55
(lp485
S''
asbasbasbag48
(g64
g50
NtRp486
(dp487
g53
(dp488
sg62
g422
sg55
(lp489
g48
(g69
g50
NtRp490
(dp491
g53
(dp492
g73
g74
ssg62
g486
sg55
(lp493
g325
asbag48
(g69
g50
NtRp494
(dp495
g53
(dp496
g80
g81
ssg62
g486
sg55
(lp497
S':'
asbag48
(g69
g50
NtRp498
(dp499
g53
(dp500
sg62
g486
sg55
(lp501
g48
(g49
g50
NtRp502
(dp503
g53
(dp504
g61
I3
ssg62
g498
sg55
(lp505
S''
asbasbasbag48
(g64
g50
NtRp506
(dp507
g53
(dp508
sg62
g422
sg55
(lp509
g48
(g69
g50
NtRp510
(dp511
g53
(dp512
g73
g74
ssg62
g506
sg55
(lp513
g346
asbag48
(g69
g50
NtRp514
(dp515
g53
(dp516
g80
g81
ssg62
g506
sg55
(lp517
S':'
asbag48
(g69
g50
NtRp518
(dp519
g53
(dp520
sg62
g506
sg55
(lp521
g48
(g49
g50
NtRp522
(dp523
g53
(dp524
g61
I3
ssg62
g518
sg55
(lp525
S''
asbasbasbag48
(g64
g50
NtRp526
(dp527
g53
(dp528
sg62
g422
sg55
(lp529
g48
(g69
g50
NtRp530
(dp531
g53
(dp532
g73
g74
ssg62
g526
sg55
(lp533
g367
asbag48
(g69
g50
NtRp534
(dp535
g53
(dp536
g80
g81
ssg62
g526
sg55
(lp537
S':'
asbag48
(g69
g50
NtRp538
(dp539
g53
(dp540
sg62
g526
sg55
(lp541
g48
(g49
g50
NtRp542
(dp543
g53
(dp544
g61
I3
ssg62
g538
sg55
(lp545
S''
asbasbasbag48
(g64
g50
NtRp546
(dp547
g53
(dp548
sg62
g422
sg55
(lp549
g48
(g69
g50
NtRp550
(dp551
g53
(dp552
g73
g74
ssg62
g546
sg55
(lp553
g388
asbag48
(g69
g50
NtRp554
(dp555
g53
(dp556
g80
g81
ssg62
g546
sg55
(lp557
S':'
asbag48
(g69
g50
NtRp558
(dp559
g53
(dp560
sg62
g546
sg55
(lp561
g48
(g49
g50
NtRp562
(dp563
g53
(dp564
g61
I3
ssg62
g558
sg55
(lp565
S''
asbasbasbasbasbasbasbag48
(g64
g50
NtRp566
(dp567
g53
(dp568
sg62
g225
sg55
(lp569
g48
(g69
g50
NtRp570
(dp571
g53
(dp572
g73
g74
ssg62
g566
sg55
(lp573
S'session_id_welcome'
p574
asbag48
(g69
g50
NtRp575
(dp576
g53
(dp577
g80
g81
ssg62
g566
sg55
(lp578
S':'
asbag48
(g69
g50
NtRp579
(dp580
g53
(dp581
sg62
g566
sg55
(lp582
g48
(g49
g50
NtRp583
(dp584
g53
(dp585
g61
I4
ssg62
g579
sg55
(lp586
g48
(g57
g50
NtRp587
(dp588
g53
(dp589
g61
I3
ssg62
Nsg55
(lp590
g48
(g64
g50
NtRp591
(dp592
g53
(dp593
sg62
g587
sg55
(lp594
g48
(g69
g50
NtRp595
(dp596
g53
(dp597
g73
g74
ssg62
g591
sg55
(lp598
g262
asbag48
(g69
g50
NtRp599
(dp600
g53
(dp601
g80
g81
ssg62
g591
sg55
(lp602
S':'
asbag48
(g69
g50
NtRp603
(dp604
g53
(dp605
sg62
g591
sg55
(lp606
g48
(g49
g50
NtRp607
(dp608
g53
(dp609
g61
I3
ssg62
g603
sg55
(lp610
S''
asbasbasbag48
(g64
g50
NtRp611
(dp612
g53
(dp613
sg62
g587
sg55
(lp614
g48
(g69
g50
NtRp615
(dp616
g53
(dp617
g73
g74
ssg62
g611
sg55
(lp618
g283
asbag48
(g69
g50
NtRp619
(dp620
g53
(dp621
g80
g81
ssg62
g611
sg55
(lp622
S':'
asbag48
(g69
g50
NtRp623
(dp624
g53
(dp625
sg62
g611
sg55
(lp626
g48
(g49
g50
NtRp627
(dp628
g53
(dp629
g61
I3
ssg62
g623
sg55
(lp630
S''
asbasbasbag48
(g64
g50
NtRp631
(dp632
g53
(dp633
sg62
g587
sg55
(lp634
g48
(g69
g50
NtRp635
(dp636
g53
(dp637
g73
g74
ssg62
g631
sg55
(lp638
g304
asbag48
(g69
g50
NtRp639
(dp640
g53
(dp641
g80
g81
ssg62
g631
sg55
(lp642
S':'
asbag48
(g69
g50
NtRp643
(dp644
g53
(dp645
sg62
g631
sg55
(lp646
g48
(g49
g50
NtRp647
(dp648
g53
(dp649
g61
I3
ssg62
g643
sg55
(lp650
S''
asbasbasbag48
(g64
g50
NtRp651
(dp652
g53
(dp653
sg62
g587
sg55
(lp654
g48
(g69
g50
NtRp655
(dp656
g53
(dp657
g73
g74
ssg62
g651
sg55
(lp658
g325
asbag48
(g69
g50
NtRp659
(dp660
g53
(dp661
g80
g81
ssg62
g651
sg55
(lp662
S':'
asbag48
(g69
g50
NtRp663
(dp664
g53
(dp665
sg62
g651
sg55
(lp666
g48
(g49
g50
NtRp667
(dp668
g53
(dp669
g61
I3
ssg62
g663
sg55
(lp670
S''
asbasbasbag48
(g64
g50
NtRp671
(dp672
g53
(dp673
sg62
g587
sg55
(lp674
g48
(g69
g50
NtRp675
(dp676
g53
(dp677
g73
g74
ssg62
g671
sg55
(lp678
g346
asbag48
(g69
g50
NtRp679
(dp680
g53
(dp681
g80
g81
ssg62
g671
sg55
(lp682
S':'
asbag48
(g69
g50
NtRp683
(dp684
g53
(dp685
sg62
g671
sg55
(lp686
g48
(g49
g50
NtRp687
(dp688
g53
(dp689
g61
I3
ssg62
g683
sg55
(lp690
S''
asbasbasbag48
(g64
g50
NtRp691
(dp692
g53
(dp693
sg62
g587
sg55
(lp694
g48
(g69
g50
NtRp695
(dp696
g53
(dp697
g73
g74
ssg62
g691
sg55
(lp698
g367
asbag48
(g69
g50
NtRp699
(dp700
g53
(dp701
g80
g81
ssg62
g691
sg55
(lp702
S':'
asbag48
(g69
g50
NtRp703
(dp704
g53
(dp705
sg62
g691
sg55
(lp706
g48
(g49
g50
NtRp707
(dp708
g53
(dp709
g61
I3
ssg62
g703
sg55
(lp710
S''
asbasbasbag48
(g64
g50
NtRp711
(dp712
g53
(dp713
sg62
g587
sg55
(lp714
g48
(g69
g50
NtRp715
(dp716
g53
(dp717
g73
g74
ssg62
g711
sg55
(lp718
g388
asbag48
(g69
g50
NtRp719
(dp720
g53
(dp721
g80
g81
ssg62
g711
sg55
(lp722
S':'
asbag48
(g69
g50
NtRp723
(dp724
g53
(dp725
sg62
g711
sg55
(lp726
g48
(g49
g50
NtRp727
(dp728
g53
(dp729
g61
I3
ssg62
g723
sg55
(lp730
S''
asbasbasbasbasbasbasbasbasbasbasbag48
(g64
g50
NtRp731
(dp732
g53
(dp733
sg62
g58
sg55
(lp734
g48
(g69
g50
NtRp735
(dp736
g53
(dp737
g73
g74
ssg62
g731
sg55
(lp738
S'env'
p739
asbag48
(g69
g50
NtRp740
(dp741
g53
(dp742
g80
g81
ssg62
g731
sg55
(lp743
S':'
asbag48
(g69
g50
NtRp744
(dp745
g53
(dp746
sg62
g731
sg55
(lp747
g48
(g49
g50
NtRp748
(dp749
g53
(dp750
g61
I5
ssg62
g744
sg55
(lp751
g48
(g57
g50
NtRp752
(dp753
g53
(dp754
g61
I4
ssg62
Nsg55
(lp755
g48
(g64
g50
NtRp756
(dp757
g53
(dp758
sg62
g752
sg55
(lp759
g48
(g69
g50
NtRp760
(dp761
g53
(dp762
g73
g74
ssg62
g756
sg55
(lp763
S'app_folders'
p764
asbag48
(g69
g50
NtRp765
(dp766
g53
(dp767
g80
g81
ssg62
g756
sg55
(lp768
S':'
asbag48
(g69
g50
NtRp769
(dp770
g53
(dp771
sg62
g756
sg55
(lp772
g48
(g49
g50
NtRp773
(dp774
g53
(dp775
g61
I4
ssg62
g769
sg55
(lp776
S"set(['C:\\\\Python32\\\\web2py\\\\applications\\\\Casa_de_Apuestas\\\\', 'C:\\\\Python32\\\\web2py\\\\applications\\\\welcome\\\\', 'C:\\\\Python32\\\\web2py\\\\applications\\\\admin\\\\'])"
p777
asbasbasbag48
(g64
g50
NtRp778
(dp779
g53
(dp780
sg62
g752
sg55
(lp781
g48
(g69
g50
NtRp782
(dp783
g53
(dp784
g73
g74
ssg62
g778
sg55
(lp785
S'applications_parent'
p786
asbag48
(g69
g50
NtRp787
(dp788
g53
(dp789
g80
g81
ssg62
g778
sg55
(lp790
S':'
asbag48
(g69
g50
NtRp791
(dp792
g53
(dp793
sg62
g778
sg55
(lp794
g48
(g49
g50
NtRp795
(dp796
g53
(dp797
g61
I4
ssg62
g791
sg55
(lp798
S'C:\\Python32\\web2py'
p799
asbasbasbag48
(g64
g50
NtRp800
(dp801
g53
(dp802
sg62
g752
sg55
(lp803
g48
(g69
g50
NtRp804
(dp805
g53
(dp806
g73
g74
ssg62
g800
sg55
(lp807
S'cmd_args'
p808
asbag48
(g69
g50
NtRp809
(dp810
g53
(dp811
g80
g81
ssg62
g800
sg55
(lp812
S':'
asbag48
(g69
g50
NtRp813
(dp814
g53
(dp815
sg62
g800
sg55
(lp816
g48
(g49
g50
NtRp817
(dp818
g53
(dp819
g61
I4
ssg62
g813
sg55
(lp820
g48
(g57
g50
NtRp821
(dp822
g53
(dp823
g61
I3
ssg62
Nsg55
(lp824
sbasbasbasbag48
(g64
g50
NtRp825
(dp826
g53
(dp827
sg62
g752
sg55
(lp828
g48
(g69
g50
NtRp829
(dp830
g53
(dp831
g73
g74
ssg62
g825
sg55
(lp832
S'cmd_options'
p833
asbag48
(g69
g50
NtRp834
(dp835
g53
(dp836
g80
g81
ssg62
g825
sg55
(lp837
S':'
asbag48
(g69
g50
NtRp838
(dp839
g53
(dp840
sg62
g825
sg55
(lp841
g48
(g49
g50
NtRp842
(dp843
g53
(dp844
g61
I4
ssg62
g838
sg55
(lp845
S"<Values at 0x2d68f30: {'verbose': False, 'ip': '127.0.0.1', 'shutdown_timeout': 5, 'taskbar': False, 'nocron': False, 'pid_filename': 'httpserver.pid', 'maxthreads': None, 'softcron': False, 'server_name': 'hector-asus', 'bpython': False, 'nogui': False, 'port': 8000, 'extcron': False, 'debuglevel': 30, 'test': None, 'folder': 'C:\\\\Python32\\\\web2py', 'config': '', 'import_models': False, 'winservice': '', 'shell': None, 'run': '', 'log_filename': 'httpserver.log', 'args': [''], 'ssl_ca_certificate': None, 'scheduler': None, 'profiler_filename': None, 'ssl_private_key': '', 'password': '<ask>', 'request_queue_size': 5, 'ssl_certificate': '', 'cronjob': False, 'plain': False, 'quiet': False, 'interfaces': None, 'minthreads': None, 'timeout': 10, 'numthreads': None, 'nobanner': False}>"
p846
asbasbasbag48
(g64
g50
NtRp847
(dp848
g53
(dp849
sg62
g752
sg55
(lp850
g48
(g69
g50
NtRp851
(dp852
g53
(dp853
g73
g74
ssg62
g847
sg55
(lp854
S'db_sessions'
p855
asbag48
(g69
g50
NtRp856
(dp857
g53
(dp858
g80
g81
ssg62
g847
sg55
(lp859
S':'
asbag48
(g69
g50
NtRp860
(dp861
g53
(dp862
sg62
g847
sg55
(lp863
g48
(g49
g50
NtRp864
(dp865
g53
(dp866
g61
I4
ssg62
g860
sg55
(lp867
S'set([])'
p868
asbasbasbag48
(g64
g50
NtRp869
(dp870
g53
(dp871
sg62
g752
sg55
(lp872
g48
(g69
g50
NtRp873
(dp874
g53
(dp875
g73
g74
ssg62
g869
sg55
(lp876
S'debugging'
p877
asbag48
(g69
g50
NtRp878
(dp879
g53
(dp880
g80
g81
ssg62
g869
sg55
(lp881
S':'
asbag48
(g69
g50
NtRp882
(dp883
g53
(dp884
sg62
g869
sg55
(lp885
g48
(g49
g50
NtRp886
(dp887
g53
(dp888
g61
I4
ssg62
g882
sg55
(lp889
g91
asbasbasbag48
(g64
g50
NtRp890
(dp891
g53
(dp892
sg62
g752
sg55
(lp893
g48
(g69
g50
NtRp894
(dp895
g53
(dp896
g73
g74
ssg62
g890
sg55
(lp897
S'gluon_parent'
p898
asbag48
(g69
g50
NtRp899
(dp900
g53
(dp901
g80
g81
ssg62
g890
sg55
(lp902
S':'
asbag48
(g69
g50
NtRp903
(dp904
g53
(dp905
sg62
g890
sg55
(lp906
g48
(g49
g50
NtRp907
(dp908
g53
(dp909
g61
I4
ssg62
g903
sg55
(lp910
S'C:\\Python32\\web2py'
p911
asbasbasbag48
(g64
g50
NtRp912
(dp913
g53
(dp914
sg62
g752
sg55
(lp915
g48
(g69
g50
NtRp916
(dp917
g53
(dp918
g73
g74
ssg62
g912
sg55
(lp919
S'http_accept'
p920
asbag48
(g69
g50
NtRp921
(dp922
g53
(dp923
g80
g81
ssg62
g912
sg55
(lp924
S':'
asbag48
(g69
g50
NtRp925
(dp926
g53
(dp927
sg62
g912
sg55
(lp928
g48
(g49
g50
NtRp929
(dp930
g53
(dp931
g61
I4
ssg62
g925
sg55
(lp932
S'text/html,application/xhtml+xml,application/xml;q=0.9,*/*;q=0.8'
p933
asbasbasbag48
(g64
g50
NtRp934
(dp935
g53
(dp936
sg62
g752
sg55
(lp937
g48
(g69
g50
NtRp938
(dp939
g53
(dp940
g73
g74
ssg62
g934
sg55
(lp941
S'http_accept_charset'
p942
asbag48
(g69
g50
NtRp943
(dp944
g53
(dp945
g80
g81
ssg62
g934
sg55
(lp946
S':'
asbag48
(g69
g50
NtRp947
(dp948
g53
(dp949
sg62
g934
sg55
(lp950
g48
(g49
g50
NtRp951
(dp952
g53
(dp953
g61
I4
ssg62
g947
sg55
(lp954
S'ISO-8859-1,utf-8;q=0.7,*;q=0.3'
p955
asbasbasbag48
(g64
g50
NtRp956
(dp957
g53
(dp958
sg62
g752
sg55
(lp959
g48
(g69
g50
NtRp960
(dp961
g53
(dp962
g73
g74
ssg62
g956
sg55
(lp963
S'http_accept_encoding'
p964
asbag48
(g69
g50
NtRp965
(dp966
g53
(dp967
g80
g81
ssg62
g956
sg55
(lp968
S':'
asbag48
(g69
g50
NtRp969
(dp970
g53
(dp971
sg62
g956
sg55
(lp972
g48
(g49
g50
NtRp973
(dp974
g53
(dp975
g61
I4
ssg62
g969
sg55
(lp976
S'gzip,deflate,sdch'
p977
asbasbasbag48
(g64
g50
NtRp978
(dp979
g53
(dp980
sg62
g752
sg55
(lp981
g48
(g69
g50
NtRp982
(dp983
g53
(dp984
g73
g74
ssg62
g978
sg55
(lp985
S'http_accept_language'
p986
asbag48
(g69
g50
NtRp987
(dp988
g53
(dp989
g80
g81
ssg62
g978
sg55
(lp990
S':'
asbag48
(g69
g50
NtRp991
(dp992
g53
(dp993
sg62
g978
sg55
(lp994
g48
(g49
g50
NtRp995
(dp996
g53
(dp997
g61
I4
ssg62
g991
sg55
(lp998
S'en-US,en;q=0.8'
p999
asbasbasbag48
(g64
g50
NtRp1000
(dp1001
g53
(dp1002
sg62
g752
sg55
(lp1003
g48
(g69
g50
NtRp1004
(dp1005
g53
(dp1006
g73
g74
ssg62
g1000
sg55
(lp1007
S'http_connection'
p1008
asbag48
(g69
g50
NtRp1009
(dp1010
g53
(dp1011
g80
g81
ssg62
g1000
sg55
(lp1012
S':'
asbag48
(g69
g50
NtRp1013
(dp1014
g53
(dp1015
sg62
g1000
sg55
(lp1016
g48
(g49
g50
NtRp1017
(dp1018
g53
(dp1019
g61
I4
ssg62
g1013
sg55
(lp1020
S'keep-alive'
p1021
asbasbasbag48
(g64
g50
NtRp1022
(dp1023
g53
(dp1024
sg62
g752
sg55
(lp1025
g48
(g69
g50
NtRp1026
(dp1027
g53
(dp1028
g73
g74
ssg62
g1022
sg55
(lp1029
S'http_cookie'
p1030
asbag48
(g69
g50
NtRp1031
(dp1032
g53
(dp1033
g80
g81
ssg62
g1022
sg55
(lp1034
S':'
asbag48
(g69
g50
NtRp1035
(dp1036
g53
(dp1037
sg62
g1022
sg55
(lp1038
g48
(g49
g50
NtRp1039
(dp1040
g53
(dp1041
g61
I4
ssg62
g1035
sg55
(lp1042
S'session_id_welcome=127.0.0.1-773dac17-5739-4b50-9e8b-7b34e2f8e095; session_id_casa_de_apuestas=127.0.0.1-db15a7e0-d383-4281-870c-8916a64875df; session_id_admin=127.0.0.1-4e5ab1d0-6a91-4fc1-98c9-41f90c585d5c'
p1043
asbasbasbag48
(g64
g50
NtRp1044
(dp1045
g53
(dp1046
sg62
g752
sg55
(lp1047
g48
(g69
g50
NtRp1048
(dp1049
g53
(dp1050
g73
g74
ssg62
g1044
sg55
(lp1051
S'http_host'
p1052
asbag48
(g69
g50
NtRp1053
(dp1054
g53
(dp1055
g80
g81
ssg62
g1044
sg55
(lp1056
S':'
asbag48
(g69
g50
NtRp1057
(dp1058
g53
(dp1059
sg62
g1044
sg55
(lp1060
g48
(g49
g50
NtRp1061
(dp1062
g53
(dp1063
g61
I4
ssg62
g1057
sg55
(lp1064
S'127.0.0.1:8000'
p1065
asbasbasbag48
(g64
g50
NtRp1066
(dp1067
g53
(dp1068
sg62
g752
sg55
(lp1069
g48
(g69
g50
NtRp1070
(dp1071
g53
(dp1072
g73
g74
ssg62
g1066
sg55
(lp1073
S'http_referer'
p1074
asbag48
(g69
g50
NtRp1075
(dp1076
g53
(dp1077
g80
g81
ssg62
g1066
sg55
(lp1078
S':'
asbag48
(g69
g50
NtRp1079
(dp1080
g53
(dp1081
sg62
g1066
sg55
(lp1082
g48
(g49
g50
NtRp1083
(dp1084
g53
(dp1085
g61
I4
ssg62
g1079
sg55
(lp1086
S'http://127.0.0.1:8000/admin/default/edit/Casa_de_Apuestas/views/default/prueba.html'
p1087
asbasbasbag48
(g64
g50
NtRp1088
(dp1089
g53
(dp1090
sg62
g752
sg55
(lp1091
g48
(g69
g50
NtRp1092
(dp1093
g53
(dp1094
g73
g74
ssg62
g1088
sg55
(lp1095
S'http_user_agent'
p1096
asbag48
(g69
g50
NtRp1097
(dp1098
g53
(dp1099
g80
g81
ssg62
g1088
sg55
(lp1100
S':'
asbag48
(g69
g50
NtRp1101
(dp1102
g53
(dp1103
sg62
g1088
sg55
(lp1104
g48
(g49
g50
NtRp1105
(dp1106
g53
(dp1107
g61
I4
ssg62
g1101
sg55
(lp1108
S'Mozilla/5.0 (Windows NT 6.1; WOW64) AppleWebKit/535.2 (KHTML, like Gecko) Chrome/15.0.874.106 Safari/535.2'
p1109
asbasbasbag48
(g64
g50
NtRp1110
(dp1111
g53
(dp1112
sg62
g752
sg55
(lp1113
g48
(g69
g50
NtRp1114
(dp1115
g53
(dp1116
g73
g74
ssg62
g1110
sg55
(lp1117
S'is_jython'
p1118
asbag48
(g69
g50
NtRp1119
(dp1120
g53
(dp1121
g80
g81
ssg62
g1110
sg55
(lp1122
S':'
asbag48
(g69
g50
NtRp1123
(dp1124
g53
(dp1125
sg62
g1110
sg55
(lp1126
g48
(g49
g50
NtRp1127
(dp1128
g53
(dp1129
g61
I4
ssg62
g1123
sg55
(lp1130
g91
asbasbasbag48
(g64
g50
NtRp1131
(dp1132
g53
(dp1133
sg62
g752
sg55
(lp1134
g48
(g69
g50
NtRp1135
(dp1136
g53
(dp1137
g73
g74
ssg62
g1131
sg55
(lp1138
S'path_info'
p1139
asbag48
(g69
g50
NtRp1140
(dp1141
g53
(dp1142
g80
g81
ssg62
g1131
sg55
(lp1143
S':'
asbag48
(g69
g50
NtRp1144
(dp1145
g53
(dp1146
sg62
g1131
sg55
(lp1147
g48
(g49
g50
NtRp1148
(dp1149
g53
(dp1150
g61
I4
ssg62
g1144
sg55
(lp1151
S'/Casa_de_Apuestas/default/prueba'
p1152
asbasbasbag48
(g64
g50
NtRp1153
(dp1154
g53
(dp1155
sg62
g752
sg55
(lp1156
g48
(g69
g50
NtRp1157
(dp1158
g53
(dp1159
g73
g74
ssg62
g1153
sg55
(lp1160
S'query_string'
p1161
asbag48
(g69
g50
NtRp1162
(dp1163
g53
(dp1164
g80
g81
ssg62
g1153
sg55
(lp1165
S':'
asbag48
(g69
g50
NtRp1166
(dp1167
g53
(dp1168
sg62
g1153
sg55
(lp1169
g48
(g49
g50
NtRp1170
(dp1171
g53
(dp1172
g61
I4
ssg62
g1166
sg55
(lp1173
S''
asbasbasbag48
(g64
g50
NtRp1174
(dp1175
g53
(dp1176
sg62
g752
sg55
(lp1177
g48
(g69
g50
NtRp1178
(dp1179
g53
(dp1180
g73
g74
ssg62
g1174
sg55
(lp1181
S'remote_addr'
p1182
asbag48
(g69
g50
NtRp1183
(dp1184
g53
(dp1185
g80
g81
ssg62
g1174
sg55
(lp1186
S':'
asbag48
(g69
g50
NtRp1187
(dp1188
g53
(dp1189
sg62
g1174
sg55
(lp1190
g48
(g49
g50
NtRp1191
(dp1192
g53
(dp1193
g61
I4
ssg62
g1187
sg55
(lp1194
g181
asbasbasbag48
(g64
g50
NtRp1195
(dp1196
g53
(dp1197
sg62
g752
sg55
(lp1198
g48
(g69
g50
NtRp1199
(dp1200
g53
(dp1201
g73
g74
ssg62
g1195
sg55
(lp1202
S'remote_port'
p1203
asbag48
(g69
g50
NtRp1204
(dp1205
g53
(dp1206
g80
g81
ssg62
g1195
sg55
(lp1207
S':'
asbag48
(g69
g50
NtRp1208
(dp1209
g53
(dp1210
sg62
g1195
sg55
(lp1211
g48
(g49
g50
NtRp1212
(dp1213
g53
(dp1214
g61
I4
ssg62
g1208
sg55
(lp1215
S'49544'
p1216
asbasbasbag48
(g64
g50
NtRp1217
(dp1218
g53
(dp1219
sg62
g752
sg55
(lp1220
g48
(g69
g50
NtRp1221
(dp1222
g53
(dp1223
g73
g74
ssg62
g1217
sg55
(lp1224
S'request_method'
p1225
asbag48
(g69
g50
NtRp1226
(dp1227
g53
(dp1228
g80
g81
ssg62
g1217
sg55
(lp1229
S':'
asbag48
(g69
g50
NtRp1230
(dp1231
g53
(dp1232
sg62
g1217
sg55
(lp1233
g48
(g49
g50
NtRp1234
(dp1235
g53
(dp1236
g61
I4
ssg62
g1230
sg55
(lp1237
S'GET'
p1238
asbasbasbag48
(g64
g50
NtRp1239
(dp1240
g53
(dp1241
sg62
g752
sg55
(lp1242
g48
(g69
g50
NtRp1243
(dp1244
g53
(dp1245
g73
g74
ssg62
g1239
sg55
(lp1246
S'script_name'
p1247
asbag48
(g69
g50
NtRp1248
(dp1249
g53
(dp1250
g80
g81
ssg62
g1239
sg55
(lp1251
S':'
asbag48
(g69
g50
NtRp1252
(dp1253
g53
(dp1254
sg62
g1239
sg55
(lp1255
g48
(g49
g50
NtRp1256
(dp1257
g53
(dp1258
g61
I4
ssg62
g1252
sg55
(lp1259
S''
asbasbasbag48
(g64
g50
NtRp1260
(dp1261
g53
(dp1262
sg62
g752
sg55
(lp1263
g48
(g69
g50
NtRp1264
(dp1265
g53
(dp1266
g73
g74
ssg62
g1260
sg55
(lp1267
S'server_name'
p1268
asbag48
(g69
g50
NtRp1269
(dp1270
g53
(dp1271
g80
g81
ssg62
g1260
sg55
(lp1272
S':'
asbag48
(g69
g50
NtRp1273
(dp1274
g53
(dp1275
sg62
g1260
sg55
(lp1276
g48
(g49
g50
NtRp1277
(dp1278
g53
(dp1279
g61
I4
ssg62
g1273
sg55
(lp1280
S'hector-asus'
p1281
asbasbasbag48
(g64
g50
NtRp1282
(dp1283
g53
(dp1284
sg62
g752
sg55
(lp1285
g48
(g69
g50
NtRp1286
(dp1287
g53
(dp1288
g73
g74
ssg62
g1282
sg55
(lp1289
S'server_port'
p1290
asbag48
(g69
g50
NtRp1291
(dp1292
g53
(dp1293
g80
g81
ssg62
g1282
sg55
(lp1294
S':'
asbag48
(g69
g50
NtRp1295
(dp1296
g53
(dp1297
sg62
g1282
sg55
(lp1298
g48
(g49
g50
NtRp1299
(dp1300
g53
(dp1301
g61
I4
ssg62
g1295
sg55
(lp1302
S'8000'
p1303
asbasbasbag48
(g64
g50
NtRp1304
(dp1305
g53
(dp1306
sg62
g752
sg55
(lp1307
g48
(g69
g50
NtRp1308
(dp1309
g53
(dp1310
g73
g74
ssg62
g1304
sg55
(lp1311
S'server_protocol'
p1312
asbag48
(g69
g50
NtRp1313
(dp1314
g53
(dp1315
g80
g81
ssg62
g1304
sg55
(lp1316
S':'
asbag48
(g69
g50
NtRp1317
(dp1318
g53
(dp1319
sg62
g1304
sg55
(lp1320
g48
(g49
g50
NtRp1321
(dp1322
g53
(dp1323
g61
I4
ssg62
g1317
sg55
(lp1324
S'HTTP/1.1'
p1325
asbasbasbag48
(g64
g50
NtRp1326
(dp1327
g53
(dp1328
sg62
g752
sg55
(lp1329
g48
(g69
g50
NtRp1330
(dp1331
g53
(dp1332
g73
g74
ssg62
g1326
sg55
(lp1333
S'server_software'
p1334
asbag48
(g69
g50
NtRp1335
(dp1336
g53
(dp1337
g80
g81
ssg62
g1326
sg55
(lp1338
S':'
asbag48
(g69
g50
NtRp1339
(dp1340
g53
(dp1341
sg62
g1326
sg55
(lp1342
g48
(g49
g50
NtRp1343
(dp1344
g53
(dp1345
g61
I4
ssg62
g1339
sg55
(lp1346
S'Rocket 1.2.4'
p1347
asbasbasbag48
(g64
g50
NtRp1348
(dp1349
g53
(dp1350
sg62
g752
sg55
(lp1351
g48
(g69
g50
NtRp1352
(dp1353
g53
(dp1354
g73
g74
ssg62
g1348
sg55
(lp1355
S'web2py_crontype'
p1356
asbag48
(g69
g50
NtRp1357
(dp1358
g53
(dp1359
g80
g81
ssg62
g1348
sg55
(lp1360
S':'
asbag48
(g69
g50
NtRp1361
(dp1362
g53
(dp1363
sg62
g1348
sg55
(lp1364
g48
(g49
g50
NtRp1365
(dp1366
g53
(dp1367
g61
I4
ssg62
g1361
sg55
(lp1368
S'hard'
p1369
asbasbasbag48
(g64
g50
NtRp1370
(dp1371
g53
(dp1372
sg62
g752
sg55
(lp1373
g48
(g69
g50
NtRp1374
(dp1375
g53
(dp1376
g73
g74
ssg62
g1370
sg55
(lp1377
S'web2py_path'
p1378
asbag48
(g69
g50
NtRp1379
(dp1380
g53
(dp1381
g80
g81
ssg62
g1370
sg55
(lp1382
S':'
asbag48
(g69
g50
NtRp1383
(dp1384
g53
(dp1385
sg62
g1370
sg55
(lp1386
g48
(g49
g50
NtRp1387
(dp1388
g53
(dp1389
g61
I4
ssg62
g1383
sg55
(lp1390
g799
asbasbasbag48
(g64
g50
NtRp1391
(dp1392
g53
(dp1393
sg62
g752
sg55
(lp1394
g48
(g69
g50
NtRp1395
(dp1396
g53
(dp1397
g73
g74
ssg62
g1391
sg55
(lp1398
S'web2py_version'
p1399
asbag48
(g69
g50
NtRp1400
(dp1401
g53
(dp1402
g80
g81
ssg62
g1391
sg55
(lp1403
S':'
asbag48
(g69
g50
NtRp1404
(dp1405
g53
(dp1406
sg62
g1391
sg55
(lp1407
g48
(g49
g50
NtRp1408
(dp1409
g53
(dp1410
g61
I4
ssg62
g1404
sg55
(lp1411
g48
(g57
g50
NtRp1412
(dp1413
g53
(dp1414
g61
I3
ssg62
Nsg55
(lp1415
g48
(g64
g50
NtRp1416
(dp1417
g53
(dp1418
sg62
g1412
sg55
(lp1419
g48
(g69
g50
NtRp1420
(dp1421
g53
(dp1422
sg62
g1416
sg55
(lp1423
g48
(g49
g50
NtRp1424
(dp1425
g53
(dp1426
g61
I3
ssg62
g1420
sg55
(lp1427
S'1'
asbasbasbag48
(g64
g50
NtRp1428
(dp1429
g53
(dp1430
sg62
g1412
sg55
(lp1431
g48
(g69
g50
NtRp1432
(dp1433
g53
(dp1434
sg62
g1428
sg55
(lp1435
g48
(g49
g50
NtRp1436
(dp1437
g53
(dp1438
g61
I3
ssg62
g1432
sg55
(lp1439
S'99'
p1440
asbasbasbag48
(g64
g50
NtRp1441
(dp1442
g53
(dp1443
sg62
g1412
sg55
(lp1444
g48
(g69
g50
NtRp1445
(dp1446
g53
(dp1447
sg62
g1441
sg55
(lp1448
g48
(g49
g50
NtRp1449
(dp1450
g53
(dp1451
g61
I3
ssg62
g1445
sg55
(lp1452
S'2'
asbasbasbag48
(g64
g50
NtRp1453
(dp1454
g53
(dp1455
sg62
g1412
sg55
(lp1456
g48
(g69
g50
NtRp1457
(dp1458
g53
(dp1459
sg62
g1453
sg55
(lp1460
g48
(g49
g50
NtRp1461
(dp1462
g53
(dp1463
g61
I3
ssg62
g1457
sg55
(lp1464
S'datetime.datetime(2011, 9, 26, 6, 55, 33)'
p1465
asbasbasbag48
(g64
g50
NtRp1466
(dp1467
g53
(dp1468
sg62
g1412
sg55
(lp1469
g48
(g69
g50
NtRp1470
(dp1471
g53
(dp1472
sg62
g1466
sg55
(lp1473
g48
(g49
g50
NtRp1474
(dp1475
g53
(dp1476
g61
I3
ssg62
g1470
sg55
(lp1477
S'stable'
p1478
asbasbasbasbasbasbasbag48
(g64
g50
NtRp1479
(dp1480
g53
(dp1481
sg62
g752
sg55
(lp1482
g48
(g69
g50
NtRp1483
(dp1484
g53
(dp1485
g73
g74
ssg62
g1479
sg55
(lp1486
S'wsgi_errors'
p1487
asbag48
(g69
g50
NtRp1488
(dp1489
g53
(dp1490
g80
g81
ssg62
g1479
sg55
(lp1491
S':'
asbag48
(g69
g50
NtRp1492
(dp1493
g53
(dp1494
sg62
g1479
sg55
(lp1495
g48
(g49
g50
NtRp1496
(dp1497
g53
(dp1498
g61
I4
ssg62
g1492
sg55
(lp1499
S"<open file '<stderr>', mode 'w' at 0x01FF00B0>"
p1500
asbasbasbag48
(g64
g50
NtRp1501
(dp1502
g53
(dp1503
sg62
g752
sg55
(lp1504
g48
(g69
g50
NtRp1505
(dp1506
g53
(dp1507
g73
g74
ssg62
g1501
sg55
(lp1508
S'wsgi_file_wrapper'
p1509
asbag48
(g69
g50
NtRp1510
(dp1511
g53
(dp1512
g80
g81
ssg62
g1501
sg55
(lp1513
S':'
asbag48
(g69
g50
NtRp1514
(dp1515
g53
(dp1516
sg62
g1501
sg55
(lp1517
g48
(g49
g50
NtRp1518
(dp1519
g53
(dp1520
g61
I4
ssg62
g1514
sg55
(lp1521
S'<class wsgiref.util.FileWrapper at 0x02B00D80>'
p1522
asbasbasbag48
(g64
g50
NtRp1523
(dp1524
g53
(dp1525
sg62
g752
sg55
(lp1526
g48
(g69
g50
NtRp1527
(dp1528
g53
(dp1529
g73
g74
ssg62
g1523
sg55
(lp1530
S'wsgi_input'
p1531
asbag48
(g69
g50
NtRp1532
(dp1533
g53
(dp1534
g80
g81
ssg62
g1523
sg55
(lp1535
S':'
asbag48
(g69
g50
NtRp1536
(dp1537
g53
(dp1538
sg62
g1523
sg55
(lp1539
g48
(g49
g50
NtRp1540
(dp1541
g53
(dp1542
g61
I4
ssg62
g1536
sg55
(lp1543
S'<socket._fileobject object at 0x069F71F0>'
p1544
asbasbasbag48
(g64
g50
NtRp1545
(dp1546
g53
(dp1547
sg62
g752
sg55
(lp1548
g48
(g69
g50
NtRp1549
(dp1550
g53
(dp1551
g73
g74
ssg62
g1545
sg55
(lp1552
S'wsgi_multiprocess'
p1553
asbag48
(g69
g50
NtRp1554
(dp1555
g53
(dp1556
g80
g81
ssg62
g1545
sg55
(lp1557
S':'
asbag48
(g69
g50
NtRp1558
(dp1559
g53
(dp1560
sg62
g1545
sg55
(lp1561
g48
(g49
g50
NtRp1562
(dp1563
g53
(dp1564
g61
I4
ssg62
g1558
sg55
(lp1565
g91
asbasbasbag48
(g64
g50
NtRp1566
(dp1567
g53
(dp1568
sg62
g752
sg55
(lp1569
g48
(g69
g50
NtRp1570
(dp1571
g53
(dp1572
g73
g74
ssg62
g1566
sg55
(lp1573
S'wsgi_multithread'
p1574
asbag48
(g69
g50
NtRp1575
(dp1576
g53
(dp1577
g80
g81
ssg62
g1566
sg55
(lp1578
S':'
asbag48
(g69
g50
NtRp1579
(dp1580
g53
(dp1581
sg62
g1566
sg55
(lp1582
g48
(g49
g50
NtRp1583
(dp1584
g53
(dp1585
g61
I4
ssg62
g1579
sg55
(lp1586
S'True'
p1587
asbasbasbag48
(g64
g50
NtRp1588
(dp1589
g53
(dp1590
sg62
g752
sg55
(lp1591
g48
(g69
g50
NtRp1592
(dp1593
g53
(dp1594
g73
g74
ssg62
g1588
sg55
(lp1595
S'wsgi_run_once'
p1596
asbag48
(g69
g50
NtRp1597
(dp1598
g53
(dp1599
g80
g81
ssg62
g1588
sg55
(lp1600
S':'
asbag48
(g69
g50
NtRp1601
(dp1602
g53
(dp1603
sg62
g1588
sg55
(lp1604
g48
(g49
g50
NtRp1605
(dp1606
g53
(dp1607
g61
I4
ssg62
g1601
sg55
(lp1608
g91
asbasbasbag48
(g64
g50
NtRp1609
(dp1610
g53
(dp1611
sg62
g752
sg55
(lp1612
g48
(g69
g50
NtRp1613
(dp1614
g53
(dp1615
g73
g74
ssg62
g1609
sg55
(lp1616
S'wsgi_url_scheme'
p1617
asbag48
(g69
g50
NtRp1618
(dp1619
g53
(dp1620
g80
g81
ssg62
g1609
sg55
(lp1621
S':'
asbag48
(g69
g50
NtRp1622
(dp1623
g53
(dp1624
sg62
g1609
sg55
(lp1625
g48
(g49
g50
NtRp1626
(dp1627
g53
(dp1628
g61
I4
ssg62
g1622
sg55
(lp1629
S'http'
p1630
asbasbasbag48
(g64
g50
NtRp1631
(dp1632
g53
(dp1633
sg62
g752
sg55
(lp1634
g48
(g69
g50
NtRp1635
(dp1636
g53
(dp1637
g73
g74
ssg62
g1631
sg55
(lp1638
S'wsgi_version'
p1639
asbag48
(g69
g50
NtRp1640
(dp1641
g53
(dp1642
g80
g81
ssg62
g1631
sg55
(lp1643
S':'
asbag48
(g69
g50
NtRp1644
(dp1645
g53
(dp1646
sg62
g1631
sg55
(lp1647
g48
(g49
g50
NtRp1648
(dp1649
g53
(dp1650
g61
I4
ssg62
g1644
sg55
(lp1651
g48
(g57
g50
NtRp1652
(dp1653
g53
(dp1654
g61
I3
ssg62
Nsg55
(lp1655
g48
(g64
g50
NtRp1656
(dp1657
g53
(dp1658
sg62
g1652
sg55
(lp1659
g48
(g69
g50
NtRp1660
(dp1661
g53
(dp1662
sg62
g1656
sg55
(lp1663
g48
(g49
g50
NtRp1664
(dp1665
g53
(dp1666
g61
I3
ssg62
g1660
sg55
(lp1667
S'1'
asbasbasbag48
(g64
g50
NtRp1668
(dp1669
g53
(dp1670
sg62
g1652
sg55
(lp1671
g48
(g69
g50
NtRp1672
(dp1673
g53
(dp1674
sg62
g1668
sg55
(lp1675
g48
(g49
g50
NtRp1676
(dp1677
g53
(dp1678
g61
I3
ssg62
g1672
sg55
(lp1679
S'0'
asbasbasbasbasbasbasbasbasbasbasbag48
(g64
g50
NtRp1680
(dp1681
g53
(dp1682
sg62
g58
sg55
(lp1683
g48
(g69
g50
NtRp1684
(dp1685
g53
(dp1686
g73
g74
ssg62
g1680
sg55
(lp1687
S'extension'
p1688
asbag48
(g69
g50
NtRp1689
(dp1690
g53
(dp1691
g80
g81
ssg62
g1680
sg55
(lp1692
S':'
asbag48
(g69
g50
NtRp1693
(dp1694
g53
(dp1695
sg62
g1680
sg55
(lp1696
g48
(g49
g50
NtRp1697
(dp1698
g53
(dp1699
g61
I5
ssg62
g1693
sg55
(lp1700
S'html'
p1701
asbasbasbag48
(g64
g50
NtRp1702
(dp1703
g53
(dp1704
sg62
g58
sg55
(lp1705
g48
(g69
g50
NtRp1706
(dp1707
g53
(dp1708
g73
g74
ssg62
g1702
sg55
(lp1709
S'folder'
p1710
asbag48
(g69
g50
NtRp1711
(dp1712
g53
(dp1713
g80
g81
ssg62
g1702
sg55
(lp1714
S':'
asbag48
(g69
g50
NtRp1715
(dp1716
g53
(dp1717
sg62
g1702
sg55
(lp1718
g48
(g49
g50
NtRp1719
(dp1720
g53
(dp1721
g61
I5
ssg62
g1715
sg55
(lp1722
S'C:\\Python32\\web2py\\applications\\Casa_de_Apuestas\\'
p1723
asbasbasbag48
(g64
g50
NtRp1724
(dp1725
g53
(dp1726
sg62
g58
sg55
(lp1727
g48
(g69
g50
NtRp1728
(dp1729
g53
(dp1730
g73
g74
ssg62
g1724
sg55
(lp1731
S'function'
p1732
asbag48
(g69
g50
NtRp1733
(dp1734
g53
(dp1735
g80
g81
ssg62
g1724
sg55
(lp1736
S':'
asbag48
(g69
g50
NtRp1737
(dp1738
g53
(dp1739
sg62
g1724
sg55
(lp1740
g48
(g49
g50
NtRp1741
(dp1742
g53
(dp1743
g61
I5
ssg62
g1737
sg55
(lp1744
S'prueba'
p1745
asbasbasbag48
(g64
g50
NtRp1746
(dp1747
g53
(dp1748
sg62
g58
sg55
(lp1749
g48
(g69
g50
NtRp1750
(dp1751
g53
(dp1752
g73
g74
ssg62
g1746
sg55
(lp1753
S'get_vars'
p1754
asbag48
(g69
g50
NtRp1755
(dp1756
g53
(dp1757
g80
g81
ssg62
g1746
sg55
(lp1758
S':'
asbag48
(g69
g50
NtRp1759
(dp1760
g53
(dp1761
sg62
g1746
sg55
(lp1762
g48
(g49
g50
NtRp1763
(dp1764
g53
(dp1765
g61
I5
ssg62
g1759
sg55
(lp1766
g48
(g57
g50
NtRp1767
(dp1768
g53
(dp1769
g61
I4
ssg62
Nsg55
(lp1770
sbasbasbasbag48
(g64
g50
NtRp1771
(dp1772
g53
(dp1773
sg62
g58
sg55
(lp1774
g48
(g69
g50
NtRp1775
(dp1776
g53
(dp1777
g73
g74
ssg62
g1771
sg55
(lp1778
S'global_settings'
p1779
asbag48
(g69
g50
NtRp1780
(dp1781
g53
(dp1782
g80
g81
ssg62
g1771
sg55
(lp1783
S':'
asbag48
(g69
g50
NtRp1784
(dp1785
g53
(dp1786
sg62
g1771
sg55
(lp1787
g48
(g49
g50
NtRp1788
(dp1789
g53
(dp1790
g61
I5
ssg62
g1784
sg55
(lp1791
g48
(g57
g50
NtRp1792
(dp1793
g53
(dp1794
g61
I4
ssg62
Nsg55
(lp1795
g48
(g64
g50
NtRp1796
(dp1797
g53
(dp1798
sg62
g1792
sg55
(lp1799
g48
(g69
g50
NtRp1800
(dp1801
g53
(dp1802
g73
g74
ssg62
g1796
sg55
(lp1803
g764
asbag48
(g69
g50
NtRp1804
(dp1805
g53
(dp1806
g80
g81
ssg62
g1796
sg55
(lp1807
S':'
asbag48
(g69
g50
NtRp1808
(dp1809
g53
(dp1810
sg62
g1796
sg55
(lp1811
g48
(g49
g50
NtRp1812
(dp1813
g53
(dp1814
g61
I4
ssg62
g1808
sg55
(lp1815
S"set(['C:\\\\Python32\\\\web2py\\\\applications\\\\Casa_de_Apuestas\\\\', 'C:\\\\Python32\\\\web2py\\\\applications\\\\welcome\\\\', 'C:\\\\Python32\\\\web2py\\\\applications\\\\admin\\\\'])"
p1816
asbasbasbag48
(g64
g50
NtRp1817
(dp1818
g53
(dp1819
sg62
g1792
sg55
(lp1820
g48
(g69
g50
NtRp1821
(dp1822
g53
(dp1823
g73
g74
ssg62
g1817
sg55
(lp1824
g786
asbag48
(g69
g50
NtRp1825
(dp1826
g53
(dp1827
g80
g81
ssg62
g1817
sg55
(lp1828
S':'
asbag48
(g69
g50
NtRp1829
(dp1830
g53
(dp1831
sg62
g1817
sg55
(lp1832
g48
(g49
g50
NtRp1833
(dp1834
g53
(dp1835
g61
I4
ssg62
g1829
sg55
(lp1836
g799
asbasbasbag48
(g64
g50
NtRp1837
(dp1838
g53
(dp1839
sg62
g1792
sg55
(lp1840
g48
(g69
g50
NtRp1841
(dp1842
g53
(dp1843
g73
g74
ssg62
g1837
sg55
(lp1844
g808
asbag48
(g69
g50
NtRp1845
(dp1846
g53
(dp1847
g80
g81
ssg62
g1837
sg55
(lp1848
S':'
asbag48
(g69
g50
NtRp1849
(dp1850
g53
(dp1851
sg62
g1837
sg55
(lp1852
g48
(g49
g50
NtRp1853
(dp1854
g53
(dp1855
g61
I4
ssg62
g1849
sg55
(lp1856
g48
(g57
g50
NtRp1857
(dp1858
g53
(dp1859
g61
I3
ssg62
Nsg55
(lp1860
sbasbasbasbag48
(g64
g50
NtRp1861
(dp1862
g53
(dp1863
sg62
g1792
sg55
(lp1864
g48
(g69
g50
NtRp1865
(dp1866
g53
(dp1867
g73
g74
ssg62
g1861
sg55
(lp1868
g833
asbag48
(g69
g50
NtRp1869
(dp1870
g53
(dp1871
g80
g81
ssg62
g1861
sg55
(lp1872
S':'
asbag48
(g69
g50
NtRp1873
(dp1874
g53
(dp1875
sg62
g1861
sg55
(lp1876
g48
(g49
g50
NtRp1877
(dp1878
g53
(dp1879
g61
I4
ssg62
g1873
sg55
(lp1880
S"<Values at 0x2d68f30: {'verbose': False, 'ip': '127.0.0.1', 'shutdown_timeout': 5, 'taskbar': False, 'nocron': False, 'pid_filename': 'httpserver.pid', 'maxthreads': None, 'softcron': False, 'server_name': 'hector-asus', 'bpython': False, 'nogui': False, 'port': 8000, 'extcron': False, 'debuglevel': 30, 'test': None, 'folder': 'C:\\\\Python32\\\\web2py', 'config': '', 'import_models': False, 'winservice': '', 'shell': None, 'run': '', 'log_filename': 'httpserver.log', 'args': [''], 'ssl_ca_certificate': None, 'scheduler': None, 'profiler_filename': None, 'ssl_private_key': '', 'password': '<ask>', 'request_queue_size': 5, 'ssl_certificate': '', 'cronjob': False, 'plain': False, 'quiet': False, 'interfaces': None, 'minthreads': None, 'timeout': 10, 'numthreads': None, 'nobanner': False}>"
p1881
asbasbasbag48
(g64
g50
NtRp1882
(dp1883
g53
(dp1884
sg62
g1792
sg55
(lp1885
g48
(g69
g50
NtRp1886
(dp1887
g53
(dp1888
g73
g74
ssg62
g1882
sg55
(lp1889
g855
asbag48
(g69
g50
NtRp1890
(dp1891
g53
(dp1892
g80
g81
ssg62
g1882
sg55
(lp1893
S':'
asbag48
(g69
g50
NtRp1894
(dp1895
g53
(dp1896
sg62
g1882
sg55
(lp1897
g48
(g49
g50
NtRp1898
(dp1899
g53
(dp1900
g61
I4
ssg62
g1894
sg55
(lp1901
S'set([])'
p1902
asbasbasbag48
(g64
g50
NtRp1903
(dp1904
g53
(dp1905
sg62
g1792
sg55
(lp1906
g48
(g69
g50
NtRp1907
(dp1908
g53
(dp1909
g73
g74
ssg62
g1903
sg55
(lp1910
g877
asbag48
(g69
g50
NtRp1911
(dp1912
g53
(dp1913
g80
g81
ssg62
g1903
sg55
(lp1914
S':'
asbag48
(g69
g50
NtRp1915
(dp1916
g53
(dp1917
sg62
g1903
sg55
(lp1918
g48
(g49
g50
NtRp1919
(dp1920
g53
(dp1921
g61
I4
ssg62
g1915
sg55
(lp1922
g91
asbasbasbag48
(g64
g50
NtRp1923
(dp1924
g53
(dp1925
sg62
g1792
sg55
(lp1926
g48
(g69
g50
NtRp1927
(dp1928
g53
(dp1929
g73
g74
ssg62
g1923
sg55
(lp1930
g898
asbag48
(g69
g50
NtRp1931
(dp1932
g53
(dp1933
g80
g81
ssg62
g1923
sg55
(lp1934
S':'
asbag48
(g69
g50
NtRp1935
(dp1936
g53
(dp1937
sg62
g1923
sg55
(lp1938
g48
(g49
g50
NtRp1939
(dp1940
g53
(dp1941
g61
I4
ssg62
g1935
sg55
(lp1942
g911
asbasbasbag48
(g64
g50
NtRp1943
(dp1944
g53
(dp1945
sg62
g1792
sg55
(lp1946
g48
(g69
g50
NtRp1947
(dp1948
g53
(dp1949
g73
g74
ssg62
g1943
sg55
(lp1950
g1118
asbag48
(g69
g50
NtRp1951
(dp1952
g53
(dp1953
g80
g81
ssg62
g1943
sg55
(lp1954
S':'
asbag48
(g69
g50
NtRp1955
(dp1956
g53
(dp1957
sg62
g1943
sg55
(lp1958
g48
(g49
g50
NtRp1959
(dp1960
g53
(dp1961
g61
I4
ssg62
g1955
sg55
(lp1962
g91
asbasbasbag48
(g64
g50
NtRp1963
(dp1964
g53
(dp1965
sg62
g1792
sg55
(lp1966
g48
(g69
g50
NtRp1967
(dp1968
g53
(dp1969
g73
g74
ssg62
g1963
sg55
(lp1970
g1356
asbag48
(g69
g50
NtRp1971
(dp1972
g53
(dp1973
g80
g81
ssg62
g1963
sg55
(lp1974
S':'
asbag48
(g69
g50
NtRp1975
(dp1976
g53
(dp1977
sg62
g1963
sg55
(lp1978
g48
(g49
g50
NtRp1979
(dp1980
g53
(dp1981
g61
I4
ssg62
g1975
sg55
(lp1982
g1369
asbasbasbag48
(g64
g50
NtRp1983
(dp1984
g53
(dp1985
sg62
g1792
sg55
(lp1986
g48
(g69
g50
NtRp1987
(dp1988
g53
(dp1989
g73
g74
ssg62
g1983
sg55
(lp1990
g1399
asbag48
(g69
g50
NtRp1991
(dp1992
g53
(dp1993
g80
g81
ssg62
g1983
sg55
(lp1994
S':'
asbag48
(g69
g50
NtRp1995
(dp1996
g53
(dp1997
sg62
g1983
sg55
(lp1998
g48
(g49
g50
NtRp1999
(dp2000
g53
(dp2001
g61
I4
ssg62
g1995
sg55
(lp2002
g48
(g57
g50
NtRp2003
(dp2004
g53
(dp2005
g61
I3
ssg62
Nsg55
(lp2006
g48
(g64
g50
NtRp2007
(dp2008
g53
(dp2009
sg62
g2003
sg55
(lp2010
g48
(g69
g50
NtRp2011
(dp2012
g53
(dp2013
sg62
g2007
sg55
(lp2014
g48
(g49
g50
NtRp2015
(dp2016
g53
(dp2017
g61
I3
ssg62
g2011
sg55
(lp2018
S'1'
asbasbasbag48
(g64
g50
NtRp2019
(dp2020
g53
(dp2021
sg62
g2003
sg55
(lp2022
g48
(g69
g50
NtRp2023
(dp2024
g53
(dp2025
sg62
g2019
sg55
(lp2026
g48
(g49
g50
NtRp2027
(dp2028
g53
(dp2029
g61
I3
ssg62
g2023
sg55
(lp2030
S'99'
p2031
asbasbasbag48
(g64
g50
NtRp2032
(dp2033
g53
(dp2034
sg62
g2003
sg55
(lp2035
g48
(g69
g50
NtRp2036
(dp2037
g53
(dp2038
sg62
g2032
sg55
(lp2039
g48
(g49
g50
NtRp2040
(dp2041
g53
(dp2042
g61
I3
ssg62
g2036
sg55
(lp2043
S'2'
asbasbasbag48
(g64
g50
NtRp2044
(dp2045
g53
(dp2046
sg62
g2003
sg55
(lp2047
g48
(g69
g50
NtRp2048
(dp2049
g53
(dp2050
sg62
g2044
sg55
(lp2051
g48
(g49
g50
NtRp2052
(dp2053
g53
(dp2054
g61
I3
ssg62
g2048
sg55
(lp2055
S'datetime.datetime(2011, 9, 26, 6, 55, 33)'
p2056
asbasbasbag48
(g64
g50
NtRp2057
(dp2058
g53
(dp2059
sg62
g2003
sg55
(lp2060
g48
(g69
g50
NtRp2061
(dp2062
g53
(dp2063
sg62
g2057
sg55
(lp2064
g48
(g49
g50
NtRp2065
(dp2066
g53
(dp2067
g61
I3
ssg62
g2061
sg55
(lp2068
g1478
asbasbasbasbasbasbasbasbasbasbasbag48
(g64
g50
NtRp2069
(dp2070
g53
(dp2071
sg62
g58
sg55
(lp2072
g48
(g69
g50
NtRp2073
(dp2074
g53
(dp2075
g73
g74
ssg62
g2069
sg55
(lp2076
S'is_https'
p2077
asbag48
(g69
g50
NtRp2078
(dp2079
g53
(dp2080
g80
g81
ssg62
g2069
sg55
(lp2081
S':'
asbag48
(g69
g50
NtRp2082
(dp2083
g53
(dp2084
sg62
g2069
sg55
(lp2085
g48
(g49
g50
NtRp2086
(dp2087
g53
(dp2088
g61
I5
ssg62
g2082
sg55
(lp2089
g91
asbasbasbag48
(g64
g50
NtRp2090
(dp2091
g53
(dp2092
sg62
g58
sg55
(lp2093
g48
(g69
g50
NtRp2094
(dp2095
g53
(dp2096
g73
g74
ssg62
g2090
sg55
(lp2097
S'is_local'
p2098
asbag48
(g69
g50
NtRp2099
(dp2100
g53
(dp2101
g80
g81
ssg62
g2090
sg55
(lp2102
S':'
asbag48
(g69
g50
NtRp2103
(dp2104
g53
(dp2105
sg62
g2090
sg55
(lp2106
g48
(g49
g50
NtRp2107
(dp2108
g53
(dp2109
g61
I5
ssg62
g2103
sg55
(lp2110
g1587
asbasbasbag48
(g64
g50
NtRp2111
(dp2112
g53
(dp2113
sg62
g58
sg55
(lp2114
g48
(g69
g50
NtRp2115
(dp2116
g53
(dp2117
g73
g74
ssg62
g2111
sg55
(lp2118
S'is_restful'
p2119
asbag48
(g69
g50
NtRp2120
(dp2121
g53
(dp2122
g80
g81
ssg62
g2111
sg55
(lp2123
S':'
asbag48
(g69
g50
NtRp2124
(dp2125
g53
(dp2126
sg62
g2111
sg55
(lp2127
g48
(g49
g50
NtRp2128
(dp2129
g53
(dp2130
g61
I5
ssg62
g2124
sg55
(lp2131
g91
asbasbasbag48
(g64
g50
NtRp2132
(dp2133
g53
(dp2134
sg62
g58
sg55
(lp2135
g48
(g69
g50
NtRp2136
(dp2137
g53
(dp2138
g73
g74
ssg62
g2132
sg55
(lp2139
S'now'
p2140
asbag48
(g69
g50
NtRp2141
(dp2142
g53
(dp2143
g80
g81
ssg62
g2132
sg55
(lp2144
S':'
asbag48
(g69
g50
NtRp2145
(dp2146
g53
(dp2147
sg62
g2132
sg55
(lp2148
g48
(g49
g50
NtRp2149
(dp2150
g53
(dp2151
g61
I5
ssg62
g2145
sg55
(lp2152
S'datetime.datetime(2011, 11, 9, 17, 3, 23, 429000)'
p2153
asbasbasbag48
(g64
g50
NtRp2154
(dp2155
g53
(dp2156
sg62
g58
sg55
(lp2157
g48
(g69
g50
NtRp2158
(dp2159
g53
(dp2160
g73
g74
ssg62
g2154
sg55
(lp2161
S'post_vars'
p2162
asbag48
(g69
g50
NtRp2163
(dp2164
g53
(dp2165
g80
g81
ssg62
g2154
sg55
(lp2166
S':'
asbag48
(g69
g50
NtRp2167
(dp2168
g53
(dp2169
sg62
g2154
sg55
(lp2170
g48
(g49
g50
NtRp2171
(dp2172
g53
(dp2173
g61
I5
ssg62
g2167
sg55
(lp2174
g48
(g57
g50
NtRp2175
(dp2176
g53
(dp2177
g61
I4
ssg62
Nsg55
(lp2178
sbasbasbasbag48
(g64
g50
NtRp2179
(dp2180
g53
(dp2181
sg62
g58
sg55
(lp2182
g48
(g69
g50
NtRp2183
(dp2184
g53
(dp2185
g73
g74
ssg62
g2179
sg55
(lp2186
S'url'
p2187
asbag48
(g69
g50
NtRp2188
(dp2189
g53
(dp2190
g80
g81
ssg62
g2179
sg55
(lp2191
S':'
asbag48
(g69
g50
NtRp2192
(dp2193
g53
(dp2194
sg62
g2179
sg55
(lp2195
g48
(g49
g50
NtRp2196
(dp2197
g53
(dp2198
g61
I5
ssg62
g2192
sg55
(lp2199
S'/Casa_de_Apuestas/default/prueba'
p2200
asbasbasbag48
(g64
g50
NtRp2201
(dp2202
g53
(dp2203
sg62
g58
sg55
(lp2204
g48
(g69
g50
NtRp2205
(dp2206
g53
(dp2207
g73
g74
ssg62
g2201
sg55
(lp2208
S'utcnow'
p2209
asbag48
(g69
g50
NtRp2210
(dp2211
g53
(dp2212
g80
g81
ssg62
g2201
sg55
(lp2213
S':'
asbag48
(g69
g50
NtRp2214
(dp2215
g53
(dp2216
sg62
g2201
sg55
(lp2217
g48
(g49
g50
NtRp2218
(dp2219
g53
(dp2220
g61
I5
ssg62
g2214
sg55
(lp2221
S'datetime.datetime(2011, 11, 9, 21, 33, 23, 429000)'
p2222
asbasbasbag48
(g64
g50
NtRp2223
(dp2224
g53
(dp2225
sg62
g58
sg55
(lp2226
g48
(g69
g50
NtRp2227
(dp2228
g53
(dp2229
g73
g74
ssg62
g2223
sg55
(lp2230
S'uuid'
p2231
asbag48
(g69
g50
NtRp2232
(dp2233
g53
(dp2234
g80
g81
ssg62
g2223
sg55
(lp2235
S':'
asbag48
(g69
g50
NtRp2236
(dp2237
g53
(dp2238
sg62
g2223
sg55
(lp2239
g48
(g49
g50
NtRp2240
(dp2241
g53
(dp2242
g61
I5
ssg62
g2236
sg55
(lp2243
S'Casa_de_Apuestas/127.0.0.1.2011-11-09.17-03-23.165f5f4b-267d-4ee3-80ed-b54fc9b82b96'
p2244
asbasbasbag48
(g64
g50
NtRp2245
(dp2246
g53
(dp2247
sg62
g58
sg55
(lp2248
g48
(g69
g50
NtRp2249
(dp2250
g53
(dp2251
g73
g74
ssg62
g2245
sg55
(lp2252
S'vars'
p2253
asbag48
(g69
g50
NtRp2254
(dp2255
g53
(dp2256
g80
g81
ssg62
g2245
sg55
(lp2257
S':'
asbag48
(g69
g50
NtRp2258
(dp2259
g53
(dp2260
sg62
g2245
sg55
(lp2261
g48
(g49
g50
NtRp2262
(dp2263
g53
(dp2264
g61
I5
ssg62
g2258
sg55
(lp2265
g48
(g57
g50
NtRp2266
(dp2267
g53
(dp2268
g61
I4
ssg62
Nsg55
(lp2269
sbasbasbasbag48
(g64
g50
NtRp2270
(dp2271
g53
(dp2272
sg62
g58
sg55
(lp2273
g48
(g69
g50
NtRp2274
(dp2275
g53
(dp2276
g73
g74
ssg62
g2270
sg55
(lp2277
S'wsgi'
p2278
asbag48
(g69
g50
NtRp2279
(dp2280
g53
(dp2281
g80
g81
ssg62
g2270
sg55
(lp2282
S':'
asbag48
(g69
g50
NtRp2283
(dp2284
g53
(dp2285
sg62
g2270
sg55
(lp2286
g48
(g49
g50
NtRp2287
(dp2288
g53
(dp2289
g61
I5
ssg62
g2283
sg55
(lp2290
g48
(g57
g50
NtRp2291
(dp2292
g53
(dp2293
g61
I4
ssg62
Nsg55
(lp2294
g48
(g64
g50
NtRp2295
(dp2296
g53
(dp2297
sg62
g2291
sg55
(lp2298
g48
(g69
g50
NtRp2299
(dp2300
g53
(dp2301
g73
g74
ssg62
g2295
sg55
(lp2302
S'environ'
p2303
asbag48
(g69
g50
NtRp2304
(dp2305
g53
(dp2306
g80
g81
ssg62
g2295
sg55
(lp2307
S':'
asbag48
(g69
g50
NtRp2308
(dp2309
g53
(dp2310
sg62
g2295
sg55
(lp2311
g48
(g49
g50
NtRp2312
(dp2313
g53
(dp2314
g61
I4
ssg62
g2308
sg55
(lp2315
g48
(g57
g50
NtRp2316
(dp2317
g53
(dp2318
g61
I3
ssg62
Nsg55
(lp2319
g48
(g64
g50
NtRp2320
(dp2321
g53
(dp2322
sg62
g2316
sg55
(lp2323
g48
(g69
g50
NtRp2324
(dp2325
g53
(dp2326
g73
g74
ssg62
g2320
sg55
(lp2327
S'HTTP_ACCEPT'
p2328
asbag48
(g69
g50
NtRp2329
(dp2330
g53
(dp2331
g80
g81
ssg62
g2320
sg55
(lp2332
S':'
asbag48
(g69
g50
NtRp2333
(dp2334
g53
(dp2335
sg62
g2320
sg55
(lp2336
g48
(g49
g50
NtRp2337
(dp2338
g53
(dp2339
g61
I3
ssg62
g2333
sg55
(lp2340
g933
asbasbasbag48
(g64
g50
NtRp2341
(dp2342
g53
(dp2343
sg62
g2316
sg55
(lp2344
g48
(g69
g50
NtRp2345
(dp2346
g53
(dp2347
g73
g74
ssg62
g2341
sg55
(lp2348
S'HTTP_ACCEPT_CHARSET'
p2349
asbag48
(g69
g50
NtRp2350
(dp2351
g53
(dp2352
g80
g81
ssg62
g2341
sg55
(lp2353
S':'
asbag48
(g69
g50
NtRp2354
(dp2355
g53
(dp2356
sg62
g2341
sg55
(lp2357
g48
(g49
g50
NtRp2358
(dp2359
g53
(dp2360
g61
I3
ssg62
g2354
sg55
(lp2361
g955
asbasbasbag48
(g64
g50
NtRp2362
(dp2363
g53
(dp2364
sg62
g2316
sg55
(lp2365
g48
(g69
g50
NtRp2366
(dp2367
g53
(dp2368
g73
g74
ssg62
g2362
sg55
(lp2369
S'HTTP_ACCEPT_ENCODING'
p2370
asbag48
(g69
g50
NtRp2371
(dp2372
g53
(dp2373
g80
g81
ssg62
g2362
sg55
(lp2374
S':'
asbag48
(g69
g50
NtRp2375
(dp2376
g53
(dp2377
sg62
g2362
sg55
(lp2378
g48
(g49
g50
NtRp2379
(dp2380
g53
(dp2381
g61
I3
ssg62
g2375
sg55
(lp2382
g977
asbasbasbag48
(g64
g50
NtRp2383
(dp2384
g53
(dp2385
sg62
g2316
sg55
(lp2386
g48
(g69
g50
NtRp2387
(dp2388
g53
(dp2389
g73
g74
ssg62
g2383
sg55
(lp2390
S'HTTP_ACCEPT_LANGUAGE'
p2391
asbag48
(g69
g50
NtRp2392
(dp2393
g53
(dp2394
g80
g81
ssg62
g2383
sg55
(lp2395
S':'
asbag48
(g69
g50
NtRp2396
(dp2397
g53
(dp2398
sg62
g2383
sg55
(lp2399
g48
(g49
g50
NtRp2400
(dp2401
g53
(dp2402
g61
I3
ssg62
g2396
sg55
(lp2403
g999
asbasbasbag48
(g64
g50
NtRp2404
(dp2405
g53
(dp2406
sg62
g2316
sg55
(lp2407
g48
(g69
g50
NtRp2408
(dp2409
g53
(dp2410
g73
g74
ssg62
g2404
sg55
(lp2411
S'HTTP_CONNECTION'
p2412
asbag48
(g69
g50
NtRp2413
(dp2414
g53
(dp2415
g80
g81
ssg62
g2404
sg55
(lp2416
S':'
asbag48
(g69
g50
NtRp2417
(dp2418
g53
(dp2419
sg62
g2404
sg55
(lp2420
g48
(g49
g50
NtRp2421
(dp2422
g53
(dp2423
g61
I3
ssg62
g2417
sg55
(lp2424
g1021
asbasbasbag48
(g64
g50
NtRp2425
(dp2426
g53
(dp2427
sg62
g2316
sg55
(lp2428
g48
(g69
g50
NtRp2429
(dp2430
g53
(dp2431
g73
g74
ssg62
g2425
sg55
(lp2432
S'HTTP_COOKIE'
p2433
asbag48
(g69
g50
NtRp2434
(dp2435
g53
(dp2436
g80
g81
ssg62
g2425
sg55
(lp2437
S':'
asbag48
(g69
g50
NtRp2438
(dp2439
g53
(dp2440
sg62
g2425
sg55
(lp2441
g48
(g49
g50
NtRp2442
(dp2443
g53
(dp2444
g61
I3
ssg62
g2438
sg55
(lp2445
g1043
asbasbasbag48
(g64
g50
NtRp2446
(dp2447
g53
(dp2448
sg62
g2316
sg55
(lp2449
g48
(g69
g50
NtRp2450
(dp2451
g53
(dp2452
g73
g74
ssg62
g2446
sg55
(lp2453
S'HTTP_HOST'
p2454
asbag48
(g69
g50
NtRp2455
(dp2456
g53
(dp2457
g80
g81
ssg62
g2446
sg55
(lp2458
S':'
asbag48
(g69
g50
NtRp2459
(dp2460
g53
(dp2461
sg62
g2446
sg55
(lp2462
g48
(g49
g50
NtRp2463
(dp2464
g53
(dp2465
g61
I3
ssg62
g2459
sg55
(lp2466
g1065
asbasbasbag48
(g64
g50
NtRp2467
(dp2468
g53
(dp2469
sg62
g2316
sg55
(lp2470
g48
(g69
g50
NtRp2471
(dp2472
g53
(dp2473
g73
g74
ssg62
g2467
sg55
(lp2474
S'HTTP_REFERER'
p2475
asbag48
(g69
g50
NtRp2476
(dp2477
g53
(dp2478
g80
g81
ssg62
g2467
sg55
(lp2479
S':'
asbag48
(g69
g50
NtRp2480
(dp2481
g53
(dp2482
sg62
g2467
sg55
(lp2483
g48
(g49
g50
NtRp2484
(dp2485
g53
(dp2486
g61
I3
ssg62
g2480
sg55
(lp2487
g1087
asbasbasbag48
(g64
g50
NtRp2488
(dp2489
g53
(dp2490
sg62
g2316
sg55
(lp2491
g48
(g69
g50
NtRp2492
(dp2493
g53
(dp2494
g73
g74
ssg62
g2488
sg55
(lp2495
S'HTTP_USER_AGENT'
p2496
asbag48
(g69
g50
NtRp2497
(dp2498
g53
(dp2499
g80
g81
ssg62
g2488
sg55
(lp2500
S':'
asbag48
(g69
g50
NtRp2501
(dp2502
g53
(dp2503
sg62
g2488
sg55
(lp2504
g48
(g49
g50
NtRp2505
(dp2506
g53
(dp2507
g61
I3
ssg62
g2501
sg55
(lp2508
g1109
asbasbasbag48
(g64
g50
NtRp2509
(dp2510
g53
(dp2511
sg62
g2316
sg55
(lp2512
g48
(g69
g50
NtRp2513
(dp2514
g53
(dp2515
g73
g74
ssg62
g2509
sg55
(lp2516
S'PATH_INFO'
p2517
asbag48
(g69
g50
NtRp2518
(dp2519
g53
(dp2520
g80
g81
ssg62
g2509
sg55
(lp2521
S':'
asbag48
(g69
g50
NtRp2522
(dp2523
g53
(dp2524
sg62
g2509
sg55
(lp2525
g48
(g49
g50
NtRp2526
(dp2527
g53
(dp2528
g61
I3
ssg62
g2522
sg55
(lp2529
g1152
asbasbasbag48
(g64
g50
NtRp2530
(dp2531
g53
(dp2532
sg62
g2316
sg55
(lp2533
g48
(g69
g50
NtRp2534
(dp2535
g53
(dp2536
g73
g74
ssg62
g2530
sg55
(lp2537
S'QUERY_STRING'
p2538
asbag48
(g69
g50
NtRp2539
(dp2540
g53
(dp2541
g80
g81
ssg62
g2530
sg55
(lp2542
S':'
asbag48
(g69
g50
NtRp2543
(dp2544
g53
(dp2545
sg62
g2530
sg55
(lp2546
g48
(g49
g50
NtRp2547
(dp2548
g53
(dp2549
g61
I3
ssg62
g2543
sg55
(lp2550
S''
asbasbasbag48
(g64
g50
NtRp2551
(dp2552
g53
(dp2553
sg62
g2316
sg55
(lp2554
g48
(g69
g50
NtRp2555
(dp2556
g53
(dp2557
g73
g74
ssg62
g2551
sg55
(lp2558
S'REMOTE_ADDR'
p2559
asbag48
(g69
g50
NtRp2560
(dp2561
g53
(dp2562
g80
g81
ssg62
g2551
sg55
(lp2563
S':'
asbag48
(g69
g50
NtRp2564
(dp2565
g53
(dp2566
sg62
g2551
sg55
(lp2567
g48
(g49
g50
NtRp2568
(dp2569
g53
(dp2570
g61
I3
ssg62
g2564
sg55
(lp2571
g181
asbasbasbag48
(g64
g50
NtRp2572
(dp2573
g53
(dp2574
sg62
g2316
sg55
(lp2575
g48
(g69
g50
NtRp2576
(dp2577
g53
(dp2578
g73
g74
ssg62
g2572
sg55
(lp2579
S'REMOTE_PORT'
p2580
asbag48
(g69
g50
NtRp2581
(dp2582
g53
(dp2583
g80
g81
ssg62
g2572
sg55
(lp2584
S':'
asbag48
(g69
g50
NtRp2585
(dp2586
g53
(dp2587
sg62
g2572
sg55
(lp2588
g48
(g49
g50
NtRp2589
(dp2590
g53
(dp2591
g61
I3
ssg62
g2585
sg55
(lp2592
g1216
asbasbasbag48
(g64
g50
NtRp2593
(dp2594
g53
(dp2595
sg62
g2316
sg55
(lp2596
g48
(g69
g50
NtRp2597
(dp2598
g53
(dp2599
g73
g74
ssg62
g2593
sg55
(lp2600
S'REQUEST_METHOD'
p2601
asbag48
(g69
g50
NtRp2602
(dp2603
g53
(dp2604
g80
g81
ssg62
g2593
sg55
(lp2605
S':'
asbag48
(g69
g50
NtRp2606
(dp2607
g53
(dp2608
sg62
g2593
sg55
(lp2609
g48
(g49
g50
NtRp2610
(dp2611
g53
(dp2612
g61
I3
ssg62
g2606
sg55
(lp2613
g1238
asbasbasbag48
(g64
g50
NtRp2614
(dp2615
g53
(dp2616
sg62
g2316
sg55
(lp2617
g48
(g69
g50
NtRp2618
(dp2619
g53
(dp2620
g73
g74
ssg62
g2614
sg55
(lp2621
S'SCRIPT_NAME'
p2622
asbag48
(g69
g50
NtRp2623
(dp2624
g53
(dp2625
g80
g81
ssg62
g2614
sg55
(lp2626
S':'
asbag48
(g69
g50
NtRp2627
(dp2628
g53
(dp2629
sg62
g2614
sg55
(lp2630
g48
(g49
g50
NtRp2631
(dp2632
g53
(dp2633
g61
I3
ssg62
g2627
sg55
(lp2634
S''
asbasbasbag48
(g64
g50
NtRp2635
(dp2636
g53
(dp2637
sg62
g2316
sg55
(lp2638
g48
(g69
g50
NtRp2639
(dp2640
g53
(dp2641
g73
g74
ssg62
g2635
sg55
(lp2642
S'SERVER_NAME'
p2643
asbag48
(g69
g50
NtRp2644
(dp2645
g53
(dp2646
g80
g81
ssg62
g2635
sg55
(lp2647
S':'
asbag48
(g69
g50
NtRp2648
(dp2649
g53
(dp2650
sg62
g2635
sg55
(lp2651
g48
(g49
g50
NtRp2652
(dp2653
g53
(dp2654
g61
I3
ssg62
g2648
sg55
(lp2655
g1281
asbasbasbag48
(g64
g50
NtRp2656
(dp2657
g53
(dp2658
sg62
g2316
sg55
(lp2659
g48
(g69
g50
NtRp2660
(dp2661
g53
(dp2662
g73
g74
ssg62
g2656
sg55
(lp2663
S'SERVER_PORT'
p2664
asbag48
(g69
g50
NtRp2665
(dp2666
g53
(dp2667
g80
g81
ssg62
g2656
sg55
(lp2668
S':'
asbag48
(g69
g50
NtRp2669
(dp2670
g53
(dp2671
sg62
g2656
sg55
(lp2672
g48
(g49
g50
NtRp2673
(dp2674
g53
(dp2675
g61
I3
ssg62
g2669
sg55
(lp2676
g1303
asbasbasbag48
(g64
g50
NtRp2677
(dp2678
g53
(dp2679
sg62
g2316
sg55
(lp2680
g48
(g69
g50
NtRp2681
(dp2682
g53
(dp2683
g73
g74
ssg62
g2677
sg55
(lp2684
S'SERVER_PROTOCOL'
p2685
asbag48
(g69
g50
NtRp2686
(dp2687
g53
(dp2688
g80
g81
ssg62
g2677
sg55
(lp2689
S':'
asbag48
(g69
g50
NtRp2690
(dp2691
g53
(dp2692
sg62
g2677
sg55
(lp2693
g48
(g49
g50
NtRp2694
(dp2695
g53
(dp2696
g61
I3
ssg62
g2690
sg55
(lp2697
g1325
asbasbasbag48
(g64
g50
NtRp2698
(dp2699
g53
(dp2700
sg62
g2316
sg55
(lp2701
g48
(g69
g50
NtRp2702
(dp2703
g53
(dp2704
g73
g74
ssg62
g2698
sg55
(lp2705
S'SERVER_SOFTWARE'
p2706
asbag48
(g69
g50
NtRp2707
(dp2708
g53
(dp2709
g80
g81
ssg62
g2698
sg55
(lp2710
S':'
asbag48
(g69
g50
NtRp2711
(dp2712
g53
(dp2713
sg62
g2698
sg55
(lp2714
g48
(g49
g50
NtRp2715
(dp2716
g53
(dp2717
g61
I3
ssg62
g2711
sg55
(lp2718
g1347
asbasbasbag48
(g64
g50
NtRp2719
(dp2720
g53
(dp2721
sg62
g2316
sg55
(lp2722
g48
(g69
g50
NtRp2723
(dp2724
g53
(dp2725
g73
g74
ssg62
g2719
sg55
(lp2726
S'wsgi.errors'
p2727
asbag48
(g69
g50
NtRp2728
(dp2729
g53
(dp2730
g80
g81
ssg62
g2719
sg55
(lp2731
S':'
asbag48
(g69
g50
NtRp2732
(dp2733
g53
(dp2734
sg62
g2719
sg55
(lp2735
g48
(g49
g50
NtRp2736
(dp2737
g53
(dp2738
g61
I3
ssg62
g2732
sg55
(lp2739
S"<open file '<stderr>', mode 'w' at 0x01FF00B0>"
p2740
asbasbasbag48
(g64
g50
NtRp2741
(dp2742
g53
(dp2743
sg62
g2316
sg55
(lp2744
g48
(g69
g50
NtRp2745
(dp2746
g53
(dp2747
g73
g74
ssg62
g2741
sg55
(lp2748
S'wsgi.file_wrapper'
p2749
asbag48
(g69
g50
NtRp2750
(dp2751
g53
(dp2752
g80
g81
ssg62
g2741
sg55
(lp2753
S':'
asbag48
(g69
g50
NtRp2754
(dp2755
g53
(dp2756
sg62
g2741
sg55
(lp2757
g48
(g49
g50
NtRp2758
(dp2759
g53
(dp2760
g61
I3
ssg62
g2754
sg55
(lp2761
S'<class wsgiref.util.FileWrapper at 0x02B00D80>'
p2762
asbasbasbag48
(g64
g50
NtRp2763
(dp2764
g53
(dp2765
sg62
g2316
sg55
(lp2766
g48
(g69
g50
NtRp2767
(dp2768
g53
(dp2769
g73
g74
ssg62
g2763
sg55
(lp2770
S'wsgi.input'
p2771
asbag48
(g69
g50
NtRp2772
(dp2773
g53
(dp2774
g80
g81
ssg62
g2763
sg55
(lp2775
S':'
asbag48
(g69
g50
NtRp2776
(dp2777
g53
(dp2778
sg62
g2763
sg55
(lp2779
g48
(g49
g50
NtRp2780
(dp2781
g53
(dp2782
g61
I3
ssg62
g2776
sg55
(lp2783
S'<cStringIO.StringO object at 0x065E48E0>'
p2784
asbasbasbag48
(g64
g50
NtRp2785
(dp2786
g53
(dp2787
sg62
g2316
sg55
(lp2788
g48
(g69
g50
NtRp2789
(dp2790
g53
(dp2791
g73
g74
ssg62
g2785
sg55
(lp2792
S'wsgi.multiprocess'
p2793
asbag48
(g69
g50
NtRp2794
(dp2795
g53
(dp2796
g80
g81
ssg62
g2785
sg55
(lp2797
S':'
asbag48
(g69
g50
NtRp2798
(dp2799
g53
(dp2800
sg62
g2785
sg55
(lp2801
g48
(g49
g50
NtRp2802
(dp2803
g53
(dp2804
g61
I3
ssg62
g2798
sg55
(lp2805
g91
asbasbasbag48
(g64
g50
NtRp2806
(dp2807
g53
(dp2808
sg62
g2316
sg55
(lp2809
g48
(g69
g50
NtRp2810
(dp2811
g53
(dp2812
g73
g74
ssg62
g2806
sg55
(lp2813
S'wsgi.multithread'
p2814
asbag48
(g69
g50
NtRp2815
(dp2816
g53
(dp2817
g80
g81
ssg62
g2806
sg55
(lp2818
S':'
asbag48
(g69
g50
NtRp2819
(dp2820
g53
(dp2821
sg62
g2806
sg55
(lp2822
g48
(g49
g50
NtRp2823
(dp2824
g53
(dp2825
g61
I3
ssg62
g2819
sg55
(lp2826
g1587
asbasbasbag48
(g64
g50
NtRp2827
(dp2828
g53
(dp2829
sg62
g2316
sg55
(lp2830
g48
(g69
g50
NtRp2831
(dp2832
g53
(dp2833
g73
g74
ssg62
g2827
sg55
(lp2834
S'wsgi.run_once'
p2835
asbag48
(g69
g50
NtRp2836
(dp2837
g53
(dp2838
g80
g81
ssg62
g2827
sg55
(lp2839
S':'
asbag48
(g69
g50
NtRp2840
(dp2841
g53
(dp2842
sg62
g2827
sg55
(lp2843
g48
(g49
g50
NtRp2844
(dp2845
g53
(dp2846
g61
I3
ssg62
g2840
sg55
(lp2847
g91
asbasbasbag48
(g64
g50
NtRp2848
(dp2849
g53
(dp2850
sg62
g2316
sg55
(lp2851
g48
(g69
g50
NtRp2852
(dp2853
g53
(dp2854
g73
g74
ssg62
g2848
sg55
(lp2855
S'wsgi.url_scheme'
p2856
asbag48
(g69
g50
NtRp2857
(dp2858
g53
(dp2859
g80
g81
ssg62
g2848
sg55
(lp2860
S':'
asbag48
(g69
g50
NtRp2861
(dp2862
g53
(dp2863
sg62
g2848
sg55
(lp2864
g48
(g49
g50
NtRp2865
(dp2866
g53
(dp2867
g61
I3
ssg62
g2861
sg55
(lp2868
g1630
asbasbasbag48
(g64
g50
NtRp2869
(dp2870
g53
(dp2871
sg62
g2316
sg55
(lp2872
g48
(g69
g50
NtRp2873
(dp2874
g53
(dp2875
g73
g74
ssg62
g2869
sg55
(lp2876
S'wsgi.version'
p2877
asbag48
(g69
g50
NtRp2878
(dp2879
g53
(dp2880
g80
g81
ssg62
g2869
sg55
(lp2881
S':'
asbag48
(g69
g50
NtRp2882
(dp2883
g53
(dp2884
sg62
g2869
sg55
(lp2885
g48
(g49
g50
NtRp2886
(dp2887
g53
(dp2888
g61
I3
ssg62
g2882
sg55
(lp2889
S'1'
asbasbasbasbasbasbasbasbasbasbasbasbasbsS'frames'
p2890
(lp2891
(dp2892
S'file'
p2893
S'C:\\Python32\\web2py\\gluon\\restricted.py'
p2894
sS'dump'
p2895
(dp2896
sS'lnum'
p2897
I194
sS'lines'
p2898
(dp2899
sS'call'
p2900
S"(code='# -*- coding: utf-8 -*-\\n### required - do no del... dict()\\n\\nresponse._vars=response._caller(prueba)\\n', environment={'A': <class 'gluon.html.A'>, 'Auth': <class 'gluon.tools.Auth'>, 'B': <class 'gluon.html.B'>, 'BEAUTIFY': <class 'gluon.html.BEAUTIFY'>, 'BODY': <class 'gluon.html.BODY'>, 'BR': <class 'gluon.html.BR'>, 'BUTTON': <class 'gluon.html.BUTTON'>, 'CAT': <class 'gluon.html.CAT'>, 'CENTER': <class 'gluon.html.CENTER'>, 'CLEANUP': <class 'gluon.validators.CLEANUP'>, ...}, layer=r'C:\\Python32\\web2py\\applications\\Casa_de_Apuestas\\controllers/default.py')"
p2901
sS'func'
p2902
S'restricted'
p2903
sa(dp2904
g2893
S'C:\\Python32\\web2py\\applications\\Casa_de_Apuestas\\controllers\\default.py'
p2905
sg2895
(dp2906
sg2897
I24
sg2898
(dp2907
I13
S''
sI14
S'def maquinas():'
p2908
sI15
S'    return dict()'
p2909
sI16
S''
sI17
S'def prueba():'
p2910
sI18
S'    #from Categoria import *'
p2911
sI19
S'    #a = Categoria("Hector", "Cara Rota")'
p2912
sI20
S'    #return a.getDescripcion()'
p2913
sI21
S'    a = get_databases(categorias)'
p2914
sI22
S'    return dict()'
p2915
ssg2900
S'()'
p2916
sg2902
S'<module>'
p2917
sa(dp2918
g2893
S'C:\\Python32\\web2py\\gluon\\globals.py'
p2919
sg2895
(dp2920
sg2897
I149
sg2898
(dp2921
sg2900
S'(f=<function prueba at 0x0672F5B0>)'
p2922
sg2902
S'<lambda>'
p2923
sa(dp2924
g2893
S'C:\\Python32\\web2py\\applications\\Casa_de_Apuestas\\controllers\\default.py'
p2925
sg2895
(dp2926
sg2897
I21
sg2898
(dp2927
I13
S''
sI14
S'def maquinas():'
p2928
sI15
S'    return dict()'
p2929
sI16
S''
sI17
S'def prueba():'
p2930
sI18
S'    #from Categoria import *'
p2931
sI19
S'    #a = Categoria("Hector", "Cara Rota")'
p2932
sI20
S'    #return a.getDescripcion()'
p2933
sI21
S'    a = get_databases(categorias)'
p2934
sI22
S'    return dict()'
p2935
ssg2900
S'()'
p2936
sg2902
S'prueba'
p2937
sasS'pyver'
p2938
S'Python 2.5.4: C:\\Python32\\web2py\\web2py.exe'
p2939
sS'session'
p2940
g48
(g49
g50
NtRp2941
(dp2942
g53
(dp2943
sg55
(lp2944
g48
(g57
g50
NtRp2945
(dp2946
g53
(dp2947
g61
I5
ssg62
Nsg55
(lp2948
g48
(g64
g50
NtRp2949
(dp2950
g53
(dp2951
sg62
g2945
sg55
(lp2952
g48
(g69
g50
NtRp2953
(dp2954
g53
(dp2955
g73
g74
ssg62
g2949
sg55
(lp2956
S'last_query'
p2957
asbag48
(g69
g50
NtRp2958
(dp2959
g53
(dp2960
g80
g81
ssg62
g2949
sg55
(lp2961
S':'
asbag48
(g69
g50
NtRp2962
(dp2963
g53
(dp2964
sg62
g2949
sg55
(lp2965
g48
(g49
g50
NtRp2966
(dp2967
g53
(dp2968
g61
I5
ssg62
g2962
sg55
(lp2969
S'db.categorias.id>0'
p2970
asbasbasbasbasbsS'etype'
p2971
S"<type 'exceptions.NameError'>"
p2972
sS'date'
p2973
S'Wed Nov 09 17:03:23 2011'
p2974
sS'response'
p2975
g48
(g49
g50
NtRp2976
(dp2977
g53
(dp2978
sg55
(lp2979
g48
(g57
g50
NtRp2980
(dp2981
g53
(dp2982
g61
I5
ssg62
Nsg55
(lp2983
g48
(g64
g50
NtRp2984
(dp2985
g53
(dp2986
sg62
g2980
sg55
(lp2987
g48
(g69
g50
NtRp2988
(dp2989
g53
(dp2990
g73
g74
ssg62
g2984
sg55
(lp2991
g146
asbag48
(g69
g50
NtRp2992
(dp2993
g53
(dp2994
g80
g81
ssg62
g2984
sg55
(lp2995
S':'
asbag48
(g69
g50
NtRp2996
(dp2997
g53
(dp2998
sg62
g2984
sg55
(lp2999
g48
(g49
g50
NtRp3000
(dp3001
g53
(dp3002
g61
I5
ssg62
g2996
sg55
(lp3003
S'<cStringIO.StringO object at 0x065B5DC0>'
p3004
asbasbasbag48
(g64
g50
NtRp3005
(dp3006
g53
(dp3007
sg62
g2980
sg55
(lp3008
g48
(g69
g50
NtRp3009
(dp3010
g53
(dp3011
g73
g74
ssg62
g3005
sg55
(lp3012
g212
asbag48
(g69
g50
NtRp3013
(dp3014
g53
(dp3015
g80
g81
ssg62
g3005
sg55
(lp3016
S':'
asbag48
(g69
g50
NtRp3017
(dp3018
g53
(dp3019
sg62
g3005
sg55
(lp3020
g48
(g49
g50
NtRp3021
(dp3022
g53
(dp3023
g61
I5
ssg62
g3017
sg55
(lp3024
g48
(g57
g50
NtRp3025
(dp3026
g53
(dp3027
g61
I4
ssg62
Nsg55
(lp3028
g48
(g64
g50
NtRp3029
(dp3030
g53
(dp3031
sg62
g3025
sg55
(lp3032
g48
(g69
g50
NtRp3033
(dp3034
g53
(dp3035
g73
g74
ssg62
g3029
sg55
(lp3036
S'session_id_casa_de_apuestas'
p3037
asbag48
(g69
g50
NtRp3038
(dp3039
g53
(dp3040
g80
g81
ssg62
g3029
sg55
(lp3041
S':'
asbag48
(g69
g50
NtRp3042
(dp3043
g53
(dp3044
sg62
g3029
sg55
(lp3045
g48
(g49
g50
NtRp3046
(dp3047
g53
(dp3048
g61
I4
ssg62
g3042
sg55
(lp3049
g48
(g57
g50
NtRp3050
(dp3051
g53
(dp3052
g61
I3
ssg62
Nsg55
(lp3053
g48
(g64
g50
NtRp3054
(dp3055
g53
(dp3056
sg62
g3050
sg55
(lp3057
g48
(g69
g50
NtRp3058
(dp3059
g53
(dp3060
g73
g74
ssg62
g3054
sg55
(lp3061
g262
asbag48
(g69
g50
NtRp3062
(dp3063
g53
(dp3064
g80
g81
ssg62
g3054
sg55
(lp3065
S':'
asbag48
(g69
g50
NtRp3066
(dp3067
g53
(dp3068
sg62
g3054
sg55
(lp3069
g48
(g49
g50
NtRp3070
(dp3071
g53
(dp3072
g61
I3
ssg62
g3066
sg55
(lp3073
S''
asbasbasbag48
(g64
g50
NtRp3074
(dp3075
g53
(dp3076
sg62
g3050
sg55
(lp3077
g48
(g69
g50
NtRp3078
(dp3079
g53
(dp3080
g73
g74
ssg62
g3074
sg55
(lp3081
g283
asbag48
(g69
g50
NtRp3082
(dp3083
g53
(dp3084
g80
g81
ssg62
g3074
sg55
(lp3085
S':'
asbag48
(g69
g50
NtRp3086
(dp3087
g53
(dp3088
sg62
g3074
sg55
(lp3089
g48
(g49
g50
NtRp3090
(dp3091
g53
(dp3092
g61
I3
ssg62
g3086
sg55
(lp3093
S''
asbasbasbag48
(g64
g50
NtRp3094
(dp3095
g53
(dp3096
sg62
g3050
sg55
(lp3097
g48
(g69
g50
NtRp3098
(dp3099
g53
(dp3100
g73
g74
ssg62
g3094
sg55
(lp3101
g304
asbag48
(g69
g50
NtRp3102
(dp3103
g53
(dp3104
g80
g81
ssg62
g3094
sg55
(lp3105
S':'
asbag48
(g69
g50
NtRp3106
(dp3107
g53
(dp3108
sg62
g3094
sg55
(lp3109
g48
(g49
g50
NtRp3110
(dp3111
g53
(dp3112
g61
I3
ssg62
g3106
sg55
(lp3113
S''
asbasbasbag48
(g64
g50
NtRp3114
(dp3115
g53
(dp3116
sg62
g3050
sg55
(lp3117
g48
(g69
g50
NtRp3118
(dp3119
g53
(dp3120
g73
g74
ssg62
g3114
sg55
(lp3121
g325
asbag48
(g69
g50
NtRp3122
(dp3123
g53
(dp3124
g80
g81
ssg62
g3114
sg55
(lp3125
S':'
asbag48
(g69
g50
NtRp3126
(dp3127
g53
(dp3128
sg62
g3114
sg55
(lp3129
g48
(g49
g50
NtRp3130
(dp3131
g53
(dp3132
g61
I3
ssg62
g3126
sg55
(lp3133
S''
asbasbasbag48
(g64
g50
NtRp3134
(dp3135
g53
(dp3136
sg62
g3050
sg55
(lp3137
g48
(g69
g50
NtRp3138
(dp3139
g53
(dp3140
g73
g74
ssg62
g3134
sg55
(lp3141
g346
asbag48
(g69
g50
NtRp3142
(dp3143
g53
(dp3144
g80
g81
ssg62
g3134
sg55
(lp3145
S':'
asbag48
(g69
g50
NtRp3146
(dp3147
g53
(dp3148
sg62
g3134
sg55
(lp3149
g48
(g49
g50
NtRp3150
(dp3151
g53
(dp3152
g61
I3
ssg62
g3146
sg55
(lp3153
S'/'
asbasbasbag48
(g64
g50
NtRp3154
(dp3155
g53
(dp3156
sg62
g3050
sg55
(lp3157
g48
(g69
g50
NtRp3158
(dp3159
g53
(dp3160
g73
g74
ssg62
g3154
sg55
(lp3161
g367
asbag48
(g69
g50
NtRp3162
(dp3163
g53
(dp3164
g80
g81
ssg62
g3154
sg55
(lp3165
S':'
asbag48
(g69
g50
NtRp3166
(dp3167
g53
(dp3168
sg62
g3154
sg55
(lp3169
g48
(g49
g50
NtRp3170
(dp3171
g53
(dp3172
g61
I3
ssg62
g3166
sg55
(lp3173
S''
asbasbasbag48
(g64
g50
NtRp3174
(dp3175
g53
(dp3176
sg62
g3050
sg55
(lp3177
g48
(g69
g50
NtRp3178
(dp3179
g53
(dp3180
g73
g74
ssg62
g3174
sg55
(lp3181
g388
asbag48
(g69
g50
NtRp3182
(dp3183
g53
(dp3184
g80
g81
ssg62
g3174
sg55
(lp3185
S':'
asbag48
(g69
g50
NtRp3186
(dp3187
g53
(dp3188
sg62
g3174
sg55
(lp3189
g48
(g49
g50
NtRp3190
(dp3191
g53
(dp3192
g61
I3
ssg62
g3186
sg55
(lp3193
S''
asbasbasbasbasbasbasbasbasbasbasbag48
(g64
g50
NtRp3194
(dp3195
g53
(dp3196
sg62
g2980
sg55
(lp3197
g48
(g69
g50
NtRp3198
(dp3199
g53
(dp3200
g73
g74
ssg62
g3194
sg55
(lp3201
S'files'
p3202
asbag48
(g69
g50
NtRp3203
(dp3204
g53
(dp3205
g80
g81
ssg62
g3194
sg55
(lp3206
S':'
asbag48
(g69
g50
NtRp3207
(dp3208
g53
(dp3209
sg62
g3194
sg55
(lp3210
g48
(g49
g50
NtRp3211
(dp3212
g53
(dp3213
g61
I5
ssg62
g3207
sg55
(lp3214
g48
(g57
g50
NtRp3215
(dp3216
g53
(dp3217
g61
I4
ssg62
Nsg55
(lp3218
sbasbasbasbag48
(g64
g50
NtRp3219
(dp3220
g53
(dp3221
sg62
g2980
sg55
(lp3222
g48
(g69
g50
NtRp3223
(dp3224
g53
(dp3225
g73
g74
ssg62
g3219
sg55
(lp3226
S'flash'
p3227
asbag48
(g69
g50
NtRp3228
(dp3229
g53
(dp3230
g80
g81
ssg62
g3219
sg55
(lp3231
S':'
asbag48
(g69
g50
NtRp3232
(dp3233
g53
(dp3234
sg62
g3219
sg55
(lp3235
g48
(g49
g50
NtRp3236
(dp3237
g53
(dp3238
g61
I5
ssg62
g3232
sg55
(lp3239
S''
asbasbasbag48
(g64
g50
NtRp3240
(dp3241
g53
(dp3242
sg62
g2980
sg55
(lp3243
g48
(g69
g50
NtRp3244
(dp3245
g53
(dp3246
g73
g74
ssg62
g3240
sg55
(lp3247
S'generic_patterns'
p3248
asbag48
(g69
g50
NtRp3249
(dp3250
g53
(dp3251
g80
g81
ssg62
g3240
sg55
(lp3252
S':'
asbag48
(g69
g50
NtRp3253
(dp3254
g53
(dp3255
sg62
g3240
sg55
(lp3256
g48
(g49
g50
NtRp3257
(dp3258
g53
(dp3259
g61
I5
ssg62
g3253
sg55
(lp3260
g48
(g57
g50
NtRp3261
(dp3262
g53
(dp3263
g61
I4
ssg62
Nsg55
(lp3264
g48
(g64
g50
NtRp3265
(dp3266
g53
(dp3267
sg62
g3261
sg55
(lp3268
g48
(g69
g50
NtRp3269
(dp3270
g53
(dp3271
sg62
g3265
sg55
(lp3272
g48
(g49
g50
NtRp3273
(dp3274
g53
(dp3275
g61
I4
ssg62
g3269
sg55
(lp3276
S'*'
asbasbasbasbasbasbasbag48
(g64
g50
NtRp3277
(dp3278
g53
(dp3279
sg62
g2980
sg55
(lp3280
g48
(g69
g50
NtRp3281
(dp3282
g53
(dp3283
g73
g74
ssg62
g3277
sg55
(lp3284
S'headers'
p3285
asbag48
(g69
g50
NtRp3286
(dp3287
g53
(dp3288
g80
g81
ssg62
g3277
sg55
(lp3289
S':'
asbag48
(g69
g50
NtRp3290
(dp3291
g53
(dp3292
sg62
g3277
sg55
(lp3293
g48
(g49
g50
NtRp3294
(dp3295
g53
(dp3296
g61
I5
ssg62
g3290
sg55
(lp3297
g48
(g57
g50
NtRp3298
(dp3299
g53
(dp3300
g61
I4
ssg62
Nsg55
(lp3301
g48
(g64
g50
NtRp3302
(dp3303
g53
(dp3304
sg62
g3298
sg55
(lp3305
g48
(g69
g50
NtRp3306
(dp3307
g53
(dp3308
g73
g74
ssg62
g3302
sg55
(lp3309
S'Cache-Control'
p3310
asbag48
(g69
g50
NtRp3311
(dp3312
g53
(dp3313
g80
g81
ssg62
g3302
sg55
(lp3314
S':'
asbag48
(g69
g50
NtRp3315
(dp3316
g53
(dp3317
sg62
g3302
sg55
(lp3318
g48
(g49
g50
NtRp3319
(dp3320
g53
(dp3321
g61
I4
ssg62
g3315
sg55
(lp3322
S'no-store, no-cache, must-revalidate, post-check=0, pre-check=0'
p3323
asbasbasbag48
(g64
g50
NtRp3324
(dp3325
g53
(dp3326
sg62
g3298
sg55
(lp3327
g48
(g69
g50
NtRp3328
(dp3329
g53
(dp3330
g73
g74
ssg62
g3324
sg55
(lp3331
S'Content-Type'
p3332
asbag48
(g69
g50
NtRp3333
(dp3334
g53
(dp3335
g80
g81
ssg62
g3324
sg55
(lp3336
S':'
asbag48
(g69
g50
NtRp3337
(dp3338
g53
(dp3339
sg62
g3324
sg55
(lp3340
g48
(g49
g50
NtRp3341
(dp3342
g53
(dp3343
g61
I4
ssg62
g3337
sg55
(lp3344
S'text/html; charset=utf-8'
p3345
asbasbasbag48
(g64
g50
NtRp3346
(dp3347
g53
(dp3348
sg62
g3298
sg55
(lp3349
g48
(g69
g50
NtRp3350
(dp3351
g53
(dp3352
g73
g74
ssg62
g3346
sg55
(lp3353
S'Expires'
p3354
asbag48
(g69
g50
NtRp3355
(dp3356
g53
(dp3357
g80
g81
ssg62
g3346
sg55
(lp3358
S':'
asbag48
(g69
g50
NtRp3359
(dp3360
g53
(dp3361
sg62
g3346
sg55
(lp3362
g48
(g49
g50
NtRp3363
(dp3364
g53
(dp3365
g61
I4
ssg62
g3359
sg55
(lp3366
S'Wed, 09 Nov 2011 21:33:23 GMT'
p3367
asbasbasbag48
(g64
g50
NtRp3368
(dp3369
g53
(dp3370
sg62
g3298
sg55
(lp3371
g48
(g69
g50
NtRp3372
(dp3373
g53
(dp3374
g73
g74
ssg62
g3368
sg55
(lp3375
S'Pragma'
p3376
asbag48
(g69
g50
NtRp3377
(dp3378
g53
(dp3379
g80
g81
ssg62
g3368
sg55
(lp3380
S':'
asbag48
(g69
g50
NtRp3381
(dp3382
g53
(dp3383
sg62
g3368
sg55
(lp3384
g48
(g49
g50
NtRp3385
(dp3386
g53
(dp3387
g61
I4
ssg62
g3381
sg55
(lp3388
S'no-cache'
p3389
asbasbasbag48
(g64
g50
NtRp3390
(dp3391
g53
(dp3392
sg62
g3298
sg55
(lp3393
g48
(g69
g50
NtRp3394
(dp3395
g53
(dp3396
g73
g74
ssg62
g3390
sg55
(lp3397
S'X-Powered-By'
p3398
asbag48
(g69
g50
NtRp3399
(dp3400
g53
(dp3401
g80
g81
ssg62
g3390
sg55
(lp3402
S':'
asbag48
(g69
g50
NtRp3403
(dp3404
g53
(dp3405
sg62
g3390
sg55
(lp3406
g48
(g49
g50
NtRp3407
(dp3408
g53
(dp3409
g61
I4
ssg62
g3403
sg55
(lp3410
S'web2py'
p3411
asbasbasbasbasbasbasbag48
(g64
g50
NtRp3412
(dp3413
g53
(dp3414
sg62
g2980
sg55
(lp3415
g48
(g69
g50
NtRp3416
(dp3417
g53
(dp3418
g73
g74
ssg62
g3412
sg55
(lp3419
S'menu'
p3420
asbag48
(g69
g50
NtRp3421
(dp3422
g53
(dp3423
g80
g81
ssg62
g3412
sg55
(lp3424
S':'
asbag48
(g69
g50
NtRp3425
(dp3426
g53
(dp3427
sg62
g3412
sg55
(lp3428
g48
(g49
g50
NtRp3429
(dp3430
g53
(dp3431
g61
I5
ssg62
g3425
sg55
(lp3432
g48
(g57
g50
NtRp3433
(dp3434
g53
(dp3435
g61
I4
ssg62
Nsg55
(lp3436
g48
(g64
g50
NtRp3437
(dp3438
g53
(dp3439
sg62
g3433
sg55
(lp3440
g48
(g69
g50
NtRp3441
(dp3442
g53
(dp3443
sg62
g3437
sg55
(lp3444
g48
(g49
g50
NtRp3445
(dp3446
g53
(dp3447
g61
I4
ssg62
g3441
sg55
(lp3448
g48
(g57
g50
NtRp3449
(dp3450
g53
(dp3451
g61
I3
ssg62
Nsg55
(lp3452
g48
(g64
g50
NtRp3453
(dp3454
g53
(dp3455
sg62
g3449
sg55
(lp3456
g48
(g69
g50
NtRp3457
(dp3458
g53
(dp3459
sg62
g3453
sg55
(lp3460
g48
(g49
g50
NtRp3461
(dp3462
g53
(dp3463
g61
I3
ssg62
g3457
sg55
(lp3464
cgluon.languages
lazyT_unpickle
p3465
(S's\x05\x00\x00\x00Index'
tRp3466
asbasbasbag48
(g64
g50
NtRp3467
(dp3468
g53
(dp3469
sg62
g3449
sg55
(lp3470
g48
(g69
g50
NtRp3471
(dp3472
g53
(dp3473
sg62
g3467
sg55
(lp3474
g48
(g49
g50
NtRp3475
(dp3476
g53
(dp3477
g61
I3
ssg62
g3471
sg55
(lp3478
g91
asbasbasbag48
(g64
g50
NtRp3479
(dp3480
g53
(dp3481
sg62
g3449
sg55
(lp3482
g48
(g69
g50
NtRp3483
(dp3484
g53
(dp3485
sg62
g3479
sg55
(lp3486
g48
(g49
g50
NtRp3487
(dp3488
g53
(dp3489
g61
I3
ssg62
g3483
sg55
(lp3490
S'/Casa_de_Apuestas/default/index'
p3491
asbasbasbag48
(g64
g50
NtRp3492
(dp3493
g53
(dp3494
sg62
g3449
sg55
(lp3495
g48
(g69
g50
NtRp3496
(dp3497
g53
(dp3498
sg62
g3492
sg55
(lp3499
g48
(g49
g50
NtRp3500
(dp3501
g53
(dp3502
g61
I3
ssg62
g3496
sg55
(lp3503
g48
(g57
g50
NtRp3504
(dp3505
g53
(dp3506
g61
I2
ssg62
Nsg55
(lp3507
sbasbasbasbasbasbasbasbasbasbasbasbag48
(g64
g50
NtRp3508
(dp3509
g53
(dp3510
sg62
g2980
sg55
(lp3511
g48
(g69
g50
NtRp3512
(dp3513
g53
(dp3514
g73
g74
ssg62
g3508
sg55
(lp3515
S'meta'
p3516
asbag48
(g69
g50
NtRp3517
(dp3518
g53
(dp3519
g80
g81
ssg62
g3508
sg55
(lp3520
S':'
asbag48
(g69
g50
NtRp3521
(dp3522
g53
(dp3523
sg62
g3508
sg55
(lp3524
g48
(g49
g50
NtRp3525
(dp3526
g53
(dp3527
g61
I5
ssg62
g3521
sg55
(lp3528
g48
(g57
g50
NtRp3529
(dp3530
g53
(dp3531
g61
I4
ssg62
Nsg55
(lp3532
g48
(g64
g50
NtRp3533
(dp3534
g53
(dp3535
sg62
g3529
sg55
(lp3536
g48
(g69
g50
NtRp3537
(dp3538
g53
(dp3539
g73
g74
ssg62
g3533
sg55
(lp3540
S'author'
p3541
asbag48
(g69
g50
NtRp3542
(dp3543
g53
(dp3544
g80
g81
ssg62
g3533
sg55
(lp3545
S':'
asbag48
(g69
g50
NtRp3546
(dp3547
g53
(dp3548
sg62
g3533
sg55
(lp3549
g48
(g49
g50
NtRp3550
(dp3551
g53
(dp3552
g61
I4
ssg62
g3546
sg55
(lp3553
S'JSG Systems <jsg@example.com>'
p3554
asbasbasbag48
(g64
g50
NtRp3555
(dp3556
g53
(dp3557
sg62
g3529
sg55
(lp3558
g48
(g69
g50
NtRp3559
(dp3560
g53
(dp3561
g73
g74
ssg62
g3555
sg55
(lp3562
S'description'
p3563
asbag48
(g69
g50
NtRp3564
(dp3565
g53
(dp3566
g80
g81
ssg62
g3555
sg55
(lp3567
S':'
asbag48
(g69
g50
NtRp3568
(dp3569
g53
(dp3570
sg62
g3555
sg55
(lp3571
g48
(g49
g50
NtRp3572
(dp3573
g53
(dp3574
g61
I4
ssg62
g3568
sg55
(lp3575
S''
asbasbasbag48
(g64
g50
NtRp3576
(dp3577
g53
(dp3578
sg62
g3529
sg55
(lp3579
g48
(g69
g50
NtRp3580
(dp3581
g53
(dp3582
g73
g74
ssg62
g3576
sg55
(lp3583
S'keywords'
p3584
asbag48
(g69
g50
NtRp3585
(dp3586
g53
(dp3587
g80
g81
ssg62
g3576
sg55
(lp3588
S':'
asbag48
(g69
g50
NtRp3589
(dp3590
g53
(dp3591
sg62
g3576
sg55
(lp3592
g48
(g49
g50
NtRp3593
(dp3594
g53
(dp3595
g61
I4
ssg62
g3589
sg55
(lp3596
S'casa, apuestas'
p3597
asbasbasbasbasbasbasbag48
(g64
g50
NtRp3598
(dp3599
g53
(dp3600
sg62
g2980
sg55
(lp3601
g48
(g69
g50
NtRp3602
(dp3603
g53
(dp3604
g73
g74
ssg62
g3598
sg55
(lp3605
S'postprocessing'
p3606
asbag48
(g69
g50
NtRp3607
(dp3608
g53
(dp3609
g80
g81
ssg62
g3598
sg55
(lp3610
S':'
asbag48
(g69
g50
NtRp3611
(dp3612
g53
(dp3613
sg62
g3598
sg55
(lp3614
g48
(g49
g50
NtRp3615
(dp3616
g53
(dp3617
g61
I5
ssg62
g3611
sg55
(lp3618
g48
(g57
g50
NtRp3619
(dp3620
g53
(dp3621
g61
I4
ssg62
Nsg55
(lp3622
sbasbasbasbag48
(g64
g50
NtRp3623
(dp3624
g53
(dp3625
sg62
g2980
sg55
(lp3626
g48
(g69
g50
NtRp3627
(dp3628
g53
(dp3629
g73
g74
ssg62
g3623
sg55
(lp3630
S'session_file'
p3631
asbag48
(g69
g50
NtRp3632
(dp3633
g53
(dp3634
g80
g81
ssg62
g3623
sg55
(lp3635
S':'
asbag48
(g69
g50
NtRp3636
(dp3637
g53
(dp3638
sg62
g3623
sg55
(lp3639
g48
(g49
g50
NtRp3640
(dp3641
g53
(dp3642
g61
I5
ssg62
g3636
sg55
(lp3643
S"<open file 'C:\\Python32\\web2py\\applications\\Casa_de_Apuestas\\sessions\\127.0.0.1-db15a7e0-d383-4281-870c-8916a64875df', mode 'rb+' at 0x06726EC0>"
p3644
asbasbasbag48
(g64
g50
NtRp3645
(dp3646
g53
(dp3647
sg62
g2980
sg55
(lp3648
g48
(g69
g50
NtRp3649
(dp3650
g53
(dp3651
g73
g74
ssg62
g3645
sg55
(lp3652
S'session_filename'
p3653
asbag48
(g69
g50
NtRp3654
(dp3655
g53
(dp3656
g80
g81
ssg62
g3645
sg55
(lp3657
S':'
asbag48
(g69
g50
NtRp3658
(dp3659
g53
(dp3660
sg62
g3645
sg55
(lp3661
g48
(g49
g50
NtRp3662
(dp3663
g53
(dp3664
g61
I5
ssg62
g3658
sg55
(lp3665
S'C:\\Python32\\web2py\\applications\\Casa_de_Apuestas\\sessions\\127.0.0.1-db15a7e0-d383-4281-870c-8916a64875df'
p3666
asbasbasbag48
(g64
g50
NtRp3667
(dp3668
g53
(dp3669
sg62
g2980
sg55
(lp3670
g48
(g69
g50
NtRp3671
(dp3672
g53
(dp3673
g73
g74
ssg62
g3667
sg55
(lp3674
S'session_id'
p3675
asbag48
(g69
g50
NtRp3676
(dp3677
g53
(dp3678
g80
g81
ssg62
g3667
sg55
(lp3679
S':'
asbag48
(g69
g50
NtRp3680
(dp3681
g53
(dp3682
sg62
g3667
sg55
(lp3683
g48
(g49
g50
NtRp3684
(dp3685
g53
(dp3686
g61
I5
ssg62
g3680
sg55
(lp3687
S'127.0.0.1-db15a7e0-d383-4281-870c-8916a64875df'
p3688
asbasbasbag48
(g64
g50
NtRp3689
(dp3690
g53
(dp3691
sg62
g2980
sg55
(lp3692
g48
(g69
g50
NtRp3693
(dp3694
g53
(dp3695
g73
g74
ssg62
g3689
sg55
(lp3696
S'session_id_name'
p3697
asbag48
(g69
g50
NtRp3698
(dp3699
g53
(dp3700
g80
g81
ssg62
g3689
sg55
(lp3701
S':'
asbag48
(g69
g50
NtRp3702
(dp3703
g53
(dp3704
sg62
g3689
sg55
(lp3705
g48
(g49
g50
NtRp3706
(dp3707
g53
(dp3708
g61
I5
ssg62
g3702
sg55
(lp3709
g3037
asbasbasbag48
(g64
g50
NtRp3710
(dp3711
g53
(dp3712
sg62
g2980
sg55
(lp3713
g48
(g69
g50
NtRp3714
(dp3715
g53
(dp3716
g73
g74
ssg62
g3710
sg55
(lp3717
S'session_locked'
p3718
asbag48
(g69
g50
NtRp3719
(dp3720
g53
(dp3721
g80
g81
ssg62
g3710
sg55
(lp3722
S':'
asbag48
(g69
g50
NtRp3723
(dp3724
g53
(dp3725
sg62
g3710
sg55
(lp3726
g48
(g49
g50
NtRp3727
(dp3728
g53
(dp3729
g61
I5
ssg62
g3723
sg55
(lp3730
g1587
asbasbasbag48
(g64
g50
NtRp3731
(dp3732
g53
(dp3733
sg62
g2980
sg55
(lp3734
g48
(g69
g50
NtRp3735
(dp3736
g53
(dp3737
g73
g74
ssg62
g3731
sg55
(lp3738
S'session_new'
p3739
asbag48
(g69
g50
NtRp3740
(dp3741
g53
(dp3742
g80
g81
ssg62
g3731
sg55
(lp3743
S':'
asbag48
(g69
g50
NtRp3744
(dp3745
g53
(dp3746
sg62
g3731
sg55
(lp3747
g48
(g49
g50
NtRp3748
(dp3749
g53
(dp3750
g61
I5
ssg62
g3744
sg55
(lp3751
g91
asbasbasbag48
(g64
g50
NtRp3752
(dp3753
g53
(dp3754
sg62
g2980
sg55
(lp3755
g48
(g69
g50
NtRp3756
(dp3757
g53
(dp3758
g73
g74
ssg62
g3752
sg55
(lp3759
S'status'
p3760
asbag48
(g69
g50
NtRp3761
(dp3762
g53
(dp3763
g80
g81
ssg62
g3752
sg55
(lp3764
S':'
asbag48
(g69
g50
NtRp3765
(dp3766
g53
(dp3767
sg62
g3752
sg55
(lp3768
g48
(g49
g50
NtRp3769
(dp3770
g53
(dp3771
g61
I5
ssg62
g3765
sg55
(lp3772
S'200'
p3773
asbasbasbag48
(g64
g50
NtRp3774
(dp3775
g53
(dp3776
sg62
g2980
sg55
(lp3777
g48
(g69
g50
NtRp3778
(dp3779
g53
(dp3780
g73
g74
ssg62
g3774
sg55
(lp3781
S'subtitle'
p3782
asbag48
(g69
g50
NtRp3783
(dp3784
g53
(dp3785
g80
g81
ssg62
g3774
sg55
(lp3786
S':'
asbag48
(g69
g50
NtRp3787
(dp3788
g53
(dp3789
sg62
g3774
sg55
(lp3790
g48
(g49
g50
NtRp3791
(dp3792
g53
(dp3793
g61
I5
ssg62
g3787
sg55
(lp3794
S''
asbasbasbag48
(g64
g50
NtRp3795
(dp3796
g53
(dp3797
sg62
g2980
sg55
(lp3798
g48
(g69
g50
NtRp3799
(dp3800
g53
(dp3801
g73
g74
ssg62
g3795
sg55
(lp3802
S'title'
p3803
asbag48
(g69
g50
NtRp3804
(dp3805
g53
(dp3806
g80
g81
ssg62
g3795
sg55
(lp3807
S':'
asbag48
(g69
g50
NtRp3808
(dp3809
g53
(dp3810
sg62
g3795
sg55
(lp3811
g48
(g49
g50
NtRp3812
(dp3813
g53
(dp3814
g61
I5
ssg62
g3808
sg55
(lp3815
S'Casa de Apuestas'
p3816
asbasbasbag48
(g64
g50
NtRp3817
(dp3818
g53
(dp3819
sg62
g2980
sg55
(lp3820
g48
(g69
g50
NtRp3821
(dp3822
g53
(dp3823
g73
g74
ssg62
g3817
sg55
(lp3824
g2231
asbag48
(g69
g50
NtRp3825
(dp3826
g53
(dp3827
g80
g81
ssg62
g3817
sg55
(lp3828
S':'
asbag48
(g69
g50
NtRp3829
(dp3830
g53
(dp3831
sg62
g3817
sg55
(lp3832
g48
(g49
g50
NtRp3833
(dp3834
g53
(dp3835
g61
I5
ssg62
g3829
sg55
(lp3836
g2244
asbasbasbag48
(g64
g50
NtRp3837
(dp3838
g53
(dp3839
sg62
g2980
sg55
(lp3840
g48
(g69
g50
NtRp3841
(dp3842
g53
(dp3843
g73
g74
ssg62
g3837
sg55
(lp3844
S'view'
p3845
asbag48
(g69
g50
NtRp3846
(dp3847
g53
(dp3848
g80
g81
ssg62
g3837
sg55
(lp3849
S':'
asbag48
(g69
g50
NtRp3850
(dp3851
g53
(dp3852
sg62
g3837
sg55
(lp3853
g48
(g49
g50
NtRp3854
(dp3855
g53
(dp3856
g61
I5
ssg62
g3850
sg55
(lp3857
S'default/prueba.html'
p3858
asbasbasbasbasbsS'locals'
p3859
(dp3860
ssS'traceback'
p3861
S'Traceback (most recent call last):\n  File "gluon/restricted.py", line 194, in restricted\n  File "C:\\Python32\\web2py\\applications\\Casa_de_Apuestas\\controllers/default.py", line 24, in <module>\n  File "gluon/globals.py", line 149, in <lambda>\n  File "C:\\Python32\\web2py\\applications\\Casa_de_Apuestas\\controllers/default.py", line 21, in prueba\nNameError: global name \'get_databases\' is not defined\n'
p3862
s.