(dp1
S'output'
p2
S''
sS'layer'
p3
S'C:\\Python32\\web2py_win\\web2py\\applications\\Casa_de_Apuestas\\models\\db.py'
p4
sS'code'
p5
S"# -*- coding: utf-8 -*-\n\n#########################################################################\n## This scaffolding model makes your app work on Google App Engine too\n## File is released under public domain and you can use without limitations\n#########################################################################\n\nif not request.env.web2py_runtime_gae:     \n    ## if NOT running on Google App Engine use SQLite or other DB\n    db = DAL('sqlite://storage.sqlite')\n   ## db = DAL('mysql://root:''@localhost/test')\n    db.define_table('categorias',\n        Field('nombre'),\n        Field('descripcion', 'text'))\n    db.define_table('eventos',    \n       Field('categoria_id', db.categorias),\n       Field('nombre'),\n       Field('fecha','date'),\n       Field('descripcion', 'text'),\n       Field('relacionpago'))\n  ##  db.image.title.requires = IS_NOT_IN_DB(db, db.image.title)\n  \n    db.define_table('participantes',\n        Field('nombre'),\n        Field('descripcion','text')\n    )\n    \n    db.define_table('eventosparticipantes',\n        Field('eventos_id',db.eventos),\n        Field('participantes_id',db.participantes),\n        Field('limite_apuesta','integer')\n      ##  primarykey=['eventos_id','participantes_id'],\n      ##  migrate=False\n##MALDITA PK !!!, HABRA QUE PONERLE ID PARA QUE FUNCIONE, MALA PRACTICA :(\n    )\n    \n      \n      \n  \n    db.eventos.categoria_id.requires = IS_IN_DB(db, db.categorias.id, '%(nombre)s')\n    db.eventos.nombre.requires = IS_NOT_EMPTY()\n    db.eventos.fecha.requires = IS_NOT_EMPTY()\n    db.eventos.descripcion.requires = IS_NOT_EMPTY()\n    db.eventos.relacionpago.requires = IS_IN_SET(['1 a 1', '2 a 1', ' 3 a 1'])\n    \n    \n    db.participantes.nombre.requires = IS_NOT_EMPTY()\n    db.participantes.descripcion.requires = IS_NOT_EMPTY()\n    \n    db.eventosparticipantes.eventos_id.requires = IS_IN_DB(db, db.eventos.id, '%(nombre)s')\n    db.eventosparticipantes.participantes_id.requires = IS_IN_DB(db, db.participantes.id, '%(nombre)s')\n\n    \nelse:\n    ## connect to Google BigTable (optional 'google:datastore://namespace')\n    db = DAL('google:datastore') \n    ## store sessions and tickets there\n    session.connect(request, response, db = db) \n    ## or store session in Memcache, Redis, etc.\n    ## from gluon.contrib.memdb import MEMDB\n    ## from google.appengine.api.memcache import Client\n    ## session.connect(request, response, db = MEMDB(Client()))\n\n## by default give a view/generic.extension to all actions from localhost\n## none otherwise. a pattern can be 'controller/function.extension'\nresponse.generic_patterns = ['*'] if request.is_local else []\n\n#########################################################################\n## Here is sample code if you need for\n## - email capabilities\n## - authentication (registration, login, logout, ... )\n## - authorization (role based authorization)\n## - services (xml, csv, json, xmlrpc, jsonrpc, amf, rss)\n## - old style crud actions\n## (more options discussed in gluon/tools.py)\n#########################################################################\n\nfrom gluon.tools import Auth, Crud, Service, PluginManager, prettydate\nauth = Auth(db, hmac_key=Auth.get_or_create_key()) \ncrud, service, plugins = Crud(db), Service(), PluginManager()\n\n## create all tables needed by auth if not custom tables\n\n########################################\ndb.define_table('auth_user',\n    Field('nick', type='string',\n          label=T('Nick')),\n    Field('nombre', type='string',\n          label=T('Nombre')),\n    Field('apellido', type='string',\n          label=T('Apellido')),\n    Field('email', type='string',\n          label=T('Email')),\n    Field('password', type='password',\n          readable=False,\n          label=T('Password')),\n    Field('created_on','datetime',default=request.now,\n          label=T('Created On'),writable=False,readable=False),\n    Field('modified_on','datetime',default=request.now,\n          label=T('Modified On'),writable=False,readable=False,\n          update=request.now),\n    Field('registration_key',default='',\n          writable=False,readable=False),\n    Field('reset_password_key',default='',\n          writable=False,readable=False),\n    Field('registration_id',default='',\n          writable=False,readable=False),\n    format='%(nick)s',\n    migrate=settings.migrate)\n\ndb.define_table('maquinas',\n        Field('usuario_id',db.auth_user),\n        Field('estado','boolean'),\n        Field('ubicacion','string'),\n        Field('anho','integer'),\n        Field('descripcion','text')\n    )\n    \ndb.maquinas.usuario_id.requires = IS_IN_DB(db, db.auth_user.id, '%(correo)s')\ndb.maquinas.estado.requires = IS_NOT_EMPTY()    \ndb.maquinas.ubicacion.requires = IS_NOT_EMPTY()\ndb.maquinas.anho.requires = IS_NOT_EMPTY()\ndb.maquinas.descripcion.requires = IS_NOT_EMPTY() \n\ndb.auth_user.nombre.requires = IS_NOT_EMPTY(error_message=auth.messages.is_empty)\ndb.auth_user.apellido.requires = IS_NOT_EMPTY(error_message=auth.messages.is_empty)\ndb.auth_user.password.requires = CRYPT(key=auth.settings.hmac_key)\ndb.auth_user.nick.requires = IS_NOT_IN_DB(db, db.auth_user.nick)\ndb.auth_user.registration_id.requires = IS_NOT_IN_DB(db, db.auth_user.registration_id)\ndb.auth_user.email.requires = (IS_EMAIL(error_message=auth.messages.invalid_email),\n                               IS_NOT_IN_DB(db, db.auth_user.email))\nauth.define_tables(migrate = settings.migrate) \n\n## configure email\nmail=auth.settings.mailer\nmail.settings.server = 'logging' or 'smtp.gmail.com:587'\nmail.settings.sender = 'you@gmail.com'\nmail.settings.login = 'username:password'\n\n## configure auth policy\nauth.settings.registration_requires_verification = False\nauth.settings.registration_requires_approval = False\nauth.settings.reset_password_requires_verification = True\n\n## if you need to use OpenID, Facebook, MySpace, Twitter, Linkedin, etc.\n## register with janrain.com, write your domain:api_key in private/janrain.key\nfrom gluon.contrib.login_methods.rpx_account import use_janrain\nuse_janrain(auth,filename='private/janrain.key')\n\n#########################################################################\n## Define your tables below (or better in another model file) for example\n##\n## >>> db.define_table('mytable',Field('myfield','string'))\n##\n## Fields can be 'string','text','password','integer','double','boolean'\n##       'date','time','datetime','blob','upload', 'reference TABLENAME'\n## There is an implicit 'id integer autoincrement' field\n## Consult manual for more options, validators, etc.\n##\n## More API examples for controllers:\n##\n## >>> db.mytable.insert(myfield='value')\n## >>> rows=db(db.mytable.myfield=='value').select(db.mytable.ALL)\n## >>> for row in rows: print row.id, row.myfield\n#########################################################################\n\nmail.settings.server = settings.email_server\nmail.settings.sender = settings.email_sender\nmail.settings.login = settings.email_login\n"
p6
sS'snapshot'
p7
(dp8
S'exception'
p9
(dp10
S'__hash__'
p11
S"<method-wrapper '__hash__' of OperationalError object at 0x063DA850>"
p12
sS'__module__'
p13
S"'sqlite3'"
p14
sS'__reduce_ex__'
p15
S'<built-in method __reduce_ex__ of OperationalError object at 0x063DA850>'
p16
sS'__getslice__'
p17
S"<method-wrapper '__getslice__' of OperationalError object at 0x063DA850>"
p18
sS'__getitem__'
p19
S"<method-wrapper '__getitem__' of OperationalError object at 0x063DA850>"
p20
sS'__setstate__'
p21
S'<built-in method __setstate__ of OperationalError object at 0x063DA850>'
p22
sS'__reduce__'
p23
S'<built-in method __reduce__ of OperationalError object at 0x063DA850>'
p24
sS'__str__'
p25
S"<method-wrapper '__str__' of OperationalError object at 0x063DA850>"
p26
sS'args'
p27
S"('table eventosparticipantes already exists',)"
p28
sS'__getattribute__'
p29
S"<method-wrapper '__getattribute__' of OperationalError object at 0x063DA850>"
p30
sS'__class__'
p31
S"<class 'sqlite3.OperationalError'>"
p32
sS'__delattr__'
p33
S"<method-wrapper '__delattr__' of OperationalError object at 0x063DA850>"
p34
sS'__repr__'
p35
S"<method-wrapper '__repr__' of OperationalError object at 0x063DA850>"
p36
sS'__setattr__'
p37
S"<method-wrapper '__setattr__' of OperationalError object at 0x063DA850>"
p38
sS'__dict__'
p39
S'{}'
p40
sS'__weakref__'
p41
S'None'
p42
sS'__doc__'
p43
S'None'
p44
sS'__init__'
p45
S"<method-wrapper '__init__' of OperationalError object at 0x063DA850>"
p46
sS'__new__'
p47
S'<built-in method __new__ of type object at 0x1E1CCCB0>'
p48
ssS'evalue'
p49
S'table eventosparticipantes already exists'
p50
sS'request'
p51
ccopy_reg
_reconstructor
p52
(cgluon.html
BEAUTIFY
p53
c__builtin__
object
p54
NtRp55
(dp56
S'attributes'
p57
(dp58
sS'components'
p59
(lp60
g52
(cgluon.html
TABLE
p61
g54
NtRp62
(dp63
g57
(dp64
S'level'
p65
I5
ssS'parent'
p66
Nsg59
(lp67
g52
(cgluon.html
TR
p68
g54
NtRp69
(dp70
g57
(dp71
sg66
g62
sg59
(lp72
g52
(cgluon.html
TD
p73
g54
NtRp74
(dp75
g57
(dp76
S'_style'
p77
S'font-weight:bold;'
p78
ssg66
g69
sg59
(lp79
S'ajax'
p80
asbag52
(g73
g54
NtRp81
(dp82
g57
(dp83
S'_valign'
p84
S'top'
p85
ssg66
g69
sg59
(lp86
S':'
asbag52
(g73
g54
NtRp87
(dp88
g57
(dp89
sg66
g69
sg59
(lp90
g52
(g53
g54
NtRp91
(dp92
g57
(dp93
g65
I5
ssg66
g87
sg59
(lp94
S'False'
p95
asbasbasbag52
(g68
g54
NtRp96
(dp97
g57
(dp98
sg66
g62
sg59
(lp99
g52
(g73
g54
NtRp100
(dp101
g57
(dp102
g77
g78
ssg66
g96
sg59
(lp103
S'application'
p104
asbag52
(g73
g54
NtRp105
(dp106
g57
(dp107
g84
g85
ssg66
g96
sg59
(lp108
S':'
asbag52
(g73
g54
NtRp109
(dp110
g57
(dp111
sg66
g96
sg59
(lp112
g52
(g53
g54
NtRp113
(dp114
g57
(dp115
g65
I5
ssg66
g109
sg59
(lp116
S'Casa_de_Apuestas'
p117
asbasbasbag52
(g68
g54
NtRp118
(dp119
g57
(dp120
sg66
g62
sg59
(lp121
g52
(g73
g54
NtRp122
(dp123
g57
(dp124
g77
g78
ssg66
g118
sg59
(lp125
g27
asbag52
(g73
g54
NtRp126
(dp127
g57
(dp128
g84
g85
ssg66
g118
sg59
(lp129
S':'
asbag52
(g73
g54
NtRp130
(dp131
g57
(dp132
sg66
g118
sg59
(lp133
g52
(g53
g54
NtRp134
(dp135
g57
(dp136
g65
I5
ssg66
g130
sg59
(lp137
g52
(g61
g54
NtRp138
(dp139
g57
(dp140
g65
I4
ssg66
Nsg59
(lp141
sbasbasbasbag52
(g68
g54
NtRp142
(dp143
g57
(dp144
sg66
g62
sg59
(lp145
g52
(g73
g54
NtRp146
(dp147
g57
(dp148
g77
g78
ssg66
g142
sg59
(lp149
S'body'
p150
asbag52
(g73
g54
NtRp151
(dp152
g57
(dp153
g84
g85
ssg66
g142
sg59
(lp154
S':'
asbag52
(g73
g54
NtRp155
(dp156
g57
(dp157
sg66
g142
sg59
(lp158
g52
(g53
g54
NtRp159
(dp160
g57
(dp161
g65
I5
ssg66
g155
sg59
(lp162
S'<cStringIO.StringO object at 0x02762080>'
p163
asbasbasbag52
(g68
g54
NtRp164
(dp165
g57
(dp166
sg66
g62
sg59
(lp167
g52
(g73
g54
NtRp168
(dp169
g57
(dp170
g77
g78
ssg66
g164
sg59
(lp171
S'client'
p172
asbag52
(g73
g54
NtRp173
(dp174
g57
(dp175
g84
g85
ssg66
g164
sg59
(lp176
S':'
asbag52
(g73
g54
NtRp177
(dp178
g57
(dp179
sg66
g164
sg59
(lp180
g52
(g53
g54
NtRp181
(dp182
g57
(dp183
g65
I5
ssg66
g177
sg59
(lp184
S'127.0.0.1'
p185
asbasbasbag52
(g68
g54
NtRp186
(dp187
g57
(dp188
sg66
g62
sg59
(lp189
g52
(g73
g54
NtRp190
(dp191
g57
(dp192
g77
g78
ssg66
g186
sg59
(lp193
S'controller'
p194
asbag52
(g73
g54
NtRp195
(dp196
g57
(dp197
g84
g85
ssg66
g186
sg59
(lp198
S':'
asbag52
(g73
g54
NtRp199
(dp200
g57
(dp201
sg66
g186
sg59
(lp202
g52
(g53
g54
NtRp203
(dp204
g57
(dp205
g65
I5
ssg66
g199
sg59
(lp206
S'appadmin'
p207
asbasbasbag52
(g68
g54
NtRp208
(dp209
g57
(dp210
sg66
g62
sg59
(lp211
g52
(g73
g54
NtRp212
(dp213
g57
(dp214
g77
g78
ssg66
g208
sg59
(lp215
S'cookies'
p216
asbag52
(g73
g54
NtRp217
(dp218
g57
(dp219
g84
g85
ssg66
g208
sg59
(lp220
S':'
asbag52
(g73
g54
NtRp221
(dp222
g57
(dp223
sg66
g208
sg59
(lp224
g52
(g53
g54
NtRp225
(dp226
g57
(dp227
g65
I5
ssg66
g221
sg59
(lp228
g52
(g61
g54
NtRp229
(dp230
g57
(dp231
g65
I4
ssg66
Nsg59
(lp232
g52
(g68
g54
NtRp233
(dp234
g57
(dp235
sg66
g229
sg59
(lp236
g52
(g73
g54
NtRp237
(dp238
g57
(dp239
g77
g78
ssg66
g233
sg59
(lp240
S'session_id_admin'
p241
asbag52
(g73
g54
NtRp242
(dp243
g57
(dp244
g84
g85
ssg66
g233
sg59
(lp245
S':'
asbag52
(g73
g54
NtRp246
(dp247
g57
(dp248
sg66
g233
sg59
(lp249
g52
(g53
g54
NtRp250
(dp251
g57
(dp252
g65
I4
ssg66
g246
sg59
(lp253
g52
(g61
g54
NtRp254
(dp255
g57
(dp256
g65
I3
ssg66
Nsg59
(lp257
g52
(g68
g54
NtRp258
(dp259
g57
(dp260
sg66
g254
sg59
(lp261
g52
(g73
g54
NtRp262
(dp263
g57
(dp264
g77
g78
ssg66
g258
sg59
(lp265
S'comment'
p266
asbag52
(g73
g54
NtRp267
(dp268
g57
(dp269
g84
g85
ssg66
g258
sg59
(lp270
S':'
asbag52
(g73
g54
NtRp271
(dp272
g57
(dp273
sg66
g258
sg59
(lp274
g52
(g53
g54
NtRp275
(dp276
g57
(dp277
g65
I3
ssg66
g271
sg59
(lp278
S''
asbasbasbag52
(g68
g54
NtRp279
(dp280
g57
(dp281
sg66
g254
sg59
(lp282
g52
(g73
g54
NtRp283
(dp284
g57
(dp285
g77
g78
ssg66
g279
sg59
(lp286
S'domain'
p287
asbag52
(g73
g54
NtRp288
(dp289
g57
(dp290
g84
g85
ssg66
g279
sg59
(lp291
S':'
asbag52
(g73
g54
NtRp292
(dp293
g57
(dp294
sg66
g279
sg59
(lp295
g52
(g53
g54
NtRp296
(dp297
g57
(dp298
g65
I3
ssg66
g292
sg59
(lp299
S''
asbasbasbag52
(g68
g54
NtRp300
(dp301
g57
(dp302
sg66
g254
sg59
(lp303
g52
(g73
g54
NtRp304
(dp305
g57
(dp306
g77
g78
ssg66
g300
sg59
(lp307
S'expires'
p308
asbag52
(g73
g54
NtRp309
(dp310
g57
(dp311
g84
g85
ssg66
g300
sg59
(lp312
S':'
asbag52
(g73
g54
NtRp313
(dp314
g57
(dp315
sg66
g300
sg59
(lp316
g52
(g53
g54
NtRp317
(dp318
g57
(dp319
g65
I3
ssg66
g313
sg59
(lp320
S''
asbasbasbag52
(g68
g54
NtRp321
(dp322
g57
(dp323
sg66
g254
sg59
(lp324
g52
(g73
g54
NtRp325
(dp326
g57
(dp327
g77
g78
ssg66
g321
sg59
(lp328
S'max-age'
p329
asbag52
(g73
g54
NtRp330
(dp331
g57
(dp332
g84
g85
ssg66
g321
sg59
(lp333
S':'
asbag52
(g73
g54
NtRp334
(dp335
g57
(dp336
sg66
g321
sg59
(lp337
g52
(g53
g54
NtRp338
(dp339
g57
(dp340
g65
I3
ssg66
g334
sg59
(lp341
S''
asbasbasbag52
(g68
g54
NtRp342
(dp343
g57
(dp344
sg66
g254
sg59
(lp345
g52
(g73
g54
NtRp346
(dp347
g57
(dp348
g77
g78
ssg66
g342
sg59
(lp349
S'path'
p350
asbag52
(g73
g54
NtRp351
(dp352
g57
(dp353
g84
g85
ssg66
g342
sg59
(lp354
S':'
asbag52
(g73
g54
NtRp355
(dp356
g57
(dp357
sg66
g342
sg59
(lp358
g52
(g53
g54
NtRp359
(dp360
g57
(dp361
g65
I3
ssg66
g355
sg59
(lp362
S''
asbasbasbag52
(g68
g54
NtRp363
(dp364
g57
(dp365
sg66
g254
sg59
(lp366
g52
(g73
g54
NtRp367
(dp368
g57
(dp369
g77
g78
ssg66
g363
sg59
(lp370
S'secure'
p371
asbag52
(g73
g54
NtRp372
(dp373
g57
(dp374
g84
g85
ssg66
g363
sg59
(lp375
S':'
asbag52
(g73
g54
NtRp376
(dp377
g57
(dp378
sg66
g363
sg59
(lp379
g52
(g53
g54
NtRp380
(dp381
g57
(dp382
g65
I3
ssg66
g376
sg59
(lp383
S''
asbasbasbag52
(g68
g54
NtRp384
(dp385
g57
(dp386
sg66
g254
sg59
(lp387
g52
(g73
g54
NtRp388
(dp389
g57
(dp390
g77
g78
ssg66
g384
sg59
(lp391
S'version'
p392
asbag52
(g73
g54
NtRp393
(dp394
g57
(dp395
g84
g85
ssg66
g384
sg59
(lp396
S':'
asbag52
(g73
g54
NtRp397
(dp398
g57
(dp399
sg66
g384
sg59
(lp400
g52
(g53
g54
NtRp401
(dp402
g57
(dp403
g65
I3
ssg66
g397
sg59
(lp404
S''
asbasbasbasbasbasbasbag52
(g68
g54
NtRp405
(dp406
g57
(dp407
sg66
g229
sg59
(lp408
g52
(g73
g54
NtRp409
(dp410
g57
(dp411
g77
g78
ssg66
g405
sg59
(lp412
S'session_id_welcome'
p413
asbag52
(g73
g54
NtRp414
(dp415
g57
(dp416
g84
g85
ssg66
g405
sg59
(lp417
S':'
asbag52
(g73
g54
NtRp418
(dp419
g57
(dp420
sg66
g405
sg59
(lp421
g52
(g53
g54
NtRp422
(dp423
g57
(dp424
g65
I4
ssg66
g418
sg59
(lp425
g52
(g61
g54
NtRp426
(dp427
g57
(dp428
g65
I3
ssg66
Nsg59
(lp429
g52
(g68
g54
NtRp430
(dp431
g57
(dp432
sg66
g426
sg59
(lp433
g52
(g73
g54
NtRp434
(dp435
g57
(dp436
g77
g78
ssg66
g430
sg59
(lp437
g266
asbag52
(g73
g54
NtRp438
(dp439
g57
(dp440
g84
g85
ssg66
g430
sg59
(lp441
S':'
asbag52
(g73
g54
NtRp442
(dp443
g57
(dp444
sg66
g430
sg59
(lp445
g52
(g53
g54
NtRp446
(dp447
g57
(dp448
g65
I3
ssg66
g442
sg59
(lp449
S''
asbasbasbag52
(g68
g54
NtRp450
(dp451
g57
(dp452
sg66
g426
sg59
(lp453
g52
(g73
g54
NtRp454
(dp455
g57
(dp456
g77
g78
ssg66
g450
sg59
(lp457
g287
asbag52
(g73
g54
NtRp458
(dp459
g57
(dp460
g84
g85
ssg66
g450
sg59
(lp461
S':'
asbag52
(g73
g54
NtRp462
(dp463
g57
(dp464
sg66
g450
sg59
(lp465
g52
(g53
g54
NtRp466
(dp467
g57
(dp468
g65
I3
ssg66
g462
sg59
(lp469
S''
asbasbasbag52
(g68
g54
NtRp470
(dp471
g57
(dp472
sg66
g426
sg59
(lp473
g52
(g73
g54
NtRp474
(dp475
g57
(dp476
g77
g78
ssg66
g470
sg59
(lp477
g308
asbag52
(g73
g54
NtRp478
(dp479
g57
(dp480
g84
g85
ssg66
g470
sg59
(lp481
S':'
asbag52
(g73
g54
NtRp482
(dp483
g57
(dp484
sg66
g470
sg59
(lp485
g52
(g53
g54
NtRp486
(dp487
g57
(dp488
g65
I3
ssg66
g482
sg59
(lp489
S''
asbasbasbag52
(g68
g54
NtRp490
(dp491
g57
(dp492
sg66
g426
sg59
(lp493
g52
(g73
g54
NtRp494
(dp495
g57
(dp496
g77
g78
ssg66
g490
sg59
(lp497
g329
asbag52
(g73
g54
NtRp498
(dp499
g57
(dp500
g84
g85
ssg66
g490
sg59
(lp501
S':'
asbag52
(g73
g54
NtRp502
(dp503
g57
(dp504
sg66
g490
sg59
(lp505
g52
(g53
g54
NtRp506
(dp507
g57
(dp508
g65
I3
ssg66
g502
sg59
(lp509
S''
asbasbasbag52
(g68
g54
NtRp510
(dp511
g57
(dp512
sg66
g426
sg59
(lp513
g52
(g73
g54
NtRp514
(dp515
g57
(dp516
g77
g78
ssg66
g510
sg59
(lp517
g350
asbag52
(g73
g54
NtRp518
(dp519
g57
(dp520
g84
g85
ssg66
g510
sg59
(lp521
S':'
asbag52
(g73
g54
NtRp522
(dp523
g57
(dp524
sg66
g510
sg59
(lp525
g52
(g53
g54
NtRp526
(dp527
g57
(dp528
g65
I3
ssg66
g522
sg59
(lp529
S''
asbasbasbag52
(g68
g54
NtRp530
(dp531
g57
(dp532
sg66
g426
sg59
(lp533
g52
(g73
g54
NtRp534
(dp535
g57
(dp536
g77
g78
ssg66
g530
sg59
(lp537
g371
asbag52
(g73
g54
NtRp538
(dp539
g57
(dp540
g84
g85
ssg66
g530
sg59
(lp541
S':'
asbag52
(g73
g54
NtRp542
(dp543
g57
(dp544
sg66
g530
sg59
(lp545
g52
(g53
g54
NtRp546
(dp547
g57
(dp548
g65
I3
ssg66
g542
sg59
(lp549
S''
asbasbasbag52
(g68
g54
NtRp550
(dp551
g57
(dp552
sg66
g426
sg59
(lp553
g52
(g73
g54
NtRp554
(dp555
g57
(dp556
g77
g78
ssg66
g550
sg59
(lp557
g392
asbag52
(g73
g54
NtRp558
(dp559
g57
(dp560
g84
g85
ssg66
g550
sg59
(lp561
S':'
asbag52
(g73
g54
NtRp562
(dp563
g57
(dp564
sg66
g550
sg59
(lp565
g52
(g53
g54
NtRp566
(dp567
g57
(dp568
g65
I3
ssg66
g562
sg59
(lp569
S''
asbasbasbasbasbasbasbasbasbasbasbag52
(g68
g54
NtRp570
(dp571
g57
(dp572
sg66
g62
sg59
(lp573
g52
(g73
g54
NtRp574
(dp575
g57
(dp576
g77
g78
ssg66
g570
sg59
(lp577
S'env'
p578
asbag52
(g73
g54
NtRp579
(dp580
g57
(dp581
g84
g85
ssg66
g570
sg59
(lp582
S':'
asbag52
(g73
g54
NtRp583
(dp584
g57
(dp585
sg66
g570
sg59
(lp586
g52
(g53
g54
NtRp587
(dp588
g57
(dp589
g65
I5
ssg66
g583
sg59
(lp590
g52
(g61
g54
NtRp591
(dp592
g57
(dp593
g65
I4
ssg66
Nsg59
(lp594
g52
(g68
g54
NtRp595
(dp596
g57
(dp597
sg66
g591
sg59
(lp598
g52
(g73
g54
NtRp599
(dp600
g57
(dp601
g77
g78
ssg66
g595
sg59
(lp602
S'app_folders'
p603
asbag52
(g73
g54
NtRp604
(dp605
g57
(dp606
g84
g85
ssg66
g595
sg59
(lp607
S':'
asbag52
(g73
g54
NtRp608
(dp609
g57
(dp610
sg66
g595
sg59
(lp611
g52
(g53
g54
NtRp612
(dp613
g57
(dp614
g65
I4
ssg66
g608
sg59
(lp615
S"set(['C:\\\\Python32\\\\web2py_win\\\\web2py\\\\applications\\\\admin\\\\', 'C:\\\\Python32\\\\web2py_win\\\\web2py\\\\applications\\\\welcome\\\\', 'C:\\\\Python32\\\\web2py_win\\\\web2py\\\\applications\\\\Casa_de_Apuestas\\\\'])"
p616
asbasbasbag52
(g68
g54
NtRp617
(dp618
g57
(dp619
sg66
g591
sg59
(lp620
g52
(g73
g54
NtRp621
(dp622
g57
(dp623
g77
g78
ssg66
g617
sg59
(lp624
S'applications_parent'
p625
asbag52
(g73
g54
NtRp626
(dp627
g57
(dp628
g84
g85
ssg66
g617
sg59
(lp629
S':'
asbag52
(g73
g54
NtRp630
(dp631
g57
(dp632
sg66
g617
sg59
(lp633
g52
(g53
g54
NtRp634
(dp635
g57
(dp636
g65
I4
ssg66
g630
sg59
(lp637
S'C:\\Python32\\web2py_win\\web2py'
p638
asbasbasbag52
(g68
g54
NtRp639
(dp640
g57
(dp641
sg66
g591
sg59
(lp642
g52
(g73
g54
NtRp643
(dp644
g57
(dp645
g77
g78
ssg66
g639
sg59
(lp646
S'cmd_args'
p647
asbag52
(g73
g54
NtRp648
(dp649
g57
(dp650
g84
g85
ssg66
g639
sg59
(lp651
S':'
asbag52
(g73
g54
NtRp652
(dp653
g57
(dp654
sg66
g639
sg59
(lp655
g52
(g53
g54
NtRp656
(dp657
g57
(dp658
g65
I4
ssg66
g652
sg59
(lp659
g52
(g61
g54
NtRp660
(dp661
g57
(dp662
g65
I3
ssg66
Nsg59
(lp663
sbasbasbasbag52
(g68
g54
NtRp664
(dp665
g57
(dp666
sg66
g591
sg59
(lp667
g52
(g73
g54
NtRp668
(dp669
g57
(dp670
g77
g78
ssg66
g664
sg59
(lp671
S'cmd_options'
p672
asbag52
(g73
g54
NtRp673
(dp674
g57
(dp675
g84
g85
ssg66
g664
sg59
(lp676
S':'
asbag52
(g73
g54
NtRp677
(dp678
g57
(dp679
sg66
g664
sg59
(lp680
g52
(g53
g54
NtRp681
(dp682
g57
(dp683
g65
I4
ssg66
g677
sg59
(lp684
S"<Values at 0x25f5fa8: {'verbose': False, 'ip': '127.0.0.1', 'shutdown_timeout': 5, 'taskbar': False, 'nocron': False, 'pid_filename': 'httpserver.pid', 'maxthreads': None, 'softcron': False, 'server_name': 'hector-vaio', 'bpython': False, 'nogui': False, 'port': 8000, 'extcron': False, 'debuglevel': 30, 'test': None, 'folder': 'C:\\\\Python32\\\\web2py_win\\\\web2py', 'config': '', 'import_models': False, 'winservice': '', 'shell': None, 'run': '', 'log_filename': 'httpserver.log', 'args': [''], 'ssl_ca_certificate': None, 'scheduler': None, 'profiler_filename': None, 'ssl_private_key': '', 'password': '<ask>', 'request_queue_size': 5, 'ssl_certificate': '', 'cronjob': False, 'plain': False, 'quiet': False, 'interfaces': None, 'minthreads': None, 'timeout': 10, 'numthreads': None, 'nobanner': False}>"
p685
asbasbasbag52
(g68
g54
NtRp686
(dp687
g57
(dp688
sg66
g591
sg59
(lp689
g52
(g73
g54
NtRp690
(dp691
g57
(dp692
g77
g78
ssg66
g686
sg59
(lp693
S'db_sessions'
p694
asbag52
(g73
g54
NtRp695
(dp696
g57
(dp697
g84
g85
ssg66
g686
sg59
(lp698
S':'
asbag52
(g73
g54
NtRp699
(dp700
g57
(dp701
sg66
g686
sg59
(lp702
g52
(g53
g54
NtRp703
(dp704
g57
(dp705
g65
I4
ssg66
g699
sg59
(lp706
S'set([])'
p707
asbasbasbag52
(g68
g54
NtRp708
(dp709
g57
(dp710
sg66
g591
sg59
(lp711
g52
(g73
g54
NtRp712
(dp713
g57
(dp714
g77
g78
ssg66
g708
sg59
(lp715
S'debugging'
p716
asbag52
(g73
g54
NtRp717
(dp718
g57
(dp719
g84
g85
ssg66
g708
sg59
(lp720
S':'
asbag52
(g73
g54
NtRp721
(dp722
g57
(dp723
sg66
g708
sg59
(lp724
g52
(g53
g54
NtRp725
(dp726
g57
(dp727
g65
I4
ssg66
g721
sg59
(lp728
g95
asbasbasbag52
(g68
g54
NtRp729
(dp730
g57
(dp731
sg66
g591
sg59
(lp732
g52
(g73
g54
NtRp733
(dp734
g57
(dp735
g77
g78
ssg66
g729
sg59
(lp736
S'gluon_parent'
p737
asbag52
(g73
g54
NtRp738
(dp739
g57
(dp740
g84
g85
ssg66
g729
sg59
(lp741
S':'
asbag52
(g73
g54
NtRp742
(dp743
g57
(dp744
sg66
g729
sg59
(lp745
g52
(g53
g54
NtRp746
(dp747
g57
(dp748
g65
I4
ssg66
g742
sg59
(lp749
S'C:\\Python32\\web2py_win\\web2py'
p750
asbasbasbag52
(g68
g54
NtRp751
(dp752
g57
(dp753
sg66
g591
sg59
(lp754
g52
(g73
g54
NtRp755
(dp756
g57
(dp757
g77
g78
ssg66
g751
sg59
(lp758
S'http_accept'
p759
asbag52
(g73
g54
NtRp760
(dp761
g57
(dp762
g84
g85
ssg66
g751
sg59
(lp763
S':'
asbag52
(g73
g54
NtRp764
(dp765
g57
(dp766
sg66
g751
sg59
(lp767
g52
(g53
g54
NtRp768
(dp769
g57
(dp770
g65
I4
ssg66
g764
sg59
(lp771
S'text/html,application/xhtml+xml,application/xml;q=0.9,*/*;q=0.8'
p772
asbasbasbag52
(g68
g54
NtRp773
(dp774
g57
(dp775
sg66
g591
sg59
(lp776
g52
(g73
g54
NtRp777
(dp778
g57
(dp779
g77
g78
ssg66
g773
sg59
(lp780
S'http_accept_charset'
p781
asbag52
(g73
g54
NtRp782
(dp783
g57
(dp784
g84
g85
ssg66
g773
sg59
(lp785
S':'
asbag52
(g73
g54
NtRp786
(dp787
g57
(dp788
sg66
g773
sg59
(lp789
g52
(g53
g54
NtRp790
(dp791
g57
(dp792
g65
I4
ssg66
g786
sg59
(lp793
S'ISO-8859-1,utf-8;q=0.7,*;q=0.3'
p794
asbasbasbag52
(g68
g54
NtRp795
(dp796
g57
(dp797
sg66
g591
sg59
(lp798
g52
(g73
g54
NtRp799
(dp800
g57
(dp801
g77
g78
ssg66
g795
sg59
(lp802
S'http_accept_encoding'
p803
asbag52
(g73
g54
NtRp804
(dp805
g57
(dp806
g84
g85
ssg66
g795
sg59
(lp807
S':'
asbag52
(g73
g54
NtRp808
(dp809
g57
(dp810
sg66
g795
sg59
(lp811
g52
(g53
g54
NtRp812
(dp813
g57
(dp814
g65
I4
ssg66
g808
sg59
(lp815
S'gzip,deflate,sdch'
p816
asbasbasbag52
(g68
g54
NtRp817
(dp818
g57
(dp819
sg66
g591
sg59
(lp820
g52
(g73
g54
NtRp821
(dp822
g57
(dp823
g77
g78
ssg66
g817
sg59
(lp824
S'http_accept_language'
p825
asbag52
(g73
g54
NtRp826
(dp827
g57
(dp828
g84
g85
ssg66
g817
sg59
(lp829
S':'
asbag52
(g73
g54
NtRp830
(dp831
g57
(dp832
sg66
g817
sg59
(lp833
g52
(g53
g54
NtRp834
(dp835
g57
(dp836
g65
I4
ssg66
g830
sg59
(lp837
S'en-US,en;q=0.8'
p838
asbasbasbag52
(g68
g54
NtRp839
(dp840
g57
(dp841
sg66
g591
sg59
(lp842
g52
(g73
g54
NtRp843
(dp844
g57
(dp845
g77
g78
ssg66
g839
sg59
(lp846
S'http_connection'
p847
asbag52
(g73
g54
NtRp848
(dp849
g57
(dp850
g84
g85
ssg66
g839
sg59
(lp851
S':'
asbag52
(g73
g54
NtRp852
(dp853
g57
(dp854
sg66
g839
sg59
(lp855
g52
(g53
g54
NtRp856
(dp857
g57
(dp858
g65
I4
ssg66
g852
sg59
(lp859
S'keep-alive'
p860
asbasbasbag52
(g68
g54
NtRp861
(dp862
g57
(dp863
sg66
g591
sg59
(lp864
g52
(g73
g54
NtRp865
(dp866
g57
(dp867
g77
g78
ssg66
g861
sg59
(lp868
S'http_cookie'
p869
asbag52
(g73
g54
NtRp870
(dp871
g57
(dp872
g84
g85
ssg66
g861
sg59
(lp873
S':'
asbag52
(g73
g54
NtRp874
(dp875
g57
(dp876
sg66
g861
sg59
(lp877
g52
(g53
g54
NtRp878
(dp879
g57
(dp880
g65
I4
ssg66
g874
sg59
(lp881
S'session_id_welcome=127.0.0.1-273caa7b-4100-480a-ab18-391b71e3636e; session_id_admin=127.0.0.1-c6cfaf40-10f6-4cbb-a635-bdb76f4afd95'
p882
asbasbasbag52
(g68
g54
NtRp883
(dp884
g57
(dp885
sg66
g591
sg59
(lp886
g52
(g73
g54
NtRp887
(dp888
g57
(dp889
g77
g78
ssg66
g883
sg59
(lp890
S'http_host'
p891
asbag52
(g73
g54
NtRp892
(dp893
g57
(dp894
g84
g85
ssg66
g883
sg59
(lp895
S':'
asbag52
(g73
g54
NtRp896
(dp897
g57
(dp898
sg66
g883
sg59
(lp899
g52
(g53
g54
NtRp900
(dp901
g57
(dp902
g65
I4
ssg66
g896
sg59
(lp903
S'127.0.0.1:8000'
p904
asbasbasbag52
(g68
g54
NtRp905
(dp906
g57
(dp907
sg66
g591
sg59
(lp908
g52
(g73
g54
NtRp909
(dp910
g57
(dp911
g77
g78
ssg66
g905
sg59
(lp912
S'http_referer'
p913
asbag52
(g73
g54
NtRp914
(dp915
g57
(dp916
g84
g85
ssg66
g905
sg59
(lp917
S':'
asbag52
(g73
g54
NtRp918
(dp919
g57
(dp920
sg66
g905
sg59
(lp921
g52
(g53
g54
NtRp922
(dp923
g57
(dp924
g65
I4
ssg66
g918
sg59
(lp925
S'http://127.0.0.1:8000/admin/default/design/Casa_de_Apuestas'
p926
asbasbasbag52
(g68
g54
NtRp927
(dp928
g57
(dp929
sg66
g591
sg59
(lp930
g52
(g73
g54
NtRp931
(dp932
g57
(dp933
g77
g78
ssg66
g927
sg59
(lp934
S'http_user_agent'
p935
asbag52
(g73
g54
NtRp936
(dp937
g57
(dp938
g84
g85
ssg66
g927
sg59
(lp939
S':'
asbag52
(g73
g54
NtRp940
(dp941
g57
(dp942
sg66
g927
sg59
(lp943
g52
(g53
g54
NtRp944
(dp945
g57
(dp946
g65
I4
ssg66
g940
sg59
(lp947
S'Mozilla/5.0 (Windows NT 6.1) AppleWebKit/535.2 (KHTML, like Gecko) Chrome/15.0.874.120 Safari/535.2'
p948
asbasbasbag52
(g68
g54
NtRp949
(dp950
g57
(dp951
sg66
g591
sg59
(lp952
g52
(g73
g54
NtRp953
(dp954
g57
(dp955
g77
g78
ssg66
g949
sg59
(lp956
S'is_jython'
p957
asbag52
(g73
g54
NtRp958
(dp959
g57
(dp960
g84
g85
ssg66
g949
sg59
(lp961
S':'
asbag52
(g73
g54
NtRp962
(dp963
g57
(dp964
sg66
g949
sg59
(lp965
g52
(g53
g54
NtRp966
(dp967
g57
(dp968
g65
I4
ssg66
g962
sg59
(lp969
g95
asbasbasbag52
(g68
g54
NtRp970
(dp971
g57
(dp972
sg66
g591
sg59
(lp973
g52
(g73
g54
NtRp974
(dp975
g57
(dp976
g77
g78
ssg66
g970
sg59
(lp977
S'path_info'
p978
asbag52
(g73
g54
NtRp979
(dp980
g57
(dp981
g84
g85
ssg66
g970
sg59
(lp982
S':'
asbag52
(g73
g54
NtRp983
(dp984
g57
(dp985
sg66
g970
sg59
(lp986
g52
(g53
g54
NtRp987
(dp988
g57
(dp989
g65
I4
ssg66
g983
sg59
(lp990
S'/Casa_de_Apuestas/appadmin/index'
p991
asbasbasbag52
(g68
g54
NtRp992
(dp993
g57
(dp994
sg66
g591
sg59
(lp995
g52
(g73
g54
NtRp996
(dp997
g57
(dp998
g77
g78
ssg66
g992
sg59
(lp999
S'query_string'
p1000
asbag52
(g73
g54
NtRp1001
(dp1002
g57
(dp1003
g84
g85
ssg66
g992
sg59
(lp1004
S':'
asbag52
(g73
g54
NtRp1005
(dp1006
g57
(dp1007
sg66
g992
sg59
(lp1008
g52
(g53
g54
NtRp1009
(dp1010
g57
(dp1011
g65
I4
ssg66
g1005
sg59
(lp1012
S''
asbasbasbag52
(g68
g54
NtRp1013
(dp1014
g57
(dp1015
sg66
g591
sg59
(lp1016
g52
(g73
g54
NtRp1017
(dp1018
g57
(dp1019
g77
g78
ssg66
g1013
sg59
(lp1020
S'remote_addr'
p1021
asbag52
(g73
g54
NtRp1022
(dp1023
g57
(dp1024
g84
g85
ssg66
g1013
sg59
(lp1025
S':'
asbag52
(g73
g54
NtRp1026
(dp1027
g57
(dp1028
sg66
g1013
sg59
(lp1029
g52
(g53
g54
NtRp1030
(dp1031
g57
(dp1032
g65
I4
ssg66
g1026
sg59
(lp1033
g185
asbasbasbag52
(g68
g54
NtRp1034
(dp1035
g57
(dp1036
sg66
g591
sg59
(lp1037
g52
(g73
g54
NtRp1038
(dp1039
g57
(dp1040
g77
g78
ssg66
g1034
sg59
(lp1041
S'remote_port'
p1042
asbag52
(g73
g54
NtRp1043
(dp1044
g57
(dp1045
g84
g85
ssg66
g1034
sg59
(lp1046
S':'
asbag52
(g73
g54
NtRp1047
(dp1048
g57
(dp1049
sg66
g1034
sg59
(lp1050
g52
(g53
g54
NtRp1051
(dp1052
g57
(dp1053
g65
I4
ssg66
g1047
sg59
(lp1054
S'50801'
p1055
asbasbasbag52
(g68
g54
NtRp1056
(dp1057
g57
(dp1058
sg66
g591
sg59
(lp1059
g52
(g73
g54
NtRp1060
(dp1061
g57
(dp1062
g77
g78
ssg66
g1056
sg59
(lp1063
S'request_method'
p1064
asbag52
(g73
g54
NtRp1065
(dp1066
g57
(dp1067
g84
g85
ssg66
g1056
sg59
(lp1068
S':'
asbag52
(g73
g54
NtRp1069
(dp1070
g57
(dp1071
sg66
g1056
sg59
(lp1072
g52
(g53
g54
NtRp1073
(dp1074
g57
(dp1075
g65
I4
ssg66
g1069
sg59
(lp1076
S'GET'
p1077
asbasbasbag52
(g68
g54
NtRp1078
(dp1079
g57
(dp1080
sg66
g591
sg59
(lp1081
g52
(g73
g54
NtRp1082
(dp1083
g57
(dp1084
g77
g78
ssg66
g1078
sg59
(lp1085
S'script_name'
p1086
asbag52
(g73
g54
NtRp1087
(dp1088
g57
(dp1089
g84
g85
ssg66
g1078
sg59
(lp1090
S':'
asbag52
(g73
g54
NtRp1091
(dp1092
g57
(dp1093
sg66
g1078
sg59
(lp1094
g52
(g53
g54
NtRp1095
(dp1096
g57
(dp1097
g65
I4
ssg66
g1091
sg59
(lp1098
S''
asbasbasbag52
(g68
g54
NtRp1099
(dp1100
g57
(dp1101
sg66
g591
sg59
(lp1102
g52
(g73
g54
NtRp1103
(dp1104
g57
(dp1105
g77
g78
ssg66
g1099
sg59
(lp1106
S'server_name'
p1107
asbag52
(g73
g54
NtRp1108
(dp1109
g57
(dp1110
g84
g85
ssg66
g1099
sg59
(lp1111
S':'
asbag52
(g73
g54
NtRp1112
(dp1113
g57
(dp1114
sg66
g1099
sg59
(lp1115
g52
(g53
g54
NtRp1116
(dp1117
g57
(dp1118
g65
I4
ssg66
g1112
sg59
(lp1119
S'hector-vaio'
p1120
asbasbasbag52
(g68
g54
NtRp1121
(dp1122
g57
(dp1123
sg66
g591
sg59
(lp1124
g52
(g73
g54
NtRp1125
(dp1126
g57
(dp1127
g77
g78
ssg66
g1121
sg59
(lp1128
S'server_port'
p1129
asbag52
(g73
g54
NtRp1130
(dp1131
g57
(dp1132
g84
g85
ssg66
g1121
sg59
(lp1133
S':'
asbag52
(g73
g54
NtRp1134
(dp1135
g57
(dp1136
sg66
g1121
sg59
(lp1137
g52
(g53
g54
NtRp1138
(dp1139
g57
(dp1140
g65
I4
ssg66
g1134
sg59
(lp1141
S'8000'
p1142
asbasbasbag52
(g68
g54
NtRp1143
(dp1144
g57
(dp1145
sg66
g591
sg59
(lp1146
g52
(g73
g54
NtRp1147
(dp1148
g57
(dp1149
g77
g78
ssg66
g1143
sg59
(lp1150
S'server_protocol'
p1151
asbag52
(g73
g54
NtRp1152
(dp1153
g57
(dp1154
g84
g85
ssg66
g1143
sg59
(lp1155
S':'
asbag52
(g73
g54
NtRp1156
(dp1157
g57
(dp1158
sg66
g1143
sg59
(lp1159
g52
(g53
g54
NtRp1160
(dp1161
g57
(dp1162
g65
I4
ssg66
g1156
sg59
(lp1163
S'HTTP/1.1'
p1164
asbasbasbag52
(g68
g54
NtRp1165
(dp1166
g57
(dp1167
sg66
g591
sg59
(lp1168
g52
(g73
g54
NtRp1169
(dp1170
g57
(dp1171
g77
g78
ssg66
g1165
sg59
(lp1172
S'server_software'
p1173
asbag52
(g73
g54
NtRp1174
(dp1175
g57
(dp1176
g84
g85
ssg66
g1165
sg59
(lp1177
S':'
asbag52
(g73
g54
NtRp1178
(dp1179
g57
(dp1180
sg66
g1165
sg59
(lp1181
g52
(g53
g54
NtRp1182
(dp1183
g57
(dp1184
g65
I4
ssg66
g1178
sg59
(lp1185
S'Rocket 1.2.4'
p1186
asbasbasbag52
(g68
g54
NtRp1187
(dp1188
g57
(dp1189
sg66
g591
sg59
(lp1190
g52
(g73
g54
NtRp1191
(dp1192
g57
(dp1193
g77
g78
ssg66
g1187
sg59
(lp1194
S'web2py_crontype'
p1195
asbag52
(g73
g54
NtRp1196
(dp1197
g57
(dp1198
g84
g85
ssg66
g1187
sg59
(lp1199
S':'
asbag52
(g73
g54
NtRp1200
(dp1201
g57
(dp1202
sg66
g1187
sg59
(lp1203
g52
(g53
g54
NtRp1204
(dp1205
g57
(dp1206
g65
I4
ssg66
g1200
sg59
(lp1207
S'hard'
p1208
asbasbasbag52
(g68
g54
NtRp1209
(dp1210
g57
(dp1211
sg66
g591
sg59
(lp1212
g52
(g73
g54
NtRp1213
(dp1214
g57
(dp1215
g77
g78
ssg66
g1209
sg59
(lp1216
S'web2py_path'
p1217
asbag52
(g73
g54
NtRp1218
(dp1219
g57
(dp1220
g84
g85
ssg66
g1209
sg59
(lp1221
S':'
asbag52
(g73
g54
NtRp1222
(dp1223
g57
(dp1224
sg66
g1209
sg59
(lp1225
g52
(g53
g54
NtRp1226
(dp1227
g57
(dp1228
g65
I4
ssg66
g1222
sg59
(lp1229
g638
asbasbasbag52
(g68
g54
NtRp1230
(dp1231
g57
(dp1232
sg66
g591
sg59
(lp1233
g52
(g73
g54
NtRp1234
(dp1235
g57
(dp1236
g77
g78
ssg66
g1230
sg59
(lp1237
S'web2py_version'
p1238
asbag52
(g73
g54
NtRp1239
(dp1240
g57
(dp1241
g84
g85
ssg66
g1230
sg59
(lp1242
S':'
asbag52
(g73
g54
NtRp1243
(dp1244
g57
(dp1245
sg66
g1230
sg59
(lp1246
g52
(g53
g54
NtRp1247
(dp1248
g57
(dp1249
g65
I4
ssg66
g1243
sg59
(lp1250
g52
(g61
g54
NtRp1251
(dp1252
g57
(dp1253
g65
I3
ssg66
Nsg59
(lp1254
g52
(g68
g54
NtRp1255
(dp1256
g57
(dp1257
sg66
g1251
sg59
(lp1258
g52
(g73
g54
NtRp1259
(dp1260
g57
(dp1261
sg66
g1255
sg59
(lp1262
g52
(g53
g54
NtRp1263
(dp1264
g57
(dp1265
g65
I3
ssg66
g1259
sg59
(lp1266
S'1'
asbasbasbag52
(g68
g54
NtRp1267
(dp1268
g57
(dp1269
sg66
g1251
sg59
(lp1270
g52
(g73
g54
NtRp1271
(dp1272
g57
(dp1273
sg66
g1267
sg59
(lp1274
g52
(g53
g54
NtRp1275
(dp1276
g57
(dp1277
g65
I3
ssg66
g1271
sg59
(lp1278
S'99'
p1279
asbasbasbag52
(g68
g54
NtRp1280
(dp1281
g57
(dp1282
sg66
g1251
sg59
(lp1283
g52
(g73
g54
NtRp1284
(dp1285
g57
(dp1286
sg66
g1280
sg59
(lp1287
g52
(g53
g54
NtRp1288
(dp1289
g57
(dp1290
g65
I3
ssg66
g1284
sg59
(lp1291
S'2'
asbasbasbag52
(g68
g54
NtRp1292
(dp1293
g57
(dp1294
sg66
g1251
sg59
(lp1295
g52
(g73
g54
NtRp1296
(dp1297
g57
(dp1298
sg66
g1292
sg59
(lp1299
g52
(g53
g54
NtRp1300
(dp1301
g57
(dp1302
g65
I3
ssg66
g1296
sg59
(lp1303
S'datetime.datetime(2011, 9, 26, 6, 55, 33)'
p1304
asbasbasbag52
(g68
g54
NtRp1305
(dp1306
g57
(dp1307
sg66
g1251
sg59
(lp1308
g52
(g73
g54
NtRp1309
(dp1310
g57
(dp1311
sg66
g1305
sg59
(lp1312
g52
(g53
g54
NtRp1313
(dp1314
g57
(dp1315
g65
I3
ssg66
g1309
sg59
(lp1316
S'stable'
p1317
asbasbasbasbasbasbasbag52
(g68
g54
NtRp1318
(dp1319
g57
(dp1320
sg66
g591
sg59
(lp1321
g52
(g73
g54
NtRp1322
(dp1323
g57
(dp1324
g77
g78
ssg66
g1318
sg59
(lp1325
S'wsgi_errors'
p1326
asbag52
(g73
g54
NtRp1327
(dp1328
g57
(dp1329
g84
g85
ssg66
g1318
sg59
(lp1330
S':'
asbag52
(g73
g54
NtRp1331
(dp1332
g57
(dp1333
sg66
g1318
sg59
(lp1334
g52
(g53
g54
NtRp1335
(dp1336
g57
(dp1337
g65
I4
ssg66
g1331
sg59
(lp1338
S"<open file '<stderr>', mode 'w' at 0x014A00B0>"
p1339
asbasbasbag52
(g68
g54
NtRp1340
(dp1341
g57
(dp1342
sg66
g591
sg59
(lp1343
g52
(g73
g54
NtRp1344
(dp1345
g57
(dp1346
g77
g78
ssg66
g1340
sg59
(lp1347
S'wsgi_file_wrapper'
p1348
asbag52
(g73
g54
NtRp1349
(dp1350
g57
(dp1351
g84
g85
ssg66
g1340
sg59
(lp1352
S':'
asbag52
(g73
g54
NtRp1353
(dp1354
g57
(dp1355
sg66
g1340
sg59
(lp1356
g52
(g53
g54
NtRp1357
(dp1358
g57
(dp1359
g65
I4
ssg66
g1353
sg59
(lp1360
S'<class wsgiref.util.FileWrapper at 0x02399AB0>'
p1361
asbasbasbag52
(g68
g54
NtRp1362
(dp1363
g57
(dp1364
sg66
g591
sg59
(lp1365
g52
(g73
g54
NtRp1366
(dp1367
g57
(dp1368
g77
g78
ssg66
g1362
sg59
(lp1369
S'wsgi_input'
p1370
asbag52
(g73
g54
NtRp1371
(dp1372
g57
(dp1373
g84
g85
ssg66
g1362
sg59
(lp1374
S':'
asbag52
(g73
g54
NtRp1375
(dp1376
g57
(dp1377
sg66
g1362
sg59
(lp1378
g52
(g53
g54
NtRp1379
(dp1380
g57
(dp1381
g65
I4
ssg66
g1375
sg59
(lp1382
S'<socket._fileobject object at 0x0626B270>'
p1383
asbasbasbag52
(g68
g54
NtRp1384
(dp1385
g57
(dp1386
sg66
g591
sg59
(lp1387
g52
(g73
g54
NtRp1388
(dp1389
g57
(dp1390
g77
g78
ssg66
g1384
sg59
(lp1391
S'wsgi_multiprocess'
p1392
asbag52
(g73
g54
NtRp1393
(dp1394
g57
(dp1395
g84
g85
ssg66
g1384
sg59
(lp1396
S':'
asbag52
(g73
g54
NtRp1397
(dp1398
g57
(dp1399
sg66
g1384
sg59
(lp1400
g52
(g53
g54
NtRp1401
(dp1402
g57
(dp1403
g65
I4
ssg66
g1397
sg59
(lp1404
g95
asbasbasbag52
(g68
g54
NtRp1405
(dp1406
g57
(dp1407
sg66
g591
sg59
(lp1408
g52
(g73
g54
NtRp1409
(dp1410
g57
(dp1411
g77
g78
ssg66
g1405
sg59
(lp1412
S'wsgi_multithread'
p1413
asbag52
(g73
g54
NtRp1414
(dp1415
g57
(dp1416
g84
g85
ssg66
g1405
sg59
(lp1417
S':'
asbag52
(g73
g54
NtRp1418
(dp1419
g57
(dp1420
sg66
g1405
sg59
(lp1421
g52
(g53
g54
NtRp1422
(dp1423
g57
(dp1424
g65
I4
ssg66
g1418
sg59
(lp1425
S'True'
p1426
asbasbasbag52
(g68
g54
NtRp1427
(dp1428
g57
(dp1429
sg66
g591
sg59
(lp1430
g52
(g73
g54
NtRp1431
(dp1432
g57
(dp1433
g77
g78
ssg66
g1427
sg59
(lp1434
S'wsgi_run_once'
p1435
asbag52
(g73
g54
NtRp1436
(dp1437
g57
(dp1438
g84
g85
ssg66
g1427
sg59
(lp1439
S':'
asbag52
(g73
g54
NtRp1440
(dp1441
g57
(dp1442
sg66
g1427
sg59
(lp1443
g52
(g53
g54
NtRp1444
(dp1445
g57
(dp1446
g65
I4
ssg66
g1440
sg59
(lp1447
g95
asbasbasbag52
(g68
g54
NtRp1448
(dp1449
g57
(dp1450
sg66
g591
sg59
(lp1451
g52
(g73
g54
NtRp1452
(dp1453
g57
(dp1454
g77
g78
ssg66
g1448
sg59
(lp1455
S'wsgi_url_scheme'
p1456
asbag52
(g73
g54
NtRp1457
(dp1458
g57
(dp1459
g84
g85
ssg66
g1448
sg59
(lp1460
S':'
asbag52
(g73
g54
NtRp1461
(dp1462
g57
(dp1463
sg66
g1448
sg59
(lp1464
g52
(g53
g54
NtRp1465
(dp1466
g57
(dp1467
g65
I4
ssg66
g1461
sg59
(lp1468
S'http'
p1469
asbasbasbag52
(g68
g54
NtRp1470
(dp1471
g57
(dp1472
sg66
g591
sg59
(lp1473
g52
(g73
g54
NtRp1474
(dp1475
g57
(dp1476
g77
g78
ssg66
g1470
sg59
(lp1477
S'wsgi_version'
p1478
asbag52
(g73
g54
NtRp1479
(dp1480
g57
(dp1481
g84
g85
ssg66
g1470
sg59
(lp1482
S':'
asbag52
(g73
g54
NtRp1483
(dp1484
g57
(dp1485
sg66
g1470
sg59
(lp1486
g52
(g53
g54
NtRp1487
(dp1488
g57
(dp1489
g65
I4
ssg66
g1483
sg59
(lp1490
g52
(g61
g54
NtRp1491
(dp1492
g57
(dp1493
g65
I3
ssg66
Nsg59
(lp1494
g52
(g68
g54
NtRp1495
(dp1496
g57
(dp1497
sg66
g1491
sg59
(lp1498
g52
(g73
g54
NtRp1499
(dp1500
g57
(dp1501
sg66
g1495
sg59
(lp1502
g52
(g53
g54
NtRp1503
(dp1504
g57
(dp1505
g65
I3
ssg66
g1499
sg59
(lp1506
S'1'
asbasbasbag52
(g68
g54
NtRp1507
(dp1508
g57
(dp1509
sg66
g1491
sg59
(lp1510
g52
(g73
g54
NtRp1511
(dp1512
g57
(dp1513
sg66
g1507
sg59
(lp1514
g52
(g53
g54
NtRp1515
(dp1516
g57
(dp1517
g65
I3
ssg66
g1511
sg59
(lp1518
S'0'
asbasbasbasbasbasbasbasbasbasbasbag52
(g68
g54
NtRp1519
(dp1520
g57
(dp1521
sg66
g62
sg59
(lp1522
g52
(g73
g54
NtRp1523
(dp1524
g57
(dp1525
g77
g78
ssg66
g1519
sg59
(lp1526
S'extension'
p1527
asbag52
(g73
g54
NtRp1528
(dp1529
g57
(dp1530
g84
g85
ssg66
g1519
sg59
(lp1531
S':'
asbag52
(g73
g54
NtRp1532
(dp1533
g57
(dp1534
sg66
g1519
sg59
(lp1535
g52
(g53
g54
NtRp1536
(dp1537
g57
(dp1538
g65
I5
ssg66
g1532
sg59
(lp1539
S'html'
p1540
asbasbasbag52
(g68
g54
NtRp1541
(dp1542
g57
(dp1543
sg66
g62
sg59
(lp1544
g52
(g73
g54
NtRp1545
(dp1546
g57
(dp1547
g77
g78
ssg66
g1541
sg59
(lp1548
S'folder'
p1549
asbag52
(g73
g54
NtRp1550
(dp1551
g57
(dp1552
g84
g85
ssg66
g1541
sg59
(lp1553
S':'
asbag52
(g73
g54
NtRp1554
(dp1555
g57
(dp1556
sg66
g1541
sg59
(lp1557
g52
(g53
g54
NtRp1558
(dp1559
g57
(dp1560
g65
I5
ssg66
g1554
sg59
(lp1561
S'C:\\Python32\\web2py_win\\web2py\\applications\\Casa_de_Apuestas\\'
p1562
asbasbasbag52
(g68
g54
NtRp1563
(dp1564
g57
(dp1565
sg66
g62
sg59
(lp1566
g52
(g73
g54
NtRp1567
(dp1568
g57
(dp1569
g77
g78
ssg66
g1563
sg59
(lp1570
S'function'
p1571
asbag52
(g73
g54
NtRp1572
(dp1573
g57
(dp1574
g84
g85
ssg66
g1563
sg59
(lp1575
S':'
asbag52
(g73
g54
NtRp1576
(dp1577
g57
(dp1578
sg66
g1563
sg59
(lp1579
g52
(g53
g54
NtRp1580
(dp1581
g57
(dp1582
g65
I5
ssg66
g1576
sg59
(lp1583
S'index'
p1584
asbasbasbag52
(g68
g54
NtRp1585
(dp1586
g57
(dp1587
sg66
g62
sg59
(lp1588
g52
(g73
g54
NtRp1589
(dp1590
g57
(dp1591
g77
g78
ssg66
g1585
sg59
(lp1592
S'get_vars'
p1593
asbag52
(g73
g54
NtRp1594
(dp1595
g57
(dp1596
g84
g85
ssg66
g1585
sg59
(lp1597
S':'
asbag52
(g73
g54
NtRp1598
(dp1599
g57
(dp1600
sg66
g1585
sg59
(lp1601
g52
(g53
g54
NtRp1602
(dp1603
g57
(dp1604
g65
I5
ssg66
g1598
sg59
(lp1605
g52
(g61
g54
NtRp1606
(dp1607
g57
(dp1608
g65
I4
ssg66
Nsg59
(lp1609
sbasbasbasbag52
(g68
g54
NtRp1610
(dp1611
g57
(dp1612
sg66
g62
sg59
(lp1613
g52
(g73
g54
NtRp1614
(dp1615
g57
(dp1616
g77
g78
ssg66
g1610
sg59
(lp1617
S'global_settings'
p1618
asbag52
(g73
g54
NtRp1619
(dp1620
g57
(dp1621
g84
g85
ssg66
g1610
sg59
(lp1622
S':'
asbag52
(g73
g54
NtRp1623
(dp1624
g57
(dp1625
sg66
g1610
sg59
(lp1626
g52
(g53
g54
NtRp1627
(dp1628
g57
(dp1629
g65
I5
ssg66
g1623
sg59
(lp1630
g52
(g61
g54
NtRp1631
(dp1632
g57
(dp1633
g65
I4
ssg66
Nsg59
(lp1634
g52
(g68
g54
NtRp1635
(dp1636
g57
(dp1637
sg66
g1631
sg59
(lp1638
g52
(g73
g54
NtRp1639
(dp1640
g57
(dp1641
g77
g78
ssg66
g1635
sg59
(lp1642
g603
asbag52
(g73
g54
NtRp1643
(dp1644
g57
(dp1645
g84
g85
ssg66
g1635
sg59
(lp1646
S':'
asbag52
(g73
g54
NtRp1647
(dp1648
g57
(dp1649
sg66
g1635
sg59
(lp1650
g52
(g53
g54
NtRp1651
(dp1652
g57
(dp1653
g65
I4
ssg66
g1647
sg59
(lp1654
S"set(['C:\\\\Python32\\\\web2py_win\\\\web2py\\\\applications\\\\admin\\\\', 'C:\\\\Python32\\\\web2py_win\\\\web2py\\\\applications\\\\welcome\\\\', 'C:\\\\Python32\\\\web2py_win\\\\web2py\\\\applications\\\\Casa_de_Apuestas\\\\'])"
p1655
asbasbasbag52
(g68
g54
NtRp1656
(dp1657
g57
(dp1658
sg66
g1631
sg59
(lp1659
g52
(g73
g54
NtRp1660
(dp1661
g57
(dp1662
g77
g78
ssg66
g1656
sg59
(lp1663
g625
asbag52
(g73
g54
NtRp1664
(dp1665
g57
(dp1666
g84
g85
ssg66
g1656
sg59
(lp1667
S':'
asbag52
(g73
g54
NtRp1668
(dp1669
g57
(dp1670
sg66
g1656
sg59
(lp1671
g52
(g53
g54
NtRp1672
(dp1673
g57
(dp1674
g65
I4
ssg66
g1668
sg59
(lp1675
g638
asbasbasbag52
(g68
g54
NtRp1676
(dp1677
g57
(dp1678
sg66
g1631
sg59
(lp1679
g52
(g73
g54
NtRp1680
(dp1681
g57
(dp1682
g77
g78
ssg66
g1676
sg59
(lp1683
g647
asbag52
(g73
g54
NtRp1684
(dp1685
g57
(dp1686
g84
g85
ssg66
g1676
sg59
(lp1687
S':'
asbag52
(g73
g54
NtRp1688
(dp1689
g57
(dp1690
sg66
g1676
sg59
(lp1691
g52
(g53
g54
NtRp1692
(dp1693
g57
(dp1694
g65
I4
ssg66
g1688
sg59
(lp1695
g52
(g61
g54
NtRp1696
(dp1697
g57
(dp1698
g65
I3
ssg66
Nsg59
(lp1699
sbasbasbasbag52
(g68
g54
NtRp1700
(dp1701
g57
(dp1702
sg66
g1631
sg59
(lp1703
g52
(g73
g54
NtRp1704
(dp1705
g57
(dp1706
g77
g78
ssg66
g1700
sg59
(lp1707
g672
asbag52
(g73
g54
NtRp1708
(dp1709
g57
(dp1710
g84
g85
ssg66
g1700
sg59
(lp1711
S':'
asbag52
(g73
g54
NtRp1712
(dp1713
g57
(dp1714
sg66
g1700
sg59
(lp1715
g52
(g53
g54
NtRp1716
(dp1717
g57
(dp1718
g65
I4
ssg66
g1712
sg59
(lp1719
S"<Values at 0x25f5fa8: {'verbose': False, 'ip': '127.0.0.1', 'shutdown_timeout': 5, 'taskbar': False, 'nocron': False, 'pid_filename': 'httpserver.pid', 'maxthreads': None, 'softcron': False, 'server_name': 'hector-vaio', 'bpython': False, 'nogui': False, 'port': 8000, 'extcron': False, 'debuglevel': 30, 'test': None, 'folder': 'C:\\\\Python32\\\\web2py_win\\\\web2py', 'config': '', 'import_models': False, 'winservice': '', 'shell': None, 'run': '', 'log_filename': 'httpserver.log', 'args': [''], 'ssl_ca_certificate': None, 'scheduler': None, 'profiler_filename': None, 'ssl_private_key': '', 'password': '<ask>', 'request_queue_size': 5, 'ssl_certificate': '', 'cronjob': False, 'plain': False, 'quiet': False, 'interfaces': None, 'minthreads': None, 'timeout': 10, 'numthreads': None, 'nobanner': False}>"
p1720
asbasbasbag52
(g68
g54
NtRp1721
(dp1722
g57
(dp1723
sg66
g1631
sg59
(lp1724
g52
(g73
g54
NtRp1725
(dp1726
g57
(dp1727
g77
g78
ssg66
g1721
sg59
(lp1728
g694
asbag52
(g73
g54
NtRp1729
(dp1730
g57
(dp1731
g84
g85
ssg66
g1721
sg59
(lp1732
S':'
asbag52
(g73
g54
NtRp1733
(dp1734
g57
(dp1735
sg66
g1721
sg59
(lp1736
g52
(g53
g54
NtRp1737
(dp1738
g57
(dp1739
g65
I4
ssg66
g1733
sg59
(lp1740
S'set([])'
p1741
asbasbasbag52
(g68
g54
NtRp1742
(dp1743
g57
(dp1744
sg66
g1631
sg59
(lp1745
g52
(g73
g54
NtRp1746
(dp1747
g57
(dp1748
g77
g78
ssg66
g1742
sg59
(lp1749
g716
asbag52
(g73
g54
NtRp1750
(dp1751
g57
(dp1752
g84
g85
ssg66
g1742
sg59
(lp1753
S':'
asbag52
(g73
g54
NtRp1754
(dp1755
g57
(dp1756
sg66
g1742
sg59
(lp1757
g52
(g53
g54
NtRp1758
(dp1759
g57
(dp1760
g65
I4
ssg66
g1754
sg59
(lp1761
g95
asbasbasbag52
(g68
g54
NtRp1762
(dp1763
g57
(dp1764
sg66
g1631
sg59
(lp1765
g52
(g73
g54
NtRp1766
(dp1767
g57
(dp1768
g77
g78
ssg66
g1762
sg59
(lp1769
g737
asbag52
(g73
g54
NtRp1770
(dp1771
g57
(dp1772
g84
g85
ssg66
g1762
sg59
(lp1773
S':'
asbag52
(g73
g54
NtRp1774
(dp1775
g57
(dp1776
sg66
g1762
sg59
(lp1777
g52
(g53
g54
NtRp1778
(dp1779
g57
(dp1780
g65
I4
ssg66
g1774
sg59
(lp1781
g750
asbasbasbag52
(g68
g54
NtRp1782
(dp1783
g57
(dp1784
sg66
g1631
sg59
(lp1785
g52
(g73
g54
NtRp1786
(dp1787
g57
(dp1788
g77
g78
ssg66
g1782
sg59
(lp1789
g957
asbag52
(g73
g54
NtRp1790
(dp1791
g57
(dp1792
g84
g85
ssg66
g1782
sg59
(lp1793
S':'
asbag52
(g73
g54
NtRp1794
(dp1795
g57
(dp1796
sg66
g1782
sg59
(lp1797
g52
(g53
g54
NtRp1798
(dp1799
g57
(dp1800
g65
I4
ssg66
g1794
sg59
(lp1801
g95
asbasbasbag52
(g68
g54
NtRp1802
(dp1803
g57
(dp1804
sg66
g1631
sg59
(lp1805
g52
(g73
g54
NtRp1806
(dp1807
g57
(dp1808
g77
g78
ssg66
g1802
sg59
(lp1809
g1195
asbag52
(g73
g54
NtRp1810
(dp1811
g57
(dp1812
g84
g85
ssg66
g1802
sg59
(lp1813
S':'
asbag52
(g73
g54
NtRp1814
(dp1815
g57
(dp1816
sg66
g1802
sg59
(lp1817
g52
(g53
g54
NtRp1818
(dp1819
g57
(dp1820
g65
I4
ssg66
g1814
sg59
(lp1821
g1208
asbasbasbag52
(g68
g54
NtRp1822
(dp1823
g57
(dp1824
sg66
g1631
sg59
(lp1825
g52
(g73
g54
NtRp1826
(dp1827
g57
(dp1828
g77
g78
ssg66
g1822
sg59
(lp1829
g1238
asbag52
(g73
g54
NtRp1830
(dp1831
g57
(dp1832
g84
g85
ssg66
g1822
sg59
(lp1833
S':'
asbag52
(g73
g54
NtRp1834
(dp1835
g57
(dp1836
sg66
g1822
sg59
(lp1837
g52
(g53
g54
NtRp1838
(dp1839
g57
(dp1840
g65
I4
ssg66
g1834
sg59
(lp1841
g52
(g61
g54
NtRp1842
(dp1843
g57
(dp1844
g65
I3
ssg66
Nsg59
(lp1845
g52
(g68
g54
NtRp1846
(dp1847
g57
(dp1848
sg66
g1842
sg59
(lp1849
g52
(g73
g54
NtRp1850
(dp1851
g57
(dp1852
sg66
g1846
sg59
(lp1853
g52
(g53
g54
NtRp1854
(dp1855
g57
(dp1856
g65
I3
ssg66
g1850
sg59
(lp1857
S'1'
asbasbasbag52
(g68
g54
NtRp1858
(dp1859
g57
(dp1860
sg66
g1842
sg59
(lp1861
g52
(g73
g54
NtRp1862
(dp1863
g57
(dp1864
sg66
g1858
sg59
(lp1865
g52
(g53
g54
NtRp1866
(dp1867
g57
(dp1868
g65
I3
ssg66
g1862
sg59
(lp1869
S'99'
p1870
asbasbasbag52
(g68
g54
NtRp1871
(dp1872
g57
(dp1873
sg66
g1842
sg59
(lp1874
g52
(g73
g54
NtRp1875
(dp1876
g57
(dp1877
sg66
g1871
sg59
(lp1878
g52
(g53
g54
NtRp1879
(dp1880
g57
(dp1881
g65
I3
ssg66
g1875
sg59
(lp1882
S'2'
asbasbasbag52
(g68
g54
NtRp1883
(dp1884
g57
(dp1885
sg66
g1842
sg59
(lp1886
g52
(g73
g54
NtRp1887
(dp1888
g57
(dp1889
sg66
g1883
sg59
(lp1890
g52
(g53
g54
NtRp1891
(dp1892
g57
(dp1893
g65
I3
ssg66
g1887
sg59
(lp1894
S'datetime.datetime(2011, 9, 26, 6, 55, 33)'
p1895
asbasbasbag52
(g68
g54
NtRp1896
(dp1897
g57
(dp1898
sg66
g1842
sg59
(lp1899
g52
(g73
g54
NtRp1900
(dp1901
g57
(dp1902
sg66
g1896
sg59
(lp1903
g52
(g53
g54
NtRp1904
(dp1905
g57
(dp1906
g65
I3
ssg66
g1900
sg59
(lp1907
g1317
asbasbasbasbasbasbasbasbasbasbasbag52
(g68
g54
NtRp1908
(dp1909
g57
(dp1910
sg66
g62
sg59
(lp1911
g52
(g73
g54
NtRp1912
(dp1913
g57
(dp1914
g77
g78
ssg66
g1908
sg59
(lp1915
S'is_https'
p1916
asbag52
(g73
g54
NtRp1917
(dp1918
g57
(dp1919
g84
g85
ssg66
g1908
sg59
(lp1920
S':'
asbag52
(g73
g54
NtRp1921
(dp1922
g57
(dp1923
sg66
g1908
sg59
(lp1924
g52
(g53
g54
NtRp1925
(dp1926
g57
(dp1927
g65
I5
ssg66
g1921
sg59
(lp1928
g95
asbasbasbag52
(g68
g54
NtRp1929
(dp1930
g57
(dp1931
sg66
g62
sg59
(lp1932
g52
(g73
g54
NtRp1933
(dp1934
g57
(dp1935
g77
g78
ssg66
g1929
sg59
(lp1936
S'is_local'
p1937
asbag52
(g73
g54
NtRp1938
(dp1939
g57
(dp1940
g84
g85
ssg66
g1929
sg59
(lp1941
S':'
asbag52
(g73
g54
NtRp1942
(dp1943
g57
(dp1944
sg66
g1929
sg59
(lp1945
g52
(g53
g54
NtRp1946
(dp1947
g57
(dp1948
g65
I5
ssg66
g1942
sg59
(lp1949
g1426
asbasbasbag52
(g68
g54
NtRp1950
(dp1951
g57
(dp1952
sg66
g62
sg59
(lp1953
g52
(g73
g54
NtRp1954
(dp1955
g57
(dp1956
g77
g78
ssg66
g1950
sg59
(lp1957
S'is_restful'
p1958
asbag52
(g73
g54
NtRp1959
(dp1960
g57
(dp1961
g84
g85
ssg66
g1950
sg59
(lp1962
S':'
asbag52
(g73
g54
NtRp1963
(dp1964
g57
(dp1965
sg66
g1950
sg59
(lp1966
g52
(g53
g54
NtRp1967
(dp1968
g57
(dp1969
g65
I5
ssg66
g1963
sg59
(lp1970
g95
asbasbasbag52
(g68
g54
NtRp1971
(dp1972
g57
(dp1973
sg66
g62
sg59
(lp1974
g52
(g73
g54
NtRp1975
(dp1976
g57
(dp1977
g77
g78
ssg66
g1971
sg59
(lp1978
S'now'
p1979
asbag52
(g73
g54
NtRp1980
(dp1981
g57
(dp1982
g84
g85
ssg66
g1971
sg59
(lp1983
S':'
asbag52
(g73
g54
NtRp1984
(dp1985
g57
(dp1986
sg66
g1971
sg59
(lp1987
g52
(g53
g54
NtRp1988
(dp1989
g57
(dp1990
g65
I5
ssg66
g1984
sg59
(lp1991
S'datetime.datetime(2011, 11, 20, 12, 22, 46, 553000)'
p1992
asbasbasbag52
(g68
g54
NtRp1993
(dp1994
g57
(dp1995
sg66
g62
sg59
(lp1996
g52
(g73
g54
NtRp1997
(dp1998
g57
(dp1999
g77
g78
ssg66
g1993
sg59
(lp2000
S'post_vars'
p2001
asbag52
(g73
g54
NtRp2002
(dp2003
g57
(dp2004
g84
g85
ssg66
g1993
sg59
(lp2005
S':'
asbag52
(g73
g54
NtRp2006
(dp2007
g57
(dp2008
sg66
g1993
sg59
(lp2009
g52
(g53
g54
NtRp2010
(dp2011
g57
(dp2012
g65
I5
ssg66
g2006
sg59
(lp2013
g52
(g61
g54
NtRp2014
(dp2015
g57
(dp2016
g65
I4
ssg66
Nsg59
(lp2017
sbasbasbasbag52
(g68
g54
NtRp2018
(dp2019
g57
(dp2020
sg66
g62
sg59
(lp2021
g52
(g73
g54
NtRp2022
(dp2023
g57
(dp2024
g77
g78
ssg66
g2018
sg59
(lp2025
S'url'
p2026
asbag52
(g73
g54
NtRp2027
(dp2028
g57
(dp2029
g84
g85
ssg66
g2018
sg59
(lp2030
S':'
asbag52
(g73
g54
NtRp2031
(dp2032
g57
(dp2033
sg66
g2018
sg59
(lp2034
g52
(g53
g54
NtRp2035
(dp2036
g57
(dp2037
g65
I5
ssg66
g2031
sg59
(lp2038
S'/Casa_de_Apuestas/appadmin/index'
p2039
asbasbasbag52
(g68
g54
NtRp2040
(dp2041
g57
(dp2042
sg66
g62
sg59
(lp2043
g52
(g73
g54
NtRp2044
(dp2045
g57
(dp2046
g77
g78
ssg66
g2040
sg59
(lp2047
S'utcnow'
p2048
asbag52
(g73
g54
NtRp2049
(dp2050
g57
(dp2051
g84
g85
ssg66
g2040
sg59
(lp2052
S':'
asbag52
(g73
g54
NtRp2053
(dp2054
g57
(dp2055
sg66
g2040
sg59
(lp2056
g52
(g53
g54
NtRp2057
(dp2058
g57
(dp2059
g65
I5
ssg66
g2053
sg59
(lp2060
S'datetime.datetime(2011, 11, 20, 16, 52, 46, 553000)'
p2061
asbasbasbag52
(g68
g54
NtRp2062
(dp2063
g57
(dp2064
sg66
g62
sg59
(lp2065
g52
(g73
g54
NtRp2066
(dp2067
g57
(dp2068
g77
g78
ssg66
g2062
sg59
(lp2069
S'uuid'
p2070
asbag52
(g73
g54
NtRp2071
(dp2072
g57
(dp2073
g84
g85
ssg66
g2062
sg59
(lp2074
S':'
asbag52
(g73
g54
NtRp2075
(dp2076
g57
(dp2077
sg66
g2062
sg59
(lp2078
g52
(g53
g54
NtRp2079
(dp2080
g57
(dp2081
g65
I5
ssg66
g2075
sg59
(lp2082
S'Casa_de_Apuestas/127.0.0.1.2011-11-20.12-22-46.e7326d53-5894-45a4-ad51-372145e13daf'
p2083
asbasbasbag52
(g68
g54
NtRp2084
(dp2085
g57
(dp2086
sg66
g62
sg59
(lp2087
g52
(g73
g54
NtRp2088
(dp2089
g57
(dp2090
g77
g78
ssg66
g2084
sg59
(lp2091
S'vars'
p2092
asbag52
(g73
g54
NtRp2093
(dp2094
g57
(dp2095
g84
g85
ssg66
g2084
sg59
(lp2096
S':'
asbag52
(g73
g54
NtRp2097
(dp2098
g57
(dp2099
sg66
g2084
sg59
(lp2100
g52
(g53
g54
NtRp2101
(dp2102
g57
(dp2103
g65
I5
ssg66
g2097
sg59
(lp2104
g52
(g61
g54
NtRp2105
(dp2106
g57
(dp2107
g65
I4
ssg66
Nsg59
(lp2108
sbasbasbasbag52
(g68
g54
NtRp2109
(dp2110
g57
(dp2111
sg66
g62
sg59
(lp2112
g52
(g73
g54
NtRp2113
(dp2114
g57
(dp2115
g77
g78
ssg66
g2109
sg59
(lp2116
S'wsgi'
p2117
asbag52
(g73
g54
NtRp2118
(dp2119
g57
(dp2120
g84
g85
ssg66
g2109
sg59
(lp2121
S':'
asbag52
(g73
g54
NtRp2122
(dp2123
g57
(dp2124
sg66
g2109
sg59
(lp2125
g52
(g53
g54
NtRp2126
(dp2127
g57
(dp2128
g65
I5
ssg66
g2122
sg59
(lp2129
g52
(g61
g54
NtRp2130
(dp2131
g57
(dp2132
g65
I4
ssg66
Nsg59
(lp2133
g52
(g68
g54
NtRp2134
(dp2135
g57
(dp2136
sg66
g2130
sg59
(lp2137
g52
(g73
g54
NtRp2138
(dp2139
g57
(dp2140
g77
g78
ssg66
g2134
sg59
(lp2141
S'environ'
p2142
asbag52
(g73
g54
NtRp2143
(dp2144
g57
(dp2145
g84
g85
ssg66
g2134
sg59
(lp2146
S':'
asbag52
(g73
g54
NtRp2147
(dp2148
g57
(dp2149
sg66
g2134
sg59
(lp2150
g52
(g53
g54
NtRp2151
(dp2152
g57
(dp2153
g65
I4
ssg66
g2147
sg59
(lp2154
g52
(g61
g54
NtRp2155
(dp2156
g57
(dp2157
g65
I3
ssg66
Nsg59
(lp2158
g52
(g68
g54
NtRp2159
(dp2160
g57
(dp2161
sg66
g2155
sg59
(lp2162
g52
(g73
g54
NtRp2163
(dp2164
g57
(dp2165
g77
g78
ssg66
g2159
sg59
(lp2166
S'HTTP_ACCEPT'
p2167
asbag52
(g73
g54
NtRp2168
(dp2169
g57
(dp2170
g84
g85
ssg66
g2159
sg59
(lp2171
S':'
asbag52
(g73
g54
NtRp2172
(dp2173
g57
(dp2174
sg66
g2159
sg59
(lp2175
g52
(g53
g54
NtRp2176
(dp2177
g57
(dp2178
g65
I3
ssg66
g2172
sg59
(lp2179
g772
asbasbasbag52
(g68
g54
NtRp2180
(dp2181
g57
(dp2182
sg66
g2155
sg59
(lp2183
g52
(g73
g54
NtRp2184
(dp2185
g57
(dp2186
g77
g78
ssg66
g2180
sg59
(lp2187
S'HTTP_ACCEPT_CHARSET'
p2188
asbag52
(g73
g54
NtRp2189
(dp2190
g57
(dp2191
g84
g85
ssg66
g2180
sg59
(lp2192
S':'
asbag52
(g73
g54
NtRp2193
(dp2194
g57
(dp2195
sg66
g2180
sg59
(lp2196
g52
(g53
g54
NtRp2197
(dp2198
g57
(dp2199
g65
I3
ssg66
g2193
sg59
(lp2200
g794
asbasbasbag52
(g68
g54
NtRp2201
(dp2202
g57
(dp2203
sg66
g2155
sg59
(lp2204
g52
(g73
g54
NtRp2205
(dp2206
g57
(dp2207
g77
g78
ssg66
g2201
sg59
(lp2208
S'HTTP_ACCEPT_ENCODING'
p2209
asbag52
(g73
g54
NtRp2210
(dp2211
g57
(dp2212
g84
g85
ssg66
g2201
sg59
(lp2213
S':'
asbag52
(g73
g54
NtRp2214
(dp2215
g57
(dp2216
sg66
g2201
sg59
(lp2217
g52
(g53
g54
NtRp2218
(dp2219
g57
(dp2220
g65
I3
ssg66
g2214
sg59
(lp2221
g816
asbasbasbag52
(g68
g54
NtRp2222
(dp2223
g57
(dp2224
sg66
g2155
sg59
(lp2225
g52
(g73
g54
NtRp2226
(dp2227
g57
(dp2228
g77
g78
ssg66
g2222
sg59
(lp2229
S'HTTP_ACCEPT_LANGUAGE'
p2230
asbag52
(g73
g54
NtRp2231
(dp2232
g57
(dp2233
g84
g85
ssg66
g2222
sg59
(lp2234
S':'
asbag52
(g73
g54
NtRp2235
(dp2236
g57
(dp2237
sg66
g2222
sg59
(lp2238
g52
(g53
g54
NtRp2239
(dp2240
g57
(dp2241
g65
I3
ssg66
g2235
sg59
(lp2242
g838
asbasbasbag52
(g68
g54
NtRp2243
(dp2244
g57
(dp2245
sg66
g2155
sg59
(lp2246
g52
(g73
g54
NtRp2247
(dp2248
g57
(dp2249
g77
g78
ssg66
g2243
sg59
(lp2250
S'HTTP_CONNECTION'
p2251
asbag52
(g73
g54
NtRp2252
(dp2253
g57
(dp2254
g84
g85
ssg66
g2243
sg59
(lp2255
S':'
asbag52
(g73
g54
NtRp2256
(dp2257
g57
(dp2258
sg66
g2243
sg59
(lp2259
g52
(g53
g54
NtRp2260
(dp2261
g57
(dp2262
g65
I3
ssg66
g2256
sg59
(lp2263
g860
asbasbasbag52
(g68
g54
NtRp2264
(dp2265
g57
(dp2266
sg66
g2155
sg59
(lp2267
g52
(g73
g54
NtRp2268
(dp2269
g57
(dp2270
g77
g78
ssg66
g2264
sg59
(lp2271
S'HTTP_COOKIE'
p2272
asbag52
(g73
g54
NtRp2273
(dp2274
g57
(dp2275
g84
g85
ssg66
g2264
sg59
(lp2276
S':'
asbag52
(g73
g54
NtRp2277
(dp2278
g57
(dp2279
sg66
g2264
sg59
(lp2280
g52
(g53
g54
NtRp2281
(dp2282
g57
(dp2283
g65
I3
ssg66
g2277
sg59
(lp2284
g882
asbasbasbag52
(g68
g54
NtRp2285
(dp2286
g57
(dp2287
sg66
g2155
sg59
(lp2288
g52
(g73
g54
NtRp2289
(dp2290
g57
(dp2291
g77
g78
ssg66
g2285
sg59
(lp2292
S'HTTP_HOST'
p2293
asbag52
(g73
g54
NtRp2294
(dp2295
g57
(dp2296
g84
g85
ssg66
g2285
sg59
(lp2297
S':'
asbag52
(g73
g54
NtRp2298
(dp2299
g57
(dp2300
sg66
g2285
sg59
(lp2301
g52
(g53
g54
NtRp2302
(dp2303
g57
(dp2304
g65
I3
ssg66
g2298
sg59
(lp2305
g904
asbasbasbag52
(g68
g54
NtRp2306
(dp2307
g57
(dp2308
sg66
g2155
sg59
(lp2309
g52
(g73
g54
NtRp2310
(dp2311
g57
(dp2312
g77
g78
ssg66
g2306
sg59
(lp2313
S'HTTP_REFERER'
p2314
asbag52
(g73
g54
NtRp2315
(dp2316
g57
(dp2317
g84
g85
ssg66
g2306
sg59
(lp2318
S':'
asbag52
(g73
g54
NtRp2319
(dp2320
g57
(dp2321
sg66
g2306
sg59
(lp2322
g52
(g53
g54
NtRp2323
(dp2324
g57
(dp2325
g65
I3
ssg66
g2319
sg59
(lp2326
g926
asbasbasbag52
(g68
g54
NtRp2327
(dp2328
g57
(dp2329
sg66
g2155
sg59
(lp2330
g52
(g73
g54
NtRp2331
(dp2332
g57
(dp2333
g77
g78
ssg66
g2327
sg59
(lp2334
S'HTTP_USER_AGENT'
p2335
asbag52
(g73
g54
NtRp2336
(dp2337
g57
(dp2338
g84
g85
ssg66
g2327
sg59
(lp2339
S':'
asbag52
(g73
g54
NtRp2340
(dp2341
g57
(dp2342
sg66
g2327
sg59
(lp2343
g52
(g53
g54
NtRp2344
(dp2345
g57
(dp2346
g65
I3
ssg66
g2340
sg59
(lp2347
g948
asbasbasbag52
(g68
g54
NtRp2348
(dp2349
g57
(dp2350
sg66
g2155
sg59
(lp2351
g52
(g73
g54
NtRp2352
(dp2353
g57
(dp2354
g77
g78
ssg66
g2348
sg59
(lp2355
S'PATH_INFO'
p2356
asbag52
(g73
g54
NtRp2357
(dp2358
g57
(dp2359
g84
g85
ssg66
g2348
sg59
(lp2360
S':'
asbag52
(g73
g54
NtRp2361
(dp2362
g57
(dp2363
sg66
g2348
sg59
(lp2364
g52
(g53
g54
NtRp2365
(dp2366
g57
(dp2367
g65
I3
ssg66
g2361
sg59
(lp2368
g991
asbasbasbag52
(g68
g54
NtRp2369
(dp2370
g57
(dp2371
sg66
g2155
sg59
(lp2372
g52
(g73
g54
NtRp2373
(dp2374
g57
(dp2375
g77
g78
ssg66
g2369
sg59
(lp2376
S'QUERY_STRING'
p2377
asbag52
(g73
g54
NtRp2378
(dp2379
g57
(dp2380
g84
g85
ssg66
g2369
sg59
(lp2381
S':'
asbag52
(g73
g54
NtRp2382
(dp2383
g57
(dp2384
sg66
g2369
sg59
(lp2385
g52
(g53
g54
NtRp2386
(dp2387
g57
(dp2388
g65
I3
ssg66
g2382
sg59
(lp2389
S''
asbasbasbag52
(g68
g54
NtRp2390
(dp2391
g57
(dp2392
sg66
g2155
sg59
(lp2393
g52
(g73
g54
NtRp2394
(dp2395
g57
(dp2396
g77
g78
ssg66
g2390
sg59
(lp2397
S'REMOTE_ADDR'
p2398
asbag52
(g73
g54
NtRp2399
(dp2400
g57
(dp2401
g84
g85
ssg66
g2390
sg59
(lp2402
S':'
asbag52
(g73
g54
NtRp2403
(dp2404
g57
(dp2405
sg66
g2390
sg59
(lp2406
g52
(g53
g54
NtRp2407
(dp2408
g57
(dp2409
g65
I3
ssg66
g2403
sg59
(lp2410
g185
asbasbasbag52
(g68
g54
NtRp2411
(dp2412
g57
(dp2413
sg66
g2155
sg59
(lp2414
g52
(g73
g54
NtRp2415
(dp2416
g57
(dp2417
g77
g78
ssg66
g2411
sg59
(lp2418
S'REMOTE_PORT'
p2419
asbag52
(g73
g54
NtRp2420
(dp2421
g57
(dp2422
g84
g85
ssg66
g2411
sg59
(lp2423
S':'
asbag52
(g73
g54
NtRp2424
(dp2425
g57
(dp2426
sg66
g2411
sg59
(lp2427
g52
(g53
g54
NtRp2428
(dp2429
g57
(dp2430
g65
I3
ssg66
g2424
sg59
(lp2431
g1055
asbasbasbag52
(g68
g54
NtRp2432
(dp2433
g57
(dp2434
sg66
g2155
sg59
(lp2435
g52
(g73
g54
NtRp2436
(dp2437
g57
(dp2438
g77
g78
ssg66
g2432
sg59
(lp2439
S'REQUEST_METHOD'
p2440
asbag52
(g73
g54
NtRp2441
(dp2442
g57
(dp2443
g84
g85
ssg66
g2432
sg59
(lp2444
S':'
asbag52
(g73
g54
NtRp2445
(dp2446
g57
(dp2447
sg66
g2432
sg59
(lp2448
g52
(g53
g54
NtRp2449
(dp2450
g57
(dp2451
g65
I3
ssg66
g2445
sg59
(lp2452
g1077
asbasbasbag52
(g68
g54
NtRp2453
(dp2454
g57
(dp2455
sg66
g2155
sg59
(lp2456
g52
(g73
g54
NtRp2457
(dp2458
g57
(dp2459
g77
g78
ssg66
g2453
sg59
(lp2460
S'SCRIPT_NAME'
p2461
asbag52
(g73
g54
NtRp2462
(dp2463
g57
(dp2464
g84
g85
ssg66
g2453
sg59
(lp2465
S':'
asbag52
(g73
g54
NtRp2466
(dp2467
g57
(dp2468
sg66
g2453
sg59
(lp2469
g52
(g53
g54
NtRp2470
(dp2471
g57
(dp2472
g65
I3
ssg66
g2466
sg59
(lp2473
S''
asbasbasbag52
(g68
g54
NtRp2474
(dp2475
g57
(dp2476
sg66
g2155
sg59
(lp2477
g52
(g73
g54
NtRp2478
(dp2479
g57
(dp2480
g77
g78
ssg66
g2474
sg59
(lp2481
S'SERVER_NAME'
p2482
asbag52
(g73
g54
NtRp2483
(dp2484
g57
(dp2485
g84
g85
ssg66
g2474
sg59
(lp2486
S':'
asbag52
(g73
g54
NtRp2487
(dp2488
g57
(dp2489
sg66
g2474
sg59
(lp2490
g52
(g53
g54
NtRp2491
(dp2492
g57
(dp2493
g65
I3
ssg66
g2487
sg59
(lp2494
g1120
asbasbasbag52
(g68
g54
NtRp2495
(dp2496
g57
(dp2497
sg66
g2155
sg59
(lp2498
g52
(g73
g54
NtRp2499
(dp2500
g57
(dp2501
g77
g78
ssg66
g2495
sg59
(lp2502
S'SERVER_PORT'
p2503
asbag52
(g73
g54
NtRp2504
(dp2505
g57
(dp2506
g84
g85
ssg66
g2495
sg59
(lp2507
S':'
asbag52
(g73
g54
NtRp2508
(dp2509
g57
(dp2510
sg66
g2495
sg59
(lp2511
g52
(g53
g54
NtRp2512
(dp2513
g57
(dp2514
g65
I3
ssg66
g2508
sg59
(lp2515
g1142
asbasbasbag52
(g68
g54
NtRp2516
(dp2517
g57
(dp2518
sg66
g2155
sg59
(lp2519
g52
(g73
g54
NtRp2520
(dp2521
g57
(dp2522
g77
g78
ssg66
g2516
sg59
(lp2523
S'SERVER_PROTOCOL'
p2524
asbag52
(g73
g54
NtRp2525
(dp2526
g57
(dp2527
g84
g85
ssg66
g2516
sg59
(lp2528
S':'
asbag52
(g73
g54
NtRp2529
(dp2530
g57
(dp2531
sg66
g2516
sg59
(lp2532
g52
(g53
g54
NtRp2533
(dp2534
g57
(dp2535
g65
I3
ssg66
g2529
sg59
(lp2536
g1164
asbasbasbag52
(g68
g54
NtRp2537
(dp2538
g57
(dp2539
sg66
g2155
sg59
(lp2540
g52
(g73
g54
NtRp2541
(dp2542
g57
(dp2543
g77
g78
ssg66
g2537
sg59
(lp2544
S'SERVER_SOFTWARE'
p2545
asbag52
(g73
g54
NtRp2546
(dp2547
g57
(dp2548
g84
g85
ssg66
g2537
sg59
(lp2549
S':'
asbag52
(g73
g54
NtRp2550
(dp2551
g57
(dp2552
sg66
g2537
sg59
(lp2553
g52
(g53
g54
NtRp2554
(dp2555
g57
(dp2556
g65
I3
ssg66
g2550
sg59
(lp2557
g1186
asbasbasbag52
(g68
g54
NtRp2558
(dp2559
g57
(dp2560
sg66
g2155
sg59
(lp2561
g52
(g73
g54
NtRp2562
(dp2563
g57
(dp2564
g77
g78
ssg66
g2558
sg59
(lp2565
S'wsgi.errors'
p2566
asbag52
(g73
g54
NtRp2567
(dp2568
g57
(dp2569
g84
g85
ssg66
g2558
sg59
(lp2570
S':'
asbag52
(g73
g54
NtRp2571
(dp2572
g57
(dp2573
sg66
g2558
sg59
(lp2574
g52
(g53
g54
NtRp2575
(dp2576
g57
(dp2577
g65
I3
ssg66
g2571
sg59
(lp2578
S"<open file '<stderr>', mode 'w' at 0x014A00B0>"
p2579
asbasbasbag52
(g68
g54
NtRp2580
(dp2581
g57
(dp2582
sg66
g2155
sg59
(lp2583
g52
(g73
g54
NtRp2584
(dp2585
g57
(dp2586
g77
g78
ssg66
g2580
sg59
(lp2587
S'wsgi.file_wrapper'
p2588
asbag52
(g73
g54
NtRp2589
(dp2590
g57
(dp2591
g84
g85
ssg66
g2580
sg59
(lp2592
S':'
asbag52
(g73
g54
NtRp2593
(dp2594
g57
(dp2595
sg66
g2580
sg59
(lp2596
g52
(g53
g54
NtRp2597
(dp2598
g57
(dp2599
g65
I3
ssg66
g2593
sg59
(lp2600
S'<class wsgiref.util.FileWrapper at 0x02399AB0>'
p2601
asbasbasbag52
(g68
g54
NtRp2602
(dp2603
g57
(dp2604
sg66
g2155
sg59
(lp2605
g52
(g73
g54
NtRp2606
(dp2607
g57
(dp2608
g77
g78
ssg66
g2602
sg59
(lp2609
S'wsgi.input'
p2610
asbag52
(g73
g54
NtRp2611
(dp2612
g57
(dp2613
g84
g85
ssg66
g2602
sg59
(lp2614
S':'
asbag52
(g73
g54
NtRp2615
(dp2616
g57
(dp2617
sg66
g2602
sg59
(lp2618
g52
(g53
g54
NtRp2619
(dp2620
g57
(dp2621
g65
I3
ssg66
g2615
sg59
(lp2622
S'<cStringIO.StringO object at 0x02762080>'
p2623
asbasbasbag52
(g68
g54
NtRp2624
(dp2625
g57
(dp2626
sg66
g2155
sg59
(lp2627
g52
(g73
g54
NtRp2628
(dp2629
g57
(dp2630
g77
g78
ssg66
g2624
sg59
(lp2631
S'wsgi.multiprocess'
p2632
asbag52
(g73
g54
NtRp2633
(dp2634
g57
(dp2635
g84
g85
ssg66
g2624
sg59
(lp2636
S':'
asbag52
(g73
g54
NtRp2637
(dp2638
g57
(dp2639
sg66
g2624
sg59
(lp2640
g52
(g53
g54
NtRp2641
(dp2642
g57
(dp2643
g65
I3
ssg66
g2637
sg59
(lp2644
g95
asbasbasbag52
(g68
g54
NtRp2645
(dp2646
g57
(dp2647
sg66
g2155
sg59
(lp2648
g52
(g73
g54
NtRp2649
(dp2650
g57
(dp2651
g77
g78
ssg66
g2645
sg59
(lp2652
S'wsgi.multithread'
p2653
asbag52
(g73
g54
NtRp2654
(dp2655
g57
(dp2656
g84
g85
ssg66
g2645
sg59
(lp2657
S':'
asbag52
(g73
g54
NtRp2658
(dp2659
g57
(dp2660
sg66
g2645
sg59
(lp2661
g52
(g53
g54
NtRp2662
(dp2663
g57
(dp2664
g65
I3
ssg66
g2658
sg59
(lp2665
g1426
asbasbasbag52
(g68
g54
NtRp2666
(dp2667
g57
(dp2668
sg66
g2155
sg59
(lp2669
g52
(g73
g54
NtRp2670
(dp2671
g57
(dp2672
g77
g78
ssg66
g2666
sg59
(lp2673
S'wsgi.run_once'
p2674
asbag52
(g73
g54
NtRp2675
(dp2676
g57
(dp2677
g84
g85
ssg66
g2666
sg59
(lp2678
S':'
asbag52
(g73
g54
NtRp2679
(dp2680
g57
(dp2681
sg66
g2666
sg59
(lp2682
g52
(g53
g54
NtRp2683
(dp2684
g57
(dp2685
g65
I3
ssg66
g2679
sg59
(lp2686
g95
asbasbasbag52
(g68
g54
NtRp2687
(dp2688
g57
(dp2689
sg66
g2155
sg59
(lp2690
g52
(g73
g54
NtRp2691
(dp2692
g57
(dp2693
g77
g78
ssg66
g2687
sg59
(lp2694
S'wsgi.url_scheme'
p2695
asbag52
(g73
g54
NtRp2696
(dp2697
g57
(dp2698
g84
g85
ssg66
g2687
sg59
(lp2699
S':'
asbag52
(g73
g54
NtRp2700
(dp2701
g57
(dp2702
sg66
g2687
sg59
(lp2703
g52
(g53
g54
NtRp2704
(dp2705
g57
(dp2706
g65
I3
ssg66
g2700
sg59
(lp2707
g1469
asbasbasbag52
(g68
g54
NtRp2708
(dp2709
g57
(dp2710
sg66
g2155
sg59
(lp2711
g52
(g73
g54
NtRp2712
(dp2713
g57
(dp2714
g77
g78
ssg66
g2708
sg59
(lp2715
S'wsgi.version'
p2716
asbag52
(g73
g54
NtRp2717
(dp2718
g57
(dp2719
g84
g85
ssg66
g2708
sg59
(lp2720
S':'
asbag52
(g73
g54
NtRp2721
(dp2722
g57
(dp2723
sg66
g2708
sg59
(lp2724
g52
(g53
g54
NtRp2725
(dp2726
g57
(dp2727
g65
I3
ssg66
g2721
sg59
(lp2728
S'1'
asbasbasbasbasbasbasbasbasbasbasbasbasbsS'frames'
p2729
(lp2730
(dp2731
S'file'
p2732
S'C:\\Python32\\web2py_win\\web2py\\gluon\\restricted.py'
p2733
sS'dump'
p2734
(dp2735
sS'lnum'
p2736
I194
sS'lines'
p2737
(dp2738
sS'call'
p2739
S"(code='# -*- coding: utf-8 -*-\\n\\n#######################...ender\\nmail.settings.login = settings.email_login\\n', environment={'A': <class 'gluon.html.A'>, 'B': <class 'gluon.html.B'>, 'BEAUTIFY': <class 'gluon.html.BEAUTIFY'>, 'BODY': <class 'gluon.html.BODY'>, 'BR': <class 'gluon.html.BR'>, 'BUTTON': <class 'gluon.html.BUTTON'>, 'CAT': <class 'gluon.html.CAT'>, 'CENTER': <class 'gluon.html.CENTER'>, 'CLEANUP': <class 'gluon.validators.CLEANUP'>, 'CODE': <class 'gluon.html.CODE'>, ...}, layer=r'C:\\Python32\\web2py_win\\web2py\\applications\\Casa_de_Apuestas\\models\\db.py')"
p2740
sS'func'
p2741
S'restricted'
p2742
sa(dp2743
g2732
S'C:\\Python32\\web2py_win\\web2py\\applications\\Casa_de_Apuestas\\models\\db.py'
p2744
sg2734
(dp2745
sg2736
I31
sg2737
(dp2746
I32
S"      ##  primarykey=['eventos_id','participantes_id'],"
p2747
sI33
S'      ##  migrate=False'
p2748
sI34
S'##MALDITA PK !!!, HABRA QUE PONERLE ID PARA QUE FUNCIONE, MALA PRACTICA :('
p2749
sI35
S'    )'
p2750
sI26
S'    )'
p2751
sI27
S''
sI28
S"    db.define_table('eventosparticipantes',"
p2752
sI29
S"        Field('eventos_id',db.eventos),"
p2753
sI30
S"        Field('participantes_id',db.participantes),"
p2754
sI31
S"        Field('limite_apuesta','integer')"
p2755
ssg2739
S'()'
p2756
sg2741
S'<module>'
p2757
sa(dp2758
g2732
S'C:\\Python32\\web2py_win\\web2py\\gluon\\dal.py'
p2759
sg2734
(dp2760
sg2736
I4491
sg2737
(dp2761
sg2739
S"(self=<DAL {'participantes': <Table {'ALL': <gluon.dal...erences': {}, '_uri': 'sqlite://storage.sqlite'}>, tablename='eventosparticipantes', *fields=(<gluon.dal.Field object at 0x0659B0F0>, <gluon.dal.Field object at 0x0659B790>, <gluon.dal.Field object at 0x0659B9B0>), **args={})"
p2762
sg2741
S'define_table'
p2763
sa(dp2764
g2732
S'C:\\Python32\\web2py_win\\web2py\\gluon\\dal.py'
p2765
sg2734
(dp2766
sg2736
I677
sg2737
(dp2767
sg2739
S"(self=<gluon.dal.SQLiteAdapter object at 0x0643EA50>, table=<Table {'ALL': <gluon.dal.SQLALL object at 0x065...>, 'id': <gluon.dal.Field object at 0x0659B590>}>, migrate=True, fake_migrate=False, polymodel=None)"
p2768
sg2741
S'create_table'
p2769
sa(dp2770
g2732
S'C:\\Python32\\web2py_win\\web2py\\gluon\\dal.py'
p2771
sg2734
(dp2772
sg2736
I1299
sg2737
(dp2773
sg2739
S"(self=<gluon.dal.SQLiteAdapter object at 0x0643EA50>, query='CREATE TABLE eventosparticipantes(\\n    id INTEGE... ON DELETE CASCADE,\\n    limite_apuesta INTEGER\\n);', table=<Table {'ALL': <gluon.dal.SQLALL object at 0x065...>, 'id': <gluon.dal.Field object at 0x0659B590>}>, **args={})"
p2774
sg2741
S'create_sequence_and_triggers'
p2775
sa(dp2776
g2732
S'C:\\Python32\\web2py_win\\web2py\\gluon\\dal.py'
p2777
sg2734
(dp2778
sg2736
I1309
sg2737
(dp2779
sg2739
S"(self=<gluon.dal.SQLiteAdapter object at 0x0643EA50>, *a=('CREATE TABLE eventosparticipantes(\\n    id INTEGE... ON DELETE CASCADE,\\n    limite_apuesta INTEGER\\n);',), **b={})"
p2780
sg2741
S'execute'
p2781
sa(dp2782
g2732
S'C:\\Python32\\web2py_win\\web2py\\gluon\\dal.py'
p2783
sg2734
(dp2784
sg2736
I1304
sg2737
(dp2785
sg2739
S"(self=<gluon.dal.SQLiteAdapter object at 0x0643EA50>, *a=('CREATE TABLE eventosparticipantes(\\n    id INTEGE... ON DELETE CASCADE,\\n    limite_apuesta INTEGER\\n);',), **b={})"
p2786
sg2741
S'log_execute'
p2787
sasS'pyver'
p2788
S'Python 2.5.4: C:\\Python32\\web2py_win\\web2py\\web2py.exe'
p2789
sS'session'
p2790
g52
(g53
g54
NtRp2791
(dp2792
g57
(dp2793
sg59
(lp2794
g52
(g61
g54
NtRp2795
(dp2796
g57
(dp2797
g65
I5
ssg66
Nsg59
(lp2798
sbasbsS'etype'
p2799
S"<class 'sqlite3.OperationalError'>"
p2800
sS'date'
p2801
S'Sun Nov 20 12:22:46 2011'
p2802
sS'response'
p2803
g52
(g53
g54
NtRp2804
(dp2805
g57
(dp2806
sg59
(lp2807
g52
(g61
g54
NtRp2808
(dp2809
g57
(dp2810
g65
I5
ssg66
Nsg59
(lp2811
g52
(g68
g54
NtRp2812
(dp2813
g57
(dp2814
sg66
g2808
sg59
(lp2815
g52
(g73
g54
NtRp2816
(dp2817
g57
(dp2818
g77
g78
ssg66
g2812
sg59
(lp2819
g150
asbag52
(g73
g54
NtRp2820
(dp2821
g57
(dp2822
g84
g85
ssg66
g2812
sg59
(lp2823
S':'
asbag52
(g73
g54
NtRp2824
(dp2825
g57
(dp2826
sg66
g2812
sg59
(lp2827
g52
(g53
g54
NtRp2828
(dp2829
g57
(dp2830
g65
I5
ssg66
g2824
sg59
(lp2831
S'<cStringIO.StringO object at 0x0622C040>'
p2832
asbasbasbag52
(g68
g54
NtRp2833
(dp2834
g57
(dp2835
sg66
g2808
sg59
(lp2836
g52
(g73
g54
NtRp2837
(dp2838
g57
(dp2839
g77
g78
ssg66
g2833
sg59
(lp2840
g216
asbag52
(g73
g54
NtRp2841
(dp2842
g57
(dp2843
g84
g85
ssg66
g2833
sg59
(lp2844
S':'
asbag52
(g73
g54
NtRp2845
(dp2846
g57
(dp2847
sg66
g2833
sg59
(lp2848
g52
(g53
g54
NtRp2849
(dp2850
g57
(dp2851
g65
I5
ssg66
g2845
sg59
(lp2852
g52
(g61
g54
NtRp2853
(dp2854
g57
(dp2855
g65
I4
ssg66
Nsg59
(lp2856
g52
(g68
g54
NtRp2857
(dp2858
g57
(dp2859
sg66
g2853
sg59
(lp2860
g52
(g73
g54
NtRp2861
(dp2862
g57
(dp2863
g77
g78
ssg66
g2857
sg59
(lp2864
S'session_id_casa_de_apuestas'
p2865
asbag52
(g73
g54
NtRp2866
(dp2867
g57
(dp2868
g84
g85
ssg66
g2857
sg59
(lp2869
S':'
asbag52
(g73
g54
NtRp2870
(dp2871
g57
(dp2872
sg66
g2857
sg59
(lp2873
g52
(g53
g54
NtRp2874
(dp2875
g57
(dp2876
g65
I4
ssg66
g2870
sg59
(lp2877
g52
(g61
g54
NtRp2878
(dp2879
g57
(dp2880
g65
I3
ssg66
Nsg59
(lp2881
g52
(g68
g54
NtRp2882
(dp2883
g57
(dp2884
sg66
g2878
sg59
(lp2885
g52
(g73
g54
NtRp2886
(dp2887
g57
(dp2888
g77
g78
ssg66
g2882
sg59
(lp2889
g266
asbag52
(g73
g54
NtRp2890
(dp2891
g57
(dp2892
g84
g85
ssg66
g2882
sg59
(lp2893
S':'
asbag52
(g73
g54
NtRp2894
(dp2895
g57
(dp2896
sg66
g2882
sg59
(lp2897
g52
(g53
g54
NtRp2898
(dp2899
g57
(dp2900
g65
I3
ssg66
g2894
sg59
(lp2901
S''
asbasbasbag52
(g68
g54
NtRp2902
(dp2903
g57
(dp2904
sg66
g2878
sg59
(lp2905
g52
(g73
g54
NtRp2906
(dp2907
g57
(dp2908
g77
g78
ssg66
g2902
sg59
(lp2909
g287
asbag52
(g73
g54
NtRp2910
(dp2911
g57
(dp2912
g84
g85
ssg66
g2902
sg59
(lp2913
S':'
asbag52
(g73
g54
NtRp2914
(dp2915
g57
(dp2916
sg66
g2902
sg59
(lp2917
g52
(g53
g54
NtRp2918
(dp2919
g57
(dp2920
g65
I3
ssg66
g2914
sg59
(lp2921
S''
asbasbasbag52
(g68
g54
NtRp2922
(dp2923
g57
(dp2924
sg66
g2878
sg59
(lp2925
g52
(g73
g54
NtRp2926
(dp2927
g57
(dp2928
g77
g78
ssg66
g2922
sg59
(lp2929
g308
asbag52
(g73
g54
NtRp2930
(dp2931
g57
(dp2932
g84
g85
ssg66
g2922
sg59
(lp2933
S':'
asbag52
(g73
g54
NtRp2934
(dp2935
g57
(dp2936
sg66
g2922
sg59
(lp2937
g52
(g53
g54
NtRp2938
(dp2939
g57
(dp2940
g65
I3
ssg66
g2934
sg59
(lp2941
S''
asbasbasbag52
(g68
g54
NtRp2942
(dp2943
g57
(dp2944
sg66
g2878
sg59
(lp2945
g52
(g73
g54
NtRp2946
(dp2947
g57
(dp2948
g77
g78
ssg66
g2942
sg59
(lp2949
g329
asbag52
(g73
g54
NtRp2950
(dp2951
g57
(dp2952
g84
g85
ssg66
g2942
sg59
(lp2953
S':'
asbag52
(g73
g54
NtRp2954
(dp2955
g57
(dp2956
sg66
g2942
sg59
(lp2957
g52
(g53
g54
NtRp2958
(dp2959
g57
(dp2960
g65
I3
ssg66
g2954
sg59
(lp2961
S''
asbasbasbag52
(g68
g54
NtRp2962
(dp2963
g57
(dp2964
sg66
g2878
sg59
(lp2965
g52
(g73
g54
NtRp2966
(dp2967
g57
(dp2968
g77
g78
ssg66
g2962
sg59
(lp2969
g350
asbag52
(g73
g54
NtRp2970
(dp2971
g57
(dp2972
g84
g85
ssg66
g2962
sg59
(lp2973
S':'
asbag52
(g73
g54
NtRp2974
(dp2975
g57
(dp2976
sg66
g2962
sg59
(lp2977
g52
(g53
g54
NtRp2978
(dp2979
g57
(dp2980
g65
I3
ssg66
g2974
sg59
(lp2981
S'/'
asbasbasbag52
(g68
g54
NtRp2982
(dp2983
g57
(dp2984
sg66
g2878
sg59
(lp2985
g52
(g73
g54
NtRp2986
(dp2987
g57
(dp2988
g77
g78
ssg66
g2982
sg59
(lp2989
g371
asbag52
(g73
g54
NtRp2990
(dp2991
g57
(dp2992
g84
g85
ssg66
g2982
sg59
(lp2993
S':'
asbag52
(g73
g54
NtRp2994
(dp2995
g57
(dp2996
sg66
g2982
sg59
(lp2997
g52
(g53
g54
NtRp2998
(dp2999
g57
(dp3000
g65
I3
ssg66
g2994
sg59
(lp3001
S''
asbasbasbag52
(g68
g54
NtRp3002
(dp3003
g57
(dp3004
sg66
g2878
sg59
(lp3005
g52
(g73
g54
NtRp3006
(dp3007
g57
(dp3008
g77
g78
ssg66
g3002
sg59
(lp3009
g392
asbag52
(g73
g54
NtRp3010
(dp3011
g57
(dp3012
g84
g85
ssg66
g3002
sg59
(lp3013
S':'
asbag52
(g73
g54
NtRp3014
(dp3015
g57
(dp3016
sg66
g3002
sg59
(lp3017
g52
(g53
g54
NtRp3018
(dp3019
g57
(dp3020
g65
I3
ssg66
g3014
sg59
(lp3021
S''
asbasbasbasbasbasbasbasbasbasbasbag52
(g68
g54
NtRp3022
(dp3023
g57
(dp3024
sg66
g2808
sg59
(lp3025
g52
(g73
g54
NtRp3026
(dp3027
g57
(dp3028
g77
g78
ssg66
g3022
sg59
(lp3029
S'files'
p3030
asbag52
(g73
g54
NtRp3031
(dp3032
g57
(dp3033
g84
g85
ssg66
g3022
sg59
(lp3034
S':'
asbag52
(g73
g54
NtRp3035
(dp3036
g57
(dp3037
sg66
g3022
sg59
(lp3038
g52
(g53
g54
NtRp3039
(dp3040
g57
(dp3041
g65
I5
ssg66
g3035
sg59
(lp3042
g52
(g61
g54
NtRp3043
(dp3044
g57
(dp3045
g65
I4
ssg66
Nsg59
(lp3046
sbasbasbasbag52
(g68
g54
NtRp3047
(dp3048
g57
(dp3049
sg66
g2808
sg59
(lp3050
g52
(g73
g54
NtRp3051
(dp3052
g57
(dp3053
g77
g78
ssg66
g3047
sg59
(lp3054
S'flash'
p3055
asbag52
(g73
g54
NtRp3056
(dp3057
g57
(dp3058
g84
g85
ssg66
g3047
sg59
(lp3059
S':'
asbag52
(g73
g54
NtRp3060
(dp3061
g57
(dp3062
sg66
g3047
sg59
(lp3063
g52
(g53
g54
NtRp3064
(dp3065
g57
(dp3066
g65
I5
ssg66
g3060
sg59
(lp3067
S''
asbasbasbag52
(g68
g54
NtRp3068
(dp3069
g57
(dp3070
sg66
g2808
sg59
(lp3071
g52
(g73
g54
NtRp3072
(dp3073
g57
(dp3074
g77
g78
ssg66
g3068
sg59
(lp3075
S'generic_patterns'
p3076
asbag52
(g73
g54
NtRp3077
(dp3078
g57
(dp3079
g84
g85
ssg66
g3068
sg59
(lp3080
S':'
asbag52
(g73
g54
NtRp3081
(dp3082
g57
(dp3083
sg66
g3068
sg59
(lp3084
g52
(g53
g54
NtRp3085
(dp3086
g57
(dp3087
g65
I5
ssg66
g3081
sg59
(lp3088
g52
(g61
g54
NtRp3089
(dp3090
g57
(dp3091
g65
I4
ssg66
Nsg59
(lp3092
sbasbasbasbag52
(g68
g54
NtRp3093
(dp3094
g57
(dp3095
sg66
g2808
sg59
(lp3096
g52
(g73
g54
NtRp3097
(dp3098
g57
(dp3099
g77
g78
ssg66
g3093
sg59
(lp3100
S'headers'
p3101
asbag52
(g73
g54
NtRp3102
(dp3103
g57
(dp3104
g84
g85
ssg66
g3093
sg59
(lp3105
S':'
asbag52
(g73
g54
NtRp3106
(dp3107
g57
(dp3108
sg66
g3093
sg59
(lp3109
g52
(g53
g54
NtRp3110
(dp3111
g57
(dp3112
g65
I5
ssg66
g3106
sg59
(lp3113
g52
(g61
g54
NtRp3114
(dp3115
g57
(dp3116
g65
I4
ssg66
Nsg59
(lp3117
g52
(g68
g54
NtRp3118
(dp3119
g57
(dp3120
sg66
g3114
sg59
(lp3121
g52
(g73
g54
NtRp3122
(dp3123
g57
(dp3124
g77
g78
ssg66
g3118
sg59
(lp3125
S'Cache-Control'
p3126
asbag52
(g73
g54
NtRp3127
(dp3128
g57
(dp3129
g84
g85
ssg66
g3118
sg59
(lp3130
S':'
asbag52
(g73
g54
NtRp3131
(dp3132
g57
(dp3133
sg66
g3118
sg59
(lp3134
g52
(g53
g54
NtRp3135
(dp3136
g57
(dp3137
g65
I4
ssg66
g3131
sg59
(lp3138
S'no-store, no-cache, must-revalidate, post-check=0, pre-check=0'
p3139
asbasbasbag52
(g68
g54
NtRp3140
(dp3141
g57
(dp3142
sg66
g3114
sg59
(lp3143
g52
(g73
g54
NtRp3144
(dp3145
g57
(dp3146
g77
g78
ssg66
g3140
sg59
(lp3147
S'Content-Type'
p3148
asbag52
(g73
g54
NtRp3149
(dp3150
g57
(dp3151
g84
g85
ssg66
g3140
sg59
(lp3152
S':'
asbag52
(g73
g54
NtRp3153
(dp3154
g57
(dp3155
sg66
g3140
sg59
(lp3156
g52
(g53
g54
NtRp3157
(dp3158
g57
(dp3159
g65
I4
ssg66
g3153
sg59
(lp3160
S'text/html; charset=utf-8'
p3161
asbasbasbag52
(g68
g54
NtRp3162
(dp3163
g57
(dp3164
sg66
g3114
sg59
(lp3165
g52
(g73
g54
NtRp3166
(dp3167
g57
(dp3168
g77
g78
ssg66
g3162
sg59
(lp3169
S'Expires'
p3170
asbag52
(g73
g54
NtRp3171
(dp3172
g57
(dp3173
g84
g85
ssg66
g3162
sg59
(lp3174
S':'
asbag52
(g73
g54
NtRp3175
(dp3176
g57
(dp3177
sg66
g3162
sg59
(lp3178
g52
(g53
g54
NtRp3179
(dp3180
g57
(dp3181
g65
I4
ssg66
g3175
sg59
(lp3182
S'Sun, 20 Nov 2011 16:52:46 GMT'
p3183
asbasbasbag52
(g68
g54
NtRp3184
(dp3185
g57
(dp3186
sg66
g3114
sg59
(lp3187
g52
(g73
g54
NtRp3188
(dp3189
g57
(dp3190
g77
g78
ssg66
g3184
sg59
(lp3191
S'Pragma'
p3192
asbag52
(g73
g54
NtRp3193
(dp3194
g57
(dp3195
g84
g85
ssg66
g3184
sg59
(lp3196
S':'
asbag52
(g73
g54
NtRp3197
(dp3198
g57
(dp3199
sg66
g3184
sg59
(lp3200
g52
(g53
g54
NtRp3201
(dp3202
g57
(dp3203
g65
I4
ssg66
g3197
sg59
(lp3204
S'no-cache'
p3205
asbasbasbag52
(g68
g54
NtRp3206
(dp3207
g57
(dp3208
sg66
g3114
sg59
(lp3209
g52
(g73
g54
NtRp3210
(dp3211
g57
(dp3212
g77
g78
ssg66
g3206
sg59
(lp3213
S'X-Powered-By'
p3214
asbag52
(g73
g54
NtRp3215
(dp3216
g57
(dp3217
g84
g85
ssg66
g3206
sg59
(lp3218
S':'
asbag52
(g73
g54
NtRp3219
(dp3220
g57
(dp3221
sg66
g3206
sg59
(lp3222
g52
(g53
g54
NtRp3223
(dp3224
g57
(dp3225
g65
I4
ssg66
g3219
sg59
(lp3226
S'web2py'
p3227
asbasbasbasbasbasbasbag52
(g68
g54
NtRp3228
(dp3229
g57
(dp3230
sg66
g2808
sg59
(lp3231
g52
(g73
g54
NtRp3232
(dp3233
g57
(dp3234
g77
g78
ssg66
g3228
sg59
(lp3235
S'menu'
p3236
asbag52
(g73
g54
NtRp3237
(dp3238
g57
(dp3239
g84
g85
ssg66
g3228
sg59
(lp3240
S':'
asbag52
(g73
g54
NtRp3241
(dp3242
g57
(dp3243
sg66
g3228
sg59
(lp3244
g52
(g53
g54
NtRp3245
(dp3246
g57
(dp3247
g65
I5
ssg66
g3241
sg59
(lp3248
g52
(g61
g54
NtRp3249
(dp3250
g57
(dp3251
g65
I4
ssg66
Nsg59
(lp3252
sbasbasbasbag52
(g68
g54
NtRp3253
(dp3254
g57
(dp3255
sg66
g2808
sg59
(lp3256
g52
(g73
g54
NtRp3257
(dp3258
g57
(dp3259
g77
g78
ssg66
g3253
sg59
(lp3260
S'meta'
p3261
asbag52
(g73
g54
NtRp3262
(dp3263
g57
(dp3264
g84
g85
ssg66
g3253
sg59
(lp3265
S':'
asbag52
(g73
g54
NtRp3266
(dp3267
g57
(dp3268
sg66
g3253
sg59
(lp3269
g52
(g53
g54
NtRp3270
(dp3271
g57
(dp3272
g65
I5
ssg66
g3266
sg59
(lp3273
g52
(g61
g54
NtRp3274
(dp3275
g57
(dp3276
g65
I4
ssg66
Nsg59
(lp3277
sbasbasbasbag52
(g68
g54
NtRp3278
(dp3279
g57
(dp3280
sg66
g2808
sg59
(lp3281
g52
(g73
g54
NtRp3282
(dp3283
g57
(dp3284
g77
g78
ssg66
g3278
sg59
(lp3285
S'postprocessing'
p3286
asbag52
(g73
g54
NtRp3287
(dp3288
g57
(dp3289
g84
g85
ssg66
g3278
sg59
(lp3290
S':'
asbag52
(g73
g54
NtRp3291
(dp3292
g57
(dp3293
sg66
g3278
sg59
(lp3294
g52
(g53
g54
NtRp3295
(dp3296
g57
(dp3297
g65
I5
ssg66
g3291
sg59
(lp3298
g52
(g61
g54
NtRp3299
(dp3300
g57
(dp3301
g65
I4
ssg66
Nsg59
(lp3302
sbasbasbasbag52
(g68
g54
NtRp3303
(dp3304
g57
(dp3305
sg66
g2808
sg59
(lp3306
g52
(g73
g54
NtRp3307
(dp3308
g57
(dp3309
g77
g78
ssg66
g3303
sg59
(lp3310
S'session_filename'
p3311
asbag52
(g73
g54
NtRp3312
(dp3313
g57
(dp3314
g84
g85
ssg66
g3303
sg59
(lp3315
S':'
asbag52
(g73
g54
NtRp3316
(dp3317
g57
(dp3318
sg66
g3303
sg59
(lp3319
g52
(g53
g54
NtRp3320
(dp3321
g57
(dp3322
g65
I5
ssg66
g3316
sg59
(lp3323
S'C:\\Python32\\web2py_win\\web2py\\applications\\Casa_de_Apuestas\\sessions\\127.0.0.1-ec5c66f6-a410-45aa-9dc1-b0dc360af619'
p3324
asbasbasbag52
(g68
g54
NtRp3325
(dp3326
g57
(dp3327
sg66
g2808
sg59
(lp3328
g52
(g73
g54
NtRp3329
(dp3330
g57
(dp3331
g77
g78
ssg66
g3325
sg59
(lp3332
S'session_id'
p3333
asbag52
(g73
g54
NtRp3334
(dp3335
g57
(dp3336
g84
g85
ssg66
g3325
sg59
(lp3337
S':'
asbag52
(g73
g54
NtRp3338
(dp3339
g57
(dp3340
sg66
g3325
sg59
(lp3341
g52
(g53
g54
NtRp3342
(dp3343
g57
(dp3344
g65
I5
ssg66
g3338
sg59
(lp3345
S'127.0.0.1-ec5c66f6-a410-45aa-9dc1-b0dc360af619'
p3346
asbasbasbag52
(g68
g54
NtRp3347
(dp3348
g57
(dp3349
sg66
g2808
sg59
(lp3350
g52
(g73
g54
NtRp3351
(dp3352
g57
(dp3353
g77
g78
ssg66
g3347
sg59
(lp3354
S'session_id_name'
p3355
asbag52
(g73
g54
NtRp3356
(dp3357
g57
(dp3358
g84
g85
ssg66
g3347
sg59
(lp3359
S':'
asbag52
(g73
g54
NtRp3360
(dp3361
g57
(dp3362
sg66
g3347
sg59
(lp3363
g52
(g53
g54
NtRp3364
(dp3365
g57
(dp3366
g65
I5
ssg66
g3360
sg59
(lp3367
g2865
asbasbasbag52
(g68
g54
NtRp3368
(dp3369
g57
(dp3370
sg66
g2808
sg59
(lp3371
g52
(g73
g54
NtRp3372
(dp3373
g57
(dp3374
g77
g78
ssg66
g3368
sg59
(lp3375
S'session_new'
p3376
asbag52
(g73
g54
NtRp3377
(dp3378
g57
(dp3379
g84
g85
ssg66
g3368
sg59
(lp3380
S':'
asbag52
(g73
g54
NtRp3381
(dp3382
g57
(dp3383
sg66
g3368
sg59
(lp3384
g52
(g53
g54
NtRp3385
(dp3386
g57
(dp3387
g65
I5
ssg66
g3381
sg59
(lp3388
g1426
asbasbasbag52
(g68
g54
NtRp3389
(dp3390
g57
(dp3391
sg66
g2808
sg59
(lp3392
g52
(g73
g54
NtRp3393
(dp3394
g57
(dp3395
g77
g78
ssg66
g3389
sg59
(lp3396
S'status'
p3397
asbag52
(g73
g54
NtRp3398
(dp3399
g57
(dp3400
g84
g85
ssg66
g3389
sg59
(lp3401
S':'
asbag52
(g73
g54
NtRp3402
(dp3403
g57
(dp3404
sg66
g3389
sg59
(lp3405
g52
(g53
g54
NtRp3406
(dp3407
g57
(dp3408
g65
I5
ssg66
g3402
sg59
(lp3409
S'200'
p3410
asbasbasbag52
(g68
g54
NtRp3411
(dp3412
g57
(dp3413
sg66
g2808
sg59
(lp3414
g52
(g73
g54
NtRp3415
(dp3416
g57
(dp3417
g77
g78
ssg66
g3411
sg59
(lp3418
g2070
asbag52
(g73
g54
NtRp3419
(dp3420
g57
(dp3421
g84
g85
ssg66
g3411
sg59
(lp3422
S':'
asbag52
(g73
g54
NtRp3423
(dp3424
g57
(dp3425
sg66
g3411
sg59
(lp3426
g52
(g53
g54
NtRp3427
(dp3428
g57
(dp3429
g65
I5
ssg66
g3423
sg59
(lp3430
g2083
asbasbasbag52
(g68
g54
NtRp3431
(dp3432
g57
(dp3433
sg66
g2808
sg59
(lp3434
g52
(g73
g54
NtRp3435
(dp3436
g57
(dp3437
g77
g78
ssg66
g3431
sg59
(lp3438
S'view'
p3439
asbag52
(g73
g54
NtRp3440
(dp3441
g57
(dp3442
g84
g85
ssg66
g3431
sg59
(lp3443
S':'
asbag52
(g73
g54
NtRp3444
(dp3445
g57
(dp3446
sg66
g3431
sg59
(lp3447
g52
(g53
g54
NtRp3448
(dp3449
g57
(dp3450
g65
I5
ssg66
g3444
sg59
(lp3451
S'appadmin/index.html'
p3452
asbasbasbasbasbsS'locals'
p3453
(dp3454
S'a'
S"('CREATE TABLE eventosparticipantes(\\n    id INTEGE... ON DELETE CASCADE,\\n    limite_apuesta INTEGER\\n);',)"
p3455
sS'self'
p3456
S'<gluon.dal.SQLiteAdapter object at 0x0643EA50>'
p3457
sS'b'
g40
sS't0'
p3458
S'1321807966.6889999'
p3459
sssS'traceback'
p3460
S'Traceback (most recent call last):\n  File "gluon/restricted.py", line 194, in restricted\n  File "C:\\Python32\\web2py_win\\web2py\\applications\\Casa_de_Apuestas\\models\\db.py", line 31, in <module>\n  File "gluon/dal.py", line 4491, in define_table\n  File "gluon/dal.py", line 677, in create_table\n  File "gluon/dal.py", line 1299, in create_sequence_and_triggers\n  File "gluon/dal.py", line 1309, in execute\n  File "gluon/dal.py", line 1304, in log_execute\nOperationalError: table eventosparticipantes already exists\n'
p3461
s.