(dp1
S'output'
p2
S''
sS'layer'
p3
S'C:\\Python32\\web2py\\applications\\Casa_de_Apuestas\\controllers/appadmin.py'
p4
sS'code'
p5
S'# -*- coding: utf-8 -*-\n\n# ##########################################################\n# ## make sure administrator is on localhost\n# ###########################################################\n\nimport os\nimport socket\nimport datetime\nimport copy\nimport gluon.contenttype\nimport gluon.fileutils\n\n# ## critical --- make a copy of the environment\n\nglobal_env = copy.copy(globals())\nglobal_env[\'datetime\'] = datetime\n\nhttp_host = request.env.http_host.split(\':\')[0]\nremote_addr = request.env.remote_addr\ntry:\n    hosts = (http_host, socket.gethostname(),\n             socket.gethostbyname(http_host),\n             \'::1\',\'127.0.0.1\',\'::ffff:127.0.0.1\')\nexcept:\n    hosts = (http_host, )\n\nif request.env.http_x_forwarded_for or request.env.wsgi_url_scheme\\\n     in [\'https\', \'HTTPS\']:\n    session.secure()\nelif (remote_addr not in hosts) and (remote_addr != "127.0.0.1"):\n    raise HTTP(200, T(\'appadmin is disabled because insecure channel\'))\n\nif (request.application==\'admin\' and not session.authorized) or \\\n        (request.application!=\'admin\' and not gluon.fileutils.check_credentials(request)):\n    redirect(URL(\'admin\', \'default\', \'index\'))\n\nignore_rw = True\nresponse.view = \'appadmin.html\'\nresponse.menu = [[T(\'design\'), False, URL(\'admin\', \'default\', \'design\',\n                 args=[request.application])], [T(\'db\'), False,\n                 URL(\'index\')], [T(\'state\'), False,\n                 URL(\'state\')], [T(\'cache\'), False,\n                 URL(\'ccache\')]]\n\n# ##########################################################\n# ## auxiliary functions\n# ###########################################################\n\n\ndef get_databases(request):\n    dbs = {}\n    for (key, value) in global_env.items():\n        cond = False\n        try:\n            cond = isinstance(value, GQLDB)\n        except:\n            cond = isinstance(value, SQLDB)\n        if cond:\n            dbs[key] = value\n    return dbs\n\n\ndatabases = get_databases(None)\n\n\ndef eval_in_global_env(text):\n    exec (\'_ret=%s\' % text, {}, global_env)\n    return global_env[\'_ret\']\n\n\ndef get_database(request):\n    if request.args and request.args[0] in databases:\n        return eval_in_global_env(request.args[0])\n    else:\n        session.flash = T(\'invalid request\')\n        redirect(URL(\'index\'))\n\n\ndef get_table(request):\n    db = get_database(request)\n    if len(request.args) > 1 and request.args[1] in db.tables:\n        return (db, request.args[1])\n    else:\n        session.flash = T(\'invalid request\')\n        redirect(URL(\'index\'))\n\n\ndef get_query(request):\n    try:\n        return eval_in_global_env(request.vars.query)\n    except Exception:\n        return None\n\n\ndef query_by_table_type(tablename,db,request=request):\n    keyed = hasattr(db[tablename],\'_primarykey\')\n    if keyed:\n        firstkey = db[tablename][db[tablename]._primarykey[0]]\n        cond = \'>0\'\n        if firstkey.type in [\'string\', \'text\']:\n            cond = \'!=""\'\n        qry = \'%s.%s.%s%s\' % (request.args[0], request.args[1], firstkey.name, cond)\n    else:\n        qry = \'%s.%s.id>0\' % tuple(request.args[:2])\n    return qry\n\n\n\n# ##########################################################\n# ## list all databases and tables\n# ###########################################################\n\n\ndef index():\n    return dict(databases=databases)\n\n\n# ##########################################################\n# ## insert a new record\n# ###########################################################\n\n\ndef insert():\n    (db, table) = get_table(request)\n    form = SQLFORM(db[table], ignore_rw=ignore_rw)\n    if form.accepts(request.vars, session):\n        response.flash = T(\'new record inserted\')\n    return dict(form=form,table=db[table])\n\n\n# ##########################################################\n# ## list all records in table and insert new record\n# ###########################################################\n\n\ndef download():\n    import os\n    db = get_database(request)\n    return response.download(request,db)\n\ndef csv():\n    import gluon.contenttype\n    response.headers[\'Content-Type\'] = \\\n        gluon.contenttype.contenttype(\'.csv\')\n    db = get_database(request)\n    query = get_query(request)\n    if not query:\n        return None\n    response.headers[\'Content-disposition\'] = \'attachment; filename=%s_%s.csv\'\\\n         % tuple(request.vars.query.split(\'.\')[:2])\n    return str(db(query).select())\n\n\ndef import_csv(table, file):\n    table.import_from_csv_file(file)\n\ndef select():\n    import re\n    db = get_database(request)\n    dbname = request.args[0]\n    regex = re.compile(\'(?P<table>\\w+)\\.(?P<field>\\w+)=(?P<value>\\d+)\')\n    if len(request.args)>1 and hasattr(db[request.args[1]],\'_primarykey\'):\n        regex = re.compile(\'(?P<table>\\w+)\\.(?P<field>\\w+)=(?P<value>.+)\')\n    if request.vars.query:\n        match = regex.match(request.vars.query)\n        if match:\n            request.vars.query = \'%s.%s.%s==%s\' % (request.args[0],\n                    match.group(\'table\'), match.group(\'field\'),\n                    match.group(\'value\'))\n    else:\n        request.vars.query = session.last_query\n    query = get_query(request)\n    if request.vars.start:\n        start = int(request.vars.start)\n    else:\n        start = 0\n    nrows = 0\n    stop = start + 100\n    table = None\n    rows = []\n    orderby = request.vars.orderby\n    if orderby:\n        orderby = dbname + \'.\' + orderby\n        if orderby == session.last_orderby:\n            if orderby[0] == \'~\':\n                orderby = orderby[1:]\n            else:\n                orderby = \'~\' + orderby\n    session.last_orderby = orderby\n    session.last_query = request.vars.query\n    form = FORM(TABLE(TR(T(\'Query:\'), \'\', INPUT(_style=\'width:400px\',\n                _name=\'query\', _value=request.vars.query or \'\',\n                requires=IS_NOT_EMPTY(error_message=T("Cannot be empty")))), TR(T(\'Update:\'),\n                INPUT(_name=\'update_check\', _type=\'checkbox\',\n                value=False), INPUT(_style=\'width:400px\',\n                _name=\'update_fields\', _value=request.vars.update_fields\n                 or \'\')), TR(T(\'Delete:\'), INPUT(_name=\'delete_check\',\n                _class=\'delete\', _type=\'checkbox\', value=False), \'\'),\n                TR(\'\', \'\', INPUT(_type=\'submit\', _value=\'submit\'))),\n                _action=URL(r=request,args=request.args))\n    if request.vars.csvfile != None:\n        try:\n            import_csv(db[request.vars.table],\n                       request.vars.csvfile.file)\n            response.flash = T(\'data uploaded\')\n        except Exception, e:\n            response.flash = DIV(T(\'unable to parse csv file\'),PRE(str(e)))\n    if form.accepts(request.vars, formname=None):\n#         regex = re.compile(request.args[0] + \'\\.(?P<table>\\w+)\\.id\\>0\')\n        regex = re.compile(request.args[0] + \'\\.(?P<table>\\w+)\\..+\')\n\n        match = regex.match(form.vars.query.strip())\n        if match:\n            table = match.group(\'table\')\n        try:\n            nrows = db(query).count()\n            if form.vars.update_check and form.vars.update_fields:\n                db(query).update(**eval_in_global_env(\'dict(%s)\'\n                                  % form.vars.update_fields))\n                response.flash = T(\'%s rows updated\', nrows)\n            elif form.vars.delete_check:\n                db(query).delete()\n                response.flash = T(\'%s rows deleted\', nrows)\n            nrows = db(query).count()\n            if orderby:\n                rows = db(query).select(limitby=(start, stop),\n                        orderby=eval_in_global_env(orderby))\n            else:\n                rows = db(query).select(limitby=(start, stop))\n        except Exception, e:\n            (rows, nrows) = ([], 0)\n            response.flash = DIV(T(\'Invalid Query\'),PRE(str(e)))\n    return dict(\n        form=form,\n        table=table,\n        start=start,\n        stop=stop,\n        nrows=nrows,\n        rows=rows,\n        query=request.vars.query,\n        )\n\n\n# ##########################################################\n# ## edit delete one record\n# ###########################################################\n\n\ndef update():\n    (db, table) = get_table(request)\n    keyed = hasattr(db[table],\'_primarykey\')\n    record = None\n    if keyed:\n        key = [f for f in request.vars if f in db[table]._primarykey]\n        if key:\n            record = db(db[table][key[0]] == request.vars[key[0]]).select().first()\n    else:\n        record = db(db[table].id == request.args(2)).select().first()\n\n    if not record:\n        qry = query_by_table_type(table, db)\n        session.flash = T(\'record does not exist\')\n        redirect(URL(\'select\', args=request.args[:1],\n                     vars=dict(query=qry)))\n\n    if keyed:\n        for k in db[table]._primarykey:\n            db[table][k].writable=False\n\n    form = SQLFORM(db[table], record, deletable=True, delete_label=T(\'Check to delete\'),\n                   ignore_rw=ignore_rw and not keyed,\n                   linkto=URL(\'select\',\n                   args=request.args[:1]), upload=URL(r=request,\n                   f=\'download\', args=request.args[:1]))\n\n    if form.accepts(request.vars, session):\n        session.flash = T(\'done!\')\n        qry = query_by_table_type(table, db)\n        redirect(URL(\'select\', args=request.args[:1],\n                 vars=dict(query=qry)))\n    return dict(form=form,table=db[table])\n\n\n# ##########################################################\n# ## get global variables\n# ###########################################################\n\n\ndef state():\n    return dict()\n\ndef ccache():\n    form = FORM(\n        P(TAG.BUTTON("Clear CACHE?", _type="submit", _name="yes", _value="yes")),\n        P(TAG.BUTTON("Clear RAM", _type="submit", _name="ram", _value="ram")),\n        P(TAG.BUTTON("Clear DISK", _type="submit", _name="disk", _value="disk")),\n    )\n\n    if form.accepts(request.vars, session):\n        clear_ram = False\n        clear_disk = False\n        session.flash = ""\n        if request.vars.yes:\n            clear_ram = clear_disk = True\n        if request.vars.ram:\n            clear_ram = True\n        if request.vars.disk:\n            clear_disk = True\n\n        if clear_ram:\n            cache.ram.clear()\n            session.flash += "Ram Cleared "\n        if clear_disk:\n            cache.disk.clear()\n            session.flash += "Disk Cleared"\n\n        redirect(URL(r=request))\n\n    try:\n        from guppy import hpy; hp=hpy()\n    except ImportError:\n        hp = False\n\n    import shelve, os, copy, time, math\n    from gluon import portalocker\n\n    ram = {\n        \'bytes\': 0,\n        \'objects\': 0,\n        \'hits\': 0,\n        \'misses\': 0,\n        \'ratio\': 0,\n        \'oldest\': time.time()\n    }\n    disk = copy.copy(ram)\n    total = copy.copy(ram)\n\n    for key, value in cache.ram.storage.items():\n        if isinstance(value, dict):\n            ram[\'hits\'] = value[\'hit_total\'] - value[\'misses\']\n            ram[\'misses\'] = value[\'misses\']\n            try:\n                ram[\'ratio\'] = ram[\'hits\'] * 100 / value[\'hit_total\']\n            except (KeyError, ZeroDivisionError):\n                ram[\'ratio\'] = 0\n        else:\n            if hp:\n                ram[\'bytes\'] += hp.iso(value[1]).size\n                ram[\'objects\'] += hp.iso(value[1]).count\n\n                if value[0] < ram[\'oldest\']:\n                    ram[\'oldest\'] = value[0]\n\n    locker = open(os.path.join(request.folder,\n                                        \'cache/cache.lock\'), \'a\')\n    portalocker.lock(locker, portalocker.LOCK_EX)\n    disk_storage = shelve.open(os.path.join(request.folder, \'cache/cache.shelve\'))\n    try:\n        for key, value in disk_storage.items():\n            if isinstance(value, dict):\n                disk[\'hits\'] = value[\'hit_total\'] - value[\'misses\']\n                disk[\'misses\'] = value[\'misses\']\n                try:\n                    disk[\'ratio\'] = disk[\'hits\'] * 100 / value[\'hit_total\']\n                except (KeyError, ZeroDivisionError):\n                    disk[\'ratio\'] = 0\n            else:\n                if hp:\n                    disk[\'bytes\'] += hp.iso(value[1]).size\n                    disk[\'objects\'] += hp.iso(value[1]).count\n                    if value[0] < disk[\'oldest\']:\n                        disk[\'oldest\'] = value[0]\n    finally:\n        portalocker.unlock(locker)\n        locker.close()\n        disk_storage.close()\n\n    total[\'bytes\'] = ram[\'bytes\'] + disk[\'bytes\']\n    total[\'objects\'] = ram[\'objects\'] + disk[\'objects\']\n    total[\'hits\'] = ram[\'hits\'] + disk[\'hits\']\n    total[\'misses\'] = ram[\'misses\'] + disk[\'misses\']\n    try:\n        total[\'ratio\'] = total[\'hits\'] * 100 / (total[\'hits\'] + total[\'misses\'])\n    except (KeyError, ZeroDivisionError):\n        total[\'ratio\'] = 0\n\n    if disk[\'oldest\'] < ram[\'oldest\']:\n        total[\'oldest\'] = disk[\'oldest\']\n    else:\n        total[\'oldest\'] = ram[\'oldest\']\n\n    def GetInHMS(seconds):\n        hours = math.floor(seconds / 3600)\n        seconds -= hours * 3600\n        minutes = math.floor(seconds / 60)\n        seconds -= minutes * 60\n        seconds = math.floor(seconds)\n\n        return (hours, minutes, seconds)\n\n    ram[\'oldest\'] = GetInHMS(time.time() - ram[\'oldest\'])\n    disk[\'oldest\'] = GetInHMS(time.time() - disk[\'oldest\'])\n    total[\'oldest\'] = GetInHMS(time.time() - total[\'oldest\'])\n\n    return dict(form=form, total=total,\n                ram=ram, disk=disk)\n\n\nresponse._vars=response._caller(insert)\n'
p6
sS'snapshot'
p7
(dp8
S'exception'
p9
(dp10
S'__hash__'
p11
S"<method-wrapper '__hash__' of OperationalError object at 0x066F7B70>"
p12
sS'__module__'
p13
S"'sqlite3'"
p14
sS'__reduce_ex__'
p15
S'<built-in method __reduce_ex__ of OperationalError object at 0x066F7B70>'
p16
sS'__getslice__'
p17
S"<method-wrapper '__getslice__' of OperationalError object at 0x066F7B70>"
p18
sS'__getitem__'
p19
S"<method-wrapper '__getitem__' of OperationalError object at 0x066F7B70>"
p20
sS'__setstate__'
p21
S'<built-in method __setstate__ of OperationalError object at 0x066F7B70>'
p22
sS'__reduce__'
p23
S'<built-in method __reduce__ of OperationalError object at 0x066F7B70>'
p24
sS'__str__'
p25
S"<method-wrapper '__str__' of OperationalError object at 0x066F7B70>"
p26
sS'args'
p27
S"('no such table: eventos_participantes',)"
p28
sS'__getattribute__'
p29
S"<method-wrapper '__getattribute__' of OperationalError object at 0x066F7B70>"
p30
sS'__class__'
p31
S"<class 'sqlite3.OperationalError'>"
p32
sS'__delattr__'
p33
S"<method-wrapper '__delattr__' of OperationalError object at 0x066F7B70>"
p34
sS'__repr__'
p35
S"<method-wrapper '__repr__' of OperationalError object at 0x066F7B70>"
p36
sS'__setattr__'
p37
S"<method-wrapper '__setattr__' of OperationalError object at 0x066F7B70>"
p38
sS'__dict__'
p39
S'{}'
p40
sS'__weakref__'
p41
S'None'
p42
sS'__doc__'
p43
S'None'
p44
sS'__init__'
p45
S"<method-wrapper '__init__' of OperationalError object at 0x066F7B70>"
p46
sS'__new__'
p47
S'<built-in method __new__ of type object at 0x1E1CCCB0>'
p48
ssS'evalue'
p49
S'no such table: eventos_participantes'
p50
sS'request'
p51
ccopy_reg
_reconstructor
p52
(cgluon.html
BEAUTIFY
p53
c__builtin__
object
p54
NtRp55
(dp56
S'attributes'
p57
(dp58
sS'components'
p59
(lp60
g52
(cgluon.html
TABLE
p61
g54
NtRp62
(dp63
g57
(dp64
S'level'
p65
I5
ssS'parent'
p66
Nsg59
(lp67
g52
(cgluon.html
TR
p68
g54
NtRp69
(dp70
g57
(dp71
sg66
g62
sg59
(lp72
g52
(cgluon.html
TD
p73
g54
NtRp74
(dp75
g57
(dp76
S'_style'
p77
S'font-weight:bold;'
p78
ssg66
g69
sg59
(lp79
S'ajax'
p80
asbag52
(g73
g54
NtRp81
(dp82
g57
(dp83
S'_valign'
p84
S'top'
p85
ssg66
g69
sg59
(lp86
S':'
asbag52
(g73
g54
NtRp87
(dp88
g57
(dp89
sg66
g69
sg59
(lp90
g52
(g53
g54
NtRp91
(dp92
g57
(dp93
g65
I5
ssg66
g87
sg59
(lp94
S'False'
p95
asbasbasbag52
(g68
g54
NtRp96
(dp97
g57
(dp98
sg66
g62
sg59
(lp99
g52
(g73
g54
NtRp100
(dp101
g57
(dp102
g77
g78
ssg66
g96
sg59
(lp103
S'application'
p104
asbag52
(g73
g54
NtRp105
(dp106
g57
(dp107
g84
g85
ssg66
g96
sg59
(lp108
S':'
asbag52
(g73
g54
NtRp109
(dp110
g57
(dp111
sg66
g96
sg59
(lp112
g52
(g53
g54
NtRp113
(dp114
g57
(dp115
g65
I5
ssg66
g109
sg59
(lp116
S'Casa_de_Apuestas'
p117
asbasbasbag52
(g68
g54
NtRp118
(dp119
g57
(dp120
sg66
g62
sg59
(lp121
g52
(g73
g54
NtRp122
(dp123
g57
(dp124
g77
g78
ssg66
g118
sg59
(lp125
g27
asbag52
(g73
g54
NtRp126
(dp127
g57
(dp128
g84
g85
ssg66
g118
sg59
(lp129
S':'
asbag52
(g73
g54
NtRp130
(dp131
g57
(dp132
sg66
g118
sg59
(lp133
g52
(g53
g54
NtRp134
(dp135
g57
(dp136
g65
I5
ssg66
g130
sg59
(lp137
g52
(g61
g54
NtRp138
(dp139
g57
(dp140
g65
I4
ssg66
Nsg59
(lp141
g52
(g68
g54
NtRp142
(dp143
g57
(dp144
sg66
g138
sg59
(lp145
g52
(g73
g54
NtRp146
(dp147
g57
(dp148
sg66
g142
sg59
(lp149
g52
(g53
g54
NtRp150
(dp151
g57
(dp152
g65
I4
ssg66
g146
sg59
(lp153
S'db'
p154
asbasbasbag52
(g68
g54
NtRp155
(dp156
g57
(dp157
sg66
g138
sg59
(lp158
g52
(g73
g54
NtRp159
(dp160
g57
(dp161
sg66
g155
sg59
(lp162
g52
(g53
g54
NtRp163
(dp164
g57
(dp165
g65
I4
ssg66
g159
sg59
(lp166
S'eventos_participantes'
p167
asbasbasbasbasbasbasbag52
(g68
g54
NtRp168
(dp169
g57
(dp170
sg66
g62
sg59
(lp171
g52
(g73
g54
NtRp172
(dp173
g57
(dp174
g77
g78
ssg66
g168
sg59
(lp175
S'body'
p176
asbag52
(g73
g54
NtRp177
(dp178
g57
(dp179
g84
g85
ssg66
g168
sg59
(lp180
S':'
asbag52
(g73
g54
NtRp181
(dp182
g57
(dp183
sg66
g168
sg59
(lp184
g52
(g53
g54
NtRp185
(dp186
g57
(dp187
g65
I5
ssg66
g181
sg59
(lp188
S"<open file '<fdopen>', mode 'w+b' at 0x02ED4218>"
p189
asbasbasbag52
(g68
g54
NtRp190
(dp191
g57
(dp192
sg66
g62
sg59
(lp193
g52
(g73
g54
NtRp194
(dp195
g57
(dp196
g77
g78
ssg66
g190
sg59
(lp197
S'client'
p198
asbag52
(g73
g54
NtRp199
(dp200
g57
(dp201
g84
g85
ssg66
g190
sg59
(lp202
S':'
asbag52
(g73
g54
NtRp203
(dp204
g57
(dp205
sg66
g190
sg59
(lp206
g52
(g53
g54
NtRp207
(dp208
g57
(dp209
g65
I5
ssg66
g203
sg59
(lp210
S'127.0.0.1'
p211
asbasbasbag52
(g68
g54
NtRp212
(dp213
g57
(dp214
sg66
g62
sg59
(lp215
g52
(g73
g54
NtRp216
(dp217
g57
(dp218
g77
g78
ssg66
g212
sg59
(lp219
S'controller'
p220
asbag52
(g73
g54
NtRp221
(dp222
g57
(dp223
g84
g85
ssg66
g212
sg59
(lp224
S':'
asbag52
(g73
g54
NtRp225
(dp226
g57
(dp227
sg66
g212
sg59
(lp228
g52
(g53
g54
NtRp229
(dp230
g57
(dp231
g65
I5
ssg66
g225
sg59
(lp232
S'appadmin'
p233
asbasbasbag52
(g68
g54
NtRp234
(dp235
g57
(dp236
sg66
g62
sg59
(lp237
g52
(g73
g54
NtRp238
(dp239
g57
(dp240
g77
g78
ssg66
g234
sg59
(lp241
S'cookies'
p242
asbag52
(g73
g54
NtRp243
(dp244
g57
(dp245
g84
g85
ssg66
g234
sg59
(lp246
S':'
asbag52
(g73
g54
NtRp247
(dp248
g57
(dp249
sg66
g234
sg59
(lp250
g52
(g53
g54
NtRp251
(dp252
g57
(dp253
g65
I5
ssg66
g247
sg59
(lp254
g52
(g61
g54
NtRp255
(dp256
g57
(dp257
g65
I4
ssg66
Nsg59
(lp258
g52
(g68
g54
NtRp259
(dp260
g57
(dp261
sg66
g255
sg59
(lp262
g52
(g73
g54
NtRp263
(dp264
g57
(dp265
g77
g78
ssg66
g259
sg59
(lp266
S'session_id_admin'
p267
asbag52
(g73
g54
NtRp268
(dp269
g57
(dp270
g84
g85
ssg66
g259
sg59
(lp271
S':'
asbag52
(g73
g54
NtRp272
(dp273
g57
(dp274
sg66
g259
sg59
(lp275
g52
(g53
g54
NtRp276
(dp277
g57
(dp278
g65
I4
ssg66
g272
sg59
(lp279
g52
(g61
g54
NtRp280
(dp281
g57
(dp282
g65
I3
ssg66
Nsg59
(lp283
g52
(g68
g54
NtRp284
(dp285
g57
(dp286
sg66
g280
sg59
(lp287
g52
(g73
g54
NtRp288
(dp289
g57
(dp290
g77
g78
ssg66
g284
sg59
(lp291
S'comment'
p292
asbag52
(g73
g54
NtRp293
(dp294
g57
(dp295
g84
g85
ssg66
g284
sg59
(lp296
S':'
asbag52
(g73
g54
NtRp297
(dp298
g57
(dp299
sg66
g284
sg59
(lp300
g52
(g53
g54
NtRp301
(dp302
g57
(dp303
g65
I3
ssg66
g297
sg59
(lp304
S''
asbasbasbag52
(g68
g54
NtRp305
(dp306
g57
(dp307
sg66
g280
sg59
(lp308
g52
(g73
g54
NtRp309
(dp310
g57
(dp311
g77
g78
ssg66
g305
sg59
(lp312
S'domain'
p313
asbag52
(g73
g54
NtRp314
(dp315
g57
(dp316
g84
g85
ssg66
g305
sg59
(lp317
S':'
asbag52
(g73
g54
NtRp318
(dp319
g57
(dp320
sg66
g305
sg59
(lp321
g52
(g53
g54
NtRp322
(dp323
g57
(dp324
g65
I3
ssg66
g318
sg59
(lp325
S''
asbasbasbag52
(g68
g54
NtRp326
(dp327
g57
(dp328
sg66
g280
sg59
(lp329
g52
(g73
g54
NtRp330
(dp331
g57
(dp332
g77
g78
ssg66
g326
sg59
(lp333
S'expires'
p334
asbag52
(g73
g54
NtRp335
(dp336
g57
(dp337
g84
g85
ssg66
g326
sg59
(lp338
S':'
asbag52
(g73
g54
NtRp339
(dp340
g57
(dp341
sg66
g326
sg59
(lp342
g52
(g53
g54
NtRp343
(dp344
g57
(dp345
g65
I3
ssg66
g339
sg59
(lp346
S''
asbasbasbag52
(g68
g54
NtRp347
(dp348
g57
(dp349
sg66
g280
sg59
(lp350
g52
(g73
g54
NtRp351
(dp352
g57
(dp353
g77
g78
ssg66
g347
sg59
(lp354
S'max-age'
p355
asbag52
(g73
g54
NtRp356
(dp357
g57
(dp358
g84
g85
ssg66
g347
sg59
(lp359
S':'
asbag52
(g73
g54
NtRp360
(dp361
g57
(dp362
sg66
g347
sg59
(lp363
g52
(g53
g54
NtRp364
(dp365
g57
(dp366
g65
I3
ssg66
g360
sg59
(lp367
S''
asbasbasbag52
(g68
g54
NtRp368
(dp369
g57
(dp370
sg66
g280
sg59
(lp371
g52
(g73
g54
NtRp372
(dp373
g57
(dp374
g77
g78
ssg66
g368
sg59
(lp375
S'path'
p376
asbag52
(g73
g54
NtRp377
(dp378
g57
(dp379
g84
g85
ssg66
g368
sg59
(lp380
S':'
asbag52
(g73
g54
NtRp381
(dp382
g57
(dp383
sg66
g368
sg59
(lp384
g52
(g53
g54
NtRp385
(dp386
g57
(dp387
g65
I3
ssg66
g381
sg59
(lp388
S''
asbasbasbag52
(g68
g54
NtRp389
(dp390
g57
(dp391
sg66
g280
sg59
(lp392
g52
(g73
g54
NtRp393
(dp394
g57
(dp395
g77
g78
ssg66
g389
sg59
(lp396
S'secure'
p397
asbag52
(g73
g54
NtRp398
(dp399
g57
(dp400
g84
g85
ssg66
g389
sg59
(lp401
S':'
asbag52
(g73
g54
NtRp402
(dp403
g57
(dp404
sg66
g389
sg59
(lp405
g52
(g53
g54
NtRp406
(dp407
g57
(dp408
g65
I3
ssg66
g402
sg59
(lp409
S''
asbasbasbag52
(g68
g54
NtRp410
(dp411
g57
(dp412
sg66
g280
sg59
(lp413
g52
(g73
g54
NtRp414
(dp415
g57
(dp416
g77
g78
ssg66
g410
sg59
(lp417
S'version'
p418
asbag52
(g73
g54
NtRp419
(dp420
g57
(dp421
g84
g85
ssg66
g410
sg59
(lp422
S':'
asbag52
(g73
g54
NtRp423
(dp424
g57
(dp425
sg66
g410
sg59
(lp426
g52
(g53
g54
NtRp427
(dp428
g57
(dp429
g65
I3
ssg66
g423
sg59
(lp430
S''
asbasbasbasbasbasbasbag52
(g68
g54
NtRp431
(dp432
g57
(dp433
sg66
g255
sg59
(lp434
g52
(g73
g54
NtRp435
(dp436
g57
(dp437
g77
g78
ssg66
g431
sg59
(lp438
S'session_id_casa_de_apuestas'
p439
asbag52
(g73
g54
NtRp440
(dp441
g57
(dp442
g84
g85
ssg66
g431
sg59
(lp443
S':'
asbag52
(g73
g54
NtRp444
(dp445
g57
(dp446
sg66
g431
sg59
(lp447
g52
(g53
g54
NtRp448
(dp449
g57
(dp450
g65
I4
ssg66
g444
sg59
(lp451
g52
(g61
g54
NtRp452
(dp453
g57
(dp454
g65
I3
ssg66
Nsg59
(lp455
g52
(g68
g54
NtRp456
(dp457
g57
(dp458
sg66
g452
sg59
(lp459
g52
(g73
g54
NtRp460
(dp461
g57
(dp462
g77
g78
ssg66
g456
sg59
(lp463
g292
asbag52
(g73
g54
NtRp464
(dp465
g57
(dp466
g84
g85
ssg66
g456
sg59
(lp467
S':'
asbag52
(g73
g54
NtRp468
(dp469
g57
(dp470
sg66
g456
sg59
(lp471
g52
(g53
g54
NtRp472
(dp473
g57
(dp474
g65
I3
ssg66
g468
sg59
(lp475
S''
asbasbasbag52
(g68
g54
NtRp476
(dp477
g57
(dp478
sg66
g452
sg59
(lp479
g52
(g73
g54
NtRp480
(dp481
g57
(dp482
g77
g78
ssg66
g476
sg59
(lp483
g313
asbag52
(g73
g54
NtRp484
(dp485
g57
(dp486
g84
g85
ssg66
g476
sg59
(lp487
S':'
asbag52
(g73
g54
NtRp488
(dp489
g57
(dp490
sg66
g476
sg59
(lp491
g52
(g53
g54
NtRp492
(dp493
g57
(dp494
g65
I3
ssg66
g488
sg59
(lp495
S''
asbasbasbag52
(g68
g54
NtRp496
(dp497
g57
(dp498
sg66
g452
sg59
(lp499
g52
(g73
g54
NtRp500
(dp501
g57
(dp502
g77
g78
ssg66
g496
sg59
(lp503
g334
asbag52
(g73
g54
NtRp504
(dp505
g57
(dp506
g84
g85
ssg66
g496
sg59
(lp507
S':'
asbag52
(g73
g54
NtRp508
(dp509
g57
(dp510
sg66
g496
sg59
(lp511
g52
(g53
g54
NtRp512
(dp513
g57
(dp514
g65
I3
ssg66
g508
sg59
(lp515
S''
asbasbasbag52
(g68
g54
NtRp516
(dp517
g57
(dp518
sg66
g452
sg59
(lp519
g52
(g73
g54
NtRp520
(dp521
g57
(dp522
g77
g78
ssg66
g516
sg59
(lp523
g355
asbag52
(g73
g54
NtRp524
(dp525
g57
(dp526
g84
g85
ssg66
g516
sg59
(lp527
S':'
asbag52
(g73
g54
NtRp528
(dp529
g57
(dp530
sg66
g516
sg59
(lp531
g52
(g53
g54
NtRp532
(dp533
g57
(dp534
g65
I3
ssg66
g528
sg59
(lp535
S''
asbasbasbag52
(g68
g54
NtRp536
(dp537
g57
(dp538
sg66
g452
sg59
(lp539
g52
(g73
g54
NtRp540
(dp541
g57
(dp542
g77
g78
ssg66
g536
sg59
(lp543
g376
asbag52
(g73
g54
NtRp544
(dp545
g57
(dp546
g84
g85
ssg66
g536
sg59
(lp547
S':'
asbag52
(g73
g54
NtRp548
(dp549
g57
(dp550
sg66
g536
sg59
(lp551
g52
(g53
g54
NtRp552
(dp553
g57
(dp554
g65
I3
ssg66
g548
sg59
(lp555
S''
asbasbasbag52
(g68
g54
NtRp556
(dp557
g57
(dp558
sg66
g452
sg59
(lp559
g52
(g73
g54
NtRp560
(dp561
g57
(dp562
g77
g78
ssg66
g556
sg59
(lp563
g397
asbag52
(g73
g54
NtRp564
(dp565
g57
(dp566
g84
g85
ssg66
g556
sg59
(lp567
S':'
asbag52
(g73
g54
NtRp568
(dp569
g57
(dp570
sg66
g556
sg59
(lp571
g52
(g53
g54
NtRp572
(dp573
g57
(dp574
g65
I3
ssg66
g568
sg59
(lp575
S''
asbasbasbag52
(g68
g54
NtRp576
(dp577
g57
(dp578
sg66
g452
sg59
(lp579
g52
(g73
g54
NtRp580
(dp581
g57
(dp582
g77
g78
ssg66
g576
sg59
(lp583
g418
asbag52
(g73
g54
NtRp584
(dp585
g57
(dp586
g84
g85
ssg66
g576
sg59
(lp587
S':'
asbag52
(g73
g54
NtRp588
(dp589
g57
(dp590
sg66
g576
sg59
(lp591
g52
(g53
g54
NtRp592
(dp593
g57
(dp594
g65
I3
ssg66
g588
sg59
(lp595
S''
asbasbasbasbasbasbasbag52
(g68
g54
NtRp596
(dp597
g57
(dp598
sg66
g255
sg59
(lp599
g52
(g73
g54
NtRp600
(dp601
g57
(dp602
g77
g78
ssg66
g596
sg59
(lp603
S'session_id_images'
p604
asbag52
(g73
g54
NtRp605
(dp606
g57
(dp607
g84
g85
ssg66
g596
sg59
(lp608
S':'
asbag52
(g73
g54
NtRp609
(dp610
g57
(dp611
sg66
g596
sg59
(lp612
g52
(g53
g54
NtRp613
(dp614
g57
(dp615
g65
I4
ssg66
g609
sg59
(lp616
g52
(g61
g54
NtRp617
(dp618
g57
(dp619
g65
I3
ssg66
Nsg59
(lp620
g52
(g68
g54
NtRp621
(dp622
g57
(dp623
sg66
g617
sg59
(lp624
g52
(g73
g54
NtRp625
(dp626
g57
(dp627
g77
g78
ssg66
g621
sg59
(lp628
g292
asbag52
(g73
g54
NtRp629
(dp630
g57
(dp631
g84
g85
ssg66
g621
sg59
(lp632
S':'
asbag52
(g73
g54
NtRp633
(dp634
g57
(dp635
sg66
g621
sg59
(lp636
g52
(g53
g54
NtRp637
(dp638
g57
(dp639
g65
I3
ssg66
g633
sg59
(lp640
S''
asbasbasbag52
(g68
g54
NtRp641
(dp642
g57
(dp643
sg66
g617
sg59
(lp644
g52
(g73
g54
NtRp645
(dp646
g57
(dp647
g77
g78
ssg66
g641
sg59
(lp648
g313
asbag52
(g73
g54
NtRp649
(dp650
g57
(dp651
g84
g85
ssg66
g641
sg59
(lp652
S':'
asbag52
(g73
g54
NtRp653
(dp654
g57
(dp655
sg66
g641
sg59
(lp656
g52
(g53
g54
NtRp657
(dp658
g57
(dp659
g65
I3
ssg66
g653
sg59
(lp660
S''
asbasbasbag52
(g68
g54
NtRp661
(dp662
g57
(dp663
sg66
g617
sg59
(lp664
g52
(g73
g54
NtRp665
(dp666
g57
(dp667
g77
g78
ssg66
g661
sg59
(lp668
g334
asbag52
(g73
g54
NtRp669
(dp670
g57
(dp671
g84
g85
ssg66
g661
sg59
(lp672
S':'
asbag52
(g73
g54
NtRp673
(dp674
g57
(dp675
sg66
g661
sg59
(lp676
g52
(g53
g54
NtRp677
(dp678
g57
(dp679
g65
I3
ssg66
g673
sg59
(lp680
S''
asbasbasbag52
(g68
g54
NtRp681
(dp682
g57
(dp683
sg66
g617
sg59
(lp684
g52
(g73
g54
NtRp685
(dp686
g57
(dp687
g77
g78
ssg66
g681
sg59
(lp688
g355
asbag52
(g73
g54
NtRp689
(dp690
g57
(dp691
g84
g85
ssg66
g681
sg59
(lp692
S':'
asbag52
(g73
g54
NtRp693
(dp694
g57
(dp695
sg66
g681
sg59
(lp696
g52
(g53
g54
NtRp697
(dp698
g57
(dp699
g65
I3
ssg66
g693
sg59
(lp700
S''
asbasbasbag52
(g68
g54
NtRp701
(dp702
g57
(dp703
sg66
g617
sg59
(lp704
g52
(g73
g54
NtRp705
(dp706
g57
(dp707
g77
g78
ssg66
g701
sg59
(lp708
g376
asbag52
(g73
g54
NtRp709
(dp710
g57
(dp711
g84
g85
ssg66
g701
sg59
(lp712
S':'
asbag52
(g73
g54
NtRp713
(dp714
g57
(dp715
sg66
g701
sg59
(lp716
g52
(g53
g54
NtRp717
(dp718
g57
(dp719
g65
I3
ssg66
g713
sg59
(lp720
S''
asbasbasbag52
(g68
g54
NtRp721
(dp722
g57
(dp723
sg66
g617
sg59
(lp724
g52
(g73
g54
NtRp725
(dp726
g57
(dp727
g77
g78
ssg66
g721
sg59
(lp728
g397
asbag52
(g73
g54
NtRp729
(dp730
g57
(dp731
g84
g85
ssg66
g721
sg59
(lp732
S':'
asbag52
(g73
g54
NtRp733
(dp734
g57
(dp735
sg66
g721
sg59
(lp736
g52
(g53
g54
NtRp737
(dp738
g57
(dp739
g65
I3
ssg66
g733
sg59
(lp740
S''
asbasbasbag52
(g68
g54
NtRp741
(dp742
g57
(dp743
sg66
g617
sg59
(lp744
g52
(g73
g54
NtRp745
(dp746
g57
(dp747
g77
g78
ssg66
g741
sg59
(lp748
g418
asbag52
(g73
g54
NtRp749
(dp750
g57
(dp751
g84
g85
ssg66
g741
sg59
(lp752
S':'
asbag52
(g73
g54
NtRp753
(dp754
g57
(dp755
sg66
g741
sg59
(lp756
g52
(g53
g54
NtRp757
(dp758
g57
(dp759
g65
I3
ssg66
g753
sg59
(lp760
S''
asbasbasbasbasbasbasbag52
(g68
g54
NtRp761
(dp762
g57
(dp763
sg66
g255
sg59
(lp764
g52
(g73
g54
NtRp765
(dp766
g57
(dp767
g77
g78
ssg66
g761
sg59
(lp768
S'session_id_welcome'
p769
asbag52
(g73
g54
NtRp770
(dp771
g57
(dp772
g84
g85
ssg66
g761
sg59
(lp773
S':'
asbag52
(g73
g54
NtRp774
(dp775
g57
(dp776
sg66
g761
sg59
(lp777
g52
(g53
g54
NtRp778
(dp779
g57
(dp780
g65
I4
ssg66
g774
sg59
(lp781
g52
(g61
g54
NtRp782
(dp783
g57
(dp784
g65
I3
ssg66
Nsg59
(lp785
g52
(g68
g54
NtRp786
(dp787
g57
(dp788
sg66
g782
sg59
(lp789
g52
(g73
g54
NtRp790
(dp791
g57
(dp792
g77
g78
ssg66
g786
sg59
(lp793
g292
asbag52
(g73
g54
NtRp794
(dp795
g57
(dp796
g84
g85
ssg66
g786
sg59
(lp797
S':'
asbag52
(g73
g54
NtRp798
(dp799
g57
(dp800
sg66
g786
sg59
(lp801
g52
(g53
g54
NtRp802
(dp803
g57
(dp804
g65
I3
ssg66
g798
sg59
(lp805
S''
asbasbasbag52
(g68
g54
NtRp806
(dp807
g57
(dp808
sg66
g782
sg59
(lp809
g52
(g73
g54
NtRp810
(dp811
g57
(dp812
g77
g78
ssg66
g806
sg59
(lp813
g313
asbag52
(g73
g54
NtRp814
(dp815
g57
(dp816
g84
g85
ssg66
g806
sg59
(lp817
S':'
asbag52
(g73
g54
NtRp818
(dp819
g57
(dp820
sg66
g806
sg59
(lp821
g52
(g53
g54
NtRp822
(dp823
g57
(dp824
g65
I3
ssg66
g818
sg59
(lp825
S''
asbasbasbag52
(g68
g54
NtRp826
(dp827
g57
(dp828
sg66
g782
sg59
(lp829
g52
(g73
g54
NtRp830
(dp831
g57
(dp832
g77
g78
ssg66
g826
sg59
(lp833
g334
asbag52
(g73
g54
NtRp834
(dp835
g57
(dp836
g84
g85
ssg66
g826
sg59
(lp837
S':'
asbag52
(g73
g54
NtRp838
(dp839
g57
(dp840
sg66
g826
sg59
(lp841
g52
(g53
g54
NtRp842
(dp843
g57
(dp844
g65
I3
ssg66
g838
sg59
(lp845
S''
asbasbasbag52
(g68
g54
NtRp846
(dp847
g57
(dp848
sg66
g782
sg59
(lp849
g52
(g73
g54
NtRp850
(dp851
g57
(dp852
g77
g78
ssg66
g846
sg59
(lp853
g355
asbag52
(g73
g54
NtRp854
(dp855
g57
(dp856
g84
g85
ssg66
g846
sg59
(lp857
S':'
asbag52
(g73
g54
NtRp858
(dp859
g57
(dp860
sg66
g846
sg59
(lp861
g52
(g53
g54
NtRp862
(dp863
g57
(dp864
g65
I3
ssg66
g858
sg59
(lp865
S''
asbasbasbag52
(g68
g54
NtRp866
(dp867
g57
(dp868
sg66
g782
sg59
(lp869
g52
(g73
g54
NtRp870
(dp871
g57
(dp872
g77
g78
ssg66
g866
sg59
(lp873
g376
asbag52
(g73
g54
NtRp874
(dp875
g57
(dp876
g84
g85
ssg66
g866
sg59
(lp877
S':'
asbag52
(g73
g54
NtRp878
(dp879
g57
(dp880
sg66
g866
sg59
(lp881
g52
(g53
g54
NtRp882
(dp883
g57
(dp884
g65
I3
ssg66
g878
sg59
(lp885
S''
asbasbasbag52
(g68
g54
NtRp886
(dp887
g57
(dp888
sg66
g782
sg59
(lp889
g52
(g73
g54
NtRp890
(dp891
g57
(dp892
g77
g78
ssg66
g886
sg59
(lp893
g397
asbag52
(g73
g54
NtRp894
(dp895
g57
(dp896
g84
g85
ssg66
g886
sg59
(lp897
S':'
asbag52
(g73
g54
NtRp898
(dp899
g57
(dp900
sg66
g886
sg59
(lp901
g52
(g53
g54
NtRp902
(dp903
g57
(dp904
g65
I3
ssg66
g898
sg59
(lp905
S''
asbasbasbag52
(g68
g54
NtRp906
(dp907
g57
(dp908
sg66
g782
sg59
(lp909
g52
(g73
g54
NtRp910
(dp911
g57
(dp912
g77
g78
ssg66
g906
sg59
(lp913
g418
asbag52
(g73
g54
NtRp914
(dp915
g57
(dp916
g84
g85
ssg66
g906
sg59
(lp917
S':'
asbag52
(g73
g54
NtRp918
(dp919
g57
(dp920
sg66
g906
sg59
(lp921
g52
(g53
g54
NtRp922
(dp923
g57
(dp924
g65
I3
ssg66
g918
sg59
(lp925
S''
asbasbasbasbasbasbasbasbasbasbasbag52
(g68
g54
NtRp926
(dp927
g57
(dp928
sg66
g62
sg59
(lp929
g52
(g73
g54
NtRp930
(dp931
g57
(dp932
g77
g78
ssg66
g926
sg59
(lp933
S'env'
p934
asbag52
(g73
g54
NtRp935
(dp936
g57
(dp937
g84
g85
ssg66
g926
sg59
(lp938
S':'
asbag52
(g73
g54
NtRp939
(dp940
g57
(dp941
sg66
g926
sg59
(lp942
g52
(g53
g54
NtRp943
(dp944
g57
(dp945
g65
I5
ssg66
g939
sg59
(lp946
g52
(g61
g54
NtRp947
(dp948
g57
(dp949
g65
I4
ssg66
Nsg59
(lp950
g52
(g68
g54
NtRp951
(dp952
g57
(dp953
sg66
g947
sg59
(lp954
g52
(g73
g54
NtRp955
(dp956
g57
(dp957
g77
g78
ssg66
g951
sg59
(lp958
S'app_folders'
p959
asbag52
(g73
g54
NtRp960
(dp961
g57
(dp962
g84
g85
ssg66
g951
sg59
(lp963
S':'
asbag52
(g73
g54
NtRp964
(dp965
g57
(dp966
sg66
g951
sg59
(lp967
g52
(g53
g54
NtRp968
(dp969
g57
(dp970
g65
I4
ssg66
g964
sg59
(lp971
S"set(['C:\\\\Python32\\\\web2py\\\\applications\\\\Casa_de_Apuestas\\\\', 'C:\\\\Python32\\\\web2py\\\\applications\\\\images\\\\', 'C:\\\\Python32\\\\web2py\\\\applications\\\\welcome\\\\', 'C:\\\\Python32\\\\web2py\\\\applications\\\\admin\\\\'])"
p972
asbasbasbag52
(g68
g54
NtRp973
(dp974
g57
(dp975
sg66
g947
sg59
(lp976
g52
(g73
g54
NtRp977
(dp978
g57
(dp979
g77
g78
ssg66
g973
sg59
(lp980
S'applications_parent'
p981
asbag52
(g73
g54
NtRp982
(dp983
g57
(dp984
g84
g85
ssg66
g973
sg59
(lp985
S':'
asbag52
(g73
g54
NtRp986
(dp987
g57
(dp988
sg66
g973
sg59
(lp989
g52
(g53
g54
NtRp990
(dp991
g57
(dp992
g65
I4
ssg66
g986
sg59
(lp993
S'C:\\Python32\\web2py'
p994
asbasbasbag52
(g68
g54
NtRp995
(dp996
g57
(dp997
sg66
g947
sg59
(lp998
g52
(g73
g54
NtRp999
(dp1000
g57
(dp1001
g77
g78
ssg66
g995
sg59
(lp1002
S'cmd_args'
p1003
asbag52
(g73
g54
NtRp1004
(dp1005
g57
(dp1006
g84
g85
ssg66
g995
sg59
(lp1007
S':'
asbag52
(g73
g54
NtRp1008
(dp1009
g57
(dp1010
sg66
g995
sg59
(lp1011
g52
(g53
g54
NtRp1012
(dp1013
g57
(dp1014
g65
I4
ssg66
g1008
sg59
(lp1015
g52
(g61
g54
NtRp1016
(dp1017
g57
(dp1018
g65
I3
ssg66
Nsg59
(lp1019
sbasbasbasbag52
(g68
g54
NtRp1020
(dp1021
g57
(dp1022
sg66
g947
sg59
(lp1023
g52
(g73
g54
NtRp1024
(dp1025
g57
(dp1026
g77
g78
ssg66
g1020
sg59
(lp1027
S'cmd_options'
p1028
asbag52
(g73
g54
NtRp1029
(dp1030
g57
(dp1031
g84
g85
ssg66
g1020
sg59
(lp1032
S':'
asbag52
(g73
g54
NtRp1033
(dp1034
g57
(dp1035
sg66
g1020
sg59
(lp1036
g52
(g53
g54
NtRp1037
(dp1038
g57
(dp1039
g65
I4
ssg66
g1033
sg59
(lp1040
S"<Values at 0x2d18f30: {'verbose': False, 'ip': '127.0.0.1', 'shutdown_timeout': 5, 'taskbar': False, 'nocron': False, 'pid_filename': 'httpserver.pid', 'maxthreads': None, 'softcron': False, 'server_name': 'hector-asus', 'bpython': False, 'nogui': False, 'port': 8000, 'extcron': False, 'debuglevel': 30, 'test': None, 'folder': 'C:\\\\Python32\\\\web2py', 'config': '', 'import_models': False, 'winservice': '', 'shell': None, 'run': '', 'log_filename': 'httpserver.log', 'args': [''], 'ssl_ca_certificate': None, 'scheduler': None, 'profiler_filename': None, 'ssl_private_key': '', 'password': '<ask>', 'request_queue_size': 5, 'ssl_certificate': '', 'cronjob': False, 'plain': False, 'quiet': False, 'interfaces': None, 'minthreads': None, 'timeout': 10, 'numthreads': None, 'nobanner': False}>"
p1041
asbasbasbag52
(g68
g54
NtRp1042
(dp1043
g57
(dp1044
sg66
g947
sg59
(lp1045
g52
(g73
g54
NtRp1046
(dp1047
g57
(dp1048
g77
g78
ssg66
g1042
sg59
(lp1049
S'content_length'
p1050
asbag52
(g73
g54
NtRp1051
(dp1052
g57
(dp1053
g84
g85
ssg66
g1042
sg59
(lp1054
S':'
asbag52
(g73
g54
NtRp1055
(dp1056
g57
(dp1057
sg66
g1042
sg59
(lp1058
g52
(g53
g54
NtRp1059
(dp1060
g57
(dp1061
g65
I4
ssg66
g1055
sg59
(lp1062
S'605'
p1063
asbasbasbag52
(g68
g54
NtRp1064
(dp1065
g57
(dp1066
sg66
g947
sg59
(lp1067
g52
(g73
g54
NtRp1068
(dp1069
g57
(dp1070
g77
g78
ssg66
g1064
sg59
(lp1071
S'content_type'
p1072
asbag52
(g73
g54
NtRp1073
(dp1074
g57
(dp1075
g84
g85
ssg66
g1064
sg59
(lp1076
S':'
asbag52
(g73
g54
NtRp1077
(dp1078
g57
(dp1079
sg66
g1064
sg59
(lp1080
g52
(g53
g54
NtRp1081
(dp1082
g57
(dp1083
g65
I4
ssg66
g1077
sg59
(lp1084
S'multipart/form-data; boundary=----WebKitFormBoundaryj0o12P0VQcDFTBf3'
p1085
asbasbasbag52
(g68
g54
NtRp1086
(dp1087
g57
(dp1088
sg66
g947
sg59
(lp1089
g52
(g73
g54
NtRp1090
(dp1091
g57
(dp1092
g77
g78
ssg66
g1086
sg59
(lp1093
S'db_sessions'
p1094
asbag52
(g73
g54
NtRp1095
(dp1096
g57
(dp1097
g84
g85
ssg66
g1086
sg59
(lp1098
S':'
asbag52
(g73
g54
NtRp1099
(dp1100
g57
(dp1101
sg66
g1086
sg59
(lp1102
g52
(g53
g54
NtRp1103
(dp1104
g57
(dp1105
g65
I4
ssg66
g1099
sg59
(lp1106
S'set([])'
p1107
asbasbasbag52
(g68
g54
NtRp1108
(dp1109
g57
(dp1110
sg66
g947
sg59
(lp1111
g52
(g73
g54
NtRp1112
(dp1113
g57
(dp1114
g77
g78
ssg66
g1108
sg59
(lp1115
S'debugging'
p1116
asbag52
(g73
g54
NtRp1117
(dp1118
g57
(dp1119
g84
g85
ssg66
g1108
sg59
(lp1120
S':'
asbag52
(g73
g54
NtRp1121
(dp1122
g57
(dp1123
sg66
g1108
sg59
(lp1124
g52
(g53
g54
NtRp1125
(dp1126
g57
(dp1127
g65
I4
ssg66
g1121
sg59
(lp1128
g95
asbasbasbag52
(g68
g54
NtRp1129
(dp1130
g57
(dp1131
sg66
g947
sg59
(lp1132
g52
(g73
g54
NtRp1133
(dp1134
g57
(dp1135
g77
g78
ssg66
g1129
sg59
(lp1136
S'gluon_parent'
p1137
asbag52
(g73
g54
NtRp1138
(dp1139
g57
(dp1140
g84
g85
ssg66
g1129
sg59
(lp1141
S':'
asbag52
(g73
g54
NtRp1142
(dp1143
g57
(dp1144
sg66
g1129
sg59
(lp1145
g52
(g53
g54
NtRp1146
(dp1147
g57
(dp1148
g65
I4
ssg66
g1142
sg59
(lp1149
S'C:\\Python32\\web2py'
p1150
asbasbasbag52
(g68
g54
NtRp1151
(dp1152
g57
(dp1153
sg66
g947
sg59
(lp1154
g52
(g73
g54
NtRp1155
(dp1156
g57
(dp1157
g77
g78
ssg66
g1151
sg59
(lp1158
S'http_accept'
p1159
asbag52
(g73
g54
NtRp1160
(dp1161
g57
(dp1162
g84
g85
ssg66
g1151
sg59
(lp1163
S':'
asbag52
(g73
g54
NtRp1164
(dp1165
g57
(dp1166
sg66
g1151
sg59
(lp1167
g52
(g53
g54
NtRp1168
(dp1169
g57
(dp1170
g65
I4
ssg66
g1164
sg59
(lp1171
S'text/html,application/xhtml+xml,application/xml;q=0.9,*/*;q=0.8'
p1172
asbasbasbag52
(g68
g54
NtRp1173
(dp1174
g57
(dp1175
sg66
g947
sg59
(lp1176
g52
(g73
g54
NtRp1177
(dp1178
g57
(dp1179
g77
g78
ssg66
g1173
sg59
(lp1180
S'http_accept_charset'
p1181
asbag52
(g73
g54
NtRp1182
(dp1183
g57
(dp1184
g84
g85
ssg66
g1173
sg59
(lp1185
S':'
asbag52
(g73
g54
NtRp1186
(dp1187
g57
(dp1188
sg66
g1173
sg59
(lp1189
g52
(g53
g54
NtRp1190
(dp1191
g57
(dp1192
g65
I4
ssg66
g1186
sg59
(lp1193
S'ISO-8859-1,utf-8;q=0.7,*;q=0.3'
p1194
asbasbasbag52
(g68
g54
NtRp1195
(dp1196
g57
(dp1197
sg66
g947
sg59
(lp1198
g52
(g73
g54
NtRp1199
(dp1200
g57
(dp1201
g77
g78
ssg66
g1195
sg59
(lp1202
S'http_accept_encoding'
p1203
asbag52
(g73
g54
NtRp1204
(dp1205
g57
(dp1206
g84
g85
ssg66
g1195
sg59
(lp1207
S':'
asbag52
(g73
g54
NtRp1208
(dp1209
g57
(dp1210
sg66
g1195
sg59
(lp1211
g52
(g53
g54
NtRp1212
(dp1213
g57
(dp1214
g65
I4
ssg66
g1208
sg59
(lp1215
S'gzip,deflate,sdch'
p1216
asbasbasbag52
(g68
g54
NtRp1217
(dp1218
g57
(dp1219
sg66
g947
sg59
(lp1220
g52
(g73
g54
NtRp1221
(dp1222
g57
(dp1223
g77
g78
ssg66
g1217
sg59
(lp1224
S'http_accept_language'
p1225
asbag52
(g73
g54
NtRp1226
(dp1227
g57
(dp1228
g84
g85
ssg66
g1217
sg59
(lp1229
S':'
asbag52
(g73
g54
NtRp1230
(dp1231
g57
(dp1232
sg66
g1217
sg59
(lp1233
g52
(g53
g54
NtRp1234
(dp1235
g57
(dp1236
g65
I4
ssg66
g1230
sg59
(lp1237
S'en-US,en;q=0.8'
p1238
asbasbasbag52
(g68
g54
NtRp1239
(dp1240
g57
(dp1241
sg66
g947
sg59
(lp1242
g52
(g73
g54
NtRp1243
(dp1244
g57
(dp1245
g77
g78
ssg66
g1239
sg59
(lp1246
S'http_cache_control'
p1247
asbag52
(g73
g54
NtRp1248
(dp1249
g57
(dp1250
g84
g85
ssg66
g1239
sg59
(lp1251
S':'
asbag52
(g73
g54
NtRp1252
(dp1253
g57
(dp1254
sg66
g1239
sg59
(lp1255
g52
(g53
g54
NtRp1256
(dp1257
g57
(dp1258
g65
I4
ssg66
g1252
sg59
(lp1259
S'max-age=0'
p1260
asbasbasbag52
(g68
g54
NtRp1261
(dp1262
g57
(dp1263
sg66
g947
sg59
(lp1264
g52
(g73
g54
NtRp1265
(dp1266
g57
(dp1267
g77
g78
ssg66
g1261
sg59
(lp1268
S'http_connection'
p1269
asbag52
(g73
g54
NtRp1270
(dp1271
g57
(dp1272
g84
g85
ssg66
g1261
sg59
(lp1273
S':'
asbag52
(g73
g54
NtRp1274
(dp1275
g57
(dp1276
sg66
g1261
sg59
(lp1277
g52
(g53
g54
NtRp1278
(dp1279
g57
(dp1280
g65
I4
ssg66
g1274
sg59
(lp1281
S'keep-alive'
p1282
asbasbasbag52
(g68
g54
NtRp1283
(dp1284
g57
(dp1285
sg66
g947
sg59
(lp1286
g52
(g73
g54
NtRp1287
(dp1288
g57
(dp1289
g77
g78
ssg66
g1283
sg59
(lp1290
S'http_content_length'
p1291
asbag52
(g73
g54
NtRp1292
(dp1293
g57
(dp1294
g84
g85
ssg66
g1283
sg59
(lp1295
S':'
asbag52
(g73
g54
NtRp1296
(dp1297
g57
(dp1298
sg66
g1283
sg59
(lp1299
g52
(g53
g54
NtRp1300
(dp1301
g57
(dp1302
g65
I4
ssg66
g1296
sg59
(lp1303
g1063
asbasbasbag52
(g68
g54
NtRp1304
(dp1305
g57
(dp1306
sg66
g947
sg59
(lp1307
g52
(g73
g54
NtRp1308
(dp1309
g57
(dp1310
g77
g78
ssg66
g1304
sg59
(lp1311
S'http_content_type'
p1312
asbag52
(g73
g54
NtRp1313
(dp1314
g57
(dp1315
g84
g85
ssg66
g1304
sg59
(lp1316
S':'
asbag52
(g73
g54
NtRp1317
(dp1318
g57
(dp1319
sg66
g1304
sg59
(lp1320
g52
(g53
g54
NtRp1321
(dp1322
g57
(dp1323
g65
I4
ssg66
g1317
sg59
(lp1324
g1085
asbasbasbag52
(g68
g54
NtRp1325
(dp1326
g57
(dp1327
sg66
g947
sg59
(lp1328
g52
(g73
g54
NtRp1329
(dp1330
g57
(dp1331
g77
g78
ssg66
g1325
sg59
(lp1332
S'http_cookie'
p1333
asbag52
(g73
g54
NtRp1334
(dp1335
g57
(dp1336
g84
g85
ssg66
g1325
sg59
(lp1337
S':'
asbag52
(g73
g54
NtRp1338
(dp1339
g57
(dp1340
sg66
g1325
sg59
(lp1341
g52
(g53
g54
NtRp1342
(dp1343
g57
(dp1344
g65
I4
ssg66
g1338
sg59
(lp1345
S'session_id_welcome=127.0.0.1-07b05742-4fc1-4474-90ad-860dbbef112b; session_id_images=127.0.0.1-b7aa86f2-0acd-49d9-92fc-557581040429; session_id_admin=127.0.0.1-5155ace7-c952-49d3-a385-f66534093f7a; session_id_casa_de_apuestas=127.0.0.1-ff075696-a054-47b7-bd6f-733e6903bb65'
p1346
asbasbasbag52
(g68
g54
NtRp1347
(dp1348
g57
(dp1349
sg66
g947
sg59
(lp1350
g52
(g73
g54
NtRp1351
(dp1352
g57
(dp1353
g77
g78
ssg66
g1347
sg59
(lp1354
S'http_host'
p1355
asbag52
(g73
g54
NtRp1356
(dp1357
g57
(dp1358
g84
g85
ssg66
g1347
sg59
(lp1359
S':'
asbag52
(g73
g54
NtRp1360
(dp1361
g57
(dp1362
sg66
g1347
sg59
(lp1363
g52
(g53
g54
NtRp1364
(dp1365
g57
(dp1366
g65
I4
ssg66
g1360
sg59
(lp1367
S'127.0.0.1:8000'
p1368
asbasbasbag52
(g68
g54
NtRp1369
(dp1370
g57
(dp1371
sg66
g947
sg59
(lp1372
g52
(g73
g54
NtRp1373
(dp1374
g57
(dp1375
g77
g78
ssg66
g1369
sg59
(lp1376
S'http_origin'
p1377
asbag52
(g73
g54
NtRp1378
(dp1379
g57
(dp1380
g84
g85
ssg66
g1369
sg59
(lp1381
S':'
asbag52
(g73
g54
NtRp1382
(dp1383
g57
(dp1384
sg66
g1369
sg59
(lp1385
g52
(g53
g54
NtRp1386
(dp1387
g57
(dp1388
g65
I4
ssg66
g1382
sg59
(lp1389
S'http://127.0.0.1:8000'
p1390
asbasbasbag52
(g68
g54
NtRp1391
(dp1392
g57
(dp1393
sg66
g947
sg59
(lp1394
g52
(g73
g54
NtRp1395
(dp1396
g57
(dp1397
g77
g78
ssg66
g1391
sg59
(lp1398
S'http_referer'
p1399
asbag52
(g73
g54
NtRp1400
(dp1401
g57
(dp1402
g84
g85
ssg66
g1391
sg59
(lp1403
S':'
asbag52
(g73
g54
NtRp1404
(dp1405
g57
(dp1406
sg66
g1391
sg59
(lp1407
g52
(g53
g54
NtRp1408
(dp1409
g57
(dp1410
g65
I4
ssg66
g1404
sg59
(lp1411
S'http://127.0.0.1:8000/Casa_de_Apuestas/appadmin/insert/db/eventos_participantes'
p1412
asbasbasbag52
(g68
g54
NtRp1413
(dp1414
g57
(dp1415
sg66
g947
sg59
(lp1416
g52
(g73
g54
NtRp1417
(dp1418
g57
(dp1419
g77
g78
ssg66
g1413
sg59
(lp1420
S'http_user_agent'
p1421
asbag52
(g73
g54
NtRp1422
(dp1423
g57
(dp1424
g84
g85
ssg66
g1413
sg59
(lp1425
S':'
asbag52
(g73
g54
NtRp1426
(dp1427
g57
(dp1428
sg66
g1413
sg59
(lp1429
g52
(g53
g54
NtRp1430
(dp1431
g57
(dp1432
g65
I4
ssg66
g1426
sg59
(lp1433
S'Mozilla/5.0 (Windows NT 6.1; WOW64) AppleWebKit/535.2 (KHTML, like Gecko) Chrome/15.0.874.106 Safari/535.2'
p1434
asbasbasbag52
(g68
g54
NtRp1435
(dp1436
g57
(dp1437
sg66
g947
sg59
(lp1438
g52
(g73
g54
NtRp1439
(dp1440
g57
(dp1441
g77
g78
ssg66
g1435
sg59
(lp1442
S'is_jython'
p1443
asbag52
(g73
g54
NtRp1444
(dp1445
g57
(dp1446
g84
g85
ssg66
g1435
sg59
(lp1447
S':'
asbag52
(g73
g54
NtRp1448
(dp1449
g57
(dp1450
sg66
g1435
sg59
(lp1451
g52
(g53
g54
NtRp1452
(dp1453
g57
(dp1454
g65
I4
ssg66
g1448
sg59
(lp1455
g95
asbasbasbag52
(g68
g54
NtRp1456
(dp1457
g57
(dp1458
sg66
g947
sg59
(lp1459
g52
(g73
g54
NtRp1460
(dp1461
g57
(dp1462
g77
g78
ssg66
g1456
sg59
(lp1463
S'path_info'
p1464
asbag52
(g73
g54
NtRp1465
(dp1466
g57
(dp1467
g84
g85
ssg66
g1456
sg59
(lp1468
S':'
asbag52
(g73
g54
NtRp1469
(dp1470
g57
(dp1471
sg66
g1456
sg59
(lp1472
g52
(g53
g54
NtRp1473
(dp1474
g57
(dp1475
g65
I4
ssg66
g1469
sg59
(lp1476
S'/Casa_de_Apuestas/appadmin/insert/db/eventos_participantes'
p1477
asbasbasbag52
(g68
g54
NtRp1478
(dp1479
g57
(dp1480
sg66
g947
sg59
(lp1481
g52
(g73
g54
NtRp1482
(dp1483
g57
(dp1484
g77
g78
ssg66
g1478
sg59
(lp1485
S'query_string'
p1486
asbag52
(g73
g54
NtRp1487
(dp1488
g57
(dp1489
g84
g85
ssg66
g1478
sg59
(lp1490
S':'
asbag52
(g73
g54
NtRp1491
(dp1492
g57
(dp1493
sg66
g1478
sg59
(lp1494
g52
(g53
g54
NtRp1495
(dp1496
g57
(dp1497
g65
I4
ssg66
g1491
sg59
(lp1498
S''
asbasbasbag52
(g68
g54
NtRp1499
(dp1500
g57
(dp1501
sg66
g947
sg59
(lp1502
g52
(g73
g54
NtRp1503
(dp1504
g57
(dp1505
g77
g78
ssg66
g1499
sg59
(lp1506
S'remote_addr'
p1507
asbag52
(g73
g54
NtRp1508
(dp1509
g57
(dp1510
g84
g85
ssg66
g1499
sg59
(lp1511
S':'
asbag52
(g73
g54
NtRp1512
(dp1513
g57
(dp1514
sg66
g1499
sg59
(lp1515
g52
(g53
g54
NtRp1516
(dp1517
g57
(dp1518
g65
I4
ssg66
g1512
sg59
(lp1519
g211
asbasbasbag52
(g68
g54
NtRp1520
(dp1521
g57
(dp1522
sg66
g947
sg59
(lp1523
g52
(g73
g54
NtRp1524
(dp1525
g57
(dp1526
g77
g78
ssg66
g1520
sg59
(lp1527
S'remote_port'
p1528
asbag52
(g73
g54
NtRp1529
(dp1530
g57
(dp1531
g84
g85
ssg66
g1520
sg59
(lp1532
S':'
asbag52
(g73
g54
NtRp1533
(dp1534
g57
(dp1535
sg66
g1520
sg59
(lp1536
g52
(g53
g54
NtRp1537
(dp1538
g57
(dp1539
g65
I4
ssg66
g1533
sg59
(lp1540
S'49563'
p1541
asbasbasbag52
(g68
g54
NtRp1542
(dp1543
g57
(dp1544
sg66
g947
sg59
(lp1545
g52
(g73
g54
NtRp1546
(dp1547
g57
(dp1548
g77
g78
ssg66
g1542
sg59
(lp1549
S'request_method'
p1550
asbag52
(g73
g54
NtRp1551
(dp1552
g57
(dp1553
g84
g85
ssg66
g1542
sg59
(lp1554
S':'
asbag52
(g73
g54
NtRp1555
(dp1556
g57
(dp1557
sg66
g1542
sg59
(lp1558
g52
(g53
g54
NtRp1559
(dp1560
g57
(dp1561
g65
I4
ssg66
g1555
sg59
(lp1562
S'POST'
p1563
asbasbasbag52
(g68
g54
NtRp1564
(dp1565
g57
(dp1566
sg66
g947
sg59
(lp1567
g52
(g73
g54
NtRp1568
(dp1569
g57
(dp1570
g77
g78
ssg66
g1564
sg59
(lp1571
S'script_name'
p1572
asbag52
(g73
g54
NtRp1573
(dp1574
g57
(dp1575
g84
g85
ssg66
g1564
sg59
(lp1576
S':'
asbag52
(g73
g54
NtRp1577
(dp1578
g57
(dp1579
sg66
g1564
sg59
(lp1580
g52
(g53
g54
NtRp1581
(dp1582
g57
(dp1583
g65
I4
ssg66
g1577
sg59
(lp1584
S''
asbasbasbag52
(g68
g54
NtRp1585
(dp1586
g57
(dp1587
sg66
g947
sg59
(lp1588
g52
(g73
g54
NtRp1589
(dp1590
g57
(dp1591
g77
g78
ssg66
g1585
sg59
(lp1592
S'server_name'
p1593
asbag52
(g73
g54
NtRp1594
(dp1595
g57
(dp1596
g84
g85
ssg66
g1585
sg59
(lp1597
S':'
asbag52
(g73
g54
NtRp1598
(dp1599
g57
(dp1600
sg66
g1585
sg59
(lp1601
g52
(g53
g54
NtRp1602
(dp1603
g57
(dp1604
g65
I4
ssg66
g1598
sg59
(lp1605
S'hector-asus'
p1606
asbasbasbag52
(g68
g54
NtRp1607
(dp1608
g57
(dp1609
sg66
g947
sg59
(lp1610
g52
(g73
g54
NtRp1611
(dp1612
g57
(dp1613
g77
g78
ssg66
g1607
sg59
(lp1614
S'server_port'
p1615
asbag52
(g73
g54
NtRp1616
(dp1617
g57
(dp1618
g84
g85
ssg66
g1607
sg59
(lp1619
S':'
asbag52
(g73
g54
NtRp1620
(dp1621
g57
(dp1622
sg66
g1607
sg59
(lp1623
g52
(g53
g54
NtRp1624
(dp1625
g57
(dp1626
g65
I4
ssg66
g1620
sg59
(lp1627
S'8000'
p1628
asbasbasbag52
(g68
g54
NtRp1629
(dp1630
g57
(dp1631
sg66
g947
sg59
(lp1632
g52
(g73
g54
NtRp1633
(dp1634
g57
(dp1635
g77
g78
ssg66
g1629
sg59
(lp1636
S'server_protocol'
p1637
asbag52
(g73
g54
NtRp1638
(dp1639
g57
(dp1640
g84
g85
ssg66
g1629
sg59
(lp1641
S':'
asbag52
(g73
g54
NtRp1642
(dp1643
g57
(dp1644
sg66
g1629
sg59
(lp1645
g52
(g53
g54
NtRp1646
(dp1647
g57
(dp1648
g65
I4
ssg66
g1642
sg59
(lp1649
S'HTTP/1.1'
p1650
asbasbasbag52
(g68
g54
NtRp1651
(dp1652
g57
(dp1653
sg66
g947
sg59
(lp1654
g52
(g73
g54
NtRp1655
(dp1656
g57
(dp1657
g77
g78
ssg66
g1651
sg59
(lp1658
S'server_software'
p1659
asbag52
(g73
g54
NtRp1660
(dp1661
g57
(dp1662
g84
g85
ssg66
g1651
sg59
(lp1663
S':'
asbag52
(g73
g54
NtRp1664
(dp1665
g57
(dp1666
sg66
g1651
sg59
(lp1667
g52
(g53
g54
NtRp1668
(dp1669
g57
(dp1670
g65
I4
ssg66
g1664
sg59
(lp1671
S'Rocket 1.2.4'
p1672
asbasbasbag52
(g68
g54
NtRp1673
(dp1674
g57
(dp1675
sg66
g947
sg59
(lp1676
g52
(g73
g54
NtRp1677
(dp1678
g57
(dp1679
g77
g78
ssg66
g1673
sg59
(lp1680
S'web2py_crontype'
p1681
asbag52
(g73
g54
NtRp1682
(dp1683
g57
(dp1684
g84
g85
ssg66
g1673
sg59
(lp1685
S':'
asbag52
(g73
g54
NtRp1686
(dp1687
g57
(dp1688
sg66
g1673
sg59
(lp1689
g52
(g53
g54
NtRp1690
(dp1691
g57
(dp1692
g65
I4
ssg66
g1686
sg59
(lp1693
S'hard'
p1694
asbasbasbag52
(g68
g54
NtRp1695
(dp1696
g57
(dp1697
sg66
g947
sg59
(lp1698
g52
(g73
g54
NtRp1699
(dp1700
g57
(dp1701
g77
g78
ssg66
g1695
sg59
(lp1702
S'web2py_path'
p1703
asbag52
(g73
g54
NtRp1704
(dp1705
g57
(dp1706
g84
g85
ssg66
g1695
sg59
(lp1707
S':'
asbag52
(g73
g54
NtRp1708
(dp1709
g57
(dp1710
sg66
g1695
sg59
(lp1711
g52
(g53
g54
NtRp1712
(dp1713
g57
(dp1714
g65
I4
ssg66
g1708
sg59
(lp1715
g994
asbasbasbag52
(g68
g54
NtRp1716
(dp1717
g57
(dp1718
sg66
g947
sg59
(lp1719
g52
(g73
g54
NtRp1720
(dp1721
g57
(dp1722
g77
g78
ssg66
g1716
sg59
(lp1723
S'web2py_version'
p1724
asbag52
(g73
g54
NtRp1725
(dp1726
g57
(dp1727
g84
g85
ssg66
g1716
sg59
(lp1728
S':'
asbag52
(g73
g54
NtRp1729
(dp1730
g57
(dp1731
sg66
g1716
sg59
(lp1732
g52
(g53
g54
NtRp1733
(dp1734
g57
(dp1735
g65
I4
ssg66
g1729
sg59
(lp1736
g52
(g61
g54
NtRp1737
(dp1738
g57
(dp1739
g65
I3
ssg66
Nsg59
(lp1740
g52
(g68
g54
NtRp1741
(dp1742
g57
(dp1743
sg66
g1737
sg59
(lp1744
g52
(g73
g54
NtRp1745
(dp1746
g57
(dp1747
sg66
g1741
sg59
(lp1748
g52
(g53
g54
NtRp1749
(dp1750
g57
(dp1751
g65
I3
ssg66
g1745
sg59
(lp1752
S'1'
asbasbasbag52
(g68
g54
NtRp1753
(dp1754
g57
(dp1755
sg66
g1737
sg59
(lp1756
g52
(g73
g54
NtRp1757
(dp1758
g57
(dp1759
sg66
g1753
sg59
(lp1760
g52
(g53
g54
NtRp1761
(dp1762
g57
(dp1763
g65
I3
ssg66
g1757
sg59
(lp1764
S'99'
p1765
asbasbasbag52
(g68
g54
NtRp1766
(dp1767
g57
(dp1768
sg66
g1737
sg59
(lp1769
g52
(g73
g54
NtRp1770
(dp1771
g57
(dp1772
sg66
g1766
sg59
(lp1773
g52
(g53
g54
NtRp1774
(dp1775
g57
(dp1776
g65
I3
ssg66
g1770
sg59
(lp1777
S'2'
asbasbasbag52
(g68
g54
NtRp1778
(dp1779
g57
(dp1780
sg66
g1737
sg59
(lp1781
g52
(g73
g54
NtRp1782
(dp1783
g57
(dp1784
sg66
g1778
sg59
(lp1785
g52
(g53
g54
NtRp1786
(dp1787
g57
(dp1788
g65
I3
ssg66
g1782
sg59
(lp1789
S'datetime.datetime(2011, 9, 26, 6, 55, 33)'
p1790
asbasbasbag52
(g68
g54
NtRp1791
(dp1792
g57
(dp1793
sg66
g1737
sg59
(lp1794
g52
(g73
g54
NtRp1795
(dp1796
g57
(dp1797
sg66
g1791
sg59
(lp1798
g52
(g53
g54
NtRp1799
(dp1800
g57
(dp1801
g65
I3
ssg66
g1795
sg59
(lp1802
S'stable'
p1803
asbasbasbasbasbasbasbag52
(g68
g54
NtRp1804
(dp1805
g57
(dp1806
sg66
g947
sg59
(lp1807
g52
(g73
g54
NtRp1808
(dp1809
g57
(dp1810
g77
g78
ssg66
g1804
sg59
(lp1811
S'wsgi_errors'
p1812
asbag52
(g73
g54
NtRp1813
(dp1814
g57
(dp1815
g84
g85
ssg66
g1804
sg59
(lp1816
S':'
asbag52
(g73
g54
NtRp1817
(dp1818
g57
(dp1819
sg66
g1804
sg59
(lp1820
g52
(g53
g54
NtRp1821
(dp1822
g57
(dp1823
g65
I4
ssg66
g1817
sg59
(lp1824
S"<open file '<stderr>', mode 'w' at 0x01FA00B0>"
p1825
asbasbasbag52
(g68
g54
NtRp1826
(dp1827
g57
(dp1828
sg66
g947
sg59
(lp1829
g52
(g73
g54
NtRp1830
(dp1831
g57
(dp1832
g77
g78
ssg66
g1826
sg59
(lp1833
S'wsgi_file_wrapper'
p1834
asbag52
(g73
g54
NtRp1835
(dp1836
g57
(dp1837
g84
g85
ssg66
g1826
sg59
(lp1838
S':'
asbag52
(g73
g54
NtRp1839
(dp1840
g57
(dp1841
sg66
g1826
sg59
(lp1842
g52
(g53
g54
NtRp1843
(dp1844
g57
(dp1845
g65
I4
ssg66
g1839
sg59
(lp1846
S'<class wsgiref.util.FileWrapper at 0x02AB0D80>'
p1847
asbasbasbag52
(g68
g54
NtRp1848
(dp1849
g57
(dp1850
sg66
g947
sg59
(lp1851
g52
(g73
g54
NtRp1852
(dp1853
g57
(dp1854
g77
g78
ssg66
g1848
sg59
(lp1855
S'wsgi_input'
p1856
asbag52
(g73
g54
NtRp1857
(dp1858
g57
(dp1859
g84
g85
ssg66
g1848
sg59
(lp1860
S':'
asbag52
(g73
g54
NtRp1861
(dp1862
g57
(dp1863
sg66
g1848
sg59
(lp1864
g52
(g53
g54
NtRp1865
(dp1866
g57
(dp1867
g65
I4
ssg66
g1861
sg59
(lp1868
S'<socket._fileobject object at 0x0637FD30>'
p1869
asbasbasbag52
(g68
g54
NtRp1870
(dp1871
g57
(dp1872
sg66
g947
sg59
(lp1873
g52
(g73
g54
NtRp1874
(dp1875
g57
(dp1876
g77
g78
ssg66
g1870
sg59
(lp1877
S'wsgi_multiprocess'
p1878
asbag52
(g73
g54
NtRp1879
(dp1880
g57
(dp1881
g84
g85
ssg66
g1870
sg59
(lp1882
S':'
asbag52
(g73
g54
NtRp1883
(dp1884
g57
(dp1885
sg66
g1870
sg59
(lp1886
g52
(g53
g54
NtRp1887
(dp1888
g57
(dp1889
g65
I4
ssg66
g1883
sg59
(lp1890
g95
asbasbasbag52
(g68
g54
NtRp1891
(dp1892
g57
(dp1893
sg66
g947
sg59
(lp1894
g52
(g73
g54
NtRp1895
(dp1896
g57
(dp1897
g77
g78
ssg66
g1891
sg59
(lp1898
S'wsgi_multithread'
p1899
asbag52
(g73
g54
NtRp1900
(dp1901
g57
(dp1902
g84
g85
ssg66
g1891
sg59
(lp1903
S':'
asbag52
(g73
g54
NtRp1904
(dp1905
g57
(dp1906
sg66
g1891
sg59
(lp1907
g52
(g53
g54
NtRp1908
(dp1909
g57
(dp1910
g65
I4
ssg66
g1904
sg59
(lp1911
S'True'
p1912
asbasbasbag52
(g68
g54
NtRp1913
(dp1914
g57
(dp1915
sg66
g947
sg59
(lp1916
g52
(g73
g54
NtRp1917
(dp1918
g57
(dp1919
g77
g78
ssg66
g1913
sg59
(lp1920
S'wsgi_run_once'
p1921
asbag52
(g73
g54
NtRp1922
(dp1923
g57
(dp1924
g84
g85
ssg66
g1913
sg59
(lp1925
S':'
asbag52
(g73
g54
NtRp1926
(dp1927
g57
(dp1928
sg66
g1913
sg59
(lp1929
g52
(g53
g54
NtRp1930
(dp1931
g57
(dp1932
g65
I4
ssg66
g1926
sg59
(lp1933
g95
asbasbasbag52
(g68
g54
NtRp1934
(dp1935
g57
(dp1936
sg66
g947
sg59
(lp1937
g52
(g73
g54
NtRp1938
(dp1939
g57
(dp1940
g77
g78
ssg66
g1934
sg59
(lp1941
S'wsgi_url_scheme'
p1942
asbag52
(g73
g54
NtRp1943
(dp1944
g57
(dp1945
g84
g85
ssg66
g1934
sg59
(lp1946
S':'
asbag52
(g73
g54
NtRp1947
(dp1948
g57
(dp1949
sg66
g1934
sg59
(lp1950
g52
(g53
g54
NtRp1951
(dp1952
g57
(dp1953
g65
I4
ssg66
g1947
sg59
(lp1954
S'http'
p1955
asbasbasbag52
(g68
g54
NtRp1956
(dp1957
g57
(dp1958
sg66
g947
sg59
(lp1959
g52
(g73
g54
NtRp1960
(dp1961
g57
(dp1962
g77
g78
ssg66
g1956
sg59
(lp1963
S'wsgi_version'
p1964
asbag52
(g73
g54
NtRp1965
(dp1966
g57
(dp1967
g84
g85
ssg66
g1956
sg59
(lp1968
S':'
asbag52
(g73
g54
NtRp1969
(dp1970
g57
(dp1971
sg66
g1956
sg59
(lp1972
g52
(g53
g54
NtRp1973
(dp1974
g57
(dp1975
g65
I4
ssg66
g1969
sg59
(lp1976
g52
(g61
g54
NtRp1977
(dp1978
g57
(dp1979
g65
I3
ssg66
Nsg59
(lp1980
g52
(g68
g54
NtRp1981
(dp1982
g57
(dp1983
sg66
g1977
sg59
(lp1984
g52
(g73
g54
NtRp1985
(dp1986
g57
(dp1987
sg66
g1981
sg59
(lp1988
g52
(g53
g54
NtRp1989
(dp1990
g57
(dp1991
g65
I3
ssg66
g1985
sg59
(lp1992
S'1'
asbasbasbag52
(g68
g54
NtRp1993
(dp1994
g57
(dp1995
sg66
g1977
sg59
(lp1996
g52
(g73
g54
NtRp1997
(dp1998
g57
(dp1999
sg66
g1993
sg59
(lp2000
g52
(g53
g54
NtRp2001
(dp2002
g57
(dp2003
g65
I3
ssg66
g1997
sg59
(lp2004
S'0'
asbasbasbasbasbasbasbasbasbasbasbag52
(g68
g54
NtRp2005
(dp2006
g57
(dp2007
sg66
g62
sg59
(lp2008
g52
(g73
g54
NtRp2009
(dp2010
g57
(dp2011
g77
g78
ssg66
g2005
sg59
(lp2012
S'extension'
p2013
asbag52
(g73
g54
NtRp2014
(dp2015
g57
(dp2016
g84
g85
ssg66
g2005
sg59
(lp2017
S':'
asbag52
(g73
g54
NtRp2018
(dp2019
g57
(dp2020
sg66
g2005
sg59
(lp2021
g52
(g53
g54
NtRp2022
(dp2023
g57
(dp2024
g65
I5
ssg66
g2018
sg59
(lp2025
S'html'
p2026
asbasbasbag52
(g68
g54
NtRp2027
(dp2028
g57
(dp2029
sg66
g62
sg59
(lp2030
g52
(g73
g54
NtRp2031
(dp2032
g57
(dp2033
g77
g78
ssg66
g2027
sg59
(lp2034
S'folder'
p2035
asbag52
(g73
g54
NtRp2036
(dp2037
g57
(dp2038
g84
g85
ssg66
g2027
sg59
(lp2039
S':'
asbag52
(g73
g54
NtRp2040
(dp2041
g57
(dp2042
sg66
g2027
sg59
(lp2043
g52
(g53
g54
NtRp2044
(dp2045
g57
(dp2046
g65
I5
ssg66
g2040
sg59
(lp2047
S'C:\\Python32\\web2py\\applications\\Casa_de_Apuestas\\'
p2048
asbasbasbag52
(g68
g54
NtRp2049
(dp2050
g57
(dp2051
sg66
g62
sg59
(lp2052
g52
(g73
g54
NtRp2053
(dp2054
g57
(dp2055
g77
g78
ssg66
g2049
sg59
(lp2056
S'function'
p2057
asbag52
(g73
g54
NtRp2058
(dp2059
g57
(dp2060
g84
g85
ssg66
g2049
sg59
(lp2061
S':'
asbag52
(g73
g54
NtRp2062
(dp2063
g57
(dp2064
sg66
g2049
sg59
(lp2065
g52
(g53
g54
NtRp2066
(dp2067
g57
(dp2068
g65
I5
ssg66
g2062
sg59
(lp2069
S'insert'
p2070
asbasbasbag52
(g68
g54
NtRp2071
(dp2072
g57
(dp2073
sg66
g62
sg59
(lp2074
g52
(g73
g54
NtRp2075
(dp2076
g57
(dp2077
g77
g78
ssg66
g2071
sg59
(lp2078
S'get_vars'
p2079
asbag52
(g73
g54
NtRp2080
(dp2081
g57
(dp2082
g84
g85
ssg66
g2071
sg59
(lp2083
S':'
asbag52
(g73
g54
NtRp2084
(dp2085
g57
(dp2086
sg66
g2071
sg59
(lp2087
g52
(g53
g54
NtRp2088
(dp2089
g57
(dp2090
g65
I5
ssg66
g2084
sg59
(lp2091
g52
(g61
g54
NtRp2092
(dp2093
g57
(dp2094
g65
I4
ssg66
Nsg59
(lp2095
sbasbasbasbag52
(g68
g54
NtRp2096
(dp2097
g57
(dp2098
sg66
g62
sg59
(lp2099
g52
(g73
g54
NtRp2100
(dp2101
g57
(dp2102
g77
g78
ssg66
g2096
sg59
(lp2103
S'global_settings'
p2104
asbag52
(g73
g54
NtRp2105
(dp2106
g57
(dp2107
g84
g85
ssg66
g2096
sg59
(lp2108
S':'
asbag52
(g73
g54
NtRp2109
(dp2110
g57
(dp2111
sg66
g2096
sg59
(lp2112
g52
(g53
g54
NtRp2113
(dp2114
g57
(dp2115
g65
I5
ssg66
g2109
sg59
(lp2116
g52
(g61
g54
NtRp2117
(dp2118
g57
(dp2119
g65
I4
ssg66
Nsg59
(lp2120
g52
(g68
g54
NtRp2121
(dp2122
g57
(dp2123
sg66
g2117
sg59
(lp2124
g52
(g73
g54
NtRp2125
(dp2126
g57
(dp2127
g77
g78
ssg66
g2121
sg59
(lp2128
g959
asbag52
(g73
g54
NtRp2129
(dp2130
g57
(dp2131
g84
g85
ssg66
g2121
sg59
(lp2132
S':'
asbag52
(g73
g54
NtRp2133
(dp2134
g57
(dp2135
sg66
g2121
sg59
(lp2136
g52
(g53
g54
NtRp2137
(dp2138
g57
(dp2139
g65
I4
ssg66
g2133
sg59
(lp2140
S"set(['C:\\\\Python32\\\\web2py\\\\applications\\\\Casa_de_Apuestas\\\\', 'C:\\\\Python32\\\\web2py\\\\applications\\\\images\\\\', 'C:\\\\Python32\\\\web2py\\\\applications\\\\welcome\\\\', 'C:\\\\Python32\\\\web2py\\\\applications\\\\admin\\\\'])"
p2141
asbasbasbag52
(g68
g54
NtRp2142
(dp2143
g57
(dp2144
sg66
g2117
sg59
(lp2145
g52
(g73
g54
NtRp2146
(dp2147
g57
(dp2148
g77
g78
ssg66
g2142
sg59
(lp2149
g981
asbag52
(g73
g54
NtRp2150
(dp2151
g57
(dp2152
g84
g85
ssg66
g2142
sg59
(lp2153
S':'
asbag52
(g73
g54
NtRp2154
(dp2155
g57
(dp2156
sg66
g2142
sg59
(lp2157
g52
(g53
g54
NtRp2158
(dp2159
g57
(dp2160
g65
I4
ssg66
g2154
sg59
(lp2161
g994
asbasbasbag52
(g68
g54
NtRp2162
(dp2163
g57
(dp2164
sg66
g2117
sg59
(lp2165
g52
(g73
g54
NtRp2166
(dp2167
g57
(dp2168
g77
g78
ssg66
g2162
sg59
(lp2169
g1003
asbag52
(g73
g54
NtRp2170
(dp2171
g57
(dp2172
g84
g85
ssg66
g2162
sg59
(lp2173
S':'
asbag52
(g73
g54
NtRp2174
(dp2175
g57
(dp2176
sg66
g2162
sg59
(lp2177
g52
(g53
g54
NtRp2178
(dp2179
g57
(dp2180
g65
I4
ssg66
g2174
sg59
(lp2181
g52
(g61
g54
NtRp2182
(dp2183
g57
(dp2184
g65
I3
ssg66
Nsg59
(lp2185
sbasbasbasbag52
(g68
g54
NtRp2186
(dp2187
g57
(dp2188
sg66
g2117
sg59
(lp2189
g52
(g73
g54
NtRp2190
(dp2191
g57
(dp2192
g77
g78
ssg66
g2186
sg59
(lp2193
g1028
asbag52
(g73
g54
NtRp2194
(dp2195
g57
(dp2196
g84
g85
ssg66
g2186
sg59
(lp2197
S':'
asbag52
(g73
g54
NtRp2198
(dp2199
g57
(dp2200
sg66
g2186
sg59
(lp2201
g52
(g53
g54
NtRp2202
(dp2203
g57
(dp2204
g65
I4
ssg66
g2198
sg59
(lp2205
S"<Values at 0x2d18f30: {'verbose': False, 'ip': '127.0.0.1', 'shutdown_timeout': 5, 'taskbar': False, 'nocron': False, 'pid_filename': 'httpserver.pid', 'maxthreads': None, 'softcron': False, 'server_name': 'hector-asus', 'bpython': False, 'nogui': False, 'port': 8000, 'extcron': False, 'debuglevel': 30, 'test': None, 'folder': 'C:\\\\Python32\\\\web2py', 'config': '', 'import_models': False, 'winservice': '', 'shell': None, 'run': '', 'log_filename': 'httpserver.log', 'args': [''], 'ssl_ca_certificate': None, 'scheduler': None, 'profiler_filename': None, 'ssl_private_key': '', 'password': '<ask>', 'request_queue_size': 5, 'ssl_certificate': '', 'cronjob': False, 'plain': False, 'quiet': False, 'interfaces': None, 'minthreads': None, 'timeout': 10, 'numthreads': None, 'nobanner': False}>"
p2206
asbasbasbag52
(g68
g54
NtRp2207
(dp2208
g57
(dp2209
sg66
g2117
sg59
(lp2210
g52
(g73
g54
NtRp2211
(dp2212
g57
(dp2213
g77
g78
ssg66
g2207
sg59
(lp2214
g1094
asbag52
(g73
g54
NtRp2215
(dp2216
g57
(dp2217
g84
g85
ssg66
g2207
sg59
(lp2218
S':'
asbag52
(g73
g54
NtRp2219
(dp2220
g57
(dp2221
sg66
g2207
sg59
(lp2222
g52
(g53
g54
NtRp2223
(dp2224
g57
(dp2225
g65
I4
ssg66
g2219
sg59
(lp2226
S'set([])'
p2227
asbasbasbag52
(g68
g54
NtRp2228
(dp2229
g57
(dp2230
sg66
g2117
sg59
(lp2231
g52
(g73
g54
NtRp2232
(dp2233
g57
(dp2234
g77
g78
ssg66
g2228
sg59
(lp2235
g1116
asbag52
(g73
g54
NtRp2236
(dp2237
g57
(dp2238
g84
g85
ssg66
g2228
sg59
(lp2239
S':'
asbag52
(g73
g54
NtRp2240
(dp2241
g57
(dp2242
sg66
g2228
sg59
(lp2243
g52
(g53
g54
NtRp2244
(dp2245
g57
(dp2246
g65
I4
ssg66
g2240
sg59
(lp2247
g95
asbasbasbag52
(g68
g54
NtRp2248
(dp2249
g57
(dp2250
sg66
g2117
sg59
(lp2251
g52
(g73
g54
NtRp2252
(dp2253
g57
(dp2254
g77
g78
ssg66
g2248
sg59
(lp2255
g1137
asbag52
(g73
g54
NtRp2256
(dp2257
g57
(dp2258
g84
g85
ssg66
g2248
sg59
(lp2259
S':'
asbag52
(g73
g54
NtRp2260
(dp2261
g57
(dp2262
sg66
g2248
sg59
(lp2263
g52
(g53
g54
NtRp2264
(dp2265
g57
(dp2266
g65
I4
ssg66
g2260
sg59
(lp2267
g1150
asbasbasbag52
(g68
g54
NtRp2268
(dp2269
g57
(dp2270
sg66
g2117
sg59
(lp2271
g52
(g73
g54
NtRp2272
(dp2273
g57
(dp2274
g77
g78
ssg66
g2268
sg59
(lp2275
g1443
asbag52
(g73
g54
NtRp2276
(dp2277
g57
(dp2278
g84
g85
ssg66
g2268
sg59
(lp2279
S':'
asbag52
(g73
g54
NtRp2280
(dp2281
g57
(dp2282
sg66
g2268
sg59
(lp2283
g52
(g53
g54
NtRp2284
(dp2285
g57
(dp2286
g65
I4
ssg66
g2280
sg59
(lp2287
g95
asbasbasbag52
(g68
g54
NtRp2288
(dp2289
g57
(dp2290
sg66
g2117
sg59
(lp2291
g52
(g73
g54
NtRp2292
(dp2293
g57
(dp2294
g77
g78
ssg66
g2288
sg59
(lp2295
g1681
asbag52
(g73
g54
NtRp2296
(dp2297
g57
(dp2298
g84
g85
ssg66
g2288
sg59
(lp2299
S':'
asbag52
(g73
g54
NtRp2300
(dp2301
g57
(dp2302
sg66
g2288
sg59
(lp2303
g52
(g53
g54
NtRp2304
(dp2305
g57
(dp2306
g65
I4
ssg66
g2300
sg59
(lp2307
g1694
asbasbasbag52
(g68
g54
NtRp2308
(dp2309
g57
(dp2310
sg66
g2117
sg59
(lp2311
g52
(g73
g54
NtRp2312
(dp2313
g57
(dp2314
g77
g78
ssg66
g2308
sg59
(lp2315
g1724
asbag52
(g73
g54
NtRp2316
(dp2317
g57
(dp2318
g84
g85
ssg66
g2308
sg59
(lp2319
S':'
asbag52
(g73
g54
NtRp2320
(dp2321
g57
(dp2322
sg66
g2308
sg59
(lp2323
g52
(g53
g54
NtRp2324
(dp2325
g57
(dp2326
g65
I4
ssg66
g2320
sg59
(lp2327
g52
(g61
g54
NtRp2328
(dp2329
g57
(dp2330
g65
I3
ssg66
Nsg59
(lp2331
g52
(g68
g54
NtRp2332
(dp2333
g57
(dp2334
sg66
g2328
sg59
(lp2335
g52
(g73
g54
NtRp2336
(dp2337
g57
(dp2338
sg66
g2332
sg59
(lp2339
g52
(g53
g54
NtRp2340
(dp2341
g57
(dp2342
g65
I3
ssg66
g2336
sg59
(lp2343
S'1'
asbasbasbag52
(g68
g54
NtRp2344
(dp2345
g57
(dp2346
sg66
g2328
sg59
(lp2347
g52
(g73
g54
NtRp2348
(dp2349
g57
(dp2350
sg66
g2344
sg59
(lp2351
g52
(g53
g54
NtRp2352
(dp2353
g57
(dp2354
g65
I3
ssg66
g2348
sg59
(lp2355
S'99'
p2356
asbasbasbag52
(g68
g54
NtRp2357
(dp2358
g57
(dp2359
sg66
g2328
sg59
(lp2360
g52
(g73
g54
NtRp2361
(dp2362
g57
(dp2363
sg66
g2357
sg59
(lp2364
g52
(g53
g54
NtRp2365
(dp2366
g57
(dp2367
g65
I3
ssg66
g2361
sg59
(lp2368
S'2'
asbasbasbag52
(g68
g54
NtRp2369
(dp2370
g57
(dp2371
sg66
g2328
sg59
(lp2372
g52
(g73
g54
NtRp2373
(dp2374
g57
(dp2375
sg66
g2369
sg59
(lp2376
g52
(g53
g54
NtRp2377
(dp2378
g57
(dp2379
g65
I3
ssg66
g2373
sg59
(lp2380
S'datetime.datetime(2011, 9, 26, 6, 55, 33)'
p2381
asbasbasbag52
(g68
g54
NtRp2382
(dp2383
g57
(dp2384
sg66
g2328
sg59
(lp2385
g52
(g73
g54
NtRp2386
(dp2387
g57
(dp2388
sg66
g2382
sg59
(lp2389
g52
(g53
g54
NtRp2390
(dp2391
g57
(dp2392
g65
I3
ssg66
g2386
sg59
(lp2393
g1803
asbasbasbasbasbasbasbasbasbasbasbag52
(g68
g54
NtRp2394
(dp2395
g57
(dp2396
sg66
g62
sg59
(lp2397
g52
(g73
g54
NtRp2398
(dp2399
g57
(dp2400
g77
g78
ssg66
g2394
sg59
(lp2401
S'is_https'
p2402
asbag52
(g73
g54
NtRp2403
(dp2404
g57
(dp2405
g84
g85
ssg66
g2394
sg59
(lp2406
S':'
asbag52
(g73
g54
NtRp2407
(dp2408
g57
(dp2409
sg66
g2394
sg59
(lp2410
g52
(g53
g54
NtRp2411
(dp2412
g57
(dp2413
g65
I5
ssg66
g2407
sg59
(lp2414
g95
asbasbasbag52
(g68
g54
NtRp2415
(dp2416
g57
(dp2417
sg66
g62
sg59
(lp2418
g52
(g73
g54
NtRp2419
(dp2420
g57
(dp2421
g77
g78
ssg66
g2415
sg59
(lp2422
S'is_local'
p2423
asbag52
(g73
g54
NtRp2424
(dp2425
g57
(dp2426
g84
g85
ssg66
g2415
sg59
(lp2427
S':'
asbag52
(g73
g54
NtRp2428
(dp2429
g57
(dp2430
sg66
g2415
sg59
(lp2431
g52
(g53
g54
NtRp2432
(dp2433
g57
(dp2434
g65
I5
ssg66
g2428
sg59
(lp2435
g1912
asbasbasbag52
(g68
g54
NtRp2436
(dp2437
g57
(dp2438
sg66
g62
sg59
(lp2439
g52
(g73
g54
NtRp2440
(dp2441
g57
(dp2442
g77
g78
ssg66
g2436
sg59
(lp2443
S'is_restful'
p2444
asbag52
(g73
g54
NtRp2445
(dp2446
g57
(dp2447
g84
g85
ssg66
g2436
sg59
(lp2448
S':'
asbag52
(g73
g54
NtRp2449
(dp2450
g57
(dp2451
sg66
g2436
sg59
(lp2452
g52
(g53
g54
NtRp2453
(dp2454
g57
(dp2455
g65
I5
ssg66
g2449
sg59
(lp2456
g95
asbasbasbag52
(g68
g54
NtRp2457
(dp2458
g57
(dp2459
sg66
g62
sg59
(lp2460
g52
(g73
g54
NtRp2461
(dp2462
g57
(dp2463
g77
g78
ssg66
g2457
sg59
(lp2464
S'now'
p2465
asbag52
(g73
g54
NtRp2466
(dp2467
g57
(dp2468
g84
g85
ssg66
g2457
sg59
(lp2469
S':'
asbag52
(g73
g54
NtRp2470
(dp2471
g57
(dp2472
sg66
g2457
sg59
(lp2473
g52
(g53
g54
NtRp2474
(dp2475
g57
(dp2476
g65
I5
ssg66
g2470
sg59
(lp2477
S'datetime.datetime(2011, 11, 12, 17, 40, 42, 99000)'
p2478
asbasbasbag52
(g68
g54
NtRp2479
(dp2480
g57
(dp2481
sg66
g62
sg59
(lp2482
g52
(g73
g54
NtRp2483
(dp2484
g57
(dp2485
g77
g78
ssg66
g2479
sg59
(lp2486
S'post_vars'
p2487
asbag52
(g73
g54
NtRp2488
(dp2489
g57
(dp2490
g84
g85
ssg66
g2479
sg59
(lp2491
S':'
asbag52
(g73
g54
NtRp2492
(dp2493
g57
(dp2494
sg66
g2479
sg59
(lp2495
g52
(g53
g54
NtRp2496
(dp2497
g57
(dp2498
g65
I5
ssg66
g2492
sg59
(lp2499
g52
(g61
g54
NtRp2500
(dp2501
g57
(dp2502
g65
I4
ssg66
Nsg59
(lp2503
g52
(g68
g54
NtRp2504
(dp2505
g57
(dp2506
sg66
g2500
sg59
(lp2507
g52
(g73
g54
NtRp2508
(dp2509
g57
(dp2510
g77
g78
ssg66
g2504
sg59
(lp2511
S'eventos_id'
p2512
asbag52
(g73
g54
NtRp2513
(dp2514
g57
(dp2515
g84
g85
ssg66
g2504
sg59
(lp2516
S':'
asbag52
(g73
g54
NtRp2517
(dp2518
g57
(dp2519
sg66
g2504
sg59
(lp2520
g52
(g53
g54
NtRp2521
(dp2522
g57
(dp2523
g65
I4
ssg66
g2517
sg59
(lp2524
S'1'
asbasbasbag52
(g68
g54
NtRp2525
(dp2526
g57
(dp2527
sg66
g2500
sg59
(lp2528
g52
(g73
g54
NtRp2529
(dp2530
g57
(dp2531
g77
g78
ssg66
g2525
sg59
(lp2532
S'limite_apuesta'
p2533
asbag52
(g73
g54
NtRp2534
(dp2535
g57
(dp2536
g84
g85
ssg66
g2525
sg59
(lp2537
S':'
asbag52
(g73
g54
NtRp2538
(dp2539
g57
(dp2540
sg66
g2525
sg59
(lp2541
g52
(g53
g54
NtRp2542
(dp2543
g57
(dp2544
g65
I4
ssg66
g2538
sg59
(lp2545
S'123'
p2546
asbasbasbag52
(g68
g54
NtRp2547
(dp2548
g57
(dp2549
sg66
g2500
sg59
(lp2550
g52
(g73
g54
NtRp2551
(dp2552
g57
(dp2553
g77
g78
ssg66
g2547
sg59
(lp2554
S'participantes_id'
p2555
asbag52
(g73
g54
NtRp2556
(dp2557
g57
(dp2558
g84
g85
ssg66
g2547
sg59
(lp2559
S':'
asbag52
(g73
g54
NtRp2560
(dp2561
g57
(dp2562
sg66
g2547
sg59
(lp2563
g52
(g53
g54
NtRp2564
(dp2565
g57
(dp2566
g65
I4
ssg66
g2560
sg59
(lp2567
S'1'
asbasbasbasbasbasbasbag52
(g68
g54
NtRp2568
(dp2569
g57
(dp2570
sg66
g62
sg59
(lp2571
g52
(g73
g54
NtRp2572
(dp2573
g57
(dp2574
g77
g78
ssg66
g2568
sg59
(lp2575
S'raw_args'
p2576
asbag52
(g73
g54
NtRp2577
(dp2578
g57
(dp2579
g84
g85
ssg66
g2568
sg59
(lp2580
S':'
asbag52
(g73
g54
NtRp2581
(dp2582
g57
(dp2583
sg66
g2568
sg59
(lp2584
g52
(g53
g54
NtRp2585
(dp2586
g57
(dp2587
g65
I5
ssg66
g2581
sg59
(lp2588
S'db/eventos_participantes'
p2589
asbasbasbag52
(g68
g54
NtRp2590
(dp2591
g57
(dp2592
sg66
g62
sg59
(lp2593
g52
(g73
g54
NtRp2594
(dp2595
g57
(dp2596
g77
g78
ssg66
g2590
sg59
(lp2597
S'url'
p2598
asbag52
(g73
g54
NtRp2599
(dp2600
g57
(dp2601
g84
g85
ssg66
g2590
sg59
(lp2602
S':'
asbag52
(g73
g54
NtRp2603
(dp2604
g57
(dp2605
sg66
g2590
sg59
(lp2606
g52
(g53
g54
NtRp2607
(dp2608
g57
(dp2609
g65
I5
ssg66
g2603
sg59
(lp2610
S'/Casa_de_Apuestas/appadmin/insert/db/eventos_participantes'
p2611
asbasbasbag52
(g68
g54
NtRp2612
(dp2613
g57
(dp2614
sg66
g62
sg59
(lp2615
g52
(g73
g54
NtRp2616
(dp2617
g57
(dp2618
g77
g78
ssg66
g2612
sg59
(lp2619
S'utcnow'
p2620
asbag52
(g73
g54
NtRp2621
(dp2622
g57
(dp2623
g84
g85
ssg66
g2612
sg59
(lp2624
S':'
asbag52
(g73
g54
NtRp2625
(dp2626
g57
(dp2627
sg66
g2612
sg59
(lp2628
g52
(g53
g54
NtRp2629
(dp2630
g57
(dp2631
g65
I5
ssg66
g2625
sg59
(lp2632
S'datetime.datetime(2011, 11, 12, 22, 10, 42, 99000)'
p2633
asbasbasbag52
(g68
g54
NtRp2634
(dp2635
g57
(dp2636
sg66
g62
sg59
(lp2637
g52
(g73
g54
NtRp2638
(dp2639
g57
(dp2640
g77
g78
ssg66
g2634
sg59
(lp2641
S'uuid'
p2642
asbag52
(g73
g54
NtRp2643
(dp2644
g57
(dp2645
g84
g85
ssg66
g2634
sg59
(lp2646
S':'
asbag52
(g73
g54
NtRp2647
(dp2648
g57
(dp2649
sg66
g2634
sg59
(lp2650
g52
(g53
g54
NtRp2651
(dp2652
g57
(dp2653
g65
I5
ssg66
g2647
sg59
(lp2654
S'Casa_de_Apuestas/127.0.0.1.2011-11-12.17-40-42.9f248c35-3138-4313-ac93-1b5d9083212f'
p2655
asbasbasbag52
(g68
g54
NtRp2656
(dp2657
g57
(dp2658
sg66
g62
sg59
(lp2659
g52
(g73
g54
NtRp2660
(dp2661
g57
(dp2662
g77
g78
ssg66
g2656
sg59
(lp2663
S'vars'
p2664
asbag52
(g73
g54
NtRp2665
(dp2666
g57
(dp2667
g84
g85
ssg66
g2656
sg59
(lp2668
S':'
asbag52
(g73
g54
NtRp2669
(dp2670
g57
(dp2671
sg66
g2656
sg59
(lp2672
g52
(g53
g54
NtRp2673
(dp2674
g57
(dp2675
g65
I5
ssg66
g2669
sg59
(lp2676
g52
(g61
g54
NtRp2677
(dp2678
g57
(dp2679
g65
I4
ssg66
Nsg59
(lp2680
g52
(g68
g54
NtRp2681
(dp2682
g57
(dp2683
sg66
g2677
sg59
(lp2684
g52
(g73
g54
NtRp2685
(dp2686
g57
(dp2687
g77
g78
ssg66
g2681
sg59
(lp2688
g2512
asbag52
(g73
g54
NtRp2689
(dp2690
g57
(dp2691
g84
g85
ssg66
g2681
sg59
(lp2692
S':'
asbag52
(g73
g54
NtRp2693
(dp2694
g57
(dp2695
sg66
g2681
sg59
(lp2696
g52
(g53
g54
NtRp2697
(dp2698
g57
(dp2699
g65
I4
ssg66
g2693
sg59
(lp2700
S'1'
asbasbasbag52
(g68
g54
NtRp2701
(dp2702
g57
(dp2703
sg66
g2677
sg59
(lp2704
g52
(g73
g54
NtRp2705
(dp2706
g57
(dp2707
g77
g78
ssg66
g2701
sg59
(lp2708
g2533
asbag52
(g73
g54
NtRp2709
(dp2710
g57
(dp2711
g84
g85
ssg66
g2701
sg59
(lp2712
S':'
asbag52
(g73
g54
NtRp2713
(dp2714
g57
(dp2715
sg66
g2701
sg59
(lp2716
g52
(g53
g54
NtRp2717
(dp2718
g57
(dp2719
g65
I4
ssg66
g2713
sg59
(lp2720
g2546
asbasbasbag52
(g68
g54
NtRp2721
(dp2722
g57
(dp2723
sg66
g2677
sg59
(lp2724
g52
(g73
g54
NtRp2725
(dp2726
g57
(dp2727
g77
g78
ssg66
g2721
sg59
(lp2728
g2555
asbag52
(g73
g54
NtRp2729
(dp2730
g57
(dp2731
g84
g85
ssg66
g2721
sg59
(lp2732
S':'
asbag52
(g73
g54
NtRp2733
(dp2734
g57
(dp2735
sg66
g2721
sg59
(lp2736
g52
(g53
g54
NtRp2737
(dp2738
g57
(dp2739
g65
I4
ssg66
g2733
sg59
(lp2740
S'1'
asbasbasbasbasbasbasbag52
(g68
g54
NtRp2741
(dp2742
g57
(dp2743
sg66
g62
sg59
(lp2744
g52
(g73
g54
NtRp2745
(dp2746
g57
(dp2747
g77
g78
ssg66
g2741
sg59
(lp2748
S'wsgi'
p2749
asbag52
(g73
g54
NtRp2750
(dp2751
g57
(dp2752
g84
g85
ssg66
g2741
sg59
(lp2753
S':'
asbag52
(g73
g54
NtRp2754
(dp2755
g57
(dp2756
sg66
g2741
sg59
(lp2757
g52
(g53
g54
NtRp2758
(dp2759
g57
(dp2760
g65
I5
ssg66
g2754
sg59
(lp2761
g52
(g61
g54
NtRp2762
(dp2763
g57
(dp2764
g65
I4
ssg66
Nsg59
(lp2765
g52
(g68
g54
NtRp2766
(dp2767
g57
(dp2768
sg66
g2762
sg59
(lp2769
g52
(g73
g54
NtRp2770
(dp2771
g57
(dp2772
g77
g78
ssg66
g2766
sg59
(lp2773
S'environ'
p2774
asbag52
(g73
g54
NtRp2775
(dp2776
g57
(dp2777
g84
g85
ssg66
g2766
sg59
(lp2778
S':'
asbag52
(g73
g54
NtRp2779
(dp2780
g57
(dp2781
sg66
g2766
sg59
(lp2782
g52
(g53
g54
NtRp2783
(dp2784
g57
(dp2785
g65
I4
ssg66
g2779
sg59
(lp2786
g52
(g61
g54
NtRp2787
(dp2788
g57
(dp2789
g65
I3
ssg66
Nsg59
(lp2790
g52
(g68
g54
NtRp2791
(dp2792
g57
(dp2793
sg66
g2787
sg59
(lp2794
g52
(g73
g54
NtRp2795
(dp2796
g57
(dp2797
g77
g78
ssg66
g2791
sg59
(lp2798
S'CONTENT_LENGTH'
p2799
asbag52
(g73
g54
NtRp2800
(dp2801
g57
(dp2802
g84
g85
ssg66
g2791
sg59
(lp2803
S':'
asbag52
(g73
g54
NtRp2804
(dp2805
g57
(dp2806
sg66
g2791
sg59
(lp2807
g52
(g53
g54
NtRp2808
(dp2809
g57
(dp2810
g65
I3
ssg66
g2804
sg59
(lp2811
g1063
asbasbasbag52
(g68
g54
NtRp2812
(dp2813
g57
(dp2814
sg66
g2787
sg59
(lp2815
g52
(g73
g54
NtRp2816
(dp2817
g57
(dp2818
g77
g78
ssg66
g2812
sg59
(lp2819
S'CONTENT_TYPE'
p2820
asbag52
(g73
g54
NtRp2821
(dp2822
g57
(dp2823
g84
g85
ssg66
g2812
sg59
(lp2824
S':'
asbag52
(g73
g54
NtRp2825
(dp2826
g57
(dp2827
sg66
g2812
sg59
(lp2828
g52
(g53
g54
NtRp2829
(dp2830
g57
(dp2831
g65
I3
ssg66
g2825
sg59
(lp2832
g1085
asbasbasbag52
(g68
g54
NtRp2833
(dp2834
g57
(dp2835
sg66
g2787
sg59
(lp2836
g52
(g73
g54
NtRp2837
(dp2838
g57
(dp2839
g77
g78
ssg66
g2833
sg59
(lp2840
S'HTTP_ACCEPT'
p2841
asbag52
(g73
g54
NtRp2842
(dp2843
g57
(dp2844
g84
g85
ssg66
g2833
sg59
(lp2845
S':'
asbag52
(g73
g54
NtRp2846
(dp2847
g57
(dp2848
sg66
g2833
sg59
(lp2849
g52
(g53
g54
NtRp2850
(dp2851
g57
(dp2852
g65
I3
ssg66
g2846
sg59
(lp2853
g1172
asbasbasbag52
(g68
g54
NtRp2854
(dp2855
g57
(dp2856
sg66
g2787
sg59
(lp2857
g52
(g73
g54
NtRp2858
(dp2859
g57
(dp2860
g77
g78
ssg66
g2854
sg59
(lp2861
S'HTTP_ACCEPT_CHARSET'
p2862
asbag52
(g73
g54
NtRp2863
(dp2864
g57
(dp2865
g84
g85
ssg66
g2854
sg59
(lp2866
S':'
asbag52
(g73
g54
NtRp2867
(dp2868
g57
(dp2869
sg66
g2854
sg59
(lp2870
g52
(g53
g54
NtRp2871
(dp2872
g57
(dp2873
g65
I3
ssg66
g2867
sg59
(lp2874
g1194
asbasbasbag52
(g68
g54
NtRp2875
(dp2876
g57
(dp2877
sg66
g2787
sg59
(lp2878
g52
(g73
g54
NtRp2879
(dp2880
g57
(dp2881
g77
g78
ssg66
g2875
sg59
(lp2882
S'HTTP_ACCEPT_ENCODING'
p2883
asbag52
(g73
g54
NtRp2884
(dp2885
g57
(dp2886
g84
g85
ssg66
g2875
sg59
(lp2887
S':'
asbag52
(g73
g54
NtRp2888
(dp2889
g57
(dp2890
sg66
g2875
sg59
(lp2891
g52
(g53
g54
NtRp2892
(dp2893
g57
(dp2894
g65
I3
ssg66
g2888
sg59
(lp2895
g1216
asbasbasbag52
(g68
g54
NtRp2896
(dp2897
g57
(dp2898
sg66
g2787
sg59
(lp2899
g52
(g73
g54
NtRp2900
(dp2901
g57
(dp2902
g77
g78
ssg66
g2896
sg59
(lp2903
S'HTTP_ACCEPT_LANGUAGE'
p2904
asbag52
(g73
g54
NtRp2905
(dp2906
g57
(dp2907
g84
g85
ssg66
g2896
sg59
(lp2908
S':'
asbag52
(g73
g54
NtRp2909
(dp2910
g57
(dp2911
sg66
g2896
sg59
(lp2912
g52
(g53
g54
NtRp2913
(dp2914
g57
(dp2915
g65
I3
ssg66
g2909
sg59
(lp2916
g1238
asbasbasbag52
(g68
g54
NtRp2917
(dp2918
g57
(dp2919
sg66
g2787
sg59
(lp2920
g52
(g73
g54
NtRp2921
(dp2922
g57
(dp2923
g77
g78
ssg66
g2917
sg59
(lp2924
S'HTTP_CACHE_CONTROL'
p2925
asbag52
(g73
g54
NtRp2926
(dp2927
g57
(dp2928
g84
g85
ssg66
g2917
sg59
(lp2929
S':'
asbag52
(g73
g54
NtRp2930
(dp2931
g57
(dp2932
sg66
g2917
sg59
(lp2933
g52
(g53
g54
NtRp2934
(dp2935
g57
(dp2936
g65
I3
ssg66
g2930
sg59
(lp2937
g1260
asbasbasbag52
(g68
g54
NtRp2938
(dp2939
g57
(dp2940
sg66
g2787
sg59
(lp2941
g52
(g73
g54
NtRp2942
(dp2943
g57
(dp2944
g77
g78
ssg66
g2938
sg59
(lp2945
S'HTTP_CONNECTION'
p2946
asbag52
(g73
g54
NtRp2947
(dp2948
g57
(dp2949
g84
g85
ssg66
g2938
sg59
(lp2950
S':'
asbag52
(g73
g54
NtRp2951
(dp2952
g57
(dp2953
sg66
g2938
sg59
(lp2954
g52
(g53
g54
NtRp2955
(dp2956
g57
(dp2957
g65
I3
ssg66
g2951
sg59
(lp2958
g1282
asbasbasbag52
(g68
g54
NtRp2959
(dp2960
g57
(dp2961
sg66
g2787
sg59
(lp2962
g52
(g73
g54
NtRp2963
(dp2964
g57
(dp2965
g77
g78
ssg66
g2959
sg59
(lp2966
S'HTTP_CONTENT_LENGTH'
p2967
asbag52
(g73
g54
NtRp2968
(dp2969
g57
(dp2970
g84
g85
ssg66
g2959
sg59
(lp2971
S':'
asbag52
(g73
g54
NtRp2972
(dp2973
g57
(dp2974
sg66
g2959
sg59
(lp2975
g52
(g53
g54
NtRp2976
(dp2977
g57
(dp2978
g65
I3
ssg66
g2972
sg59
(lp2979
g1063
asbasbasbag52
(g68
g54
NtRp2980
(dp2981
g57
(dp2982
sg66
g2787
sg59
(lp2983
g52
(g73
g54
NtRp2984
(dp2985
g57
(dp2986
g77
g78
ssg66
g2980
sg59
(lp2987
S'HTTP_CONTENT_TYPE'
p2988
asbag52
(g73
g54
NtRp2989
(dp2990
g57
(dp2991
g84
g85
ssg66
g2980
sg59
(lp2992
S':'
asbag52
(g73
g54
NtRp2993
(dp2994
g57
(dp2995
sg66
g2980
sg59
(lp2996
g52
(g53
g54
NtRp2997
(dp2998
g57
(dp2999
g65
I3
ssg66
g2993
sg59
(lp3000
g1085
asbasbasbag52
(g68
g54
NtRp3001
(dp3002
g57
(dp3003
sg66
g2787
sg59
(lp3004
g52
(g73
g54
NtRp3005
(dp3006
g57
(dp3007
g77
g78
ssg66
g3001
sg59
(lp3008
S'HTTP_COOKIE'
p3009
asbag52
(g73
g54
NtRp3010
(dp3011
g57
(dp3012
g84
g85
ssg66
g3001
sg59
(lp3013
S':'
asbag52
(g73
g54
NtRp3014
(dp3015
g57
(dp3016
sg66
g3001
sg59
(lp3017
g52
(g53
g54
NtRp3018
(dp3019
g57
(dp3020
g65
I3
ssg66
g3014
sg59
(lp3021
g1346
asbasbasbag52
(g68
g54
NtRp3022
(dp3023
g57
(dp3024
sg66
g2787
sg59
(lp3025
g52
(g73
g54
NtRp3026
(dp3027
g57
(dp3028
g77
g78
ssg66
g3022
sg59
(lp3029
S'HTTP_HOST'
p3030
asbag52
(g73
g54
NtRp3031
(dp3032
g57
(dp3033
g84
g85
ssg66
g3022
sg59
(lp3034
S':'
asbag52
(g73
g54
NtRp3035
(dp3036
g57
(dp3037
sg66
g3022
sg59
(lp3038
g52
(g53
g54
NtRp3039
(dp3040
g57
(dp3041
g65
I3
ssg66
g3035
sg59
(lp3042
g1368
asbasbasbag52
(g68
g54
NtRp3043
(dp3044
g57
(dp3045
sg66
g2787
sg59
(lp3046
g52
(g73
g54
NtRp3047
(dp3048
g57
(dp3049
g77
g78
ssg66
g3043
sg59
(lp3050
S'HTTP_ORIGIN'
p3051
asbag52
(g73
g54
NtRp3052
(dp3053
g57
(dp3054
g84
g85
ssg66
g3043
sg59
(lp3055
S':'
asbag52
(g73
g54
NtRp3056
(dp3057
g57
(dp3058
sg66
g3043
sg59
(lp3059
g52
(g53
g54
NtRp3060
(dp3061
g57
(dp3062
g65
I3
ssg66
g3056
sg59
(lp3063
g1390
asbasbasbag52
(g68
g54
NtRp3064
(dp3065
g57
(dp3066
sg66
g2787
sg59
(lp3067
g52
(g73
g54
NtRp3068
(dp3069
g57
(dp3070
g77
g78
ssg66
g3064
sg59
(lp3071
S'HTTP_REFERER'
p3072
asbag52
(g73
g54
NtRp3073
(dp3074
g57
(dp3075
g84
g85
ssg66
g3064
sg59
(lp3076
S':'
asbag52
(g73
g54
NtRp3077
(dp3078
g57
(dp3079
sg66
g3064
sg59
(lp3080
g52
(g53
g54
NtRp3081
(dp3082
g57
(dp3083
g65
I3
ssg66
g3077
sg59
(lp3084
g1412
asbasbasbag52
(g68
g54
NtRp3085
(dp3086
g57
(dp3087
sg66
g2787
sg59
(lp3088
g52
(g73
g54
NtRp3089
(dp3090
g57
(dp3091
g77
g78
ssg66
g3085
sg59
(lp3092
S'HTTP_USER_AGENT'
p3093
asbag52
(g73
g54
NtRp3094
(dp3095
g57
(dp3096
g84
g85
ssg66
g3085
sg59
(lp3097
S':'
asbag52
(g73
g54
NtRp3098
(dp3099
g57
(dp3100
sg66
g3085
sg59
(lp3101
g52
(g53
g54
NtRp3102
(dp3103
g57
(dp3104
g65
I3
ssg66
g3098
sg59
(lp3105
g1434
asbasbasbag52
(g68
g54
NtRp3106
(dp3107
g57
(dp3108
sg66
g2787
sg59
(lp3109
g52
(g73
g54
NtRp3110
(dp3111
g57
(dp3112
g77
g78
ssg66
g3106
sg59
(lp3113
S'PATH_INFO'
p3114
asbag52
(g73
g54
NtRp3115
(dp3116
g57
(dp3117
g84
g85
ssg66
g3106
sg59
(lp3118
S':'
asbag52
(g73
g54
NtRp3119
(dp3120
g57
(dp3121
sg66
g3106
sg59
(lp3122
g52
(g53
g54
NtRp3123
(dp3124
g57
(dp3125
g65
I3
ssg66
g3119
sg59
(lp3126
g1477
asbasbasbag52
(g68
g54
NtRp3127
(dp3128
g57
(dp3129
sg66
g2787
sg59
(lp3130
g52
(g73
g54
NtRp3131
(dp3132
g57
(dp3133
g77
g78
ssg66
g3127
sg59
(lp3134
S'QUERY_STRING'
p3135
asbag52
(g73
g54
NtRp3136
(dp3137
g57
(dp3138
g84
g85
ssg66
g3127
sg59
(lp3139
S':'
asbag52
(g73
g54
NtRp3140
(dp3141
g57
(dp3142
sg66
g3127
sg59
(lp3143
g52
(g53
g54
NtRp3144
(dp3145
g57
(dp3146
g65
I3
ssg66
g3140
sg59
(lp3147
S''
asbasbasbag52
(g68
g54
NtRp3148
(dp3149
g57
(dp3150
sg66
g2787
sg59
(lp3151
g52
(g73
g54
NtRp3152
(dp3153
g57
(dp3154
g77
g78
ssg66
g3148
sg59
(lp3155
S'REMOTE_ADDR'
p3156
asbag52
(g73
g54
NtRp3157
(dp3158
g57
(dp3159
g84
g85
ssg66
g3148
sg59
(lp3160
S':'
asbag52
(g73
g54
NtRp3161
(dp3162
g57
(dp3163
sg66
g3148
sg59
(lp3164
g52
(g53
g54
NtRp3165
(dp3166
g57
(dp3167
g65
I3
ssg66
g3161
sg59
(lp3168
g211
asbasbasbag52
(g68
g54
NtRp3169
(dp3170
g57
(dp3171
sg66
g2787
sg59
(lp3172
g52
(g73
g54
NtRp3173
(dp3174
g57
(dp3175
g77
g78
ssg66
g3169
sg59
(lp3176
S'REMOTE_PORT'
p3177
asbag52
(g73
g54
NtRp3178
(dp3179
g57
(dp3180
g84
g85
ssg66
g3169
sg59
(lp3181
S':'
asbag52
(g73
g54
NtRp3182
(dp3183
g57
(dp3184
sg66
g3169
sg59
(lp3185
g52
(g53
g54
NtRp3186
(dp3187
g57
(dp3188
g65
I3
ssg66
g3182
sg59
(lp3189
g1541
asbasbasbag52
(g68
g54
NtRp3190
(dp3191
g57
(dp3192
sg66
g2787
sg59
(lp3193
g52
(g73
g54
NtRp3194
(dp3195
g57
(dp3196
g77
g78
ssg66
g3190
sg59
(lp3197
S'REQUEST_METHOD'
p3198
asbag52
(g73
g54
NtRp3199
(dp3200
g57
(dp3201
g84
g85
ssg66
g3190
sg59
(lp3202
S':'
asbag52
(g73
g54
NtRp3203
(dp3204
g57
(dp3205
sg66
g3190
sg59
(lp3206
g52
(g53
g54
NtRp3207
(dp3208
g57
(dp3209
g65
I3
ssg66
g3203
sg59
(lp3210
g1563
asbasbasbag52
(g68
g54
NtRp3211
(dp3212
g57
(dp3213
sg66
g2787
sg59
(lp3214
g52
(g73
g54
NtRp3215
(dp3216
g57
(dp3217
g77
g78
ssg66
g3211
sg59
(lp3218
S'SCRIPT_NAME'
p3219
asbag52
(g73
g54
NtRp3220
(dp3221
g57
(dp3222
g84
g85
ssg66
g3211
sg59
(lp3223
S':'
asbag52
(g73
g54
NtRp3224
(dp3225
g57
(dp3226
sg66
g3211
sg59
(lp3227
g52
(g53
g54
NtRp3228
(dp3229
g57
(dp3230
g65
I3
ssg66
g3224
sg59
(lp3231
S''
asbasbasbag52
(g68
g54
NtRp3232
(dp3233
g57
(dp3234
sg66
g2787
sg59
(lp3235
g52
(g73
g54
NtRp3236
(dp3237
g57
(dp3238
g77
g78
ssg66
g3232
sg59
(lp3239
S'SERVER_NAME'
p3240
asbag52
(g73
g54
NtRp3241
(dp3242
g57
(dp3243
g84
g85
ssg66
g3232
sg59
(lp3244
S':'
asbag52
(g73
g54
NtRp3245
(dp3246
g57
(dp3247
sg66
g3232
sg59
(lp3248
g52
(g53
g54
NtRp3249
(dp3250
g57
(dp3251
g65
I3
ssg66
g3245
sg59
(lp3252
g1606
asbasbasbag52
(g68
g54
NtRp3253
(dp3254
g57
(dp3255
sg66
g2787
sg59
(lp3256
g52
(g73
g54
NtRp3257
(dp3258
g57
(dp3259
g77
g78
ssg66
g3253
sg59
(lp3260
S'SERVER_PORT'
p3261
asbag52
(g73
g54
NtRp3262
(dp3263
g57
(dp3264
g84
g85
ssg66
g3253
sg59
(lp3265
S':'
asbag52
(g73
g54
NtRp3266
(dp3267
g57
(dp3268
sg66
g3253
sg59
(lp3269
g52
(g53
g54
NtRp3270
(dp3271
g57
(dp3272
g65
I3
ssg66
g3266
sg59
(lp3273
g1628
asbasbasbag52
(g68
g54
NtRp3274
(dp3275
g57
(dp3276
sg66
g2787
sg59
(lp3277
g52
(g73
g54
NtRp3278
(dp3279
g57
(dp3280
g77
g78
ssg66
g3274
sg59
(lp3281
S'SERVER_PROTOCOL'
p3282
asbag52
(g73
g54
NtRp3283
(dp3284
g57
(dp3285
g84
g85
ssg66
g3274
sg59
(lp3286
S':'
asbag52
(g73
g54
NtRp3287
(dp3288
g57
(dp3289
sg66
g3274
sg59
(lp3290
g52
(g53
g54
NtRp3291
(dp3292
g57
(dp3293
g65
I3
ssg66
g3287
sg59
(lp3294
g1650
asbasbasbag52
(g68
g54
NtRp3295
(dp3296
g57
(dp3297
sg66
g2787
sg59
(lp3298
g52
(g73
g54
NtRp3299
(dp3300
g57
(dp3301
g77
g78
ssg66
g3295
sg59
(lp3302
S'SERVER_SOFTWARE'
p3303
asbag52
(g73
g54
NtRp3304
(dp3305
g57
(dp3306
g84
g85
ssg66
g3295
sg59
(lp3307
S':'
asbag52
(g73
g54
NtRp3308
(dp3309
g57
(dp3310
sg66
g3295
sg59
(lp3311
g52
(g53
g54
NtRp3312
(dp3313
g57
(dp3314
g65
I3
ssg66
g3308
sg59
(lp3315
g1672
asbasbasbag52
(g68
g54
NtRp3316
(dp3317
g57
(dp3318
sg66
g2787
sg59
(lp3319
g52
(g73
g54
NtRp3320
(dp3321
g57
(dp3322
g77
g78
ssg66
g3316
sg59
(lp3323
S'wsgi.errors'
p3324
asbag52
(g73
g54
NtRp3325
(dp3326
g57
(dp3327
g84
g85
ssg66
g3316
sg59
(lp3328
S':'
asbag52
(g73
g54
NtRp3329
(dp3330
g57
(dp3331
sg66
g3316
sg59
(lp3332
g52
(g53
g54
NtRp3333
(dp3334
g57
(dp3335
g65
I3
ssg66
g3329
sg59
(lp3336
S"<open file '<stderr>', mode 'w' at 0x01FA00B0>"
p3337
asbasbasbag52
(g68
g54
NtRp3338
(dp3339
g57
(dp3340
sg66
g2787
sg59
(lp3341
g52
(g73
g54
NtRp3342
(dp3343
g57
(dp3344
g77
g78
ssg66
g3338
sg59
(lp3345
S'wsgi.file_wrapper'
p3346
asbag52
(g73
g54
NtRp3347
(dp3348
g57
(dp3349
g84
g85
ssg66
g3338
sg59
(lp3350
S':'
asbag52
(g73
g54
NtRp3351
(dp3352
g57
(dp3353
sg66
g3338
sg59
(lp3354
g52
(g53
g54
NtRp3355
(dp3356
g57
(dp3357
g65
I3
ssg66
g3351
sg59
(lp3358
S'<class wsgiref.util.FileWrapper at 0x02AB0D80>'
p3359
asbasbasbag52
(g68
g54
NtRp3360
(dp3361
g57
(dp3362
sg66
g2787
sg59
(lp3363
g52
(g73
g54
NtRp3364
(dp3365
g57
(dp3366
g77
g78
ssg66
g3360
sg59
(lp3367
S'wsgi.input'
p3368
asbag52
(g73
g54
NtRp3369
(dp3370
g57
(dp3371
g84
g85
ssg66
g3360
sg59
(lp3372
S':'
asbag52
(g73
g54
NtRp3373
(dp3374
g57
(dp3375
sg66
g3360
sg59
(lp3376
g52
(g53
g54
NtRp3377
(dp3378
g57
(dp3379
g65
I3
ssg66
g3373
sg59
(lp3380
S"<open file '<fdopen>', mode 'w+b' at 0x02ED4218>"
p3381
asbasbasbag52
(g68
g54
NtRp3382
(dp3383
g57
(dp3384
sg66
g2787
sg59
(lp3385
g52
(g73
g54
NtRp3386
(dp3387
g57
(dp3388
g77
g78
ssg66
g3382
sg59
(lp3389
S'wsgi.multiprocess'
p3390
asbag52
(g73
g54
NtRp3391
(dp3392
g57
(dp3393
g84
g85
ssg66
g3382
sg59
(lp3394
S':'
asbag52
(g73
g54
NtRp3395
(dp3396
g57
(dp3397
sg66
g3382
sg59
(lp3398
g52
(g53
g54
NtRp3399
(dp3400
g57
(dp3401
g65
I3
ssg66
g3395
sg59
(lp3402
g95
asbasbasbag52
(g68
g54
NtRp3403
(dp3404
g57
(dp3405
sg66
g2787
sg59
(lp3406
g52
(g73
g54
NtRp3407
(dp3408
g57
(dp3409
g77
g78
ssg66
g3403
sg59
(lp3410
S'wsgi.multithread'
p3411
asbag52
(g73
g54
NtRp3412
(dp3413
g57
(dp3414
g84
g85
ssg66
g3403
sg59
(lp3415
S':'
asbag52
(g73
g54
NtRp3416
(dp3417
g57
(dp3418
sg66
g3403
sg59
(lp3419
g52
(g53
g54
NtRp3420
(dp3421
g57
(dp3422
g65
I3
ssg66
g3416
sg59
(lp3423
g1912
asbasbasbag52
(g68
g54
NtRp3424
(dp3425
g57
(dp3426
sg66
g2787
sg59
(lp3427
g52
(g73
g54
NtRp3428
(dp3429
g57
(dp3430
g77
g78
ssg66
g3424
sg59
(lp3431
S'wsgi.run_once'
p3432
asbag52
(g73
g54
NtRp3433
(dp3434
g57
(dp3435
g84
g85
ssg66
g3424
sg59
(lp3436
S':'
asbag52
(g73
g54
NtRp3437
(dp3438
g57
(dp3439
sg66
g3424
sg59
(lp3440
g52
(g53
g54
NtRp3441
(dp3442
g57
(dp3443
g65
I3
ssg66
g3437
sg59
(lp3444
g95
asbasbasbag52
(g68
g54
NtRp3445
(dp3446
g57
(dp3447
sg66
g2787
sg59
(lp3448
g52
(g73
g54
NtRp3449
(dp3450
g57
(dp3451
g77
g78
ssg66
g3445
sg59
(lp3452
S'wsgi.url_scheme'
p3453
asbag52
(g73
g54
NtRp3454
(dp3455
g57
(dp3456
g84
g85
ssg66
g3445
sg59
(lp3457
S':'
asbag52
(g73
g54
NtRp3458
(dp3459
g57
(dp3460
sg66
g3445
sg59
(lp3461
g52
(g53
g54
NtRp3462
(dp3463
g57
(dp3464
g65
I3
ssg66
g3458
sg59
(lp3465
g1955
asbasbasbag52
(g68
g54
NtRp3466
(dp3467
g57
(dp3468
sg66
g2787
sg59
(lp3469
g52
(g73
g54
NtRp3470
(dp3471
g57
(dp3472
g77
g78
ssg66
g3466
sg59
(lp3473
S'wsgi.version'
p3474
asbag52
(g73
g54
NtRp3475
(dp3476
g57
(dp3477
g84
g85
ssg66
g3466
sg59
(lp3478
S':'
asbag52
(g73
g54
NtRp3479
(dp3480
g57
(dp3481
sg66
g3466
sg59
(lp3482
g52
(g53
g54
NtRp3483
(dp3484
g57
(dp3485
g65
I3
ssg66
g3479
sg59
(lp3486
S'1'
asbasbasbasbasbasbasbasbasbasbasbasbasbsS'frames'
p3487
(lp3488
(dp3489
S'file'
p3490
S'C:\\Python32\\web2py\\gluon\\restricted.py'
p3491
sS'dump'
p3492
(dp3493
sS'lnum'
p3494
I194
sS'lines'
p3495
(dp3496
sS'call'
p3497
S"(code='# -*- coding: utf-8 -*-\\n\\n# #####################...=disk)\\n\\n\\nresponse._vars=response._caller(insert)\\n', environment={'A': <class 'gluon.html.A'>, 'Auth': <class 'gluon.tools.Auth'>, 'B': <class 'gluon.html.B'>, 'BEAUTIFY': <class 'gluon.html.BEAUTIFY'>, 'BODY': <class 'gluon.html.BODY'>, 'BR': <class 'gluon.html.BR'>, 'BUTTON': <class 'gluon.html.BUTTON'>, 'CAT': <class 'gluon.html.CAT'>, 'CENTER': <class 'gluon.html.CENTER'>, 'CLEANUP': <class 'gluon.validators.CLEANUP'>, ...}, layer=r'C:\\Python32\\web2py\\applications\\Casa_de_Apuestas\\controllers/appadmin.py')"
p3498
sS'func'
p3499
S'restricted'
p3500
sa(dp3501
g3490
S'C:\\Python32\\web2py\\applications\\Casa_de_Apuestas\\controllers\\appadmin.py'
p3502
sg3492
(dp3503
sg3494
I410
sg3495
(dp3504
I399
S''
sI400
S'        return (hours, minutes, seconds)'
p3505
sI401
S''
sI402
S"    ram['oldest'] = GetInHMS(time.time() - ram['oldest'])"
p3506
sI403
S"    disk['oldest'] = GetInHMS(time.time() - disk['oldest'])"
p3507
sI404
S"    total['oldest'] = GetInHMS(time.time() - total['oldest'])"
p3508
sI405
S''
sI406
S'    return dict(form=form, total=total,'
p3509
sI407
S'                ram=ram, disk=disk)'
p3510
sI408
S''
ssg3497
S'()'
p3511
sg3499
S'<module>'
p3512
sa(dp3513
g3490
S'C:\\Python32\\web2py\\gluon\\globals.py'
p3514
sg3492
(dp3515
sg3494
I149
sg3495
(dp3516
sg3497
S'(f=<function insert at 0x06275A70>)'
p3517
sg3499
S'<lambda>'
p3518
sa(dp3519
g3490
S'C:\\Python32\\web2py\\applications\\Casa_de_Apuestas\\controllers\\appadmin.py'
p3520
sg3492
(dp3521
sg3494
I127
sg3495
(dp3522
I128
S"        response.flash = T('new record inserted')"
p3523
sI129
S'    return dict(form=form,table=db[table])'
p3524
sI130
S''
sI131
S''
sI122
S''
sI123
S''
sI124
S'def insert():'
p3525
sI125
S'    (db, table) = get_table(request)'
p3526
sI126
S'    form = SQLFORM(db[table], ignore_rw=ignore_rw)'
p3527
sI127
S'    if form.accepts(request.vars, session):'
p3528
ssg3497
S'()'
p3529
sg3499
S'insert'
p3530
sa(dp3531
g3490
S'C:\\Python32\\web2py\\gluon\\sqlhtml.py'
p3532
sg3492
(dp3533
sg3494
I1248
sg3495
(dp3534
sg3497
S"(self=<gluon.sqlhtml.SQLFORM object at 0x0659D370>, request_vars=<Storage {'limite_apuesta': '123', '_formkey': '..._participantes/create', 'participantes_id': '1'}>, session=<Storage {'last_query': 'db.eventos_participante...on__hash': '\\xb2?\\x1d}\\xa9\\xb51h)\\xcd\\xcdl,X[['}>, formname='eventos_participantes/create', keepvalues=False, onvalidation=None, dbio=True, hideerror=False, detect_record_change=False)"
p3535
sg3499
S'accepts'
p3536
sa(dp3537
g3490
S'C:\\Python32\\web2py\\gluon\\dal.py'
p3538
sg3492
(dp3539
sg3494
I4976
sg3495
(dp3540
sg3497
S"(self=<Table {'ALL': <gluon.dal.SQLALL object at 0x063...puesta': <gluon.dal.Field object at 0x063DD6D0>}>, **fields={'eventos_id': '1', 'limite_apuesta': 123, 'participantes_id': '1'})"
p3541
sg3499
g3530
sa(dp3542
g3490
S'C:\\Python32\\web2py\\gluon\\dal.py'
p3543
sg3492
(dp3544
sg3494
I886
sg3495
(dp3545
sg3497
S"(self=<gluon.dal.SQLiteAdapter object at 0x06422970>, table=<Table {'ALL': <gluon.dal.SQLALL object at 0x063...puesta': <gluon.dal.Field object at 0x063DD6D0>}>, fields=[(<gluon.dal.Field object at 0x063DD590>, '1'), (<gluon.dal.Field object at 0x063DD6D0>, 123), (<gluon.dal.Field object at 0x063DDE30>, '1')])"
p3546
sg3499
g3530
sasS'pyver'
p3547
S'Python 2.5.4: C:\\Python32\\web2py\\web2py.exe'
p3548
sS'session'
p3549
g52
(g53
g54
NtRp3550
(dp3551
g57
(dp3552
sg59
(lp3553
g52
(g61
g54
NtRp3554
(dp3555
g57
(dp3556
g65
I5
ssg66
Nsg59
(lp3557
g52
(g68
g54
NtRp3558
(dp3559
g57
(dp3560
sg66
g3554
sg59
(lp3561
g52
(g73
g54
NtRp3562
(dp3563
g57
(dp3564
g77
g78
ssg66
g3558
sg59
(lp3565
S'last_query'
p3566
asbag52
(g73
g54
NtRp3567
(dp3568
g57
(dp3569
g84
g85
ssg66
g3558
sg59
(lp3570
S':'
asbag52
(g73
g54
NtRp3571
(dp3572
g57
(dp3573
sg66
g3558
sg59
(lp3574
g52
(g53
g54
NtRp3575
(dp3576
g57
(dp3577
g65
I5
ssg66
g3571
sg59
(lp3578
S'db.eventos_participantes.eventos_id>0'
p3579
asbasbasbasbasbsS'etype'
p3580
S"<class 'sqlite3.OperationalError'>"
p3581
sS'date'
p3582
S'Sat Nov 12 17:40:42 2011'
p3583
sS'response'
p3584
g52
(g53
g54
NtRp3585
(dp3586
g57
(dp3587
sg59
(lp3588
g52
(g61
g54
NtRp3589
(dp3590
g57
(dp3591
g65
I5
ssg66
Nsg59
(lp3592
g52
(g68
g54
NtRp3593
(dp3594
g57
(dp3595
sg66
g3589
sg59
(lp3596
g52
(g73
g54
NtRp3597
(dp3598
g57
(dp3599
g77
g78
ssg66
g3593
sg59
(lp3600
g176
asbag52
(g73
g54
NtRp3601
(dp3602
g57
(dp3603
g84
g85
ssg66
g3593
sg59
(lp3604
S':'
asbag52
(g73
g54
NtRp3605
(dp3606
g57
(dp3607
sg66
g3593
sg59
(lp3608
g52
(g53
g54
NtRp3609
(dp3610
g57
(dp3611
g65
I5
ssg66
g3605
sg59
(lp3612
S'<cStringIO.StringO object at 0x06285660>'
p3613
asbasbasbag52
(g68
g54
NtRp3614
(dp3615
g57
(dp3616
sg66
g3589
sg59
(lp3617
g52
(g73
g54
NtRp3618
(dp3619
g57
(dp3620
g77
g78
ssg66
g3614
sg59
(lp3621
g242
asbag52
(g73
g54
NtRp3622
(dp3623
g57
(dp3624
g84
g85
ssg66
g3614
sg59
(lp3625
S':'
asbag52
(g73
g54
NtRp3626
(dp3627
g57
(dp3628
sg66
g3614
sg59
(lp3629
g52
(g53
g54
NtRp3630
(dp3631
g57
(dp3632
g65
I5
ssg66
g3626
sg59
(lp3633
g52
(g61
g54
NtRp3634
(dp3635
g57
(dp3636
g65
I4
ssg66
Nsg59
(lp3637
g52
(g68
g54
NtRp3638
(dp3639
g57
(dp3640
sg66
g3634
sg59
(lp3641
g52
(g73
g54
NtRp3642
(dp3643
g57
(dp3644
g77
g78
ssg66
g3638
sg59
(lp3645
S'session_id_casa_de_apuestas'
p3646
asbag52
(g73
g54
NtRp3647
(dp3648
g57
(dp3649
g84
g85
ssg66
g3638
sg59
(lp3650
S':'
asbag52
(g73
g54
NtRp3651
(dp3652
g57
(dp3653
sg66
g3638
sg59
(lp3654
g52
(g53
g54
NtRp3655
(dp3656
g57
(dp3657
g65
I4
ssg66
g3651
sg59
(lp3658
g52
(g61
g54
NtRp3659
(dp3660
g57
(dp3661
g65
I3
ssg66
Nsg59
(lp3662
g52
(g68
g54
NtRp3663
(dp3664
g57
(dp3665
sg66
g3659
sg59
(lp3666
g52
(g73
g54
NtRp3667
(dp3668
g57
(dp3669
g77
g78
ssg66
g3663
sg59
(lp3670
g292
asbag52
(g73
g54
NtRp3671
(dp3672
g57
(dp3673
g84
g85
ssg66
g3663
sg59
(lp3674
S':'
asbag52
(g73
g54
NtRp3675
(dp3676
g57
(dp3677
sg66
g3663
sg59
(lp3678
g52
(g53
g54
NtRp3679
(dp3680
g57
(dp3681
g65
I3
ssg66
g3675
sg59
(lp3682
S''
asbasbasbag52
(g68
g54
NtRp3683
(dp3684
g57
(dp3685
sg66
g3659
sg59
(lp3686
g52
(g73
g54
NtRp3687
(dp3688
g57
(dp3689
g77
g78
ssg66
g3683
sg59
(lp3690
g313
asbag52
(g73
g54
NtRp3691
(dp3692
g57
(dp3693
g84
g85
ssg66
g3683
sg59
(lp3694
S':'
asbag52
(g73
g54
NtRp3695
(dp3696
g57
(dp3697
sg66
g3683
sg59
(lp3698
g52
(g53
g54
NtRp3699
(dp3700
g57
(dp3701
g65
I3
ssg66
g3695
sg59
(lp3702
S''
asbasbasbag52
(g68
g54
NtRp3703
(dp3704
g57
(dp3705
sg66
g3659
sg59
(lp3706
g52
(g73
g54
NtRp3707
(dp3708
g57
(dp3709
g77
g78
ssg66
g3703
sg59
(lp3710
g334
asbag52
(g73
g54
NtRp3711
(dp3712
g57
(dp3713
g84
g85
ssg66
g3703
sg59
(lp3714
S':'
asbag52
(g73
g54
NtRp3715
(dp3716
g57
(dp3717
sg66
g3703
sg59
(lp3718
g52
(g53
g54
NtRp3719
(dp3720
g57
(dp3721
g65
I3
ssg66
g3715
sg59
(lp3722
S''
asbasbasbag52
(g68
g54
NtRp3723
(dp3724
g57
(dp3725
sg66
g3659
sg59
(lp3726
g52
(g73
g54
NtRp3727
(dp3728
g57
(dp3729
g77
g78
ssg66
g3723
sg59
(lp3730
g355
asbag52
(g73
g54
NtRp3731
(dp3732
g57
(dp3733
g84
g85
ssg66
g3723
sg59
(lp3734
S':'
asbag52
(g73
g54
NtRp3735
(dp3736
g57
(dp3737
sg66
g3723
sg59
(lp3738
g52
(g53
g54
NtRp3739
(dp3740
g57
(dp3741
g65
I3
ssg66
g3735
sg59
(lp3742
S''
asbasbasbag52
(g68
g54
NtRp3743
(dp3744
g57
(dp3745
sg66
g3659
sg59
(lp3746
g52
(g73
g54
NtRp3747
(dp3748
g57
(dp3749
g77
g78
ssg66
g3743
sg59
(lp3750
g376
asbag52
(g73
g54
NtRp3751
(dp3752
g57
(dp3753
g84
g85
ssg66
g3743
sg59
(lp3754
S':'
asbag52
(g73
g54
NtRp3755
(dp3756
g57
(dp3757
sg66
g3743
sg59
(lp3758
g52
(g53
g54
NtRp3759
(dp3760
g57
(dp3761
g65
I3
ssg66
g3755
sg59
(lp3762
S'/'
asbasbasbag52
(g68
g54
NtRp3763
(dp3764
g57
(dp3765
sg66
g3659
sg59
(lp3766
g52
(g73
g54
NtRp3767
(dp3768
g57
(dp3769
g77
g78
ssg66
g3763
sg59
(lp3770
g397
asbag52
(g73
g54
NtRp3771
(dp3772
g57
(dp3773
g84
g85
ssg66
g3763
sg59
(lp3774
S':'
asbag52
(g73
g54
NtRp3775
(dp3776
g57
(dp3777
sg66
g3763
sg59
(lp3778
g52
(g53
g54
NtRp3779
(dp3780
g57
(dp3781
g65
I3
ssg66
g3775
sg59
(lp3782
S''
asbasbasbag52
(g68
g54
NtRp3783
(dp3784
g57
(dp3785
sg66
g3659
sg59
(lp3786
g52
(g73
g54
NtRp3787
(dp3788
g57
(dp3789
g77
g78
ssg66
g3783
sg59
(lp3790
g418
asbag52
(g73
g54
NtRp3791
(dp3792
g57
(dp3793
g84
g85
ssg66
g3783
sg59
(lp3794
S':'
asbag52
(g73
g54
NtRp3795
(dp3796
g57
(dp3797
sg66
g3783
sg59
(lp3798
g52
(g53
g54
NtRp3799
(dp3800
g57
(dp3801
g65
I3
ssg66
g3795
sg59
(lp3802
S''
asbasbasbasbasbasbasbasbasbasbasbag52
(g68
g54
NtRp3803
(dp3804
g57
(dp3805
sg66
g3589
sg59
(lp3806
g52
(g73
g54
NtRp3807
(dp3808
g57
(dp3809
g77
g78
ssg66
g3803
sg59
(lp3810
S'files'
p3811
asbag52
(g73
g54
NtRp3812
(dp3813
g57
(dp3814
g84
g85
ssg66
g3803
sg59
(lp3815
S':'
asbag52
(g73
g54
NtRp3816
(dp3817
g57
(dp3818
sg66
g3803
sg59
(lp3819
g52
(g53
g54
NtRp3820
(dp3821
g57
(dp3822
g65
I5
ssg66
g3816
sg59
(lp3823
g52
(g61
g54
NtRp3824
(dp3825
g57
(dp3826
g65
I4
ssg66
Nsg59
(lp3827
sbasbasbasbag52
(g68
g54
NtRp3828
(dp3829
g57
(dp3830
sg66
g3589
sg59
(lp3831
g52
(g73
g54
NtRp3832
(dp3833
g57
(dp3834
g77
g78
ssg66
g3828
sg59
(lp3835
S'flash'
p3836
asbag52
(g73
g54
NtRp3837
(dp3838
g57
(dp3839
g84
g85
ssg66
g3828
sg59
(lp3840
S':'
asbag52
(g73
g54
NtRp3841
(dp3842
g57
(dp3843
sg66
g3828
sg59
(lp3844
g52
(g53
g54
NtRp3845
(dp3846
g57
(dp3847
g65
I5
ssg66
g3841
sg59
(lp3848
S''
asbasbasbag52
(g68
g54
NtRp3849
(dp3850
g57
(dp3851
sg66
g3589
sg59
(lp3852
g52
(g73
g54
NtRp3853
(dp3854
g57
(dp3855
g77
g78
ssg66
g3849
sg59
(lp3856
S'generic_patterns'
p3857
asbag52
(g73
g54
NtRp3858
(dp3859
g57
(dp3860
g84
g85
ssg66
g3849
sg59
(lp3861
S':'
asbag52
(g73
g54
NtRp3862
(dp3863
g57
(dp3864
sg66
g3849
sg59
(lp3865
g52
(g53
g54
NtRp3866
(dp3867
g57
(dp3868
g65
I5
ssg66
g3862
sg59
(lp3869
g52
(g61
g54
NtRp3870
(dp3871
g57
(dp3872
g65
I4
ssg66
Nsg59
(lp3873
g52
(g68
g54
NtRp3874
(dp3875
g57
(dp3876
sg66
g3870
sg59
(lp3877
g52
(g73
g54
NtRp3878
(dp3879
g57
(dp3880
sg66
g3874
sg59
(lp3881
g52
(g53
g54
NtRp3882
(dp3883
g57
(dp3884
g65
I4
ssg66
g3878
sg59
(lp3885
S'*'
asbasbasbasbasbasbasbag52
(g68
g54
NtRp3886
(dp3887
g57
(dp3888
sg66
g3589
sg59
(lp3889
g52
(g73
g54
NtRp3890
(dp3891
g57
(dp3892
g77
g78
ssg66
g3886
sg59
(lp3893
S'headers'
p3894
asbag52
(g73
g54
NtRp3895
(dp3896
g57
(dp3897
g84
g85
ssg66
g3886
sg59
(lp3898
S':'
asbag52
(g73
g54
NtRp3899
(dp3900
g57
(dp3901
sg66
g3886
sg59
(lp3902
g52
(g53
g54
NtRp3903
(dp3904
g57
(dp3905
g65
I5
ssg66
g3899
sg59
(lp3906
g52
(g61
g54
NtRp3907
(dp3908
g57
(dp3909
g65
I4
ssg66
Nsg59
(lp3910
g52
(g68
g54
NtRp3911
(dp3912
g57
(dp3913
sg66
g3907
sg59
(lp3914
g52
(g73
g54
NtRp3915
(dp3916
g57
(dp3917
g77
g78
ssg66
g3911
sg59
(lp3918
S'Cache-Control'
p3919
asbag52
(g73
g54
NtRp3920
(dp3921
g57
(dp3922
g84
g85
ssg66
g3911
sg59
(lp3923
S':'
asbag52
(g73
g54
NtRp3924
(dp3925
g57
(dp3926
sg66
g3911
sg59
(lp3927
g52
(g53
g54
NtRp3928
(dp3929
g57
(dp3930
g65
I4
ssg66
g3924
sg59
(lp3931
S'no-store, no-cache, must-revalidate, post-check=0, pre-check=0'
p3932
asbasbasbag52
(g68
g54
NtRp3933
(dp3934
g57
(dp3935
sg66
g3907
sg59
(lp3936
g52
(g73
g54
NtRp3937
(dp3938
g57
(dp3939
g77
g78
ssg66
g3933
sg59
(lp3940
S'Content-Type'
p3941
asbag52
(g73
g54
NtRp3942
(dp3943
g57
(dp3944
g84
g85
ssg66
g3933
sg59
(lp3945
S':'
asbag52
(g73
g54
NtRp3946
(dp3947
g57
(dp3948
sg66
g3933
sg59
(lp3949
g52
(g53
g54
NtRp3950
(dp3951
g57
(dp3952
g65
I4
ssg66
g3946
sg59
(lp3953
S'text/html; charset=utf-8'
p3954
asbasbasbag52
(g68
g54
NtRp3955
(dp3956
g57
(dp3957
sg66
g3907
sg59
(lp3958
g52
(g73
g54
NtRp3959
(dp3960
g57
(dp3961
g77
g78
ssg66
g3955
sg59
(lp3962
S'Expires'
p3963
asbag52
(g73
g54
NtRp3964
(dp3965
g57
(dp3966
g84
g85
ssg66
g3955
sg59
(lp3967
S':'
asbag52
(g73
g54
NtRp3968
(dp3969
g57
(dp3970
sg66
g3955
sg59
(lp3971
g52
(g53
g54
NtRp3972
(dp3973
g57
(dp3974
g65
I4
ssg66
g3968
sg59
(lp3975
S'Sat, 12 Nov 2011 22:10:42 GMT'
p3976
asbasbasbag52
(g68
g54
NtRp3977
(dp3978
g57
(dp3979
sg66
g3907
sg59
(lp3980
g52
(g73
g54
NtRp3981
(dp3982
g57
(dp3983
g77
g78
ssg66
g3977
sg59
(lp3984
S'Pragma'
p3985
asbag52
(g73
g54
NtRp3986
(dp3987
g57
(dp3988
g84
g85
ssg66
g3977
sg59
(lp3989
S':'
asbag52
(g73
g54
NtRp3990
(dp3991
g57
(dp3992
sg66
g3977
sg59
(lp3993
g52
(g53
g54
NtRp3994
(dp3995
g57
(dp3996
g65
I4
ssg66
g3990
sg59
(lp3997
S'no-cache'
p3998
asbasbasbag52
(g68
g54
NtRp3999
(dp4000
g57
(dp4001
sg66
g3907
sg59
(lp4002
g52
(g73
g54
NtRp4003
(dp4004
g57
(dp4005
g77
g78
ssg66
g3999
sg59
(lp4006
S'X-Powered-By'
p4007
asbag52
(g73
g54
NtRp4008
(dp4009
g57
(dp4010
g84
g85
ssg66
g3999
sg59
(lp4011
S':'
asbag52
(g73
g54
NtRp4012
(dp4013
g57
(dp4014
sg66
g3999
sg59
(lp4015
g52
(g53
g54
NtRp4016
(dp4017
g57
(dp4018
g65
I4
ssg66
g4012
sg59
(lp4019
S'web2py'
p4020
asbasbasbasbasbasbasbag52
(g68
g54
NtRp4021
(dp4022
g57
(dp4023
sg66
g3589
sg59
(lp4024
g52
(g73
g54
NtRp4025
(dp4026
g57
(dp4027
g77
g78
ssg66
g4021
sg59
(lp4028
S'menu'
p4029
asbag52
(g73
g54
NtRp4030
(dp4031
g57
(dp4032
g84
g85
ssg66
g4021
sg59
(lp4033
S':'
asbag52
(g73
g54
NtRp4034
(dp4035
g57
(dp4036
sg66
g4021
sg59
(lp4037
g52
(g53
g54
NtRp4038
(dp4039
g57
(dp4040
g65
I5
ssg66
g4034
sg59
(lp4041
g52
(g61
g54
NtRp4042
(dp4043
g57
(dp4044
g65
I4
ssg66
Nsg59
(lp4045
g52
(g68
g54
NtRp4046
(dp4047
g57
(dp4048
sg66
g4042
sg59
(lp4049
g52
(g73
g54
NtRp4050
(dp4051
g57
(dp4052
sg66
g4046
sg59
(lp4053
g52
(g53
g54
NtRp4054
(dp4055
g57
(dp4056
g65
I4
ssg66
g4050
sg59
(lp4057
g52
(g61
g54
NtRp4058
(dp4059
g57
(dp4060
g65
I3
ssg66
Nsg59
(lp4061
g52
(g68
g54
NtRp4062
(dp4063
g57
(dp4064
sg66
g4058
sg59
(lp4065
g52
(g73
g54
NtRp4066
(dp4067
g57
(dp4068
sg66
g4062
sg59
(lp4069
g52
(g53
g54
NtRp4070
(dp4071
g57
(dp4072
g65
I3
ssg66
g4066
sg59
(lp4073
cgluon.languages
lazyT_unpickle
p4074
(S's\x06\x00\x00\x00design'
tRp4075
asbasbasbag52
(g68
g54
NtRp4076
(dp4077
g57
(dp4078
sg66
g4058
sg59
(lp4079
g52
(g73
g54
NtRp4080
(dp4081
g57
(dp4082
sg66
g4076
sg59
(lp4083
g52
(g53
g54
NtRp4084
(dp4085
g57
(dp4086
g65
I3
ssg66
g4080
sg59
(lp4087
g95
asbasbasbag52
(g68
g54
NtRp4088
(dp4089
g57
(dp4090
sg66
g4058
sg59
(lp4091
g52
(g73
g54
NtRp4092
(dp4093
g57
(dp4094
sg66
g4088
sg59
(lp4095
g52
(g53
g54
NtRp4096
(dp4097
g57
(dp4098
g65
I3
ssg66
g4092
sg59
(lp4099
S'/admin/default/design/Casa_de_Apuestas'
p4100
asbasbasbasbasbasbasbag52
(g68
g54
NtRp4101
(dp4102
g57
(dp4103
sg66
g4042
sg59
(lp4104
g52
(g73
g54
NtRp4105
(dp4106
g57
(dp4107
sg66
g4101
sg59
(lp4108
g52
(g53
g54
NtRp4109
(dp4110
g57
(dp4111
g65
I4
ssg66
g4105
sg59
(lp4112
g52
(g61
g54
NtRp4113
(dp4114
g57
(dp4115
g65
I3
ssg66
Nsg59
(lp4116
g52
(g68
g54
NtRp4117
(dp4118
g57
(dp4119
sg66
g4113
sg59
(lp4120
g52
(g73
g54
NtRp4121
(dp4122
g57
(dp4123
sg66
g4117
sg59
(lp4124
g52
(g53
g54
NtRp4125
(dp4126
g57
(dp4127
g65
I3
ssg66
g4121
sg59
(lp4128
g4074
(S's\x02\x00\x00\x00db'
tRp4129
asbasbasbag52
(g68
g54
NtRp4130
(dp4131
g57
(dp4132
sg66
g4113
sg59
(lp4133
g52
(g73
g54
NtRp4134
(dp4135
g57
(dp4136
sg66
g4130
sg59
(lp4137
g52
(g53
g54
NtRp4138
(dp4139
g57
(dp4140
g65
I3
ssg66
g4134
sg59
(lp4141
g95
asbasbasbag52
(g68
g54
NtRp4142
(dp4143
g57
(dp4144
sg66
g4113
sg59
(lp4145
g52
(g73
g54
NtRp4146
(dp4147
g57
(dp4148
sg66
g4142
sg59
(lp4149
g52
(g53
g54
NtRp4150
(dp4151
g57
(dp4152
g65
I3
ssg66
g4146
sg59
(lp4153
S'/Casa_de_Apuestas/appadmin/index'
p4154
asbasbasbasbasbasbasbag52
(g68
g54
NtRp4155
(dp4156
g57
(dp4157
sg66
g4042
sg59
(lp4158
g52
(g73
g54
NtRp4159
(dp4160
g57
(dp4161
sg66
g4155
sg59
(lp4162
g52
(g53
g54
NtRp4163
(dp4164
g57
(dp4165
g65
I4
ssg66
g4159
sg59
(lp4166
g52
(g61
g54
NtRp4167
(dp4168
g57
(dp4169
g65
I3
ssg66
Nsg59
(lp4170
g52
(g68
g54
NtRp4171
(dp4172
g57
(dp4173
sg66
g4167
sg59
(lp4174
g52
(g73
g54
NtRp4175
(dp4176
g57
(dp4177
sg66
g4171
sg59
(lp4178
g52
(g53
g54
NtRp4179
(dp4180
g57
(dp4181
g65
I3
ssg66
g4175
sg59
(lp4182
g4074
(S's\x05\x00\x00\x00state'
tRp4183
asbasbasbag52
(g68
g54
NtRp4184
(dp4185
g57
(dp4186
sg66
g4167
sg59
(lp4187
g52
(g73
g54
NtRp4188
(dp4189
g57
(dp4190
sg66
g4184
sg59
(lp4191
g52
(g53
g54
NtRp4192
(dp4193
g57
(dp4194
g65
I3
ssg66
g4188
sg59
(lp4195
g95
asbasbasbag52
(g68
g54
NtRp4196
(dp4197
g57
(dp4198
sg66
g4167
sg59
(lp4199
g52
(g73
g54
NtRp4200
(dp4201
g57
(dp4202
sg66
g4196
sg59
(lp4203
g52
(g53
g54
NtRp4204
(dp4205
g57
(dp4206
g65
I3
ssg66
g4200
sg59
(lp4207
S'/Casa_de_Apuestas/appadmin/state'
p4208
asbasbasbasbasbasbasbag52
(g68
g54
NtRp4209
(dp4210
g57
(dp4211
sg66
g4042
sg59
(lp4212
g52
(g73
g54
NtRp4213
(dp4214
g57
(dp4215
sg66
g4209
sg59
(lp4216
g52
(g53
g54
NtRp4217
(dp4218
g57
(dp4219
g65
I4
ssg66
g4213
sg59
(lp4220
g52
(g61
g54
NtRp4221
(dp4222
g57
(dp4223
g65
I3
ssg66
Nsg59
(lp4224
g52
(g68
g54
NtRp4225
(dp4226
g57
(dp4227
sg66
g4221
sg59
(lp4228
g52
(g73
g54
NtRp4229
(dp4230
g57
(dp4231
sg66
g4225
sg59
(lp4232
g52
(g53
g54
NtRp4233
(dp4234
g57
(dp4235
g65
I3
ssg66
g4229
sg59
(lp4236
g4074
(S's\x05\x00\x00\x00cache'
tRp4237
asbasbasbag52
(g68
g54
NtRp4238
(dp4239
g57
(dp4240
sg66
g4221
sg59
(lp4241
g52
(g73
g54
NtRp4242
(dp4243
g57
(dp4244
sg66
g4238
sg59
(lp4245
g52
(g53
g54
NtRp4246
(dp4247
g57
(dp4248
g65
I3
ssg66
g4242
sg59
(lp4249
g95
asbasbasbag52
(g68
g54
NtRp4250
(dp4251
g57
(dp4252
sg66
g4221
sg59
(lp4253
g52
(g73
g54
NtRp4254
(dp4255
g57
(dp4256
sg66
g4250
sg59
(lp4257
g52
(g53
g54
NtRp4258
(dp4259
g57
(dp4260
g65
I3
ssg66
g4254
sg59
(lp4261
S'/Casa_de_Apuestas/appadmin/ccache'
p4262
asbasbasbasbasbasbasbasbasbasbasbag52
(g68
g54
NtRp4263
(dp4264
g57
(dp4265
sg66
g3589
sg59
(lp4266
g52
(g73
g54
NtRp4267
(dp4268
g57
(dp4269
g77
g78
ssg66
g4263
sg59
(lp4270
S'meta'
p4271
asbag52
(g73
g54
NtRp4272
(dp4273
g57
(dp4274
g84
g85
ssg66
g4263
sg59
(lp4275
S':'
asbag52
(g73
g54
NtRp4276
(dp4277
g57
(dp4278
sg66
g4263
sg59
(lp4279
g52
(g53
g54
NtRp4280
(dp4281
g57
(dp4282
g65
I5
ssg66
g4276
sg59
(lp4283
g52
(g61
g54
NtRp4284
(dp4285
g57
(dp4286
g65
I4
ssg66
Nsg59
(lp4287
g52
(g68
g54
NtRp4288
(dp4289
g57
(dp4290
sg66
g4284
sg59
(lp4291
g52
(g73
g54
NtRp4292
(dp4293
g57
(dp4294
g77
g78
ssg66
g4288
sg59
(lp4295
S'author'
p4296
asbag52
(g73
g54
NtRp4297
(dp4298
g57
(dp4299
g84
g85
ssg66
g4288
sg59
(lp4300
S':'
asbag52
(g73
g54
NtRp4301
(dp4302
g57
(dp4303
sg66
g4288
sg59
(lp4304
g52
(g53
g54
NtRp4305
(dp4306
g57
(dp4307
g65
I4
ssg66
g4301
sg59
(lp4308
S'JSG Systems <jsg@example.com>'
p4309
asbasbasbag52
(g68
g54
NtRp4310
(dp4311
g57
(dp4312
sg66
g4284
sg59
(lp4313
g52
(g73
g54
NtRp4314
(dp4315
g57
(dp4316
g77
g78
ssg66
g4310
sg59
(lp4317
S'description'
p4318
asbag52
(g73
g54
NtRp4319
(dp4320
g57
(dp4321
g84
g85
ssg66
g4310
sg59
(lp4322
S':'
asbag52
(g73
g54
NtRp4323
(dp4324
g57
(dp4325
sg66
g4310
sg59
(lp4326
g52
(g53
g54
NtRp4327
(dp4328
g57
(dp4329
g65
I4
ssg66
g4323
sg59
(lp4330
S''
asbasbasbag52
(g68
g54
NtRp4331
(dp4332
g57
(dp4333
sg66
g4284
sg59
(lp4334
g52
(g73
g54
NtRp4335
(dp4336
g57
(dp4337
g77
g78
ssg66
g4331
sg59
(lp4338
S'keywords'
p4339
asbag52
(g73
g54
NtRp4340
(dp4341
g57
(dp4342
g84
g85
ssg66
g4331
sg59
(lp4343
S':'
asbag52
(g73
g54
NtRp4344
(dp4345
g57
(dp4346
sg66
g4331
sg59
(lp4347
g52
(g53
g54
NtRp4348
(dp4349
g57
(dp4350
g65
I4
ssg66
g4344
sg59
(lp4351
S'casa, apuestas'
p4352
asbasbasbasbasbasbasbag52
(g68
g54
NtRp4353
(dp4354
g57
(dp4355
sg66
g3589
sg59
(lp4356
g52
(g73
g54
NtRp4357
(dp4358
g57
(dp4359
g77
g78
ssg66
g4353
sg59
(lp4360
S'postprocessing'
p4361
asbag52
(g73
g54
NtRp4362
(dp4363
g57
(dp4364
g84
g85
ssg66
g4353
sg59
(lp4365
S':'
asbag52
(g73
g54
NtRp4366
(dp4367
g57
(dp4368
sg66
g4353
sg59
(lp4369
g52
(g53
g54
NtRp4370
(dp4371
g57
(dp4372
g65
I5
ssg66
g4366
sg59
(lp4373
g52
(g61
g54
NtRp4374
(dp4375
g57
(dp4376
g65
I4
ssg66
Nsg59
(lp4377
sbasbasbasbag52
(g68
g54
NtRp4378
(dp4379
g57
(dp4380
sg66
g3589
sg59
(lp4381
g52
(g73
g54
NtRp4382
(dp4383
g57
(dp4384
g77
g78
ssg66
g4378
sg59
(lp4385
S'session_file'
p4386
asbag52
(g73
g54
NtRp4387
(dp4388
g57
(dp4389
g84
g85
ssg66
g4378
sg59
(lp4390
S':'
asbag52
(g73
g54
NtRp4391
(dp4392
g57
(dp4393
sg66
g4378
sg59
(lp4394
g52
(g53
g54
NtRp4395
(dp4396
g57
(dp4397
g65
I5
ssg66
g4391
sg59
(lp4398
S"<open file 'C:\\Python32\\web2py\\applications\\Casa_de_Apuestas\\sessions\\127.0.0.1-ff075696-a054-47b7-bd6f-733e6903bb65', mode 'rb+' at 0x02ED48D8>"
p4399
asbasbasbag52
(g68
g54
NtRp4400
(dp4401
g57
(dp4402
sg66
g3589
sg59
(lp4403
g52
(g73
g54
NtRp4404
(dp4405
g57
(dp4406
g77
g78
ssg66
g4400
sg59
(lp4407
S'session_filename'
p4408
asbag52
(g73
g54
NtRp4409
(dp4410
g57
(dp4411
g84
g85
ssg66
g4400
sg59
(lp4412
S':'
asbag52
(g73
g54
NtRp4413
(dp4414
g57
(dp4415
sg66
g4400
sg59
(lp4416
g52
(g53
g54
NtRp4417
(dp4418
g57
(dp4419
g65
I5
ssg66
g4413
sg59
(lp4420
S'C:\\Python32\\web2py\\applications\\Casa_de_Apuestas\\sessions\\127.0.0.1-ff075696-a054-47b7-bd6f-733e6903bb65'
p4421
asbasbasbag52
(g68
g54
NtRp4422
(dp4423
g57
(dp4424
sg66
g3589
sg59
(lp4425
g52
(g73
g54
NtRp4426
(dp4427
g57
(dp4428
g77
g78
ssg66
g4422
sg59
(lp4429
S'session_id'
p4430
asbag52
(g73
g54
NtRp4431
(dp4432
g57
(dp4433
g84
g85
ssg66
g4422
sg59
(lp4434
S':'
asbag52
(g73
g54
NtRp4435
(dp4436
g57
(dp4437
sg66
g4422
sg59
(lp4438
g52
(g53
g54
NtRp4439
(dp4440
g57
(dp4441
g65
I5
ssg66
g4435
sg59
(lp4442
S'127.0.0.1-ff075696-a054-47b7-bd6f-733e6903bb65'
p4443
asbasbasbag52
(g68
g54
NtRp4444
(dp4445
g57
(dp4446
sg66
g3589
sg59
(lp4447
g52
(g73
g54
NtRp4448
(dp4449
g57
(dp4450
g77
g78
ssg66
g4444
sg59
(lp4451
S'session_id_name'
p4452
asbag52
(g73
g54
NtRp4453
(dp4454
g57
(dp4455
g84
g85
ssg66
g4444
sg59
(lp4456
S':'
asbag52
(g73
g54
NtRp4457
(dp4458
g57
(dp4459
sg66
g4444
sg59
(lp4460
g52
(g53
g54
NtRp4461
(dp4462
g57
(dp4463
g65
I5
ssg66
g4457
sg59
(lp4464
g3646
asbasbasbag52
(g68
g54
NtRp4465
(dp4466
g57
(dp4467
sg66
g3589
sg59
(lp4468
g52
(g73
g54
NtRp4469
(dp4470
g57
(dp4471
g77
g78
ssg66
g4465
sg59
(lp4472
S'session_locked'
p4473
asbag52
(g73
g54
NtRp4474
(dp4475
g57
(dp4476
g84
g85
ssg66
g4465
sg59
(lp4477
S':'
asbag52
(g73
g54
NtRp4478
(dp4479
g57
(dp4480
sg66
g4465
sg59
(lp4481
g52
(g53
g54
NtRp4482
(dp4483
g57
(dp4484
g65
I5
ssg66
g4478
sg59
(lp4485
g1912
asbasbasbag52
(g68
g54
NtRp4486
(dp4487
g57
(dp4488
sg66
g3589
sg59
(lp4489
g52
(g73
g54
NtRp4490
(dp4491
g57
(dp4492
g77
g78
ssg66
g4486
sg59
(lp4493
S'session_new'
p4494
asbag52
(g73
g54
NtRp4495
(dp4496
g57
(dp4497
g84
g85
ssg66
g4486
sg59
(lp4498
S':'
asbag52
(g73
g54
NtRp4499
(dp4500
g57
(dp4501
sg66
g4486
sg59
(lp4502
g52
(g53
g54
NtRp4503
(dp4504
g57
(dp4505
g65
I5
ssg66
g4499
sg59
(lp4506
g95
asbasbasbag52
(g68
g54
NtRp4507
(dp4508
g57
(dp4509
sg66
g3589
sg59
(lp4510
g52
(g73
g54
NtRp4511
(dp4512
g57
(dp4513
g77
g78
ssg66
g4507
sg59
(lp4514
S'status'
p4515
asbag52
(g73
g54
NtRp4516
(dp4517
g57
(dp4518
g84
g85
ssg66
g4507
sg59
(lp4519
S':'
asbag52
(g73
g54
NtRp4520
(dp4521
g57
(dp4522
sg66
g4507
sg59
(lp4523
g52
(g53
g54
NtRp4524
(dp4525
g57
(dp4526
g65
I5
ssg66
g4520
sg59
(lp4527
S'200'
p4528
asbasbasbag52
(g68
g54
NtRp4529
(dp4530
g57
(dp4531
sg66
g3589
sg59
(lp4532
g52
(g73
g54
NtRp4533
(dp4534
g57
(dp4535
g77
g78
ssg66
g4529
sg59
(lp4536
S'subtitle'
p4537
asbag52
(g73
g54
NtRp4538
(dp4539
g57
(dp4540
g84
g85
ssg66
g4529
sg59
(lp4541
S':'
asbag52
(g73
g54
NtRp4542
(dp4543
g57
(dp4544
sg66
g4529
sg59
(lp4545
g52
(g53
g54
NtRp4546
(dp4547
g57
(dp4548
g65
I5
ssg66
g4542
sg59
(lp4549
S''
asbasbasbag52
(g68
g54
NtRp4550
(dp4551
g57
(dp4552
sg66
g3589
sg59
(lp4553
g52
(g73
g54
NtRp4554
(dp4555
g57
(dp4556
g77
g78
ssg66
g4550
sg59
(lp4557
S'title'
p4558
asbag52
(g73
g54
NtRp4559
(dp4560
g57
(dp4561
g84
g85
ssg66
g4550
sg59
(lp4562
S':'
asbag52
(g73
g54
NtRp4563
(dp4564
g57
(dp4565
sg66
g4550
sg59
(lp4566
g52
(g53
g54
NtRp4567
(dp4568
g57
(dp4569
g65
I5
ssg66
g4563
sg59
(lp4570
S'Casa de Apuestas'
p4571
asbasbasbag52
(g68
g54
NtRp4572
(dp4573
g57
(dp4574
sg66
g3589
sg59
(lp4575
g52
(g73
g54
NtRp4576
(dp4577
g57
(dp4578
g77
g78
ssg66
g4572
sg59
(lp4579
g2642
asbag52
(g73
g54
NtRp4580
(dp4581
g57
(dp4582
g84
g85
ssg66
g4572
sg59
(lp4583
S':'
asbag52
(g73
g54
NtRp4584
(dp4585
g57
(dp4586
sg66
g4572
sg59
(lp4587
g52
(g53
g54
NtRp4588
(dp4589
g57
(dp4590
g65
I5
ssg66
g4584
sg59
(lp4591
g2655
asbasbasbag52
(g68
g54
NtRp4592
(dp4593
g57
(dp4594
sg66
g3589
sg59
(lp4595
g52
(g73
g54
NtRp4596
(dp4597
g57
(dp4598
g77
g78
ssg66
g4592
sg59
(lp4599
S'view'
p4600
asbag52
(g73
g54
NtRp4601
(dp4602
g57
(dp4603
g84
g85
ssg66
g4592
sg59
(lp4604
S':'
asbag52
(g73
g54
NtRp4605
(dp4606
g57
(dp4607
sg66
g4592
sg59
(lp4608
g52
(g53
g54
NtRp4609
(dp4610
g57
(dp4611
g65
I5
ssg66
g4605
sg59
(lp4612
S'appadmin.html'
p4613
asbasbasbasbasbsS'locals'
p4614
(dp4615
S'query'
p4616
S"'INSERT INTO eventos_participantes(eventos_id,limite_apuesta,participantes_id) VALUES (1,123,1);'"
p4617
sS'self'
p4618
S'<gluon.dal.SQLiteAdapter object at 0x06422970>'
p4619
sS'e'
S"OperationalError('no such table: eventos_participantes',)"
p4620
sS'fields'
p4621
S"[(<gluon.dal.Field object at 0x063DD590>, '1'), (<gluon.dal.Field object at 0x063DD6D0>, 123), (<gluon.dal.Field object at 0x063DDE30>, '1')]"
p4622
sS'table'
p4623
S"<Table {'ALL': <gluon.dal.SQLALL object at 0x063...puesta': <gluon.dal.Field object at 0x063DD6D0>}>"
p4624
sssS'traceback'
p4625
S'Traceback (most recent call last):\n  File "gluon/restricted.py", line 194, in restricted\n  File "C:\\Python32\\web2py\\applications\\Casa_de_Apuestas\\controllers/appadmin.py", line 410, in <module>\n  File "gluon/globals.py", line 149, in <lambda>\n  File "C:\\Python32\\web2py\\applications\\Casa_de_Apuestas\\controllers/appadmin.py", line 127, in insert\n  File "gluon/sqlhtml.py", line 1248, in accepts\n  File "gluon/dal.py", line 4976, in insert\n  File "gluon/dal.py", line 886, in insert\nOperationalError: no such table: eventos_participantes\n'
p4626
s.