(dp1
S'output'
p2
S''
sS'layer'
p3
S'C:\\Python32\\web2py_win\\web2py\\applications\\Casa_de_Apuestas\\controllers/default.py'
p4
sS'code'
p5
S'# -*- coding: utf-8 -*-\n### required - do no delete\n"""\nEste Modulo corresponde al de controladores segun MVC, los metodos aqui contenidos\nson los encargados de invocar a las vistas, eso esta configurado en el framework\n"""\nfrom Servicio import *\nservice = Servicio(db, crud)\nfrom log import *\nlog = log()\n\ndef user(): return dict(form=auth())\ndef download(): return response.download(request,db)\ndef call(): return service()\n\n### end requires\n\n@auth.requires_login()\ndef index():\n    return dict()\n\ndef error():\n    return dict()\n\ndef maquinas():\n    form = crud.update(db.maquinas, request.args(0),next=URL(\'maquinas\'))\n    maquinas = db().select(db.maquinas.ALL)\n    coordenadas = False\n    if (request.args(0)):\n        for i, maquina in enumerate(maquinas):\n            if (i == request.args(0)):\n                break\n        coordenadas = dict(lon=maquina.longitud,lat=maquina.latitud)                    \n    return dict(form=form, maquinas=maquinas, coordenadas=coordenadas)\n\ndef crearCategoria():\n        categorias = db().select(db.categorias.ALL)\n        form = crud.create(db.categorias)\n        #if form.accepts(request.vars, formname=None):\n        if form.process().accepted:\n            db.commit()        \n            from log import *\n            log = log()\n            log.logear("Categoria creada: "+form.vars.nombre)\n        return response.render(dict(form=form, categorias=categorias))\n\ndef obtenerCategoria():\n        if not request.vars.categorias:\n            return \'\'\n        patron = request.vars.categorias.capitalize() + \'%\'\n        seleccionado = db(db.categorias.nombre.like(patron)).select()\n        return \'\'.join([DIV(k.nombre,\n                     _onclick="jQuery(\'#categorias\').val(\'%s\')" % k.nombre +\n                     ";document.getElementById(\'sugerencias\').innerHTML = \'\';" +\n                     "document.getElementById(\'eventos_categoria_id\').value=\'27\';",\n                     _onmouseover="this.style.backgroundColor=\'yellow\'",\n                     _onmouseout="this.style.backgroundColor=\'white\'"\n                     ).xml() for k in seleccionado])\n\ndef crearEvento():\n        eventos = db().select(db.eventos.ALL)\n        form = crud.create(db.eventos)\n        #if form.accepts(request.vars, formname=None):\n        if form.process().accepted:\n            db.commit()        \n            from log import *\n            log = log()\n            log.logear("Evento creado: "+form.vars.nombre)\n        return response.render(dict(form=form,eventos=eventos))\n\ndef crearParticipante():\n        participantes = db().select(db.participantes.ALL)\n        form = crud.create(db.participantes)\n        #if form.accepts(request.vars, formname=None):\n        if form.process().accepted:\n            db.commit()        \n            from log import *\n            log = log()\n            log.logear("Participante creado: "+form.vars.nombre)\n        return response.render(dict(form=form,participantes=participantes))\n\ndef crearEventoParticipante():\n        eventosparticipantes = db().select(db.eventosparticipantes.ALL)\n        form = crud.create(db.eventosparticipantes)\n        #if form.accepts(request.vars, formname=None):\n        if form.process().accepted:\n            db.commit()        \n            from log import *\n            log = log()\n            log.logear("EventoParticipante creado: "+form.vars.nombre)\n        return response.render(dict(form=form,eventosparticipantes=eventosparticipantes))\n\ndef crearUsuario():\n        usuarios = db().select(db.auth_user.ALL)\n        form = crud.create(db.auth_user)\n        #if form.accepts(request.vars, formname=None):\n        if form.process().accepted:\n            db.commit()        \n            from log import *\n            log = log()\n            log.logear("Usuario creado: "+form.vars.nombre)\n        return response.render(dict(form=form,usuarios=usuarios))\n    \n\ndef mostrarCategoria():\n        categorias = db().select(db.categorias.ALL, orderby = db.categorias.id)\n        return response.render(dict(categorias = categorias))\n\ndef mostrarEvento():\n        eventos = db().select(db.eventos.ALL, orderby = db.eventos.id)\n        return response.render(dict(eventos = eventos))\n\ndef mostrarParticipante():\n        participantes = db().select(db.participantes.ALL, orderby = db.participantes.id)\n        return response.render(dict(participantes = participantes))\n\ndef mostrarEventosParticipantes():\n        eventosparticipantes = db().select(db.eventosparticipantes.ALL,orderby = db.eventosparticipantes.id)\n        return response.render(dict(eventosparticipantes= eventosparticipantes))\n    \ndef mostrarUsuario():\n        usuarios = db().select(db.auth_user.ALL, orderby = db.auth_user.id)\n        return response.render(dict(usuarios = usuarios))\n    \n    \n    \ndef showEvento():\n        form = crud.update(db.eventos, request.args(0),next = URL(\'mostrarEvento\'))\n        #if form.accepts(request.vars, formname=None):\n        if form.process().accepted:\n            db.commit()        \n            from log import *\n            log = log()\n            log.logear("Evento modificado: "+form.vars.nombre)           \n        return response.render(dict(form = form))\n\ndef showCategoria():\n        form =crud.update(db.categorias, request.args(0), next = URL(\'mostrarCategoria\'))\n        #if form.accepts(request.vars, formname=None):\n        if form.process().accepted:\n            db.commit()        \n            from log import *\n            log = log()\n            log.logear("Categoria modificada: "+form.vars.nombre)          \n        return response.render(dict(form = form))\n\ndef showParticipante():\n        form = crud.update(db.participantes, request.args(0),next = URL(\'mostrarParticipante\'))\n        #if form.accepts(request.vars, formname=None):\n        if form.process().accepted:\n            db.commit()        \n            from log import *\n            log = log()\n            log.logear("Participante modificado: "+form.vars.nombre)            \n        return response.render(dict(form = form)) \n\ndef showEventosParticipantes():\n    return service.showEventoParticipante(request)\n    \ndef showUsuario():\n        form = crud.update(db.auth_user, request.args(0), next = URL(\'mostrarUsuario\'))\n        #if form.accepts(request.vars, formname=None):\n        if form.process().accepted:\n            db.commit()        \n            from log import *\n            log = log()\n            log.logear("Usuario modificado: "+form.vars.nombre)           \n        return response.render(dict(form = form))\n\n\ndef verResultado1():\n    import datetime\n    fechaActual=datetime.datetime.now()\n    eventos =db(db.eventos.fecha <fechaActual).select()\n    return dict(eventos=eventos)\n        \ndef verResultado2():\n    resultados= db((db.resultados.eventos_id==request.args(0))& (db.resultados.participantes_id==db.participantes.id)).select()\n    evento=db(db.eventos.id==request.args(0)).select()\n    return dict(resultados=resultados,evento=evento)\n    \ndef mostrar():\n    from DAOCasadeApuestas import *\n    dao = DAOCasadeApuestas()\n    dao2 = DAOCasadeApuestas()\n    dao3 = DAOCasadeApuestas()\n    dao4 = DAOCasadeApuestas()\n    dao5 = DAOCasadeApuestas()\n    q = dao.generarArchivoActualizacionMD5(dao.generarMensajeMD5(db().select(db.eventos.ALL)), dao2.generarMensajeMD5(db().select(db.categorias.ALL)), dao3.generarMensajeMD5(db().select(db.participantes.ALL)), dao4.generarMensajeMD5(db().select(db.eventosparticipantes.ALL)), dao5.generarMensajeMD5(db().select(db.auth_user.ALL)))\n    s = dao.generarArchivoActualizacionXML(dao.generarFormatoXml(db().select(db.eventos.ALL)), dao2.generarFormatoXml(db().select(db.categorias.ALL)), dao3.generarFormatoXml(db().select(db.participantes.ALL)), dao4.generarFormatoXml(db().select(db.eventosparticipantes.ALL)), dao5.generarFormatoXml(db().select(db.auth_user.ALL)))\n    return response.render(dict(q = q, s = s))   \n    \ndef verProximosEventos1():\n    import datetime\n    fechaActual=datetime.datetime.now()\n    eventos =db(db.eventos.fecha>fechaActual).select()\n    return dict(eventos=eventos)\n    \ndef verProximosEventos2():\n    evento_participante= db((db.eventosparticipantes.eventos_id==request.args(0))& (db.participantes.id==db.eventosparticipantes.participantes_id)).select()\n    evento = db(db.eventos.id==request.args(0)).select()\n    categoria = db((db.categorias.id==db.eventos.categoria_id)& (db.eventos.id==request.args(0))).select()\n    return dict(evento_participante=evento_participante,evento=evento,categoria=categoria)\n    \ndef indexPublico():\n    return dict()\n\nresponse._vars=response._caller(crearEvento)\n'
p6
sS'snapshot'
p7
(dp8
S'exception'
p9
(dp10
S'load'
p11
S'<bound method RestrictedError.load of RestrictedError()>'
p12
sS'__module__'
p13
S"'gluon.restricted'"
p14
sg5
S'\'response.write(\\\'<!DOCTYPE html PUBLIC "-//W3C//D...</div>\\\\r\\\\n </body>\\\\r\\\\n</html>\\\\r\\\\n\\\', escape=False)\''
p15
sS'__getslice__'
p16
S"<method-wrapper '__getslice__' of RestrictedError object at 0x06E95710>"
p17
sS'__str__'
p18
S"<method-wrapper '__str__' of RestrictedError object at 0x06E95710>"
p19
sS'__reduce__'
p20
S'<built-in method __reduce__ of RestrictedError object at 0x06E95710>'
p21
sg3
S"r'C:\\Python32\\web2py_win\\web2py\\applications\\Casa_de_Apuestas\\views\\default/crearEvento.html'"
p22
sS'__dict__'
p23
S'{\'code\': \'response.write(\\\'<!DOCTYPE html PUBLIC "-//W3C//D...</div>\\\\r\\\\n </body>\\\\r\\\\n</html>\\\\r\\\\n\\\', escape=False)\', \'environment\': {\'A\': <class \'gluon.html.A\'>, \'Auth\': <class \'gluon.tools.Auth\'>, \'B\': <class \'gluon.html.B\'>, \'BEAUTIFY\': <class \'gluon.html.BEAUTIFY\'>, \'BODY\': <class \'gluon.html.BODY\'>, \'BR\': <class \'gluon.html.BR\'>, \'BUTTON\': <class \'gluon.html.BUTTON\'>, \'CAT\': <class \'gluon.html.CAT\'>, \'CENTER\': <class \'gluon.html.CENTER\'>, \'CLEANUP\': <class \'gluon.validators.CLEANUP\'>, ...}, \'layer\': r\'C:\\Python32\\web2py_win\\web2py\\applications\\Casa_de_Apuestas\\views\\default/crearEvento.html\', \'output\': \'\', \'snapshot\': {\'date\': \'Sun Dec 25 14:27:15 2011\', \'etype\': "<type \'exceptions.AttributeError\'>", \'evalue\': "\'NoneType\' object has no attribute \'admiteTablaResultado\'", \'exception\': {\'__class__\': "<type \'exceptions.AttributeError\'>", \'__delattr__\': "<method-wrapper \'__delattr__\' of exceptions.AttributeError object at 0x06D99BC0>", \'__dict__\': \'{}\', \'__doc__\': "\'Attribute not found.\'", \'__getattribute__\': "<method-wrapper \'__getattribute__\' of exceptions.AttributeError object at 0x06D99BC0>", \'__getitem__\': "<method-wrapper \'__getitem__\' of exceptions.AttributeError object at 0x06D99BC0>", \'__getslice__\': "<method-wrapper \'__getslice__\' of exceptions.AttributeError object at 0x06D99BC0>", \'__hash__\': "<method-wrapper \'__hash__\' of exceptions.AttributeError object at 0x06D99BC0>", \'__init__\': "<method-wrapper \'__init__\' of exceptions.AttributeError object at 0x06D99BC0>", \'__new__\': \'<built-in method __new__ of type object at 0x1E1CDA68>\', ...}, \'frames\': [{\'call\': \'(code=\\\'response.write(\\\\\\\'<!DOCTYPE html PUBLIC "-...Casa_de_Apuestas\\\\views\\\\default/crearEvento.html\\\')\', \'dump\': {}, \'file\': r\'C:\\Python32\\web2py_win\\web2py\\gluon\\restricted.py\', \'func\': \'restricted\', \'lines\': {}, \'lnum\': 194}, {\'call\': \'()\', \'dump\': {}, \'file\': r\'C:\\Python32\\web2py_win\\web2py\\applications\\Casa_de_Apuestas\\views\\default\\crearEvento.html\', \'func\': \'<module>\', \'lines\': {53: r"response.write(\'\\r\\n           \', escape=False)", 54: \'response.write(form.custom.widget.nombre)\', 55: r"response.write(\'\\r\\n           \', escape=False)", 56: \'response.write(form.custom.widget.fecha)\', 57: r"response.write(\'\\r\\n           \', escape=False)", 58: \'response.write(form.custom.widget.descripcion)\', 59: r"response.write(\'\\r\\n           \', escape=False)", 60: \'response.write(form.custom.widget.horaInicio)\', 61: r"response.write(\'\\r\\n           \', escape=False)", 62: \'response.write(form.custom.checkeable.admiteTablaResultado)\', ...}, \'lnum\': 62}], \'locals\': {\'A\': "<class \'gluon.html.A\'>", \'Auth\': "<class \'gluon.tools.Auth\'>", \'B\': "<class \'gluon.html.B\'>", \'BEAUTIFY\': "<class \'gluon.html.BEAUTIFY\'>", \'BODY\': "<class \'gluon.html.BODY\'>", \'BR\': "<class \'gluon.html.BR\'>", \'BUTTON\': "<class \'gluon.html.BUTTON\'>", \'CAT\': "<class \'gluon.html.CAT\'>", \'CENTER\': "<class \'gluon.html.CENTER\'>", \'CLEANUP\': "<class \'gluon.validators.CLEANUP\'>", ...}, \'pyver\': r\'Python 2.5.4: C:\\Python32\\web2py_win\\web2py\\web2py.exe\', \'request\': <gluon.html.BEAUTIFY object at 0x069983D0>, \'response\': <gluon.html.BEAUTIFY object at 0x06998FD0>, \'session\': <gluon.html.BEAUTIFY object at 0x069981D0>}, \'traceback\': \'Traceback (most recent call last):\\n  File "gluon...\\\' object has no attribute \\\'admiteTablaResultado\\\'\\n\'}'
p24
sS'__weakref__'
p25
S'None'
p26
sS'__init__'
p27
S'<bound method RestrictedError.__init__ of RestrictedError()>'
p28
sS'__setattr__'
p29
S"<method-wrapper '__setattr__' of RestrictedError object at 0x06E95710>"
p30
sS'__reduce_ex__'
p31
S'<built-in method __reduce_ex__ of RestrictedError object at 0x06E95710>'
p32
sS'__new__'
p33
S'<built-in method __new__ of type object at 0x1E1CCBE8>'
p34
sS'__class__'
p35
S"<class 'gluon.restricted.RestrictedError'>"
p36
sS'environment'
p37
S"{'A': <class 'gluon.html.A'>, 'Auth': <class 'gluon.tools.Auth'>, 'B': <class 'gluon.html.B'>, 'BEAUTIFY': <class 'gluon.html.BEAUTIFY'>, 'BODY': <class 'gluon.html.BODY'>, 'BR': <class 'gluon.html.BR'>, 'BUTTON': <class 'gluon.html.BUTTON'>, 'CAT': <class 'gluon.html.CAT'>, 'CENTER': <class 'gluon.html.CENTER'>, 'CLEANUP': <class 'gluon.validators.CLEANUP'>, ...}"
p38
sS'__doc__'
p39
S"'\\n    class used to wrap an exception that occurs... to log the exception and generate a ticket.\\n    '"
p40
sS'__getitem__'
p41
S"<method-wrapper '__getitem__' of RestrictedError object at 0x06E95710>"
p42
sS'__setstate__'
p43
S'<built-in method __setstate__ of RestrictedError object at 0x06E95710>'
p44
sS'__getattribute__'
p45
S"<method-wrapper '__getattribute__' of RestrictedError object at 0x06E95710>"
p46
sS'args'
p47
S'()'
p48
sS'log'
p49
S'<bound method RestrictedError.log of RestrictedError()>'
p50
sS'traceback'
p51
S'\'Traceback (most recent call last):\\n  File "gluon...\\\' object has no attribute \\\'admiteTablaResultado\\\'\\n\''
p52
sS'__delattr__'
p53
S"<method-wrapper '__delattr__' of RestrictedError object at 0x06E95710>"
p54
sg7
S'{\'date\': \'Sun Dec 25 14:27:15 2011\', \'etype\': "<type \'exceptions.AttributeError\'>", \'evalue\': "\'NoneType\' object has no attribute \'admiteTablaResultado\'", \'exception\': {\'__class__\': "<type \'exceptions.AttributeError\'>", \'__delattr__\': "<method-wrapper \'__delattr__\' of exceptions.AttributeError object at 0x06D99BC0>", \'__dict__\': \'{}\', \'__doc__\': "\'Attribute not found.\'", \'__getattribute__\': "<method-wrapper \'__getattribute__\' of exceptions.AttributeError object at 0x06D99BC0>", \'__getitem__\': "<method-wrapper \'__getitem__\' of exceptions.AttributeError object at 0x06D99BC0>", \'__getslice__\': "<method-wrapper \'__getslice__\' of exceptions.AttributeError object at 0x06D99BC0>", \'__hash__\': "<method-wrapper \'__hash__\' of exceptions.AttributeError object at 0x06D99BC0>", \'__init__\': "<method-wrapper \'__init__\' of exceptions.AttributeError object at 0x06D99BC0>", \'__new__\': \'<built-in method __new__ of type object at 0x1E1CDA68>\', ...}, \'frames\': [{\'call\': \'(code=\\\'response.write(\\\\\\\'<!DOCTYPE html PUBLIC "-...Casa_de_Apuestas\\\\views\\\\default/crearEvento.html\\\')\', \'dump\': {}, \'file\': r\'C:\\Python32\\web2py_win\\web2py\\gluon\\restricted.py\', \'func\': \'restricted\', \'lines\': {}, \'lnum\': 194}, {\'call\': \'()\', \'dump\': {}, \'file\': r\'C:\\Python32\\web2py_win\\web2py\\applications\\Casa_de_Apuestas\\views\\default\\crearEvento.html\', \'func\': \'<module>\', \'lines\': {53: r"response.write(\'\\r\\n           \', escape=False)", 54: \'response.write(form.custom.widget.nombre)\', 55: r"response.write(\'\\r\\n           \', escape=False)", 56: \'response.write(form.custom.widget.fecha)\', 57: r"response.write(\'\\r\\n           \', escape=False)", 58: \'response.write(form.custom.widget.descripcion)\', 59: r"response.write(\'\\r\\n           \', escape=False)", 60: \'response.write(form.custom.widget.horaInicio)\', 61: r"response.write(\'\\r\\n           \', escape=False)", 62: \'response.write(form.custom.checkeable.admiteTablaResultado)\', ...}, \'lnum\': 62}], \'locals\': {\'A\': "<class \'gluon.html.A\'>", \'Auth\': "<class \'gluon.tools.Auth\'>", \'B\': "<class \'gluon.html.B\'>", \'BEAUTIFY\': "<class \'gluon.html.BEAUTIFY\'>", \'BODY\': "<class \'gluon.html.BODY\'>", \'BR\': "<class \'gluon.html.BR\'>", \'BUTTON\': "<class \'gluon.html.BUTTON\'>", \'CAT\': "<class \'gluon.html.CAT\'>", \'CENTER\': "<class \'gluon.html.CENTER\'>", \'CLEANUP\': "<class \'gluon.validators.CLEANUP\'>", ...}, \'pyver\': r\'Python 2.5.4: C:\\Python32\\web2py_win\\web2py\\web2py.exe\', \'request\': <gluon.html.BEAUTIFY object at 0x069983D0>, \'response\': <gluon.html.BEAUTIFY object at 0x06998FD0>, \'session\': <gluon.html.BEAUTIFY object at 0x069981D0>}'
p55
sS'__repr__'
p56
S"<method-wrapper '__repr__' of RestrictedError object at 0x06E95710>"
p57
sS'__hash__'
p58
S"<method-wrapper '__hash__' of RestrictedError object at 0x06E95710>"
p59
sg2
S"''"
p60
ssS'evalue'
p61
S''
sS'request'
p62
ccopy_reg
_reconstructor
p63
(cgluon.html
BEAUTIFY
p64
c__builtin__
object
p65
NtRp66
(dp67
S'attributes'
p68
(dp69
sS'components'
p70
(lp71
g63
(cgluon.html
TABLE
p72
g65
NtRp73
(dp74
g68
(dp75
S'level'
p76
I5
ssS'parent'
p77
Nsg70
(lp78
g63
(cgluon.html
TR
p79
g65
NtRp80
(dp81
g68
(dp82
sg77
g73
sg70
(lp83
g63
(cgluon.html
TD
p84
g65
NtRp85
(dp86
g68
(dp87
S'_style'
p88
S'font-weight:bold;'
p89
ssg77
g80
sg70
(lp90
S'ajax'
p91
asbag63
(g84
g65
NtRp92
(dp93
g68
(dp94
S'_valign'
p95
S'top'
p96
ssg77
g80
sg70
(lp97
S':'
asbag63
(g84
g65
NtRp98
(dp99
g68
(dp100
sg77
g80
sg70
(lp101
g63
(g64
g65
NtRp102
(dp103
g68
(dp104
g76
I5
ssg77
g98
sg70
(lp105
S'False'
p106
asbasbasbag63
(g79
g65
NtRp107
(dp108
g68
(dp109
sg77
g73
sg70
(lp110
g63
(g84
g65
NtRp111
(dp112
g68
(dp113
g88
g89
ssg77
g107
sg70
(lp114
S'application'
p115
asbag63
(g84
g65
NtRp116
(dp117
g68
(dp118
g95
g96
ssg77
g107
sg70
(lp119
S':'
asbag63
(g84
g65
NtRp120
(dp121
g68
(dp122
sg77
g107
sg70
(lp123
g63
(g64
g65
NtRp124
(dp125
g68
(dp126
g76
I5
ssg77
g120
sg70
(lp127
S'Casa_de_Apuestas'
p128
asbasbasbag63
(g79
g65
NtRp129
(dp130
g68
(dp131
sg77
g73
sg70
(lp132
g63
(g84
g65
NtRp133
(dp134
g68
(dp135
g88
g89
ssg77
g129
sg70
(lp136
g47
asbag63
(g84
g65
NtRp137
(dp138
g68
(dp139
g95
g96
ssg77
g129
sg70
(lp140
S':'
asbag63
(g84
g65
NtRp141
(dp142
g68
(dp143
sg77
g129
sg70
(lp144
g63
(g64
g65
NtRp145
(dp146
g68
(dp147
g76
I5
ssg77
g141
sg70
(lp148
g63
(g72
g65
NtRp149
(dp150
g68
(dp151
g76
I4
ssg77
Nsg70
(lp152
sbasbasbasbag63
(g79
g65
NtRp153
(dp154
g68
(dp155
sg77
g73
sg70
(lp156
g63
(g84
g65
NtRp157
(dp158
g68
(dp159
g88
g89
ssg77
g153
sg70
(lp160
S'body'
p161
asbag63
(g84
g65
NtRp162
(dp163
g68
(dp164
g95
g96
ssg77
g153
sg70
(lp165
S':'
asbag63
(g84
g65
NtRp166
(dp167
g68
(dp168
sg77
g153
sg70
(lp169
g63
(g64
g65
NtRp170
(dp171
g68
(dp172
g76
I5
ssg77
g166
sg70
(lp173
S'<cStringIO.StringO object at 0x0661E6A0>'
p174
asbasbasbag63
(g79
g65
NtRp175
(dp176
g68
(dp177
sg77
g73
sg70
(lp178
g63
(g84
g65
NtRp179
(dp180
g68
(dp181
g88
g89
ssg77
g175
sg70
(lp182
S'client'
p183
asbag63
(g84
g65
NtRp184
(dp185
g68
(dp186
g95
g96
ssg77
g175
sg70
(lp187
S':'
asbag63
(g84
g65
NtRp188
(dp189
g68
(dp190
sg77
g175
sg70
(lp191
g63
(g64
g65
NtRp192
(dp193
g68
(dp194
g76
I5
ssg77
g188
sg70
(lp195
S'127.0.0.1'
p196
asbasbasbag63
(g79
g65
NtRp197
(dp198
g68
(dp199
sg77
g73
sg70
(lp200
g63
(g84
g65
NtRp201
(dp202
g68
(dp203
g88
g89
ssg77
g197
sg70
(lp204
S'controller'
p205
asbag63
(g84
g65
NtRp206
(dp207
g68
(dp208
g95
g96
ssg77
g197
sg70
(lp209
S':'
asbag63
(g84
g65
NtRp210
(dp211
g68
(dp212
sg77
g197
sg70
(lp213
g63
(g64
g65
NtRp214
(dp215
g68
(dp216
g76
I5
ssg77
g210
sg70
(lp217
S'default'
p218
asbasbasbag63
(g79
g65
NtRp219
(dp220
g68
(dp221
sg77
g73
sg70
(lp222
g63
(g84
g65
NtRp223
(dp224
g68
(dp225
g88
g89
ssg77
g219
sg70
(lp226
S'cookies'
p227
asbag63
(g84
g65
NtRp228
(dp229
g68
(dp230
g95
g96
ssg77
g219
sg70
(lp231
S':'
asbag63
(g84
g65
NtRp232
(dp233
g68
(dp234
sg77
g219
sg70
(lp235
g63
(g64
g65
NtRp236
(dp237
g68
(dp238
g76
I5
ssg77
g232
sg70
(lp239
g63
(g72
g65
NtRp240
(dp241
g68
(dp242
g76
I4
ssg77
Nsg70
(lp243
g63
(g79
g65
NtRp244
(dp245
g68
(dp246
sg77
g240
sg70
(lp247
g63
(g84
g65
NtRp248
(dp249
g68
(dp250
g88
g89
ssg77
g244
sg70
(lp251
S'session_id_admin'
p252
asbag63
(g84
g65
NtRp253
(dp254
g68
(dp255
g95
g96
ssg77
g244
sg70
(lp256
S':'
asbag63
(g84
g65
NtRp257
(dp258
g68
(dp259
sg77
g244
sg70
(lp260
g63
(g64
g65
NtRp261
(dp262
g68
(dp263
g76
I4
ssg77
g257
sg70
(lp264
g63
(g72
g65
NtRp265
(dp266
g68
(dp267
g76
I3
ssg77
Nsg70
(lp268
g63
(g79
g65
NtRp269
(dp270
g68
(dp271
sg77
g265
sg70
(lp272
g63
(g84
g65
NtRp273
(dp274
g68
(dp275
g88
g89
ssg77
g269
sg70
(lp276
S'comment'
p277
asbag63
(g84
g65
NtRp278
(dp279
g68
(dp280
g95
g96
ssg77
g269
sg70
(lp281
S':'
asbag63
(g84
g65
NtRp282
(dp283
g68
(dp284
sg77
g269
sg70
(lp285
g63
(g64
g65
NtRp286
(dp287
g68
(dp288
g76
I3
ssg77
g282
sg70
(lp289
S''
asbasbasbag63
(g79
g65
NtRp290
(dp291
g68
(dp292
sg77
g265
sg70
(lp293
g63
(g84
g65
NtRp294
(dp295
g68
(dp296
g88
g89
ssg77
g290
sg70
(lp297
S'domain'
p298
asbag63
(g84
g65
NtRp299
(dp300
g68
(dp301
g95
g96
ssg77
g290
sg70
(lp302
S':'
asbag63
(g84
g65
NtRp303
(dp304
g68
(dp305
sg77
g290
sg70
(lp306
g63
(g64
g65
NtRp307
(dp308
g68
(dp309
g76
I3
ssg77
g303
sg70
(lp310
S''
asbasbasbag63
(g79
g65
NtRp311
(dp312
g68
(dp313
sg77
g265
sg70
(lp314
g63
(g84
g65
NtRp315
(dp316
g68
(dp317
g88
g89
ssg77
g311
sg70
(lp318
S'expires'
p319
asbag63
(g84
g65
NtRp320
(dp321
g68
(dp322
g95
g96
ssg77
g311
sg70
(lp323
S':'
asbag63
(g84
g65
NtRp324
(dp325
g68
(dp326
sg77
g311
sg70
(lp327
g63
(g64
g65
NtRp328
(dp329
g68
(dp330
g76
I3
ssg77
g324
sg70
(lp331
S''
asbasbasbag63
(g79
g65
NtRp332
(dp333
g68
(dp334
sg77
g265
sg70
(lp335
g63
(g84
g65
NtRp336
(dp337
g68
(dp338
g88
g89
ssg77
g332
sg70
(lp339
S'max-age'
p340
asbag63
(g84
g65
NtRp341
(dp342
g68
(dp343
g95
g96
ssg77
g332
sg70
(lp344
S':'
asbag63
(g84
g65
NtRp345
(dp346
g68
(dp347
sg77
g332
sg70
(lp348
g63
(g64
g65
NtRp349
(dp350
g68
(dp351
g76
I3
ssg77
g345
sg70
(lp352
S''
asbasbasbag63
(g79
g65
NtRp353
(dp354
g68
(dp355
sg77
g265
sg70
(lp356
g63
(g84
g65
NtRp357
(dp358
g68
(dp359
g88
g89
ssg77
g353
sg70
(lp360
S'path'
p361
asbag63
(g84
g65
NtRp362
(dp363
g68
(dp364
g95
g96
ssg77
g353
sg70
(lp365
S':'
asbag63
(g84
g65
NtRp366
(dp367
g68
(dp368
sg77
g353
sg70
(lp369
g63
(g64
g65
NtRp370
(dp371
g68
(dp372
g76
I3
ssg77
g366
sg70
(lp373
S''
asbasbasbag63
(g79
g65
NtRp374
(dp375
g68
(dp376
sg77
g265
sg70
(lp377
g63
(g84
g65
NtRp378
(dp379
g68
(dp380
g88
g89
ssg77
g374
sg70
(lp381
S'secure'
p382
asbag63
(g84
g65
NtRp383
(dp384
g68
(dp385
g95
g96
ssg77
g374
sg70
(lp386
S':'
asbag63
(g84
g65
NtRp387
(dp388
g68
(dp389
sg77
g374
sg70
(lp390
g63
(g64
g65
NtRp391
(dp392
g68
(dp393
g76
I3
ssg77
g387
sg70
(lp394
S''
asbasbasbag63
(g79
g65
NtRp395
(dp396
g68
(dp397
sg77
g265
sg70
(lp398
g63
(g84
g65
NtRp399
(dp400
g68
(dp401
g88
g89
ssg77
g395
sg70
(lp402
S'version'
p403
asbag63
(g84
g65
NtRp404
(dp405
g68
(dp406
g95
g96
ssg77
g395
sg70
(lp407
S':'
asbag63
(g84
g65
NtRp408
(dp409
g68
(dp410
sg77
g395
sg70
(lp411
g63
(g64
g65
NtRp412
(dp413
g68
(dp414
g76
I3
ssg77
g408
sg70
(lp415
S''
asbasbasbasbasbasbasbag63
(g79
g65
NtRp416
(dp417
g68
(dp418
sg77
g240
sg70
(lp419
g63
(g84
g65
NtRp420
(dp421
g68
(dp422
g88
g89
ssg77
g416
sg70
(lp423
S'session_id_casa_de_apuestas'
p424
asbag63
(g84
g65
NtRp425
(dp426
g68
(dp427
g95
g96
ssg77
g416
sg70
(lp428
S':'
asbag63
(g84
g65
NtRp429
(dp430
g68
(dp431
sg77
g416
sg70
(lp432
g63
(g64
g65
NtRp433
(dp434
g68
(dp435
g76
I4
ssg77
g429
sg70
(lp436
g63
(g72
g65
NtRp437
(dp438
g68
(dp439
g76
I3
ssg77
Nsg70
(lp440
g63
(g79
g65
NtRp441
(dp442
g68
(dp443
sg77
g437
sg70
(lp444
g63
(g84
g65
NtRp445
(dp446
g68
(dp447
g88
g89
ssg77
g441
sg70
(lp448
g277
asbag63
(g84
g65
NtRp449
(dp450
g68
(dp451
g95
g96
ssg77
g441
sg70
(lp452
S':'
asbag63
(g84
g65
NtRp453
(dp454
g68
(dp455
sg77
g441
sg70
(lp456
g63
(g64
g65
NtRp457
(dp458
g68
(dp459
g76
I3
ssg77
g453
sg70
(lp460
S''
asbasbasbag63
(g79
g65
NtRp461
(dp462
g68
(dp463
sg77
g437
sg70
(lp464
g63
(g84
g65
NtRp465
(dp466
g68
(dp467
g88
g89
ssg77
g461
sg70
(lp468
g298
asbag63
(g84
g65
NtRp469
(dp470
g68
(dp471
g95
g96
ssg77
g461
sg70
(lp472
S':'
asbag63
(g84
g65
NtRp473
(dp474
g68
(dp475
sg77
g461
sg70
(lp476
g63
(g64
g65
NtRp477
(dp478
g68
(dp479
g76
I3
ssg77
g473
sg70
(lp480
S''
asbasbasbag63
(g79
g65
NtRp481
(dp482
g68
(dp483
sg77
g437
sg70
(lp484
g63
(g84
g65
NtRp485
(dp486
g68
(dp487
g88
g89
ssg77
g481
sg70
(lp488
g319
asbag63
(g84
g65
NtRp489
(dp490
g68
(dp491
g95
g96
ssg77
g481
sg70
(lp492
S':'
asbag63
(g84
g65
NtRp493
(dp494
g68
(dp495
sg77
g481
sg70
(lp496
g63
(g64
g65
NtRp497
(dp498
g68
(dp499
g76
I3
ssg77
g493
sg70
(lp500
S''
asbasbasbag63
(g79
g65
NtRp501
(dp502
g68
(dp503
sg77
g437
sg70
(lp504
g63
(g84
g65
NtRp505
(dp506
g68
(dp507
g88
g89
ssg77
g501
sg70
(lp508
g340
asbag63
(g84
g65
NtRp509
(dp510
g68
(dp511
g95
g96
ssg77
g501
sg70
(lp512
S':'
asbag63
(g84
g65
NtRp513
(dp514
g68
(dp515
sg77
g501
sg70
(lp516
g63
(g64
g65
NtRp517
(dp518
g68
(dp519
g76
I3
ssg77
g513
sg70
(lp520
S''
asbasbasbag63
(g79
g65
NtRp521
(dp522
g68
(dp523
sg77
g437
sg70
(lp524
g63
(g84
g65
NtRp525
(dp526
g68
(dp527
g88
g89
ssg77
g521
sg70
(lp528
g361
asbag63
(g84
g65
NtRp529
(dp530
g68
(dp531
g95
g96
ssg77
g521
sg70
(lp532
S':'
asbag63
(g84
g65
NtRp533
(dp534
g68
(dp535
sg77
g521
sg70
(lp536
g63
(g64
g65
NtRp537
(dp538
g68
(dp539
g76
I3
ssg77
g533
sg70
(lp540
S''
asbasbasbag63
(g79
g65
NtRp541
(dp542
g68
(dp543
sg77
g437
sg70
(lp544
g63
(g84
g65
NtRp545
(dp546
g68
(dp547
g88
g89
ssg77
g541
sg70
(lp548
g382
asbag63
(g84
g65
NtRp549
(dp550
g68
(dp551
g95
g96
ssg77
g541
sg70
(lp552
S':'
asbag63
(g84
g65
NtRp553
(dp554
g68
(dp555
sg77
g541
sg70
(lp556
g63
(g64
g65
NtRp557
(dp558
g68
(dp559
g76
I3
ssg77
g553
sg70
(lp560
S''
asbasbasbag63
(g79
g65
NtRp561
(dp562
g68
(dp563
sg77
g437
sg70
(lp564
g63
(g84
g65
NtRp565
(dp566
g68
(dp567
g88
g89
ssg77
g561
sg70
(lp568
g403
asbag63
(g84
g65
NtRp569
(dp570
g68
(dp571
g95
g96
ssg77
g561
sg70
(lp572
S':'
asbag63
(g84
g65
NtRp573
(dp574
g68
(dp575
sg77
g561
sg70
(lp576
g63
(g64
g65
NtRp577
(dp578
g68
(dp579
g76
I3
ssg77
g573
sg70
(lp580
S''
asbasbasbasbasbasbasbag63
(g79
g65
NtRp581
(dp582
g68
(dp583
sg77
g240
sg70
(lp584
g63
(g84
g65
NtRp585
(dp586
g68
(dp587
g88
g89
ssg77
g581
sg70
(lp588
S'session_id_welcome'
p589
asbag63
(g84
g65
NtRp590
(dp591
g68
(dp592
g95
g96
ssg77
g581
sg70
(lp593
S':'
asbag63
(g84
g65
NtRp594
(dp595
g68
(dp596
sg77
g581
sg70
(lp597
g63
(g64
g65
NtRp598
(dp599
g68
(dp600
g76
I4
ssg77
g594
sg70
(lp601
g63
(g72
g65
NtRp602
(dp603
g68
(dp604
g76
I3
ssg77
Nsg70
(lp605
g63
(g79
g65
NtRp606
(dp607
g68
(dp608
sg77
g602
sg70
(lp609
g63
(g84
g65
NtRp610
(dp611
g68
(dp612
g88
g89
ssg77
g606
sg70
(lp613
g277
asbag63
(g84
g65
NtRp614
(dp615
g68
(dp616
g95
g96
ssg77
g606
sg70
(lp617
S':'
asbag63
(g84
g65
NtRp618
(dp619
g68
(dp620
sg77
g606
sg70
(lp621
g63
(g64
g65
NtRp622
(dp623
g68
(dp624
g76
I3
ssg77
g618
sg70
(lp625
S''
asbasbasbag63
(g79
g65
NtRp626
(dp627
g68
(dp628
sg77
g602
sg70
(lp629
g63
(g84
g65
NtRp630
(dp631
g68
(dp632
g88
g89
ssg77
g626
sg70
(lp633
g298
asbag63
(g84
g65
NtRp634
(dp635
g68
(dp636
g95
g96
ssg77
g626
sg70
(lp637
S':'
asbag63
(g84
g65
NtRp638
(dp639
g68
(dp640
sg77
g626
sg70
(lp641
g63
(g64
g65
NtRp642
(dp643
g68
(dp644
g76
I3
ssg77
g638
sg70
(lp645
S''
asbasbasbag63
(g79
g65
NtRp646
(dp647
g68
(dp648
sg77
g602
sg70
(lp649
g63
(g84
g65
NtRp650
(dp651
g68
(dp652
g88
g89
ssg77
g646
sg70
(lp653
g319
asbag63
(g84
g65
NtRp654
(dp655
g68
(dp656
g95
g96
ssg77
g646
sg70
(lp657
S':'
asbag63
(g84
g65
NtRp658
(dp659
g68
(dp660
sg77
g646
sg70
(lp661
g63
(g64
g65
NtRp662
(dp663
g68
(dp664
g76
I3
ssg77
g658
sg70
(lp665
S''
asbasbasbag63
(g79
g65
NtRp666
(dp667
g68
(dp668
sg77
g602
sg70
(lp669
g63
(g84
g65
NtRp670
(dp671
g68
(dp672
g88
g89
ssg77
g666
sg70
(lp673
g340
asbag63
(g84
g65
NtRp674
(dp675
g68
(dp676
g95
g96
ssg77
g666
sg70
(lp677
S':'
asbag63
(g84
g65
NtRp678
(dp679
g68
(dp680
sg77
g666
sg70
(lp681
g63
(g64
g65
NtRp682
(dp683
g68
(dp684
g76
I3
ssg77
g678
sg70
(lp685
S''
asbasbasbag63
(g79
g65
NtRp686
(dp687
g68
(dp688
sg77
g602
sg70
(lp689
g63
(g84
g65
NtRp690
(dp691
g68
(dp692
g88
g89
ssg77
g686
sg70
(lp693
g361
asbag63
(g84
g65
NtRp694
(dp695
g68
(dp696
g95
g96
ssg77
g686
sg70
(lp697
S':'
asbag63
(g84
g65
NtRp698
(dp699
g68
(dp700
sg77
g686
sg70
(lp701
g63
(g64
g65
NtRp702
(dp703
g68
(dp704
g76
I3
ssg77
g698
sg70
(lp705
S''
asbasbasbag63
(g79
g65
NtRp706
(dp707
g68
(dp708
sg77
g602
sg70
(lp709
g63
(g84
g65
NtRp710
(dp711
g68
(dp712
g88
g89
ssg77
g706
sg70
(lp713
g382
asbag63
(g84
g65
NtRp714
(dp715
g68
(dp716
g95
g96
ssg77
g706
sg70
(lp717
S':'
asbag63
(g84
g65
NtRp718
(dp719
g68
(dp720
sg77
g706
sg70
(lp721
g63
(g64
g65
NtRp722
(dp723
g68
(dp724
g76
I3
ssg77
g718
sg70
(lp725
S''
asbasbasbag63
(g79
g65
NtRp726
(dp727
g68
(dp728
sg77
g602
sg70
(lp729
g63
(g84
g65
NtRp730
(dp731
g68
(dp732
g88
g89
ssg77
g726
sg70
(lp733
g403
asbag63
(g84
g65
NtRp734
(dp735
g68
(dp736
g95
g96
ssg77
g726
sg70
(lp737
S':'
asbag63
(g84
g65
NtRp738
(dp739
g68
(dp740
sg77
g726
sg70
(lp741
g63
(g64
g65
NtRp742
(dp743
g68
(dp744
g76
I3
ssg77
g738
sg70
(lp745
S''
asbasbasbasbasbasbasbasbasbasbasbag63
(g79
g65
NtRp746
(dp747
g68
(dp748
sg77
g73
sg70
(lp749
g63
(g84
g65
NtRp750
(dp751
g68
(dp752
g88
g89
ssg77
g746
sg70
(lp753
S'env'
p754
asbag63
(g84
g65
NtRp755
(dp756
g68
(dp757
g95
g96
ssg77
g746
sg70
(lp758
S':'
asbag63
(g84
g65
NtRp759
(dp760
g68
(dp761
sg77
g746
sg70
(lp762
g63
(g64
g65
NtRp763
(dp764
g68
(dp765
g76
I5
ssg77
g759
sg70
(lp766
g63
(g72
g65
NtRp767
(dp768
g68
(dp769
g76
I4
ssg77
Nsg70
(lp770
g63
(g79
g65
NtRp771
(dp772
g68
(dp773
sg77
g767
sg70
(lp774
g63
(g84
g65
NtRp775
(dp776
g68
(dp777
g88
g89
ssg77
g771
sg70
(lp778
S'app_folders'
p779
asbag63
(g84
g65
NtRp780
(dp781
g68
(dp782
g95
g96
ssg77
g771
sg70
(lp783
S':'
asbag63
(g84
g65
NtRp784
(dp785
g68
(dp786
sg77
g771
sg70
(lp787
g63
(g64
g65
NtRp788
(dp789
g68
(dp790
g76
I4
ssg77
g784
sg70
(lp791
S"set(['C:\\\\Python32\\\\web2py_win\\\\web2py\\\\applications\\\\admin\\\\', 'C:\\\\Python32\\\\web2py_win\\\\web2py\\\\applications\\\\welcome\\\\', 'C:\\\\Python32\\\\web2py_win\\\\web2py\\\\applications\\\\Casa_de_Apuestas\\\\'])"
p792
asbasbasbag63
(g79
g65
NtRp793
(dp794
g68
(dp795
sg77
g767
sg70
(lp796
g63
(g84
g65
NtRp797
(dp798
g68
(dp799
g88
g89
ssg77
g793
sg70
(lp800
S'applications_parent'
p801
asbag63
(g84
g65
NtRp802
(dp803
g68
(dp804
g95
g96
ssg77
g793
sg70
(lp805
S':'
asbag63
(g84
g65
NtRp806
(dp807
g68
(dp808
sg77
g793
sg70
(lp809
g63
(g64
g65
NtRp810
(dp811
g68
(dp812
g76
I4
ssg77
g806
sg70
(lp813
S'C:\\Python32\\web2py_win\\web2py'
p814
asbasbasbag63
(g79
g65
NtRp815
(dp816
g68
(dp817
sg77
g767
sg70
(lp818
g63
(g84
g65
NtRp819
(dp820
g68
(dp821
g88
g89
ssg77
g815
sg70
(lp822
S'cmd_args'
p823
asbag63
(g84
g65
NtRp824
(dp825
g68
(dp826
g95
g96
ssg77
g815
sg70
(lp827
S':'
asbag63
(g84
g65
NtRp828
(dp829
g68
(dp830
sg77
g815
sg70
(lp831
g63
(g64
g65
NtRp832
(dp833
g68
(dp834
g76
I4
ssg77
g828
sg70
(lp835
g63
(g72
g65
NtRp836
(dp837
g68
(dp838
g76
I3
ssg77
Nsg70
(lp839
sbasbasbasbag63
(g79
g65
NtRp840
(dp841
g68
(dp842
sg77
g767
sg70
(lp843
g63
(g84
g65
NtRp844
(dp845
g68
(dp846
g88
g89
ssg77
g840
sg70
(lp847
S'cmd_options'
p848
asbag63
(g84
g65
NtRp849
(dp850
g68
(dp851
g95
g96
ssg77
g840
sg70
(lp852
S':'
asbag63
(g84
g65
NtRp853
(dp854
g68
(dp855
sg77
g840
sg70
(lp856
g63
(g64
g65
NtRp857
(dp858
g68
(dp859
g76
I4
ssg77
g853
sg70
(lp860
S"<Values at 0x2635fa8: {'verbose': False, 'ip': '127.0.0.1', 'shutdown_timeout': 5, 'taskbar': False, 'nocron': False, 'pid_filename': 'httpserver.pid', 'maxthreads': None, 'softcron': False, 'server_name': 'hector-vaio', 'bpython': False, 'nogui': False, 'port': 8000, 'extcron': False, 'debuglevel': 30, 'test': None, 'folder': 'C:\\\\Python32\\\\web2py_win\\\\web2py', 'config': '', 'import_models': False, 'winservice': '', 'shell': None, 'run': '', 'log_filename': 'httpserver.log', 'args': [''], 'ssl_ca_certificate': None, 'scheduler': None, 'profiler_filename': None, 'ssl_private_key': '', 'password': '<ask>', 'request_queue_size': 5, 'ssl_certificate': '', 'cronjob': False, 'plain': False, 'quiet': False, 'interfaces': None, 'minthreads': None, 'timeout': 10, 'numthreads': None, 'nobanner': False}>"
p861
asbasbasbag63
(g79
g65
NtRp862
(dp863
g68
(dp864
sg77
g767
sg70
(lp865
g63
(g84
g65
NtRp866
(dp867
g68
(dp868
g88
g89
ssg77
g862
sg70
(lp869
S'db_sessions'
p870
asbag63
(g84
g65
NtRp871
(dp872
g68
(dp873
g95
g96
ssg77
g862
sg70
(lp874
S':'
asbag63
(g84
g65
NtRp875
(dp876
g68
(dp877
sg77
g862
sg70
(lp878
g63
(g64
g65
NtRp879
(dp880
g68
(dp881
g76
I4
ssg77
g875
sg70
(lp882
S'set([])'
p883
asbasbasbag63
(g79
g65
NtRp884
(dp885
g68
(dp886
sg77
g767
sg70
(lp887
g63
(g84
g65
NtRp888
(dp889
g68
(dp890
g88
g89
ssg77
g884
sg70
(lp891
S'debugging'
p892
asbag63
(g84
g65
NtRp893
(dp894
g68
(dp895
g95
g96
ssg77
g884
sg70
(lp896
S':'
asbag63
(g84
g65
NtRp897
(dp898
g68
(dp899
sg77
g884
sg70
(lp900
g63
(g64
g65
NtRp901
(dp902
g68
(dp903
g76
I4
ssg77
g897
sg70
(lp904
g106
asbasbasbag63
(g79
g65
NtRp905
(dp906
g68
(dp907
sg77
g767
sg70
(lp908
g63
(g84
g65
NtRp909
(dp910
g68
(dp911
g88
g89
ssg77
g905
sg70
(lp912
S'gluon_parent'
p913
asbag63
(g84
g65
NtRp914
(dp915
g68
(dp916
g95
g96
ssg77
g905
sg70
(lp917
S':'
asbag63
(g84
g65
NtRp918
(dp919
g68
(dp920
sg77
g905
sg70
(lp921
g63
(g64
g65
NtRp922
(dp923
g68
(dp924
g76
I4
ssg77
g918
sg70
(lp925
S'C:\\Python32\\web2py_win\\web2py'
p926
asbasbasbag63
(g79
g65
NtRp927
(dp928
g68
(dp929
sg77
g767
sg70
(lp930
g63
(g84
g65
NtRp931
(dp932
g68
(dp933
g88
g89
ssg77
g927
sg70
(lp934
S'http_accept'
p935
asbag63
(g84
g65
NtRp936
(dp937
g68
(dp938
g95
g96
ssg77
g927
sg70
(lp939
S':'
asbag63
(g84
g65
NtRp940
(dp941
g68
(dp942
sg77
g927
sg70
(lp943
g63
(g64
g65
NtRp944
(dp945
g68
(dp946
g76
I4
ssg77
g940
sg70
(lp947
S'text/html,application/xhtml+xml,application/xml;q=0.9,*/*;q=0.8'
p948
asbasbasbag63
(g79
g65
NtRp949
(dp950
g68
(dp951
sg77
g767
sg70
(lp952
g63
(g84
g65
NtRp953
(dp954
g68
(dp955
g88
g89
ssg77
g949
sg70
(lp956
S'http_accept_charset'
p957
asbag63
(g84
g65
NtRp958
(dp959
g68
(dp960
g95
g96
ssg77
g949
sg70
(lp961
S':'
asbag63
(g84
g65
NtRp962
(dp963
g68
(dp964
sg77
g949
sg70
(lp965
g63
(g64
g65
NtRp966
(dp967
g68
(dp968
g76
I4
ssg77
g962
sg70
(lp969
S'ISO-8859-1,utf-8;q=0.7,*;q=0.3'
p970
asbasbasbag63
(g79
g65
NtRp971
(dp972
g68
(dp973
sg77
g767
sg70
(lp974
g63
(g84
g65
NtRp975
(dp976
g68
(dp977
g88
g89
ssg77
g971
sg70
(lp978
S'http_accept_encoding'
p979
asbag63
(g84
g65
NtRp980
(dp981
g68
(dp982
g95
g96
ssg77
g971
sg70
(lp983
S':'
asbag63
(g84
g65
NtRp984
(dp985
g68
(dp986
sg77
g971
sg70
(lp987
g63
(g64
g65
NtRp988
(dp989
g68
(dp990
g76
I4
ssg77
g984
sg70
(lp991
S'gzip,deflate,sdch'
p992
asbasbasbag63
(g79
g65
NtRp993
(dp994
g68
(dp995
sg77
g767
sg70
(lp996
g63
(g84
g65
NtRp997
(dp998
g68
(dp999
g88
g89
ssg77
g993
sg70
(lp1000
S'http_accept_language'
p1001
asbag63
(g84
g65
NtRp1002
(dp1003
g68
(dp1004
g95
g96
ssg77
g993
sg70
(lp1005
S':'
asbag63
(g84
g65
NtRp1006
(dp1007
g68
(dp1008
sg77
g993
sg70
(lp1009
g63
(g64
g65
NtRp1010
(dp1011
g68
(dp1012
g76
I4
ssg77
g1006
sg70
(lp1013
S'en-US,en;q=0.8'
p1014
asbasbasbag63
(g79
g65
NtRp1015
(dp1016
g68
(dp1017
sg77
g767
sg70
(lp1018
g63
(g84
g65
NtRp1019
(dp1020
g68
(dp1021
g88
g89
ssg77
g1015
sg70
(lp1022
S'http_connection'
p1023
asbag63
(g84
g65
NtRp1024
(dp1025
g68
(dp1026
g95
g96
ssg77
g1015
sg70
(lp1027
S':'
asbag63
(g84
g65
NtRp1028
(dp1029
g68
(dp1030
sg77
g1015
sg70
(lp1031
g63
(g64
g65
NtRp1032
(dp1033
g68
(dp1034
g76
I4
ssg77
g1028
sg70
(lp1035
S'keep-alive'
p1036
asbasbasbag63
(g79
g65
NtRp1037
(dp1038
g68
(dp1039
sg77
g767
sg70
(lp1040
g63
(g84
g65
NtRp1041
(dp1042
g68
(dp1043
g88
g89
ssg77
g1037
sg70
(lp1044
S'http_cookie'
p1045
asbag63
(g84
g65
NtRp1046
(dp1047
g68
(dp1048
g95
g96
ssg77
g1037
sg70
(lp1049
S':'
asbag63
(g84
g65
NtRp1050
(dp1051
g68
(dp1052
sg77
g1037
sg70
(lp1053
g63
(g64
g65
NtRp1054
(dp1055
g68
(dp1056
g76
I4
ssg77
g1050
sg70
(lp1057
S'session_id_welcome=127.0.0.1-bc513751-996f-43f7-934f-3853f1cd10d9; session_id_casa_de_apuestas=127.0.0.1-620e4e48-b9ab-46bd-a58d-617594f1c170; session_id_admin=127.0.0.1-3b7a4582-ec5a-4b8e-b633-4226d8e92779'
p1058
asbasbasbag63
(g79
g65
NtRp1059
(dp1060
g68
(dp1061
sg77
g767
sg70
(lp1062
g63
(g84
g65
NtRp1063
(dp1064
g68
(dp1065
g88
g89
ssg77
g1059
sg70
(lp1066
S'http_host'
p1067
asbag63
(g84
g65
NtRp1068
(dp1069
g68
(dp1070
g95
g96
ssg77
g1059
sg70
(lp1071
S':'
asbag63
(g84
g65
NtRp1072
(dp1073
g68
(dp1074
sg77
g1059
sg70
(lp1075
g63
(g64
g65
NtRp1076
(dp1077
g68
(dp1078
g76
I4
ssg77
g1072
sg70
(lp1079
S'127.0.0.1:8000'
p1080
asbasbasbag63
(g79
g65
NtRp1081
(dp1082
g68
(dp1083
sg77
g767
sg70
(lp1084
g63
(g84
g65
NtRp1085
(dp1086
g68
(dp1087
g88
g89
ssg77
g1081
sg70
(lp1088
S'http_referer'
p1089
asbag63
(g84
g65
NtRp1090
(dp1091
g68
(dp1092
g95
g96
ssg77
g1081
sg70
(lp1093
S':'
asbag63
(g84
g65
NtRp1094
(dp1095
g68
(dp1096
sg77
g1081
sg70
(lp1097
g63
(g64
g65
NtRp1098
(dp1099
g68
(dp1100
g76
I4
ssg77
g1094
sg70
(lp1101
S'http://127.0.0.1:8000/admin/default/edit/Casa_de_Apuestas/views/default/crearEvento.html'
p1102
asbasbasbag63
(g79
g65
NtRp1103
(dp1104
g68
(dp1105
sg77
g767
sg70
(lp1106
g63
(g84
g65
NtRp1107
(dp1108
g68
(dp1109
g88
g89
ssg77
g1103
sg70
(lp1110
S'http_user_agent'
p1111
asbag63
(g84
g65
NtRp1112
(dp1113
g68
(dp1114
g95
g96
ssg77
g1103
sg70
(lp1115
S':'
asbag63
(g84
g65
NtRp1116
(dp1117
g68
(dp1118
sg77
g1103
sg70
(lp1119
g63
(g64
g65
NtRp1120
(dp1121
g68
(dp1122
g76
I4
ssg77
g1116
sg70
(lp1123
S'Mozilla/5.0 (Windows NT 6.1) AppleWebKit/535.7 (KHTML, like Gecko) Chrome/16.0.912.63 Safari/535.7'
p1124
asbasbasbag63
(g79
g65
NtRp1125
(dp1126
g68
(dp1127
sg77
g767
sg70
(lp1128
g63
(g84
g65
NtRp1129
(dp1130
g68
(dp1131
g88
g89
ssg77
g1125
sg70
(lp1132
S'is_jython'
p1133
asbag63
(g84
g65
NtRp1134
(dp1135
g68
(dp1136
g95
g96
ssg77
g1125
sg70
(lp1137
S':'
asbag63
(g84
g65
NtRp1138
(dp1139
g68
(dp1140
sg77
g1125
sg70
(lp1141
g63
(g64
g65
NtRp1142
(dp1143
g68
(dp1144
g76
I4
ssg77
g1138
sg70
(lp1145
g106
asbasbasbag63
(g79
g65
NtRp1146
(dp1147
g68
(dp1148
sg77
g767
sg70
(lp1149
g63
(g84
g65
NtRp1150
(dp1151
g68
(dp1152
g88
g89
ssg77
g1146
sg70
(lp1153
S'path_info'
p1154
asbag63
(g84
g65
NtRp1155
(dp1156
g68
(dp1157
g95
g96
ssg77
g1146
sg70
(lp1158
S':'
asbag63
(g84
g65
NtRp1159
(dp1160
g68
(dp1161
sg77
g1146
sg70
(lp1162
g63
(g64
g65
NtRp1163
(dp1164
g68
(dp1165
g76
I4
ssg77
g1159
sg70
(lp1166
S'/Casa_de_Apuestas/default/crearEvento'
p1167
asbasbasbag63
(g79
g65
NtRp1168
(dp1169
g68
(dp1170
sg77
g767
sg70
(lp1171
g63
(g84
g65
NtRp1172
(dp1173
g68
(dp1174
g88
g89
ssg77
g1168
sg70
(lp1175
S'query_string'
p1176
asbag63
(g84
g65
NtRp1177
(dp1178
g68
(dp1179
g95
g96
ssg77
g1168
sg70
(lp1180
S':'
asbag63
(g84
g65
NtRp1181
(dp1182
g68
(dp1183
sg77
g1168
sg70
(lp1184
g63
(g64
g65
NtRp1185
(dp1186
g68
(dp1187
g76
I4
ssg77
g1181
sg70
(lp1188
S''
asbasbasbag63
(g79
g65
NtRp1189
(dp1190
g68
(dp1191
sg77
g767
sg70
(lp1192
g63
(g84
g65
NtRp1193
(dp1194
g68
(dp1195
g88
g89
ssg77
g1189
sg70
(lp1196
S'remote_addr'
p1197
asbag63
(g84
g65
NtRp1198
(dp1199
g68
(dp1200
g95
g96
ssg77
g1189
sg70
(lp1201
S':'
asbag63
(g84
g65
NtRp1202
(dp1203
g68
(dp1204
sg77
g1189
sg70
(lp1205
g63
(g64
g65
NtRp1206
(dp1207
g68
(dp1208
g76
I4
ssg77
g1202
sg70
(lp1209
g196
asbasbasbag63
(g79
g65
NtRp1210
(dp1211
g68
(dp1212
sg77
g767
sg70
(lp1213
g63
(g84
g65
NtRp1214
(dp1215
g68
(dp1216
g88
g89
ssg77
g1210
sg70
(lp1217
S'remote_port'
p1218
asbag63
(g84
g65
NtRp1219
(dp1220
g68
(dp1221
g95
g96
ssg77
g1210
sg70
(lp1222
S':'
asbag63
(g84
g65
NtRp1223
(dp1224
g68
(dp1225
sg77
g1210
sg70
(lp1226
g63
(g64
g65
NtRp1227
(dp1228
g68
(dp1229
g76
I4
ssg77
g1223
sg70
(lp1230
S'51896'
p1231
asbasbasbag63
(g79
g65
NtRp1232
(dp1233
g68
(dp1234
sg77
g767
sg70
(lp1235
g63
(g84
g65
NtRp1236
(dp1237
g68
(dp1238
g88
g89
ssg77
g1232
sg70
(lp1239
S'request_method'
p1240
asbag63
(g84
g65
NtRp1241
(dp1242
g68
(dp1243
g95
g96
ssg77
g1232
sg70
(lp1244
S':'
asbag63
(g84
g65
NtRp1245
(dp1246
g68
(dp1247
sg77
g1232
sg70
(lp1248
g63
(g64
g65
NtRp1249
(dp1250
g68
(dp1251
g76
I4
ssg77
g1245
sg70
(lp1252
S'GET'
p1253
asbasbasbag63
(g79
g65
NtRp1254
(dp1255
g68
(dp1256
sg77
g767
sg70
(lp1257
g63
(g84
g65
NtRp1258
(dp1259
g68
(dp1260
g88
g89
ssg77
g1254
sg70
(lp1261
S'script_name'
p1262
asbag63
(g84
g65
NtRp1263
(dp1264
g68
(dp1265
g95
g96
ssg77
g1254
sg70
(lp1266
S':'
asbag63
(g84
g65
NtRp1267
(dp1268
g68
(dp1269
sg77
g1254
sg70
(lp1270
g63
(g64
g65
NtRp1271
(dp1272
g68
(dp1273
g76
I4
ssg77
g1267
sg70
(lp1274
S''
asbasbasbag63
(g79
g65
NtRp1275
(dp1276
g68
(dp1277
sg77
g767
sg70
(lp1278
g63
(g84
g65
NtRp1279
(dp1280
g68
(dp1281
g88
g89
ssg77
g1275
sg70
(lp1282
S'server_name'
p1283
asbag63
(g84
g65
NtRp1284
(dp1285
g68
(dp1286
g95
g96
ssg77
g1275
sg70
(lp1287
S':'
asbag63
(g84
g65
NtRp1288
(dp1289
g68
(dp1290
sg77
g1275
sg70
(lp1291
g63
(g64
g65
NtRp1292
(dp1293
g68
(dp1294
g76
I4
ssg77
g1288
sg70
(lp1295
S'hector-vaio'
p1296
asbasbasbag63
(g79
g65
NtRp1297
(dp1298
g68
(dp1299
sg77
g767
sg70
(lp1300
g63
(g84
g65
NtRp1301
(dp1302
g68
(dp1303
g88
g89
ssg77
g1297
sg70
(lp1304
S'server_port'
p1305
asbag63
(g84
g65
NtRp1306
(dp1307
g68
(dp1308
g95
g96
ssg77
g1297
sg70
(lp1309
S':'
asbag63
(g84
g65
NtRp1310
(dp1311
g68
(dp1312
sg77
g1297
sg70
(lp1313
g63
(g64
g65
NtRp1314
(dp1315
g68
(dp1316
g76
I4
ssg77
g1310
sg70
(lp1317
S'8000'
p1318
asbasbasbag63
(g79
g65
NtRp1319
(dp1320
g68
(dp1321
sg77
g767
sg70
(lp1322
g63
(g84
g65
NtRp1323
(dp1324
g68
(dp1325
g88
g89
ssg77
g1319
sg70
(lp1326
S'server_protocol'
p1327
asbag63
(g84
g65
NtRp1328
(dp1329
g68
(dp1330
g95
g96
ssg77
g1319
sg70
(lp1331
S':'
asbag63
(g84
g65
NtRp1332
(dp1333
g68
(dp1334
sg77
g1319
sg70
(lp1335
g63
(g64
g65
NtRp1336
(dp1337
g68
(dp1338
g76
I4
ssg77
g1332
sg70
(lp1339
S'HTTP/1.1'
p1340
asbasbasbag63
(g79
g65
NtRp1341
(dp1342
g68
(dp1343
sg77
g767
sg70
(lp1344
g63
(g84
g65
NtRp1345
(dp1346
g68
(dp1347
g88
g89
ssg77
g1341
sg70
(lp1348
S'server_software'
p1349
asbag63
(g84
g65
NtRp1350
(dp1351
g68
(dp1352
g95
g96
ssg77
g1341
sg70
(lp1353
S':'
asbag63
(g84
g65
NtRp1354
(dp1355
g68
(dp1356
sg77
g1341
sg70
(lp1357
g63
(g64
g65
NtRp1358
(dp1359
g68
(dp1360
g76
I4
ssg77
g1354
sg70
(lp1361
S'Rocket 1.2.4'
p1362
asbasbasbag63
(g79
g65
NtRp1363
(dp1364
g68
(dp1365
sg77
g767
sg70
(lp1366
g63
(g84
g65
NtRp1367
(dp1368
g68
(dp1369
g88
g89
ssg77
g1363
sg70
(lp1370
S'web2py_crontype'
p1371
asbag63
(g84
g65
NtRp1372
(dp1373
g68
(dp1374
g95
g96
ssg77
g1363
sg70
(lp1375
S':'
asbag63
(g84
g65
NtRp1376
(dp1377
g68
(dp1378
sg77
g1363
sg70
(lp1379
g63
(g64
g65
NtRp1380
(dp1381
g68
(dp1382
g76
I4
ssg77
g1376
sg70
(lp1383
S'hard'
p1384
asbasbasbag63
(g79
g65
NtRp1385
(dp1386
g68
(dp1387
sg77
g767
sg70
(lp1388
g63
(g84
g65
NtRp1389
(dp1390
g68
(dp1391
g88
g89
ssg77
g1385
sg70
(lp1392
S'web2py_path'
p1393
asbag63
(g84
g65
NtRp1394
(dp1395
g68
(dp1396
g95
g96
ssg77
g1385
sg70
(lp1397
S':'
asbag63
(g84
g65
NtRp1398
(dp1399
g68
(dp1400
sg77
g1385
sg70
(lp1401
g63
(g64
g65
NtRp1402
(dp1403
g68
(dp1404
g76
I4
ssg77
g1398
sg70
(lp1405
g814
asbasbasbag63
(g79
g65
NtRp1406
(dp1407
g68
(dp1408
sg77
g767
sg70
(lp1409
g63
(g84
g65
NtRp1410
(dp1411
g68
(dp1412
g88
g89
ssg77
g1406
sg70
(lp1413
S'web2py_version'
p1414
asbag63
(g84
g65
NtRp1415
(dp1416
g68
(dp1417
g95
g96
ssg77
g1406
sg70
(lp1418
S':'
asbag63
(g84
g65
NtRp1419
(dp1420
g68
(dp1421
sg77
g1406
sg70
(lp1422
g63
(g64
g65
NtRp1423
(dp1424
g68
(dp1425
g76
I4
ssg77
g1419
sg70
(lp1426
g63
(g72
g65
NtRp1427
(dp1428
g68
(dp1429
g76
I3
ssg77
Nsg70
(lp1430
g63
(g79
g65
NtRp1431
(dp1432
g68
(dp1433
sg77
g1427
sg70
(lp1434
g63
(g84
g65
NtRp1435
(dp1436
g68
(dp1437
sg77
g1431
sg70
(lp1438
g63
(g64
g65
NtRp1439
(dp1440
g68
(dp1441
g76
I3
ssg77
g1435
sg70
(lp1442
S'1'
asbasbasbag63
(g79
g65
NtRp1443
(dp1444
g68
(dp1445
sg77
g1427
sg70
(lp1446
g63
(g84
g65
NtRp1447
(dp1448
g68
(dp1449
sg77
g1443
sg70
(lp1450
g63
(g64
g65
NtRp1451
(dp1452
g68
(dp1453
g76
I3
ssg77
g1447
sg70
(lp1454
S'99'
p1455
asbasbasbag63
(g79
g65
NtRp1456
(dp1457
g68
(dp1458
sg77
g1427
sg70
(lp1459
g63
(g84
g65
NtRp1460
(dp1461
g68
(dp1462
sg77
g1456
sg70
(lp1463
g63
(g64
g65
NtRp1464
(dp1465
g68
(dp1466
g76
I3
ssg77
g1460
sg70
(lp1467
S'2'
asbasbasbag63
(g79
g65
NtRp1468
(dp1469
g68
(dp1470
sg77
g1427
sg70
(lp1471
g63
(g84
g65
NtRp1472
(dp1473
g68
(dp1474
sg77
g1468
sg70
(lp1475
g63
(g64
g65
NtRp1476
(dp1477
g68
(dp1478
g76
I3
ssg77
g1472
sg70
(lp1479
S'datetime.datetime(2011, 9, 26, 6, 55, 33)'
p1480
asbasbasbag63
(g79
g65
NtRp1481
(dp1482
g68
(dp1483
sg77
g1427
sg70
(lp1484
g63
(g84
g65
NtRp1485
(dp1486
g68
(dp1487
sg77
g1481
sg70
(lp1488
g63
(g64
g65
NtRp1489
(dp1490
g68
(dp1491
g76
I3
ssg77
g1485
sg70
(lp1492
S'stable'
p1493
asbasbasbasbasbasbasbag63
(g79
g65
NtRp1494
(dp1495
g68
(dp1496
sg77
g767
sg70
(lp1497
g63
(g84
g65
NtRp1498
(dp1499
g68
(dp1500
g88
g89
ssg77
g1494
sg70
(lp1501
S'wsgi_errors'
p1502
asbag63
(g84
g65
NtRp1503
(dp1504
g68
(dp1505
g95
g96
ssg77
g1494
sg70
(lp1506
S':'
asbag63
(g84
g65
NtRp1507
(dp1508
g68
(dp1509
sg77
g1494
sg70
(lp1510
g63
(g64
g65
NtRp1511
(dp1512
g68
(dp1513
g76
I4
ssg77
g1507
sg70
(lp1514
S"<open file '<stderr>', mode 'w' at 0x014F00B0>"
p1515
asbasbasbag63
(g79
g65
NtRp1516
(dp1517
g68
(dp1518
sg77
g767
sg70
(lp1519
g63
(g84
g65
NtRp1520
(dp1521
g68
(dp1522
g88
g89
ssg77
g1516
sg70
(lp1523
S'wsgi_file_wrapper'
p1524
asbag63
(g84
g65
NtRp1525
(dp1526
g68
(dp1527
g95
g96
ssg77
g1516
sg70
(lp1528
S':'
asbag63
(g84
g65
NtRp1529
(dp1530
g68
(dp1531
sg77
g1516
sg70
(lp1532
g63
(g64
g65
NtRp1533
(dp1534
g68
(dp1535
g76
I4
ssg77
g1529
sg70
(lp1536
S'<class wsgiref.util.FileWrapper at 0x023D9AB0>'
p1537
asbasbasbag63
(g79
g65
NtRp1538
(dp1539
g68
(dp1540
sg77
g767
sg70
(lp1541
g63
(g84
g65
NtRp1542
(dp1543
g68
(dp1544
g88
g89
ssg77
g1538
sg70
(lp1545
S'wsgi_input'
p1546
asbag63
(g84
g65
NtRp1547
(dp1548
g68
(dp1549
g95
g96
ssg77
g1538
sg70
(lp1550
S':'
asbag63
(g84
g65
NtRp1551
(dp1552
g68
(dp1553
sg77
g1538
sg70
(lp1554
g63
(g64
g65
NtRp1555
(dp1556
g68
(dp1557
g76
I4
ssg77
g1551
sg70
(lp1558
S'<socket._fileobject object at 0x0653EAF0>'
p1559
asbasbasbag63
(g79
g65
NtRp1560
(dp1561
g68
(dp1562
sg77
g767
sg70
(lp1563
g63
(g84
g65
NtRp1564
(dp1565
g68
(dp1566
g88
g89
ssg77
g1560
sg70
(lp1567
S'wsgi_multiprocess'
p1568
asbag63
(g84
g65
NtRp1569
(dp1570
g68
(dp1571
g95
g96
ssg77
g1560
sg70
(lp1572
S':'
asbag63
(g84
g65
NtRp1573
(dp1574
g68
(dp1575
sg77
g1560
sg70
(lp1576
g63
(g64
g65
NtRp1577
(dp1578
g68
(dp1579
g76
I4
ssg77
g1573
sg70
(lp1580
g106
asbasbasbag63
(g79
g65
NtRp1581
(dp1582
g68
(dp1583
sg77
g767
sg70
(lp1584
g63
(g84
g65
NtRp1585
(dp1586
g68
(dp1587
g88
g89
ssg77
g1581
sg70
(lp1588
S'wsgi_multithread'
p1589
asbag63
(g84
g65
NtRp1590
(dp1591
g68
(dp1592
g95
g96
ssg77
g1581
sg70
(lp1593
S':'
asbag63
(g84
g65
NtRp1594
(dp1595
g68
(dp1596
sg77
g1581
sg70
(lp1597
g63
(g64
g65
NtRp1598
(dp1599
g68
(dp1600
g76
I4
ssg77
g1594
sg70
(lp1601
S'True'
p1602
asbasbasbag63
(g79
g65
NtRp1603
(dp1604
g68
(dp1605
sg77
g767
sg70
(lp1606
g63
(g84
g65
NtRp1607
(dp1608
g68
(dp1609
g88
g89
ssg77
g1603
sg70
(lp1610
S'wsgi_run_once'
p1611
asbag63
(g84
g65
NtRp1612
(dp1613
g68
(dp1614
g95
g96
ssg77
g1603
sg70
(lp1615
S':'
asbag63
(g84
g65
NtRp1616
(dp1617
g68
(dp1618
sg77
g1603
sg70
(lp1619
g63
(g64
g65
NtRp1620
(dp1621
g68
(dp1622
g76
I4
ssg77
g1616
sg70
(lp1623
g106
asbasbasbag63
(g79
g65
NtRp1624
(dp1625
g68
(dp1626
sg77
g767
sg70
(lp1627
g63
(g84
g65
NtRp1628
(dp1629
g68
(dp1630
g88
g89
ssg77
g1624
sg70
(lp1631
S'wsgi_url_scheme'
p1632
asbag63
(g84
g65
NtRp1633
(dp1634
g68
(dp1635
g95
g96
ssg77
g1624
sg70
(lp1636
S':'
asbag63
(g84
g65
NtRp1637
(dp1638
g68
(dp1639
sg77
g1624
sg70
(lp1640
g63
(g64
g65
NtRp1641
(dp1642
g68
(dp1643
g76
I4
ssg77
g1637
sg70
(lp1644
S'http'
p1645
asbasbasbag63
(g79
g65
NtRp1646
(dp1647
g68
(dp1648
sg77
g767
sg70
(lp1649
g63
(g84
g65
NtRp1650
(dp1651
g68
(dp1652
g88
g89
ssg77
g1646
sg70
(lp1653
S'wsgi_version'
p1654
asbag63
(g84
g65
NtRp1655
(dp1656
g68
(dp1657
g95
g96
ssg77
g1646
sg70
(lp1658
S':'
asbag63
(g84
g65
NtRp1659
(dp1660
g68
(dp1661
sg77
g1646
sg70
(lp1662
g63
(g64
g65
NtRp1663
(dp1664
g68
(dp1665
g76
I4
ssg77
g1659
sg70
(lp1666
g63
(g72
g65
NtRp1667
(dp1668
g68
(dp1669
g76
I3
ssg77
Nsg70
(lp1670
g63
(g79
g65
NtRp1671
(dp1672
g68
(dp1673
sg77
g1667
sg70
(lp1674
g63
(g84
g65
NtRp1675
(dp1676
g68
(dp1677
sg77
g1671
sg70
(lp1678
g63
(g64
g65
NtRp1679
(dp1680
g68
(dp1681
g76
I3
ssg77
g1675
sg70
(lp1682
S'1'
asbasbasbag63
(g79
g65
NtRp1683
(dp1684
g68
(dp1685
sg77
g1667
sg70
(lp1686
g63
(g84
g65
NtRp1687
(dp1688
g68
(dp1689
sg77
g1683
sg70
(lp1690
g63
(g64
g65
NtRp1691
(dp1692
g68
(dp1693
g76
I3
ssg77
g1687
sg70
(lp1694
S'0'
asbasbasbasbasbasbasbasbasbasbasbag63
(g79
g65
NtRp1695
(dp1696
g68
(dp1697
sg77
g73
sg70
(lp1698
g63
(g84
g65
NtRp1699
(dp1700
g68
(dp1701
g88
g89
ssg77
g1695
sg70
(lp1702
S'extension'
p1703
asbag63
(g84
g65
NtRp1704
(dp1705
g68
(dp1706
g95
g96
ssg77
g1695
sg70
(lp1707
S':'
asbag63
(g84
g65
NtRp1708
(dp1709
g68
(dp1710
sg77
g1695
sg70
(lp1711
g63
(g64
g65
NtRp1712
(dp1713
g68
(dp1714
g76
I5
ssg77
g1708
sg70
(lp1715
S'html'
p1716
asbasbasbag63
(g79
g65
NtRp1717
(dp1718
g68
(dp1719
sg77
g73
sg70
(lp1720
g63
(g84
g65
NtRp1721
(dp1722
g68
(dp1723
g88
g89
ssg77
g1717
sg70
(lp1724
S'folder'
p1725
asbag63
(g84
g65
NtRp1726
(dp1727
g68
(dp1728
g95
g96
ssg77
g1717
sg70
(lp1729
S':'
asbag63
(g84
g65
NtRp1730
(dp1731
g68
(dp1732
sg77
g1717
sg70
(lp1733
g63
(g64
g65
NtRp1734
(dp1735
g68
(dp1736
g76
I5
ssg77
g1730
sg70
(lp1737
S'C:\\Python32\\web2py_win\\web2py\\applications\\Casa_de_Apuestas\\'
p1738
asbasbasbag63
(g79
g65
NtRp1739
(dp1740
g68
(dp1741
sg77
g73
sg70
(lp1742
g63
(g84
g65
NtRp1743
(dp1744
g68
(dp1745
g88
g89
ssg77
g1739
sg70
(lp1746
S'function'
p1747
asbag63
(g84
g65
NtRp1748
(dp1749
g68
(dp1750
g95
g96
ssg77
g1739
sg70
(lp1751
S':'
asbag63
(g84
g65
NtRp1752
(dp1753
g68
(dp1754
sg77
g1739
sg70
(lp1755
g63
(g64
g65
NtRp1756
(dp1757
g68
(dp1758
g76
I5
ssg77
g1752
sg70
(lp1759
S'crearEvento'
p1760
asbasbasbag63
(g79
g65
NtRp1761
(dp1762
g68
(dp1763
sg77
g73
sg70
(lp1764
g63
(g84
g65
NtRp1765
(dp1766
g68
(dp1767
g88
g89
ssg77
g1761
sg70
(lp1768
S'get_vars'
p1769
asbag63
(g84
g65
NtRp1770
(dp1771
g68
(dp1772
g95
g96
ssg77
g1761
sg70
(lp1773
S':'
asbag63
(g84
g65
NtRp1774
(dp1775
g68
(dp1776
sg77
g1761
sg70
(lp1777
g63
(g64
g65
NtRp1778
(dp1779
g68
(dp1780
g76
I5
ssg77
g1774
sg70
(lp1781
g63
(g72
g65
NtRp1782
(dp1783
g68
(dp1784
g76
I4
ssg77
Nsg70
(lp1785
sbasbasbasbag63
(g79
g65
NtRp1786
(dp1787
g68
(dp1788
sg77
g73
sg70
(lp1789
g63
(g84
g65
NtRp1790
(dp1791
g68
(dp1792
g88
g89
ssg77
g1786
sg70
(lp1793
S'global_settings'
p1794
asbag63
(g84
g65
NtRp1795
(dp1796
g68
(dp1797
g95
g96
ssg77
g1786
sg70
(lp1798
S':'
asbag63
(g84
g65
NtRp1799
(dp1800
g68
(dp1801
sg77
g1786
sg70
(lp1802
g63
(g64
g65
NtRp1803
(dp1804
g68
(dp1805
g76
I5
ssg77
g1799
sg70
(lp1806
g63
(g72
g65
NtRp1807
(dp1808
g68
(dp1809
g76
I4
ssg77
Nsg70
(lp1810
g63
(g79
g65
NtRp1811
(dp1812
g68
(dp1813
sg77
g1807
sg70
(lp1814
g63
(g84
g65
NtRp1815
(dp1816
g68
(dp1817
g88
g89
ssg77
g1811
sg70
(lp1818
g779
asbag63
(g84
g65
NtRp1819
(dp1820
g68
(dp1821
g95
g96
ssg77
g1811
sg70
(lp1822
S':'
asbag63
(g84
g65
NtRp1823
(dp1824
g68
(dp1825
sg77
g1811
sg70
(lp1826
g63
(g64
g65
NtRp1827
(dp1828
g68
(dp1829
g76
I4
ssg77
g1823
sg70
(lp1830
S"set(['C:\\\\Python32\\\\web2py_win\\\\web2py\\\\applications\\\\admin\\\\', 'C:\\\\Python32\\\\web2py_win\\\\web2py\\\\applications\\\\welcome\\\\', 'C:\\\\Python32\\\\web2py_win\\\\web2py\\\\applications\\\\Casa_de_Apuestas\\\\'])"
p1831
asbasbasbag63
(g79
g65
NtRp1832
(dp1833
g68
(dp1834
sg77
g1807
sg70
(lp1835
g63
(g84
g65
NtRp1836
(dp1837
g68
(dp1838
g88
g89
ssg77
g1832
sg70
(lp1839
g801
asbag63
(g84
g65
NtRp1840
(dp1841
g68
(dp1842
g95
g96
ssg77
g1832
sg70
(lp1843
S':'
asbag63
(g84
g65
NtRp1844
(dp1845
g68
(dp1846
sg77
g1832
sg70
(lp1847
g63
(g64
g65
NtRp1848
(dp1849
g68
(dp1850
g76
I4
ssg77
g1844
sg70
(lp1851
g814
asbasbasbag63
(g79
g65
NtRp1852
(dp1853
g68
(dp1854
sg77
g1807
sg70
(lp1855
g63
(g84
g65
NtRp1856
(dp1857
g68
(dp1858
g88
g89
ssg77
g1852
sg70
(lp1859
g823
asbag63
(g84
g65
NtRp1860
(dp1861
g68
(dp1862
g95
g96
ssg77
g1852
sg70
(lp1863
S':'
asbag63
(g84
g65
NtRp1864
(dp1865
g68
(dp1866
sg77
g1852
sg70
(lp1867
g63
(g64
g65
NtRp1868
(dp1869
g68
(dp1870
g76
I4
ssg77
g1864
sg70
(lp1871
g63
(g72
g65
NtRp1872
(dp1873
g68
(dp1874
g76
I3
ssg77
Nsg70
(lp1875
sbasbasbasbag63
(g79
g65
NtRp1876
(dp1877
g68
(dp1878
sg77
g1807
sg70
(lp1879
g63
(g84
g65
NtRp1880
(dp1881
g68
(dp1882
g88
g89
ssg77
g1876
sg70
(lp1883
g848
asbag63
(g84
g65
NtRp1884
(dp1885
g68
(dp1886
g95
g96
ssg77
g1876
sg70
(lp1887
S':'
asbag63
(g84
g65
NtRp1888
(dp1889
g68
(dp1890
sg77
g1876
sg70
(lp1891
g63
(g64
g65
NtRp1892
(dp1893
g68
(dp1894
g76
I4
ssg77
g1888
sg70
(lp1895
S"<Values at 0x2635fa8: {'verbose': False, 'ip': '127.0.0.1', 'shutdown_timeout': 5, 'taskbar': False, 'nocron': False, 'pid_filename': 'httpserver.pid', 'maxthreads': None, 'softcron': False, 'server_name': 'hector-vaio', 'bpython': False, 'nogui': False, 'port': 8000, 'extcron': False, 'debuglevel': 30, 'test': None, 'folder': 'C:\\\\Python32\\\\web2py_win\\\\web2py', 'config': '', 'import_models': False, 'winservice': '', 'shell': None, 'run': '', 'log_filename': 'httpserver.log', 'args': [''], 'ssl_ca_certificate': None, 'scheduler': None, 'profiler_filename': None, 'ssl_private_key': '', 'password': '<ask>', 'request_queue_size': 5, 'ssl_certificate': '', 'cronjob': False, 'plain': False, 'quiet': False, 'interfaces': None, 'minthreads': None, 'timeout': 10, 'numthreads': None, 'nobanner': False}>"
p1896
asbasbasbag63
(g79
g65
NtRp1897
(dp1898
g68
(dp1899
sg77
g1807
sg70
(lp1900
g63
(g84
g65
NtRp1901
(dp1902
g68
(dp1903
g88
g89
ssg77
g1897
sg70
(lp1904
g870
asbag63
(g84
g65
NtRp1905
(dp1906
g68
(dp1907
g95
g96
ssg77
g1897
sg70
(lp1908
S':'
asbag63
(g84
g65
NtRp1909
(dp1910
g68
(dp1911
sg77
g1897
sg70
(lp1912
g63
(g64
g65
NtRp1913
(dp1914
g68
(dp1915
g76
I4
ssg77
g1909
sg70
(lp1916
S'set([])'
p1917
asbasbasbag63
(g79
g65
NtRp1918
(dp1919
g68
(dp1920
sg77
g1807
sg70
(lp1921
g63
(g84
g65
NtRp1922
(dp1923
g68
(dp1924
g88
g89
ssg77
g1918
sg70
(lp1925
g892
asbag63
(g84
g65
NtRp1926
(dp1927
g68
(dp1928
g95
g96
ssg77
g1918
sg70
(lp1929
S':'
asbag63
(g84
g65
NtRp1930
(dp1931
g68
(dp1932
sg77
g1918
sg70
(lp1933
g63
(g64
g65
NtRp1934
(dp1935
g68
(dp1936
g76
I4
ssg77
g1930
sg70
(lp1937
g106
asbasbasbag63
(g79
g65
NtRp1938
(dp1939
g68
(dp1940
sg77
g1807
sg70
(lp1941
g63
(g84
g65
NtRp1942
(dp1943
g68
(dp1944
g88
g89
ssg77
g1938
sg70
(lp1945
g913
asbag63
(g84
g65
NtRp1946
(dp1947
g68
(dp1948
g95
g96
ssg77
g1938
sg70
(lp1949
S':'
asbag63
(g84
g65
NtRp1950
(dp1951
g68
(dp1952
sg77
g1938
sg70
(lp1953
g63
(g64
g65
NtRp1954
(dp1955
g68
(dp1956
g76
I4
ssg77
g1950
sg70
(lp1957
g926
asbasbasbag63
(g79
g65
NtRp1958
(dp1959
g68
(dp1960
sg77
g1807
sg70
(lp1961
g63
(g84
g65
NtRp1962
(dp1963
g68
(dp1964
g88
g89
ssg77
g1958
sg70
(lp1965
g1133
asbag63
(g84
g65
NtRp1966
(dp1967
g68
(dp1968
g95
g96
ssg77
g1958
sg70
(lp1969
S':'
asbag63
(g84
g65
NtRp1970
(dp1971
g68
(dp1972
sg77
g1958
sg70
(lp1973
g63
(g64
g65
NtRp1974
(dp1975
g68
(dp1976
g76
I4
ssg77
g1970
sg70
(lp1977
g106
asbasbasbag63
(g79
g65
NtRp1978
(dp1979
g68
(dp1980
sg77
g1807
sg70
(lp1981
g63
(g84
g65
NtRp1982
(dp1983
g68
(dp1984
g88
g89
ssg77
g1978
sg70
(lp1985
g1371
asbag63
(g84
g65
NtRp1986
(dp1987
g68
(dp1988
g95
g96
ssg77
g1978
sg70
(lp1989
S':'
asbag63
(g84
g65
NtRp1990
(dp1991
g68
(dp1992
sg77
g1978
sg70
(lp1993
g63
(g64
g65
NtRp1994
(dp1995
g68
(dp1996
g76
I4
ssg77
g1990
sg70
(lp1997
g1384
asbasbasbag63
(g79
g65
NtRp1998
(dp1999
g68
(dp2000
sg77
g1807
sg70
(lp2001
g63
(g84
g65
NtRp2002
(dp2003
g68
(dp2004
g88
g89
ssg77
g1998
sg70
(lp2005
g1414
asbag63
(g84
g65
NtRp2006
(dp2007
g68
(dp2008
g95
g96
ssg77
g1998
sg70
(lp2009
S':'
asbag63
(g84
g65
NtRp2010
(dp2011
g68
(dp2012
sg77
g1998
sg70
(lp2013
g63
(g64
g65
NtRp2014
(dp2015
g68
(dp2016
g76
I4
ssg77
g2010
sg70
(lp2017
g63
(g72
g65
NtRp2018
(dp2019
g68
(dp2020
g76
I3
ssg77
Nsg70
(lp2021
g63
(g79
g65
NtRp2022
(dp2023
g68
(dp2024
sg77
g2018
sg70
(lp2025
g63
(g84
g65
NtRp2026
(dp2027
g68
(dp2028
sg77
g2022
sg70
(lp2029
g63
(g64
g65
NtRp2030
(dp2031
g68
(dp2032
g76
I3
ssg77
g2026
sg70
(lp2033
S'1'
asbasbasbag63
(g79
g65
NtRp2034
(dp2035
g68
(dp2036
sg77
g2018
sg70
(lp2037
g63
(g84
g65
NtRp2038
(dp2039
g68
(dp2040
sg77
g2034
sg70
(lp2041
g63
(g64
g65
NtRp2042
(dp2043
g68
(dp2044
g76
I3
ssg77
g2038
sg70
(lp2045
S'99'
p2046
asbasbasbag63
(g79
g65
NtRp2047
(dp2048
g68
(dp2049
sg77
g2018
sg70
(lp2050
g63
(g84
g65
NtRp2051
(dp2052
g68
(dp2053
sg77
g2047
sg70
(lp2054
g63
(g64
g65
NtRp2055
(dp2056
g68
(dp2057
g76
I3
ssg77
g2051
sg70
(lp2058
S'2'
asbasbasbag63
(g79
g65
NtRp2059
(dp2060
g68
(dp2061
sg77
g2018
sg70
(lp2062
g63
(g84
g65
NtRp2063
(dp2064
g68
(dp2065
sg77
g2059
sg70
(lp2066
g63
(g64
g65
NtRp2067
(dp2068
g68
(dp2069
g76
I3
ssg77
g2063
sg70
(lp2070
S'datetime.datetime(2011, 9, 26, 6, 55, 33)'
p2071
asbasbasbag63
(g79
g65
NtRp2072
(dp2073
g68
(dp2074
sg77
g2018
sg70
(lp2075
g63
(g84
g65
NtRp2076
(dp2077
g68
(dp2078
sg77
g2072
sg70
(lp2079
g63
(g64
g65
NtRp2080
(dp2081
g68
(dp2082
g76
I3
ssg77
g2076
sg70
(lp2083
g1493
asbasbasbasbasbasbasbasbasbasbasbag63
(g79
g65
NtRp2084
(dp2085
g68
(dp2086
sg77
g73
sg70
(lp2087
g63
(g84
g65
NtRp2088
(dp2089
g68
(dp2090
g88
g89
ssg77
g2084
sg70
(lp2091
S'is_https'
p2092
asbag63
(g84
g65
NtRp2093
(dp2094
g68
(dp2095
g95
g96
ssg77
g2084
sg70
(lp2096
S':'
asbag63
(g84
g65
NtRp2097
(dp2098
g68
(dp2099
sg77
g2084
sg70
(lp2100
g63
(g64
g65
NtRp2101
(dp2102
g68
(dp2103
g76
I5
ssg77
g2097
sg70
(lp2104
g106
asbasbasbag63
(g79
g65
NtRp2105
(dp2106
g68
(dp2107
sg77
g73
sg70
(lp2108
g63
(g84
g65
NtRp2109
(dp2110
g68
(dp2111
g88
g89
ssg77
g2105
sg70
(lp2112
S'is_local'
p2113
asbag63
(g84
g65
NtRp2114
(dp2115
g68
(dp2116
g95
g96
ssg77
g2105
sg70
(lp2117
S':'
asbag63
(g84
g65
NtRp2118
(dp2119
g68
(dp2120
sg77
g2105
sg70
(lp2121
g63
(g64
g65
NtRp2122
(dp2123
g68
(dp2124
g76
I5
ssg77
g2118
sg70
(lp2125
g1602
asbasbasbag63
(g79
g65
NtRp2126
(dp2127
g68
(dp2128
sg77
g73
sg70
(lp2129
g63
(g84
g65
NtRp2130
(dp2131
g68
(dp2132
g88
g89
ssg77
g2126
sg70
(lp2133
S'is_restful'
p2134
asbag63
(g84
g65
NtRp2135
(dp2136
g68
(dp2137
g95
g96
ssg77
g2126
sg70
(lp2138
S':'
asbag63
(g84
g65
NtRp2139
(dp2140
g68
(dp2141
sg77
g2126
sg70
(lp2142
g63
(g64
g65
NtRp2143
(dp2144
g68
(dp2145
g76
I5
ssg77
g2139
sg70
(lp2146
g106
asbasbasbag63
(g79
g65
NtRp2147
(dp2148
g68
(dp2149
sg77
g73
sg70
(lp2150
g63
(g84
g65
NtRp2151
(dp2152
g68
(dp2153
g88
g89
ssg77
g2147
sg70
(lp2154
S'now'
p2155
asbag63
(g84
g65
NtRp2156
(dp2157
g68
(dp2158
g95
g96
ssg77
g2147
sg70
(lp2159
S':'
asbag63
(g84
g65
NtRp2160
(dp2161
g68
(dp2162
sg77
g2147
sg70
(lp2163
g63
(g64
g65
NtRp2164
(dp2165
g68
(dp2166
g76
I5
ssg77
g2160
sg70
(lp2167
S'datetime.datetime(2011, 12, 25, 14, 27, 15, 707000)'
p2168
asbasbasbag63
(g79
g65
NtRp2169
(dp2170
g68
(dp2171
sg77
g73
sg70
(lp2172
g63
(g84
g65
NtRp2173
(dp2174
g68
(dp2175
g88
g89
ssg77
g2169
sg70
(lp2176
S'post_vars'
p2177
asbag63
(g84
g65
NtRp2178
(dp2179
g68
(dp2180
g95
g96
ssg77
g2169
sg70
(lp2181
S':'
asbag63
(g84
g65
NtRp2182
(dp2183
g68
(dp2184
sg77
g2169
sg70
(lp2185
g63
(g64
g65
NtRp2186
(dp2187
g68
(dp2188
g76
I5
ssg77
g2182
sg70
(lp2189
g63
(g72
g65
NtRp2190
(dp2191
g68
(dp2192
g76
I4
ssg77
Nsg70
(lp2193
sbasbasbasbag63
(g79
g65
NtRp2194
(dp2195
g68
(dp2196
sg77
g73
sg70
(lp2197
g63
(g84
g65
NtRp2198
(dp2199
g68
(dp2200
g88
g89
ssg77
g2194
sg70
(lp2201
S'url'
p2202
asbag63
(g84
g65
NtRp2203
(dp2204
g68
(dp2205
g95
g96
ssg77
g2194
sg70
(lp2206
S':'
asbag63
(g84
g65
NtRp2207
(dp2208
g68
(dp2209
sg77
g2194
sg70
(lp2210
g63
(g64
g65
NtRp2211
(dp2212
g68
(dp2213
g76
I5
ssg77
g2207
sg70
(lp2214
S'/Casa_de_Apuestas/default/crearEvento'
p2215
asbasbasbag63
(g79
g65
NtRp2216
(dp2217
g68
(dp2218
sg77
g73
sg70
(lp2219
g63
(g84
g65
NtRp2220
(dp2221
g68
(dp2222
g88
g89
ssg77
g2216
sg70
(lp2223
S'utcnow'
p2224
asbag63
(g84
g65
NtRp2225
(dp2226
g68
(dp2227
g95
g96
ssg77
g2216
sg70
(lp2228
S':'
asbag63
(g84
g65
NtRp2229
(dp2230
g68
(dp2231
sg77
g2216
sg70
(lp2232
g63
(g64
g65
NtRp2233
(dp2234
g68
(dp2235
g76
I5
ssg77
g2229
sg70
(lp2236
S'datetime.datetime(2011, 12, 25, 18, 57, 15, 707000)'
p2237
asbasbasbag63
(g79
g65
NtRp2238
(dp2239
g68
(dp2240
sg77
g73
sg70
(lp2241
g63
(g84
g65
NtRp2242
(dp2243
g68
(dp2244
g88
g89
ssg77
g2238
sg70
(lp2245
S'uuid'
p2246
asbag63
(g84
g65
NtRp2247
(dp2248
g68
(dp2249
g95
g96
ssg77
g2238
sg70
(lp2250
S':'
asbag63
(g84
g65
NtRp2251
(dp2252
g68
(dp2253
sg77
g2238
sg70
(lp2254
g63
(g64
g65
NtRp2255
(dp2256
g68
(dp2257
g76
I5
ssg77
g2251
sg70
(lp2258
S'Casa_de_Apuestas/127.0.0.1.2011-12-25.14-27-15.e2175cbe-f060-4353-bd8d-25d4b4bcf6f6'
p2259
asbasbasbag63
(g79
g65
NtRp2260
(dp2261
g68
(dp2262
sg77
g73
sg70
(lp2263
g63
(g84
g65
NtRp2264
(dp2265
g68
(dp2266
g88
g89
ssg77
g2260
sg70
(lp2267
S'vars'
p2268
asbag63
(g84
g65
NtRp2269
(dp2270
g68
(dp2271
g95
g96
ssg77
g2260
sg70
(lp2272
S':'
asbag63
(g84
g65
NtRp2273
(dp2274
g68
(dp2275
sg77
g2260
sg70
(lp2276
g63
(g64
g65
NtRp2277
(dp2278
g68
(dp2279
g76
I5
ssg77
g2273
sg70
(lp2280
g63
(g72
g65
NtRp2281
(dp2282
g68
(dp2283
g76
I4
ssg77
Nsg70
(lp2284
sbasbasbasbag63
(g79
g65
NtRp2285
(dp2286
g68
(dp2287
sg77
g73
sg70
(lp2288
g63
(g84
g65
NtRp2289
(dp2290
g68
(dp2291
g88
g89
ssg77
g2285
sg70
(lp2292
S'wsgi'
p2293
asbag63
(g84
g65
NtRp2294
(dp2295
g68
(dp2296
g95
g96
ssg77
g2285
sg70
(lp2297
S':'
asbag63
(g84
g65
NtRp2298
(dp2299
g68
(dp2300
sg77
g2285
sg70
(lp2301
g63
(g64
g65
NtRp2302
(dp2303
g68
(dp2304
g76
I5
ssg77
g2298
sg70
(lp2305
g63
(g72
g65
NtRp2306
(dp2307
g68
(dp2308
g76
I4
ssg77
Nsg70
(lp2309
g63
(g79
g65
NtRp2310
(dp2311
g68
(dp2312
sg77
g2306
sg70
(lp2313
g63
(g84
g65
NtRp2314
(dp2315
g68
(dp2316
g88
g89
ssg77
g2310
sg70
(lp2317
S'environ'
p2318
asbag63
(g84
g65
NtRp2319
(dp2320
g68
(dp2321
g95
g96
ssg77
g2310
sg70
(lp2322
S':'
asbag63
(g84
g65
NtRp2323
(dp2324
g68
(dp2325
sg77
g2310
sg70
(lp2326
g63
(g64
g65
NtRp2327
(dp2328
g68
(dp2329
g76
I4
ssg77
g2323
sg70
(lp2330
g63
(g72
g65
NtRp2331
(dp2332
g68
(dp2333
g76
I3
ssg77
Nsg70
(lp2334
g63
(g79
g65
NtRp2335
(dp2336
g68
(dp2337
sg77
g2331
sg70
(lp2338
g63
(g84
g65
NtRp2339
(dp2340
g68
(dp2341
g88
g89
ssg77
g2335
sg70
(lp2342
S'HTTP_ACCEPT'
p2343
asbag63
(g84
g65
NtRp2344
(dp2345
g68
(dp2346
g95
g96
ssg77
g2335
sg70
(lp2347
S':'
asbag63
(g84
g65
NtRp2348
(dp2349
g68
(dp2350
sg77
g2335
sg70
(lp2351
g63
(g64
g65
NtRp2352
(dp2353
g68
(dp2354
g76
I3
ssg77
g2348
sg70
(lp2355
g948
asbasbasbag63
(g79
g65
NtRp2356
(dp2357
g68
(dp2358
sg77
g2331
sg70
(lp2359
g63
(g84
g65
NtRp2360
(dp2361
g68
(dp2362
g88
g89
ssg77
g2356
sg70
(lp2363
S'HTTP_ACCEPT_CHARSET'
p2364
asbag63
(g84
g65
NtRp2365
(dp2366
g68
(dp2367
g95
g96
ssg77
g2356
sg70
(lp2368
S':'
asbag63
(g84
g65
NtRp2369
(dp2370
g68
(dp2371
sg77
g2356
sg70
(lp2372
g63
(g64
g65
NtRp2373
(dp2374
g68
(dp2375
g76
I3
ssg77
g2369
sg70
(lp2376
g970
asbasbasbag63
(g79
g65
NtRp2377
(dp2378
g68
(dp2379
sg77
g2331
sg70
(lp2380
g63
(g84
g65
NtRp2381
(dp2382
g68
(dp2383
g88
g89
ssg77
g2377
sg70
(lp2384
S'HTTP_ACCEPT_ENCODING'
p2385
asbag63
(g84
g65
NtRp2386
(dp2387
g68
(dp2388
g95
g96
ssg77
g2377
sg70
(lp2389
S':'
asbag63
(g84
g65
NtRp2390
(dp2391
g68
(dp2392
sg77
g2377
sg70
(lp2393
g63
(g64
g65
NtRp2394
(dp2395
g68
(dp2396
g76
I3
ssg77
g2390
sg70
(lp2397
g992
asbasbasbag63
(g79
g65
NtRp2398
(dp2399
g68
(dp2400
sg77
g2331
sg70
(lp2401
g63
(g84
g65
NtRp2402
(dp2403
g68
(dp2404
g88
g89
ssg77
g2398
sg70
(lp2405
S'HTTP_ACCEPT_LANGUAGE'
p2406
asbag63
(g84
g65
NtRp2407
(dp2408
g68
(dp2409
g95
g96
ssg77
g2398
sg70
(lp2410
S':'
asbag63
(g84
g65
NtRp2411
(dp2412
g68
(dp2413
sg77
g2398
sg70
(lp2414
g63
(g64
g65
NtRp2415
(dp2416
g68
(dp2417
g76
I3
ssg77
g2411
sg70
(lp2418
g1014
asbasbasbag63
(g79
g65
NtRp2419
(dp2420
g68
(dp2421
sg77
g2331
sg70
(lp2422
g63
(g84
g65
NtRp2423
(dp2424
g68
(dp2425
g88
g89
ssg77
g2419
sg70
(lp2426
S'HTTP_CONNECTION'
p2427
asbag63
(g84
g65
NtRp2428
(dp2429
g68
(dp2430
g95
g96
ssg77
g2419
sg70
(lp2431
S':'
asbag63
(g84
g65
NtRp2432
(dp2433
g68
(dp2434
sg77
g2419
sg70
(lp2435
g63
(g64
g65
NtRp2436
(dp2437
g68
(dp2438
g76
I3
ssg77
g2432
sg70
(lp2439
g1036
asbasbasbag63
(g79
g65
NtRp2440
(dp2441
g68
(dp2442
sg77
g2331
sg70
(lp2443
g63
(g84
g65
NtRp2444
(dp2445
g68
(dp2446
g88
g89
ssg77
g2440
sg70
(lp2447
S'HTTP_COOKIE'
p2448
asbag63
(g84
g65
NtRp2449
(dp2450
g68
(dp2451
g95
g96
ssg77
g2440
sg70
(lp2452
S':'
asbag63
(g84
g65
NtRp2453
(dp2454
g68
(dp2455
sg77
g2440
sg70
(lp2456
g63
(g64
g65
NtRp2457
(dp2458
g68
(dp2459
g76
I3
ssg77
g2453
sg70
(lp2460
g1058
asbasbasbag63
(g79
g65
NtRp2461
(dp2462
g68
(dp2463
sg77
g2331
sg70
(lp2464
g63
(g84
g65
NtRp2465
(dp2466
g68
(dp2467
g88
g89
ssg77
g2461
sg70
(lp2468
S'HTTP_HOST'
p2469
asbag63
(g84
g65
NtRp2470
(dp2471
g68
(dp2472
g95
g96
ssg77
g2461
sg70
(lp2473
S':'
asbag63
(g84
g65
NtRp2474
(dp2475
g68
(dp2476
sg77
g2461
sg70
(lp2477
g63
(g64
g65
NtRp2478
(dp2479
g68
(dp2480
g76
I3
ssg77
g2474
sg70
(lp2481
g1080
asbasbasbag63
(g79
g65
NtRp2482
(dp2483
g68
(dp2484
sg77
g2331
sg70
(lp2485
g63
(g84
g65
NtRp2486
(dp2487
g68
(dp2488
g88
g89
ssg77
g2482
sg70
(lp2489
S'HTTP_REFERER'
p2490
asbag63
(g84
g65
NtRp2491
(dp2492
g68
(dp2493
g95
g96
ssg77
g2482
sg70
(lp2494
S':'
asbag63
(g84
g65
NtRp2495
(dp2496
g68
(dp2497
sg77
g2482
sg70
(lp2498
g63
(g64
g65
NtRp2499
(dp2500
g68
(dp2501
g76
I3
ssg77
g2495
sg70
(lp2502
g1102
asbasbasbag63
(g79
g65
NtRp2503
(dp2504
g68
(dp2505
sg77
g2331
sg70
(lp2506
g63
(g84
g65
NtRp2507
(dp2508
g68
(dp2509
g88
g89
ssg77
g2503
sg70
(lp2510
S'HTTP_USER_AGENT'
p2511
asbag63
(g84
g65
NtRp2512
(dp2513
g68
(dp2514
g95
g96
ssg77
g2503
sg70
(lp2515
S':'
asbag63
(g84
g65
NtRp2516
(dp2517
g68
(dp2518
sg77
g2503
sg70
(lp2519
g63
(g64
g65
NtRp2520
(dp2521
g68
(dp2522
g76
I3
ssg77
g2516
sg70
(lp2523
g1124
asbasbasbag63
(g79
g65
NtRp2524
(dp2525
g68
(dp2526
sg77
g2331
sg70
(lp2527
g63
(g84
g65
NtRp2528
(dp2529
g68
(dp2530
g88
g89
ssg77
g2524
sg70
(lp2531
S'PATH_INFO'
p2532
asbag63
(g84
g65
NtRp2533
(dp2534
g68
(dp2535
g95
g96
ssg77
g2524
sg70
(lp2536
S':'
asbag63
(g84
g65
NtRp2537
(dp2538
g68
(dp2539
sg77
g2524
sg70
(lp2540
g63
(g64
g65
NtRp2541
(dp2542
g68
(dp2543
g76
I3
ssg77
g2537
sg70
(lp2544
g1167
asbasbasbag63
(g79
g65
NtRp2545
(dp2546
g68
(dp2547
sg77
g2331
sg70
(lp2548
g63
(g84
g65
NtRp2549
(dp2550
g68
(dp2551
g88
g89
ssg77
g2545
sg70
(lp2552
S'QUERY_STRING'
p2553
asbag63
(g84
g65
NtRp2554
(dp2555
g68
(dp2556
g95
g96
ssg77
g2545
sg70
(lp2557
S':'
asbag63
(g84
g65
NtRp2558
(dp2559
g68
(dp2560
sg77
g2545
sg70
(lp2561
g63
(g64
g65
NtRp2562
(dp2563
g68
(dp2564
g76
I3
ssg77
g2558
sg70
(lp2565
S''
asbasbasbag63
(g79
g65
NtRp2566
(dp2567
g68
(dp2568
sg77
g2331
sg70
(lp2569
g63
(g84
g65
NtRp2570
(dp2571
g68
(dp2572
g88
g89
ssg77
g2566
sg70
(lp2573
S'REMOTE_ADDR'
p2574
asbag63
(g84
g65
NtRp2575
(dp2576
g68
(dp2577
g95
g96
ssg77
g2566
sg70
(lp2578
S':'
asbag63
(g84
g65
NtRp2579
(dp2580
g68
(dp2581
sg77
g2566
sg70
(lp2582
g63
(g64
g65
NtRp2583
(dp2584
g68
(dp2585
g76
I3
ssg77
g2579
sg70
(lp2586
g196
asbasbasbag63
(g79
g65
NtRp2587
(dp2588
g68
(dp2589
sg77
g2331
sg70
(lp2590
g63
(g84
g65
NtRp2591
(dp2592
g68
(dp2593
g88
g89
ssg77
g2587
sg70
(lp2594
S'REMOTE_PORT'
p2595
asbag63
(g84
g65
NtRp2596
(dp2597
g68
(dp2598
g95
g96
ssg77
g2587
sg70
(lp2599
S':'
asbag63
(g84
g65
NtRp2600
(dp2601
g68
(dp2602
sg77
g2587
sg70
(lp2603
g63
(g64
g65
NtRp2604
(dp2605
g68
(dp2606
g76
I3
ssg77
g2600
sg70
(lp2607
g1231
asbasbasbag63
(g79
g65
NtRp2608
(dp2609
g68
(dp2610
sg77
g2331
sg70
(lp2611
g63
(g84
g65
NtRp2612
(dp2613
g68
(dp2614
g88
g89
ssg77
g2608
sg70
(lp2615
S'REQUEST_METHOD'
p2616
asbag63
(g84
g65
NtRp2617
(dp2618
g68
(dp2619
g95
g96
ssg77
g2608
sg70
(lp2620
S':'
asbag63
(g84
g65
NtRp2621
(dp2622
g68
(dp2623
sg77
g2608
sg70
(lp2624
g63
(g64
g65
NtRp2625
(dp2626
g68
(dp2627
g76
I3
ssg77
g2621
sg70
(lp2628
g1253
asbasbasbag63
(g79
g65
NtRp2629
(dp2630
g68
(dp2631
sg77
g2331
sg70
(lp2632
g63
(g84
g65
NtRp2633
(dp2634
g68
(dp2635
g88
g89
ssg77
g2629
sg70
(lp2636
S'SCRIPT_NAME'
p2637
asbag63
(g84
g65
NtRp2638
(dp2639
g68
(dp2640
g95
g96
ssg77
g2629
sg70
(lp2641
S':'
asbag63
(g84
g65
NtRp2642
(dp2643
g68
(dp2644
sg77
g2629
sg70
(lp2645
g63
(g64
g65
NtRp2646
(dp2647
g68
(dp2648
g76
I3
ssg77
g2642
sg70
(lp2649
S''
asbasbasbag63
(g79
g65
NtRp2650
(dp2651
g68
(dp2652
sg77
g2331
sg70
(lp2653
g63
(g84
g65
NtRp2654
(dp2655
g68
(dp2656
g88
g89
ssg77
g2650
sg70
(lp2657
S'SERVER_NAME'
p2658
asbag63
(g84
g65
NtRp2659
(dp2660
g68
(dp2661
g95
g96
ssg77
g2650
sg70
(lp2662
S':'
asbag63
(g84
g65
NtRp2663
(dp2664
g68
(dp2665
sg77
g2650
sg70
(lp2666
g63
(g64
g65
NtRp2667
(dp2668
g68
(dp2669
g76
I3
ssg77
g2663
sg70
(lp2670
g1296
asbasbasbag63
(g79
g65
NtRp2671
(dp2672
g68
(dp2673
sg77
g2331
sg70
(lp2674
g63
(g84
g65
NtRp2675
(dp2676
g68
(dp2677
g88
g89
ssg77
g2671
sg70
(lp2678
S'SERVER_PORT'
p2679
asbag63
(g84
g65
NtRp2680
(dp2681
g68
(dp2682
g95
g96
ssg77
g2671
sg70
(lp2683
S':'
asbag63
(g84
g65
NtRp2684
(dp2685
g68
(dp2686
sg77
g2671
sg70
(lp2687
g63
(g64
g65
NtRp2688
(dp2689
g68
(dp2690
g76
I3
ssg77
g2684
sg70
(lp2691
g1318
asbasbasbag63
(g79
g65
NtRp2692
(dp2693
g68
(dp2694
sg77
g2331
sg70
(lp2695
g63
(g84
g65
NtRp2696
(dp2697
g68
(dp2698
g88
g89
ssg77
g2692
sg70
(lp2699
S'SERVER_PROTOCOL'
p2700
asbag63
(g84
g65
NtRp2701
(dp2702
g68
(dp2703
g95
g96
ssg77
g2692
sg70
(lp2704
S':'
asbag63
(g84
g65
NtRp2705
(dp2706
g68
(dp2707
sg77
g2692
sg70
(lp2708
g63
(g64
g65
NtRp2709
(dp2710
g68
(dp2711
g76
I3
ssg77
g2705
sg70
(lp2712
g1340
asbasbasbag63
(g79
g65
NtRp2713
(dp2714
g68
(dp2715
sg77
g2331
sg70
(lp2716
g63
(g84
g65
NtRp2717
(dp2718
g68
(dp2719
g88
g89
ssg77
g2713
sg70
(lp2720
S'SERVER_SOFTWARE'
p2721
asbag63
(g84
g65
NtRp2722
(dp2723
g68
(dp2724
g95
g96
ssg77
g2713
sg70
(lp2725
S':'
asbag63
(g84
g65
NtRp2726
(dp2727
g68
(dp2728
sg77
g2713
sg70
(lp2729
g63
(g64
g65
NtRp2730
(dp2731
g68
(dp2732
g76
I3
ssg77
g2726
sg70
(lp2733
g1362
asbasbasbag63
(g79
g65
NtRp2734
(dp2735
g68
(dp2736
sg77
g2331
sg70
(lp2737
g63
(g84
g65
NtRp2738
(dp2739
g68
(dp2740
g88
g89
ssg77
g2734
sg70
(lp2741
S'wsgi.errors'
p2742
asbag63
(g84
g65
NtRp2743
(dp2744
g68
(dp2745
g95
g96
ssg77
g2734
sg70
(lp2746
S':'
asbag63
(g84
g65
NtRp2747
(dp2748
g68
(dp2749
sg77
g2734
sg70
(lp2750
g63
(g64
g65
NtRp2751
(dp2752
g68
(dp2753
g76
I3
ssg77
g2747
sg70
(lp2754
S"<open file '<stderr>', mode 'w' at 0x014F00B0>"
p2755
asbasbasbag63
(g79
g65
NtRp2756
(dp2757
g68
(dp2758
sg77
g2331
sg70
(lp2759
g63
(g84
g65
NtRp2760
(dp2761
g68
(dp2762
g88
g89
ssg77
g2756
sg70
(lp2763
S'wsgi.file_wrapper'
p2764
asbag63
(g84
g65
NtRp2765
(dp2766
g68
(dp2767
g95
g96
ssg77
g2756
sg70
(lp2768
S':'
asbag63
(g84
g65
NtRp2769
(dp2770
g68
(dp2771
sg77
g2756
sg70
(lp2772
g63
(g64
g65
NtRp2773
(dp2774
g68
(dp2775
g76
I3
ssg77
g2769
sg70
(lp2776
S'<class wsgiref.util.FileWrapper at 0x023D9AB0>'
p2777
asbasbasbag63
(g79
g65
NtRp2778
(dp2779
g68
(dp2780
sg77
g2331
sg70
(lp2781
g63
(g84
g65
NtRp2782
(dp2783
g68
(dp2784
g88
g89
ssg77
g2778
sg70
(lp2785
S'wsgi.input'
p2786
asbag63
(g84
g65
NtRp2787
(dp2788
g68
(dp2789
g95
g96
ssg77
g2778
sg70
(lp2790
S':'
asbag63
(g84
g65
NtRp2791
(dp2792
g68
(dp2793
sg77
g2778
sg70
(lp2794
g63
(g64
g65
NtRp2795
(dp2796
g68
(dp2797
g76
I3
ssg77
g2791
sg70
(lp2798
S'<cStringIO.StringO object at 0x0661E6A0>'
p2799
asbasbasbag63
(g79
g65
NtRp2800
(dp2801
g68
(dp2802
sg77
g2331
sg70
(lp2803
g63
(g84
g65
NtRp2804
(dp2805
g68
(dp2806
g88
g89
ssg77
g2800
sg70
(lp2807
S'wsgi.multiprocess'
p2808
asbag63
(g84
g65
NtRp2809
(dp2810
g68
(dp2811
g95
g96
ssg77
g2800
sg70
(lp2812
S':'
asbag63
(g84
g65
NtRp2813
(dp2814
g68
(dp2815
sg77
g2800
sg70
(lp2816
g63
(g64
g65
NtRp2817
(dp2818
g68
(dp2819
g76
I3
ssg77
g2813
sg70
(lp2820
g106
asbasbasbag63
(g79
g65
NtRp2821
(dp2822
g68
(dp2823
sg77
g2331
sg70
(lp2824
g63
(g84
g65
NtRp2825
(dp2826
g68
(dp2827
g88
g89
ssg77
g2821
sg70
(lp2828
S'wsgi.multithread'
p2829
asbag63
(g84
g65
NtRp2830
(dp2831
g68
(dp2832
g95
g96
ssg77
g2821
sg70
(lp2833
S':'
asbag63
(g84
g65
NtRp2834
(dp2835
g68
(dp2836
sg77
g2821
sg70
(lp2837
g63
(g64
g65
NtRp2838
(dp2839
g68
(dp2840
g76
I3
ssg77
g2834
sg70
(lp2841
g1602
asbasbasbag63
(g79
g65
NtRp2842
(dp2843
g68
(dp2844
sg77
g2331
sg70
(lp2845
g63
(g84
g65
NtRp2846
(dp2847
g68
(dp2848
g88
g89
ssg77
g2842
sg70
(lp2849
S'wsgi.run_once'
p2850
asbag63
(g84
g65
NtRp2851
(dp2852
g68
(dp2853
g95
g96
ssg77
g2842
sg70
(lp2854
S':'
asbag63
(g84
g65
NtRp2855
(dp2856
g68
(dp2857
sg77
g2842
sg70
(lp2858
g63
(g64
g65
NtRp2859
(dp2860
g68
(dp2861
g76
I3
ssg77
g2855
sg70
(lp2862
g106
asbasbasbag63
(g79
g65
NtRp2863
(dp2864
g68
(dp2865
sg77
g2331
sg70
(lp2866
g63
(g84
g65
NtRp2867
(dp2868
g68
(dp2869
g88
g89
ssg77
g2863
sg70
(lp2870
S'wsgi.url_scheme'
p2871
asbag63
(g84
g65
NtRp2872
(dp2873
g68
(dp2874
g95
g96
ssg77
g2863
sg70
(lp2875
S':'
asbag63
(g84
g65
NtRp2876
(dp2877
g68
(dp2878
sg77
g2863
sg70
(lp2879
g63
(g64
g65
NtRp2880
(dp2881
g68
(dp2882
g76
I3
ssg77
g2876
sg70
(lp2883
g1645
asbasbasbag63
(g79
g65
NtRp2884
(dp2885
g68
(dp2886
sg77
g2331
sg70
(lp2887
g63
(g84
g65
NtRp2888
(dp2889
g68
(dp2890
g88
g89
ssg77
g2884
sg70
(lp2891
S'wsgi.version'
p2892
asbag63
(g84
g65
NtRp2893
(dp2894
g68
(dp2895
g95
g96
ssg77
g2884
sg70
(lp2896
S':'
asbag63
(g84
g65
NtRp2897
(dp2898
g68
(dp2899
sg77
g2884
sg70
(lp2900
g63
(g64
g65
NtRp2901
(dp2902
g68
(dp2903
g76
I3
ssg77
g2897
sg70
(lp2904
S'1'
asbasbasbasbasbasbasbasbasbasbasbasbasbsS'frames'
p2905
(lp2906
(dp2907
S'file'
p2908
S'C:\\Python32\\web2py_win\\web2py\\gluon\\restricted.py'
p2909
sS'dump'
p2910
(dp2911
sS'lnum'
p2912
I194
sS'lines'
p2913
(dp2914
sS'call'
p2915
S"(code='# -*- coding: utf-8 -*-\\n### required - do no del...()\\n\\nresponse._vars=response._caller(crearEvento)\\n', environment={'A': <class 'gluon.html.A'>, 'Auth': <class 'gluon.tools.Auth'>, 'B': <class 'gluon.html.B'>, 'BEAUTIFY': <class 'gluon.html.BEAUTIFY'>, 'BODY': <class 'gluon.html.BODY'>, 'BR': <class 'gluon.html.BR'>, 'BUTTON': <class 'gluon.html.BUTTON'>, 'CAT': <class 'gluon.html.CAT'>, 'CENTER': <class 'gluon.html.CENTER'>, 'CLEANUP': <class 'gluon.validators.CLEANUP'>, ...}, layer=r'C:\\Python32\\web2py_win\\web2py\\applications\\Casa_de_Apuestas\\controllers/default.py')"
p2916
sS'func'
p2917
S'restricted'
p2918
sa(dp2919
g2908
S'C:\\Python32\\web2py_win\\web2py\\applications\\Casa_de_Apuestas\\controllers\\default.py'
p2920
sg2910
(dp2921
sg2912
I208
sg2913
(dp2922
I197
S'    return dict(eventos=eventos)'
p2923
sI198
S''
sI199
S'def verProximosEventos2():'
p2924
sI200
S'    evento_participante= db((db.eventosparticipantes.eventos_id==request.args(0))& (db.participantes.id==db.eventosparticipantes.participantes_id)).select()'
p2925
sI201
S'    evento = db(db.eventos.id==request.args(0)).select()'
p2926
sI202
S'    categoria = db((db.categorias.id==db.eventos.categoria_id)& (db.eventos.id==request.args(0))).select()'
p2927
sI203
S'    return dict(evento_participante=evento_participante,evento=evento,categoria=categoria)'
p2928
sI204
S''
sI205
S'def indexPublico():'
p2929
sI206
S'    return dict()'
p2930
ssg2915
S'()'
p2931
sg2917
S'<module>'
p2932
sa(dp2933
g2908
S'C:\\Python32\\web2py_win\\web2py\\gluon\\globals.py'
p2934
sg2910
(dp2935
sg2912
I149
sg2913
(dp2936
sg2915
S'(f=<function crearEvento at 0x06653AB0>)'
p2937
sg2917
S'<lambda>'
p2938
sa(dp2939
g2908
S'C:\\Python32\\web2py_win\\web2py\\applications\\Casa_de_Apuestas\\controllers\\default.py'
p2940
sg2910
(dp2941
sg2912
I69
sg2913
(dp2942
I64
S'        if form.process().accepted:'
p2943
sI65
S'            db.commit()'
p2944
sI66
S'            from log import *'
p2945
sI67
S'            log = log()'
p2946
sI68
S'            log.logear("Evento creado: "+form.vars.nombre)'
p2947
sI69
S'        return response.render(dict(form=form,eventos=eventos))'
p2948
sI70
S''
sI71
S'def crearParticipante():'
p2949
sI72
S'        participantes = db().select(db.participantes.ALL)'
p2950
sI73
S'        form = crud.create(db.participantes)'
p2951
ssg2915
S'()'
p2952
sg2917
S'crearEvento'
p2953
sa(dp2954
g2908
S'C:\\Python32\\web2py_win\\web2py\\gluon\\globals.py'
p2955
sg2910
(dp2956
sg2912
I185
sg2913
(dp2957
sg2915
S"(self=<Storage {'body': <cStringIO.StringO object at 0...0x0653E870>, 'view': 'default/crearEvento.html'}>, *a=({'eventos': <gluon.dal.Rows object at 0x064D2370>, 'form': <gluon.sqlhtml.SQLFORM object at 0x069B3650>},), **b={})"
p2958
sg2917
S'render'
p2959
sa(dp2960
g2908
S'C:\\Python32\\web2py_win\\web2py\\gluon\\compileapp.py'
p2961
sg2910
(dp2962
sg2912
I524
sg2913
(dp2963
sg2915
S"(environment={'A': <class 'gluon.html.A'>, 'Auth': <class 'gluon.tools.Auth'>, 'B': <class 'gluon.html.B'>, 'BEAUTIFY': <class 'gluon.html.BEAUTIFY'>, 'BODY': <class 'gluon.html.BODY'>, 'BR': <class 'gluon.html.BR'>, 'BUTTON': <class 'gluon.html.BUTTON'>, 'CAT': <class 'gluon.html.CAT'>, 'CENTER': <class 'gluon.html.CENTER'>, 'CLEANUP': <class 'gluon.validators.CLEANUP'>, ...})"
p2964
sg2917
S'run_view_in'
p2965
sa(dp2966
g2908
S'C:\\Python32\\web2py_win\\web2py\\gluon\\restricted.py'
p2967
sg2910
(dp2968
sg2912
I202
sg2913
(dp2969
sg2915
S'(code=\'response.write(\\\'<!DOCTYPE html PUBLIC "-//W3C//D...</div>\\\\r\\\\n </body>\\\\r\\\\n</html>\\\\r\\\\n\\\', escape=False)\', environment={\'A\': <class \'gluon.html.A\'>, \'Auth\': <class \'gluon.tools.Auth\'>, \'B\': <class \'gluon.html.B\'>, \'BEAUTIFY\': <class \'gluon.html.BEAUTIFY\'>, \'BODY\': <class \'gluon.html.BODY\'>, \'BR\': <class \'gluon.html.BR\'>, \'BUTTON\': <class \'gluon.html.BUTTON\'>, \'CAT\': <class \'gluon.html.CAT\'>, \'CENTER\': <class \'gluon.html.CENTER\'>, \'CLEANUP\': <class \'gluon.validators.CLEANUP\'>, ...}, layer=r\'C:\\Python32\\web2py_win\\web2py\\applications\\Casa_de_Apuestas\\views\\default/crearEvento.html\')'
p2970
sg2917
g2918
sasS'pyver'
p2971
S'Python 2.5.4: C:\\Python32\\web2py_win\\web2py\\web2py.exe'
p2972
sS'session'
p2973
g63
(g64
g65
NtRp2974
(dp2975
g68
(dp2976
sg70
(lp2977
g63
(g72
g65
NtRp2978
(dp2979
g68
(dp2980
g76
I5
ssg77
Nsg70
(lp2981
g63
(g79
g65
NtRp2982
(dp2983
g68
(dp2984
sg77
g2978
sg70
(lp2985
g63
(g84
g65
NtRp2986
(dp2987
g68
(dp2988
g88
g89
ssg77
g2982
sg70
(lp2989
S'last_query'
p2990
asbag63
(g84
g65
NtRp2991
(dp2992
g68
(dp2993
g95
g96
ssg77
g2982
sg70
(lp2994
S':'
asbag63
(g84
g65
NtRp2995
(dp2996
g68
(dp2997
sg77
g2982
sg70
(lp2998
g63
(g64
g65
NtRp2999
(dp3000
g68
(dp3001
g76
I5
ssg77
g2995
sg70
(lp3002
S'db.eventos.id>0'
p3003
asbasbasbasbasbsS'etype'
p3004
S"<class 'gluon.restricted.RestrictedError'>"
p3005
sS'date'
p3006
S'Sun Dec 25 14:27:15 2011'
p3007
sS'response'
p3008
g63
(g64
g65
NtRp3009
(dp3010
g68
(dp3011
sg70
(lp3012
g63
(g72
g65
NtRp3013
(dp3014
g68
(dp3015
g76
I5
ssg77
Nsg70
(lp3016
g63
(g79
g65
NtRp3017
(dp3018
g68
(dp3019
sg77
g3013
sg70
(lp3020
g63
(g84
g65
NtRp3021
(dp3022
g68
(dp3023
g88
g89
ssg77
g3017
sg70
(lp3024
g161
asbag63
(g84
g65
NtRp3025
(dp3026
g68
(dp3027
g95
g96
ssg77
g3017
sg70
(lp3028
S':'
asbag63
(g84
g65
NtRp3029
(dp3030
g68
(dp3031
sg77
g3017
sg70
(lp3032
g63
(g64
g65
NtRp3033
(dp3034
g68
(dp3035
g76
I5
ssg77
g3029
sg70
(lp3036
S'<cStringIO.StringO object at 0x0654C1C0>'
p3037
asbasbasbag63
(g79
g65
NtRp3038
(dp3039
g68
(dp3040
sg77
g3013
sg70
(lp3041
g63
(g84
g65
NtRp3042
(dp3043
g68
(dp3044
g88
g89
ssg77
g3038
sg70
(lp3045
g227
asbag63
(g84
g65
NtRp3046
(dp3047
g68
(dp3048
g95
g96
ssg77
g3038
sg70
(lp3049
S':'
asbag63
(g84
g65
NtRp3050
(dp3051
g68
(dp3052
sg77
g3038
sg70
(lp3053
g63
(g64
g65
NtRp3054
(dp3055
g68
(dp3056
g76
I5
ssg77
g3050
sg70
(lp3057
g63
(g72
g65
NtRp3058
(dp3059
g68
(dp3060
g76
I4
ssg77
Nsg70
(lp3061
g63
(g79
g65
NtRp3062
(dp3063
g68
(dp3064
sg77
g3058
sg70
(lp3065
g63
(g84
g65
NtRp3066
(dp3067
g68
(dp3068
g88
g89
ssg77
g3062
sg70
(lp3069
S'session_id_casa_de_apuestas'
p3070
asbag63
(g84
g65
NtRp3071
(dp3072
g68
(dp3073
g95
g96
ssg77
g3062
sg70
(lp3074
S':'
asbag63
(g84
g65
NtRp3075
(dp3076
g68
(dp3077
sg77
g3062
sg70
(lp3078
g63
(g64
g65
NtRp3079
(dp3080
g68
(dp3081
g76
I4
ssg77
g3075
sg70
(lp3082
g63
(g72
g65
NtRp3083
(dp3084
g68
(dp3085
g76
I3
ssg77
Nsg70
(lp3086
g63
(g79
g65
NtRp3087
(dp3088
g68
(dp3089
sg77
g3083
sg70
(lp3090
g63
(g84
g65
NtRp3091
(dp3092
g68
(dp3093
g88
g89
ssg77
g3087
sg70
(lp3094
g277
asbag63
(g84
g65
NtRp3095
(dp3096
g68
(dp3097
g95
g96
ssg77
g3087
sg70
(lp3098
S':'
asbag63
(g84
g65
NtRp3099
(dp3100
g68
(dp3101
sg77
g3087
sg70
(lp3102
g63
(g64
g65
NtRp3103
(dp3104
g68
(dp3105
g76
I3
ssg77
g3099
sg70
(lp3106
S''
asbasbasbag63
(g79
g65
NtRp3107
(dp3108
g68
(dp3109
sg77
g3083
sg70
(lp3110
g63
(g84
g65
NtRp3111
(dp3112
g68
(dp3113
g88
g89
ssg77
g3107
sg70
(lp3114
g298
asbag63
(g84
g65
NtRp3115
(dp3116
g68
(dp3117
g95
g96
ssg77
g3107
sg70
(lp3118
S':'
asbag63
(g84
g65
NtRp3119
(dp3120
g68
(dp3121
sg77
g3107
sg70
(lp3122
g63
(g64
g65
NtRp3123
(dp3124
g68
(dp3125
g76
I3
ssg77
g3119
sg70
(lp3126
S''
asbasbasbag63
(g79
g65
NtRp3127
(dp3128
g68
(dp3129
sg77
g3083
sg70
(lp3130
g63
(g84
g65
NtRp3131
(dp3132
g68
(dp3133
g88
g89
ssg77
g3127
sg70
(lp3134
g319
asbag63
(g84
g65
NtRp3135
(dp3136
g68
(dp3137
g95
g96
ssg77
g3127
sg70
(lp3138
S':'
asbag63
(g84
g65
NtRp3139
(dp3140
g68
(dp3141
sg77
g3127
sg70
(lp3142
g63
(g64
g65
NtRp3143
(dp3144
g68
(dp3145
g76
I3
ssg77
g3139
sg70
(lp3146
S''
asbasbasbag63
(g79
g65
NtRp3147
(dp3148
g68
(dp3149
sg77
g3083
sg70
(lp3150
g63
(g84
g65
NtRp3151
(dp3152
g68
(dp3153
g88
g89
ssg77
g3147
sg70
(lp3154
g340
asbag63
(g84
g65
NtRp3155
(dp3156
g68
(dp3157
g95
g96
ssg77
g3147
sg70
(lp3158
S':'
asbag63
(g84
g65
NtRp3159
(dp3160
g68
(dp3161
sg77
g3147
sg70
(lp3162
g63
(g64
g65
NtRp3163
(dp3164
g68
(dp3165
g76
I3
ssg77
g3159
sg70
(lp3166
S''
asbasbasbag63
(g79
g65
NtRp3167
(dp3168
g68
(dp3169
sg77
g3083
sg70
(lp3170
g63
(g84
g65
NtRp3171
(dp3172
g68
(dp3173
g88
g89
ssg77
g3167
sg70
(lp3174
g361
asbag63
(g84
g65
NtRp3175
(dp3176
g68
(dp3177
g95
g96
ssg77
g3167
sg70
(lp3178
S':'
asbag63
(g84
g65
NtRp3179
(dp3180
g68
(dp3181
sg77
g3167
sg70
(lp3182
g63
(g64
g65
NtRp3183
(dp3184
g68
(dp3185
g76
I3
ssg77
g3179
sg70
(lp3186
S'/'
asbasbasbag63
(g79
g65
NtRp3187
(dp3188
g68
(dp3189
sg77
g3083
sg70
(lp3190
g63
(g84
g65
NtRp3191
(dp3192
g68
(dp3193
g88
g89
ssg77
g3187
sg70
(lp3194
g382
asbag63
(g84
g65
NtRp3195
(dp3196
g68
(dp3197
g95
g96
ssg77
g3187
sg70
(lp3198
S':'
asbag63
(g84
g65
NtRp3199
(dp3200
g68
(dp3201
sg77
g3187
sg70
(lp3202
g63
(g64
g65
NtRp3203
(dp3204
g68
(dp3205
g76
I3
ssg77
g3199
sg70
(lp3206
S''
asbasbasbag63
(g79
g65
NtRp3207
(dp3208
g68
(dp3209
sg77
g3083
sg70
(lp3210
g63
(g84
g65
NtRp3211
(dp3212
g68
(dp3213
g88
g89
ssg77
g3207
sg70
(lp3214
g403
asbag63
(g84
g65
NtRp3215
(dp3216
g68
(dp3217
g95
g96
ssg77
g3207
sg70
(lp3218
S':'
asbag63
(g84
g65
NtRp3219
(dp3220
g68
(dp3221
sg77
g3207
sg70
(lp3222
g63
(g64
g65
NtRp3223
(dp3224
g68
(dp3225
g76
I3
ssg77
g3219
sg70
(lp3226
S''
asbasbasbasbasbasbasbasbasbasbasbag63
(g79
g65
NtRp3227
(dp3228
g68
(dp3229
sg77
g3013
sg70
(lp3230
g63
(g84
g65
NtRp3231
(dp3232
g68
(dp3233
g88
g89
ssg77
g3227
sg70
(lp3234
S'files'
p3235
asbag63
(g84
g65
NtRp3236
(dp3237
g68
(dp3238
g95
g96
ssg77
g3227
sg70
(lp3239
S':'
asbag63
(g84
g65
NtRp3240
(dp3241
g68
(dp3242
sg77
g3227
sg70
(lp3243
g63
(g64
g65
NtRp3244
(dp3245
g68
(dp3246
g76
I5
ssg77
g3240
sg70
(lp3247
g63
(g72
g65
NtRp3248
(dp3249
g68
(dp3250
g76
I4
ssg77
Nsg70
(lp3251
g63
(g79
g65
NtRp3252
(dp3253
g68
(dp3254
sg77
g3248
sg70
(lp3255
g63
(g84
g65
NtRp3256
(dp3257
g68
(dp3258
sg77
g3252
sg70
(lp3259
g63
(g64
g65
NtRp3260
(dp3261
g68
(dp3262
g76
I4
ssg77
g3256
sg70
(lp3263
S'/Casa_de_Apuestas/static/js/jquery.js'
p3264
asbasbasbag63
(g79
g65
NtRp3265
(dp3266
g68
(dp3267
sg77
g3248
sg70
(lp3268
g63
(g84
g65
NtRp3269
(dp3270
g68
(dp3271
sg77
g3265
sg70
(lp3272
g63
(g64
g65
NtRp3273
(dp3274
g68
(dp3275
g76
I4
ssg77
g3269
sg70
(lp3276
S'/Casa_de_Apuestas/static/css/anytime.css'
p3277
asbasbasbag63
(g79
g65
NtRp3278
(dp3279
g68
(dp3280
sg77
g3248
sg70
(lp3281
g63
(g84
g65
NtRp3282
(dp3283
g68
(dp3284
sg77
g3278
sg70
(lp3285
g63
(g64
g65
NtRp3286
(dp3287
g68
(dp3288
g76
I4
ssg77
g3282
sg70
(lp3289
S'/Casa_de_Apuestas/static/js/anytime.js'
p3290
asbasbasbag63
(g79
g65
NtRp3291
(dp3292
g68
(dp3293
sg77
g3248
sg70
(lp3294
g63
(g84
g65
NtRp3295
(dp3296
g68
(dp3297
sg77
g3291
sg70
(lp3298
g63
(g64
g65
NtRp3299
(dp3300
g68
(dp3301
g76
I4
ssg77
g3295
sg70
(lp3302
S'/Casa_de_Apuestas/static/plugin_layouts/layouts/Balanced/default.css'
p3303
asbasbasbag63
(g79
g65
NtRp3304
(dp3305
g68
(dp3306
sg77
g3248
sg70
(lp3307
g63
(g84
g65
NtRp3308
(dp3309
g68
(dp3310
sg77
g3304
sg70
(lp3311
g63
(g64
g65
NtRp3312
(dp3313
g68
(dp3314
g76
I4
ssg77
g3308
sg70
(lp3315
S'/Casa_de_Apuestas/static/plugin_layouts/superfish.js'
p3316
asbasbasbasbasbasbasbag63
(g79
g65
NtRp3317
(dp3318
g68
(dp3319
sg77
g3013
sg70
(lp3320
g63
(g84
g65
NtRp3321
(dp3322
g68
(dp3323
g88
g89
ssg77
g3317
sg70
(lp3324
S'flash'
p3325
asbag63
(g84
g65
NtRp3326
(dp3327
g68
(dp3328
g95
g96
ssg77
g3317
sg70
(lp3329
S':'
asbag63
(g84
g65
NtRp3330
(dp3331
g68
(dp3332
sg77
g3317
sg70
(lp3333
g63
(g64
g65
NtRp3334
(dp3335
g68
(dp3336
g76
I5
ssg77
g3330
sg70
(lp3337
S''
asbasbasbag63
(g79
g65
NtRp3338
(dp3339
g68
(dp3340
sg77
g3013
sg70
(lp3341
g63
(g84
g65
NtRp3342
(dp3343
g68
(dp3344
g88
g89
ssg77
g3338
sg70
(lp3345
S'generic_patterns'
p3346
asbag63
(g84
g65
NtRp3347
(dp3348
g68
(dp3349
g95
g96
ssg77
g3338
sg70
(lp3350
S':'
asbag63
(g84
g65
NtRp3351
(dp3352
g68
(dp3353
sg77
g3338
sg70
(lp3354
g63
(g64
g65
NtRp3355
(dp3356
g68
(dp3357
g76
I5
ssg77
g3351
sg70
(lp3358
g63
(g72
g65
NtRp3359
(dp3360
g68
(dp3361
g76
I4
ssg77
Nsg70
(lp3362
g63
(g79
g65
NtRp3363
(dp3364
g68
(dp3365
sg77
g3359
sg70
(lp3366
g63
(g84
g65
NtRp3367
(dp3368
g68
(dp3369
sg77
g3363
sg70
(lp3370
g63
(g64
g65
NtRp3371
(dp3372
g68
(dp3373
g76
I4
ssg77
g3367
sg70
(lp3374
S'*'
asbasbasbasbasbasbasbag63
(g79
g65
NtRp3375
(dp3376
g68
(dp3377
sg77
g3013
sg70
(lp3378
g63
(g84
g65
NtRp3379
(dp3380
g68
(dp3381
g88
g89
ssg77
g3375
sg70
(lp3382
S'headers'
p3383
asbag63
(g84
g65
NtRp3384
(dp3385
g68
(dp3386
g95
g96
ssg77
g3375
sg70
(lp3387
S':'
asbag63
(g84
g65
NtRp3388
(dp3389
g68
(dp3390
sg77
g3375
sg70
(lp3391
g63
(g64
g65
NtRp3392
(dp3393
g68
(dp3394
g76
I5
ssg77
g3388
sg70
(lp3395
g63
(g72
g65
NtRp3396
(dp3397
g68
(dp3398
g76
I4
ssg77
Nsg70
(lp3399
g63
(g79
g65
NtRp3400
(dp3401
g68
(dp3402
sg77
g3396
sg70
(lp3403
g63
(g84
g65
NtRp3404
(dp3405
g68
(dp3406
g88
g89
ssg77
g3400
sg70
(lp3407
S'Cache-Control'
p3408
asbag63
(g84
g65
NtRp3409
(dp3410
g68
(dp3411
g95
g96
ssg77
g3400
sg70
(lp3412
S':'
asbag63
(g84
g65
NtRp3413
(dp3414
g68
(dp3415
sg77
g3400
sg70
(lp3416
g63
(g64
g65
NtRp3417
(dp3418
g68
(dp3419
g76
I4
ssg77
g3413
sg70
(lp3420
S'no-store, no-cache, must-revalidate, post-check=0, pre-check=0'
p3421
asbasbasbag63
(g79
g65
NtRp3422
(dp3423
g68
(dp3424
sg77
g3396
sg70
(lp3425
g63
(g84
g65
NtRp3426
(dp3427
g68
(dp3428
g88
g89
ssg77
g3422
sg70
(lp3429
S'Content-Type'
p3430
asbag63
(g84
g65
NtRp3431
(dp3432
g68
(dp3433
g95
g96
ssg77
g3422
sg70
(lp3434
S':'
asbag63
(g84
g65
NtRp3435
(dp3436
g68
(dp3437
sg77
g3422
sg70
(lp3438
g63
(g64
g65
NtRp3439
(dp3440
g68
(dp3441
g76
I4
ssg77
g3435
sg70
(lp3442
S'text/html; charset=utf-8'
p3443
asbasbasbag63
(g79
g65
NtRp3444
(dp3445
g68
(dp3446
sg77
g3396
sg70
(lp3447
g63
(g84
g65
NtRp3448
(dp3449
g68
(dp3450
g88
g89
ssg77
g3444
sg70
(lp3451
S'Expires'
p3452
asbag63
(g84
g65
NtRp3453
(dp3454
g68
(dp3455
g95
g96
ssg77
g3444
sg70
(lp3456
S':'
asbag63
(g84
g65
NtRp3457
(dp3458
g68
(dp3459
sg77
g3444
sg70
(lp3460
g63
(g64
g65
NtRp3461
(dp3462
g68
(dp3463
g76
I4
ssg77
g3457
sg70
(lp3464
S'Sun, 25 Dec 2011 18:57:15 GMT'
p3465
asbasbasbag63
(g79
g65
NtRp3466
(dp3467
g68
(dp3468
sg77
g3396
sg70
(lp3469
g63
(g84
g65
NtRp3470
(dp3471
g68
(dp3472
g88
g89
ssg77
g3466
sg70
(lp3473
S'Pragma'
p3474
asbag63
(g84
g65
NtRp3475
(dp3476
g68
(dp3477
g95
g96
ssg77
g3466
sg70
(lp3478
S':'
asbag63
(g84
g65
NtRp3479
(dp3480
g68
(dp3481
sg77
g3466
sg70
(lp3482
g63
(g64
g65
NtRp3483
(dp3484
g68
(dp3485
g76
I4
ssg77
g3479
sg70
(lp3486
S'no-cache'
p3487
asbasbasbag63
(g79
g65
NtRp3488
(dp3489
g68
(dp3490
sg77
g3396
sg70
(lp3491
g63
(g84
g65
NtRp3492
(dp3493
g68
(dp3494
g88
g89
ssg77
g3488
sg70
(lp3495
S'X-Powered-By'
p3496
asbag63
(g84
g65
NtRp3497
(dp3498
g68
(dp3499
g95
g96
ssg77
g3488
sg70
(lp3500
S':'
asbag63
(g84
g65
NtRp3501
(dp3502
g68
(dp3503
sg77
g3488
sg70
(lp3504
g63
(g64
g65
NtRp3505
(dp3506
g68
(dp3507
g76
I4
ssg77
g3501
sg70
(lp3508
S'web2py'
p3509
asbasbasbasbasbasbasbag63
(g79
g65
NtRp3510
(dp3511
g68
(dp3512
sg77
g3013
sg70
(lp3513
g63
(g84
g65
NtRp3514
(dp3515
g68
(dp3516
g88
g89
ssg77
g3510
sg70
(lp3517
S'menu'
p3518
asbag63
(g84
g65
NtRp3519
(dp3520
g68
(dp3521
g95
g96
ssg77
g3510
sg70
(lp3522
S':'
asbag63
(g84
g65
NtRp3523
(dp3524
g68
(dp3525
sg77
g3510
sg70
(lp3526
g63
(g64
g65
NtRp3527
(dp3528
g68
(dp3529
g76
I5
ssg77
g3523
sg70
(lp3530
g63
(g72
g65
NtRp3531
(dp3532
g68
(dp3533
g76
I4
ssg77
Nsg70
(lp3534
g63
(g79
g65
NtRp3535
(dp3536
g68
(dp3537
sg77
g3531
sg70
(lp3538
g63
(g84
g65
NtRp3539
(dp3540
g68
(dp3541
sg77
g3535
sg70
(lp3542
g63
(g64
g65
NtRp3543
(dp3544
g68
(dp3545
g76
I4
ssg77
g3539
sg70
(lp3546
g63
(g72
g65
NtRp3547
(dp3548
g68
(dp3549
g76
I3
ssg77
Nsg70
(lp3550
g63
(g79
g65
NtRp3551
(dp3552
g68
(dp3553
sg77
g3547
sg70
(lp3554
g63
(g84
g65
NtRp3555
(dp3556
g68
(dp3557
sg77
g3551
sg70
(lp3558
g63
(g64
g65
NtRp3559
(dp3560
g68
(dp3561
g76
I3
ssg77
g3555
sg70
(lp3562
cgluon.languages
lazyT_unpickle
p3563
(S's\x05\x00\x00\x00Index'
tRp3564
asbasbasbag63
(g79
g65
NtRp3565
(dp3566
g68
(dp3567
sg77
g3547
sg70
(lp3568
g63
(g84
g65
NtRp3569
(dp3570
g68
(dp3571
sg77
g3565
sg70
(lp3572
g63
(g64
g65
NtRp3573
(dp3574
g68
(dp3575
g76
I3
ssg77
g3569
sg70
(lp3576
g106
asbasbasbag63
(g79
g65
NtRp3577
(dp3578
g68
(dp3579
sg77
g3547
sg70
(lp3580
g63
(g84
g65
NtRp3581
(dp3582
g68
(dp3583
sg77
g3577
sg70
(lp3584
g63
(g64
g65
NtRp3585
(dp3586
g68
(dp3587
g76
I3
ssg77
g3581
sg70
(lp3588
S'/Casa_de_Apuestas/default/index'
p3589
asbasbasbag63
(g79
g65
NtRp3590
(dp3591
g68
(dp3592
sg77
g3547
sg70
(lp3593
g63
(g84
g65
NtRp3594
(dp3595
g68
(dp3596
sg77
g3590
sg70
(lp3597
g63
(g64
g65
NtRp3598
(dp3599
g68
(dp3600
g76
I3
ssg77
g3594
sg70
(lp3601
g63
(g72
g65
NtRp3602
(dp3603
g68
(dp3604
g76
I2
ssg77
Nsg70
(lp3605
sbasbasbasbasbasbasbasbasbasbasbasbag63
(g79
g65
NtRp3606
(dp3607
g68
(dp3608
sg77
g3013
sg70
(lp3609
g63
(g84
g65
NtRp3610
(dp3611
g68
(dp3612
g88
g89
ssg77
g3606
sg70
(lp3613
S'meta'
p3614
asbag63
(g84
g65
NtRp3615
(dp3616
g68
(dp3617
g95
g96
ssg77
g3606
sg70
(lp3618
S':'
asbag63
(g84
g65
NtRp3619
(dp3620
g68
(dp3621
sg77
g3606
sg70
(lp3622
g63
(g64
g65
NtRp3623
(dp3624
g68
(dp3625
g76
I5
ssg77
g3619
sg70
(lp3626
g63
(g72
g65
NtRp3627
(dp3628
g68
(dp3629
g76
I4
ssg77
Nsg70
(lp3630
g63
(g79
g65
NtRp3631
(dp3632
g68
(dp3633
sg77
g3627
sg70
(lp3634
g63
(g84
g65
NtRp3635
(dp3636
g68
(dp3637
g88
g89
ssg77
g3631
sg70
(lp3638
S'author'
p3639
asbag63
(g84
g65
NtRp3640
(dp3641
g68
(dp3642
g95
g96
ssg77
g3631
sg70
(lp3643
S':'
asbag63
(g84
g65
NtRp3644
(dp3645
g68
(dp3646
sg77
g3631
sg70
(lp3647
g63
(g64
g65
NtRp3648
(dp3649
g68
(dp3650
g76
I4
ssg77
g3644
sg70
(lp3651
S'JSG Systems <jsg@example.com>'
p3652
asbasbasbag63
(g79
g65
NtRp3653
(dp3654
g68
(dp3655
sg77
g3627
sg70
(lp3656
g63
(g84
g65
NtRp3657
(dp3658
g68
(dp3659
g88
g89
ssg77
g3653
sg70
(lp3660
S'description'
p3661
asbag63
(g84
g65
NtRp3662
(dp3663
g68
(dp3664
g95
g96
ssg77
g3653
sg70
(lp3665
S':'
asbag63
(g84
g65
NtRp3666
(dp3667
g68
(dp3668
sg77
g3653
sg70
(lp3669
g63
(g64
g65
NtRp3670
(dp3671
g68
(dp3672
g76
I4
ssg77
g3666
sg70
(lp3673
S''
asbasbasbag63
(g79
g65
NtRp3674
(dp3675
g68
(dp3676
sg77
g3627
sg70
(lp3677
g63
(g84
g65
NtRp3678
(dp3679
g68
(dp3680
g88
g89
ssg77
g3674
sg70
(lp3681
S'keywords'
p3682
asbag63
(g84
g65
NtRp3683
(dp3684
g68
(dp3685
g95
g96
ssg77
g3674
sg70
(lp3686
S':'
asbag63
(g84
g65
NtRp3687
(dp3688
g68
(dp3689
sg77
g3674
sg70
(lp3690
g63
(g64
g65
NtRp3691
(dp3692
g68
(dp3693
g76
I4
ssg77
g3687
sg70
(lp3694
S'casa, apuestas'
p3695
asbasbasbasbasbasbasbag63
(g79
g65
NtRp3696
(dp3697
g68
(dp3698
sg77
g3013
sg70
(lp3699
g63
(g84
g65
NtRp3700
(dp3701
g68
(dp3702
g88
g89
ssg77
g3696
sg70
(lp3703
S'postprocessing'
p3704
asbag63
(g84
g65
NtRp3705
(dp3706
g68
(dp3707
g95
g96
ssg77
g3696
sg70
(lp3708
S':'
asbag63
(g84
g65
NtRp3709
(dp3710
g68
(dp3711
sg77
g3696
sg70
(lp3712
g63
(g64
g65
NtRp3713
(dp3714
g68
(dp3715
g76
I5
ssg77
g3709
sg70
(lp3716
g63
(g72
g65
NtRp3717
(dp3718
g68
(dp3719
g76
I4
ssg77
Nsg70
(lp3720
sbasbasbasbag63
(g79
g65
NtRp3721
(dp3722
g68
(dp3723
sg77
g3013
sg70
(lp3724
g63
(g84
g65
NtRp3725
(dp3726
g68
(dp3727
g88
g89
ssg77
g3721
sg70
(lp3728
S'session_file'
p3729
asbag63
(g84
g65
NtRp3730
(dp3731
g68
(dp3732
g95
g96
ssg77
g3721
sg70
(lp3733
S':'
asbag63
(g84
g65
NtRp3734
(dp3735
g68
(dp3736
sg77
g3721
sg70
(lp3737
g63
(g64
g65
NtRp3738
(dp3739
g68
(dp3740
g76
I5
ssg77
g3734
sg70
(lp3741
S"<open file 'C:\\Python32\\web2py_win\\web2py\\applications\\Casa_de_Apuestas\\sessions\\127.0.0.1-620e4e48-b9ab-46bd-a58d-617594f1c170', mode 'rb+' at 0x027D4698>"
p3742
asbasbasbag63
(g79
g65
NtRp3743
(dp3744
g68
(dp3745
sg77
g3013
sg70
(lp3746
g63
(g84
g65
NtRp3747
(dp3748
g68
(dp3749
g88
g89
ssg77
g3743
sg70
(lp3750
S'session_filename'
p3751
asbag63
(g84
g65
NtRp3752
(dp3753
g68
(dp3754
g95
g96
ssg77
g3743
sg70
(lp3755
S':'
asbag63
(g84
g65
NtRp3756
(dp3757
g68
(dp3758
sg77
g3743
sg70
(lp3759
g63
(g64
g65
NtRp3760
(dp3761
g68
(dp3762
g76
I5
ssg77
g3756
sg70
(lp3763
S'C:\\Python32\\web2py_win\\web2py\\applications\\Casa_de_Apuestas\\sessions\\127.0.0.1-620e4e48-b9ab-46bd-a58d-617594f1c170'
p3764
asbasbasbag63
(g79
g65
NtRp3765
(dp3766
g68
(dp3767
sg77
g3013
sg70
(lp3768
g63
(g84
g65
NtRp3769
(dp3770
g68
(dp3771
g88
g89
ssg77
g3765
sg70
(lp3772
S'session_id'
p3773
asbag63
(g84
g65
NtRp3774
(dp3775
g68
(dp3776
g95
g96
ssg77
g3765
sg70
(lp3777
S':'
asbag63
(g84
g65
NtRp3778
(dp3779
g68
(dp3780
sg77
g3765
sg70
(lp3781
g63
(g64
g65
NtRp3782
(dp3783
g68
(dp3784
g76
I5
ssg77
g3778
sg70
(lp3785
S'127.0.0.1-620e4e48-b9ab-46bd-a58d-617594f1c170'
p3786
asbasbasbag63
(g79
g65
NtRp3787
(dp3788
g68
(dp3789
sg77
g3013
sg70
(lp3790
g63
(g84
g65
NtRp3791
(dp3792
g68
(dp3793
g88
g89
ssg77
g3787
sg70
(lp3794
S'session_id_name'
p3795
asbag63
(g84
g65
NtRp3796
(dp3797
g68
(dp3798
g95
g96
ssg77
g3787
sg70
(lp3799
S':'
asbag63
(g84
g65
NtRp3800
(dp3801
g68
(dp3802
sg77
g3787
sg70
(lp3803
g63
(g64
g65
NtRp3804
(dp3805
g68
(dp3806
g76
I5
ssg77
g3800
sg70
(lp3807
g3070
asbasbasbag63
(g79
g65
NtRp3808
(dp3809
g68
(dp3810
sg77
g3013
sg70
(lp3811
g63
(g84
g65
NtRp3812
(dp3813
g68
(dp3814
g88
g89
ssg77
g3808
sg70
(lp3815
S'session_locked'
p3816
asbag63
(g84
g65
NtRp3817
(dp3818
g68
(dp3819
g95
g96
ssg77
g3808
sg70
(lp3820
S':'
asbag63
(g84
g65
NtRp3821
(dp3822
g68
(dp3823
sg77
g3808
sg70
(lp3824
g63
(g64
g65
NtRp3825
(dp3826
g68
(dp3827
g76
I5
ssg77
g3821
sg70
(lp3828
g1602
asbasbasbag63
(g79
g65
NtRp3829
(dp3830
g68
(dp3831
sg77
g3013
sg70
(lp3832
g63
(g84
g65
NtRp3833
(dp3834
g68
(dp3835
g88
g89
ssg77
g3829
sg70
(lp3836
S'session_new'
p3837
asbag63
(g84
g65
NtRp3838
(dp3839
g68
(dp3840
g95
g96
ssg77
g3829
sg70
(lp3841
S':'
asbag63
(g84
g65
NtRp3842
(dp3843
g68
(dp3844
sg77
g3829
sg70
(lp3845
g63
(g64
g65
NtRp3846
(dp3847
g68
(dp3848
g76
I5
ssg77
g3842
sg70
(lp3849
g106
asbasbasbag63
(g79
g65
NtRp3850
(dp3851
g68
(dp3852
sg77
g3013
sg70
(lp3853
g63
(g84
g65
NtRp3854
(dp3855
g68
(dp3856
g88
g89
ssg77
g3850
sg70
(lp3857
S'status'
p3858
asbag63
(g84
g65
NtRp3859
(dp3860
g68
(dp3861
g95
g96
ssg77
g3850
sg70
(lp3862
S':'
asbag63
(g84
g65
NtRp3863
(dp3864
g68
(dp3865
sg77
g3850
sg70
(lp3866
g63
(g64
g65
NtRp3867
(dp3868
g68
(dp3869
g76
I5
ssg77
g3863
sg70
(lp3870
S'200'
p3871
asbasbasbag63
(g79
g65
NtRp3872
(dp3873
g68
(dp3874
sg77
g3013
sg70
(lp3875
g63
(g84
g65
NtRp3876
(dp3877
g68
(dp3878
g88
g89
ssg77
g3872
sg70
(lp3879
S'subtitle'
p3880
asbag63
(g84
g65
NtRp3881
(dp3882
g68
(dp3883
g95
g96
ssg77
g3872
sg70
(lp3884
S':'
asbag63
(g84
g65
NtRp3885
(dp3886
g68
(dp3887
sg77
g3872
sg70
(lp3888
g63
(g64
g65
NtRp3889
(dp3890
g68
(dp3891
g76
I5
ssg77
g3885
sg70
(lp3892
S''
asbasbasbag63
(g79
g65
NtRp3893
(dp3894
g68
(dp3895
sg77
g3013
sg70
(lp3896
g63
(g84
g65
NtRp3897
(dp3898
g68
(dp3899
g88
g89
ssg77
g3893
sg70
(lp3900
S'title'
p3901
asbag63
(g84
g65
NtRp3902
(dp3903
g68
(dp3904
g95
g96
ssg77
g3893
sg70
(lp3905
S':'
asbag63
(g84
g65
NtRp3906
(dp3907
g68
(dp3908
sg77
g3893
sg70
(lp3909
g63
(g64
g65
NtRp3910
(dp3911
g68
(dp3912
g76
I5
ssg77
g3906
sg70
(lp3913
S'Casa de Apuestas'
p3914
asbasbasbag63
(g79
g65
NtRp3915
(dp3916
g68
(dp3917
sg77
g3013
sg70
(lp3918
g63
(g84
g65
NtRp3919
(dp3920
g68
(dp3921
g88
g89
ssg77
g3915
sg70
(lp3922
g2246
asbag63
(g84
g65
NtRp3923
(dp3924
g68
(dp3925
g95
g96
ssg77
g3915
sg70
(lp3926
S':'
asbag63
(g84
g65
NtRp3927
(dp3928
g68
(dp3929
sg77
g3915
sg70
(lp3930
g63
(g64
g65
NtRp3931
(dp3932
g68
(dp3933
g76
I5
ssg77
g3927
sg70
(lp3934
g2259
asbasbasbag63
(g79
g65
NtRp3935
(dp3936
g68
(dp3937
sg77
g3013
sg70
(lp3938
g63
(g84
g65
NtRp3939
(dp3940
g68
(dp3941
g88
g89
ssg77
g3935
sg70
(lp3942
S'view'
p3943
asbag63
(g84
g65
NtRp3944
(dp3945
g68
(dp3946
g95
g96
ssg77
g3935
sg70
(lp3947
S':'
asbag63
(g84
g65
NtRp3948
(dp3949
g68
(dp3950
sg77
g3935
sg70
(lp3951
g63
(g64
g65
NtRp3952
(dp3953
g68
(dp3954
g76
I5
ssg77
g3948
sg70
(lp3955
S'default/crearEvento.html'
p3956
asbasbasbasbasbsS'locals'
p3957
(dp3958
g37
S"{'A': <class 'gluon.html.A'>, 'Auth': <class 'gluon.tools.Auth'>, 'B': <class 'gluon.html.B'>, 'BEAUTIFY': <class 'gluon.html.BEAUTIFY'>, 'BODY': <class 'gluon.html.BODY'>, 'BR': <class 'gluon.html.BR'>, 'BUTTON': <class 'gluon.html.BUTTON'>, 'CAT': <class 'gluon.html.CAT'>, 'CENTER': <class 'gluon.html.CENTER'>, 'CLEANUP': <class 'gluon.validators.CLEANUP'>, ...}"
p3959
sg3
S"r'C:\\Python32\\web2py_win\\web2py\\applications\\Casa_de_Apuestas\\views\\default/crearEvento.html'"
p3960
sg5
S'\'response.write(\\\'<!DOCTYPE html PUBLIC "-//W3C//D...</div>\\\\r\\\\n </body>\\\\r\\\\n</html>\\\\r\\\\n\\\', escape=False)\''
p3961
sS'ccode'
p3962
S'<code object <module> at 0698FD10, file "C:\\Pyth...Apuestas\\views\\default/crearEvento.html", line 1>'
p3963
sS'error'
p3964
S'AttributeError("\'NoneType\' object has no attribute \'admiteTablaResultado\'",)'
p3965
sssg51
S'Traceback (most recent call last):\n  File "gluon/restricted.py", line 194, in restricted\n  File "C:\\Python32\\web2py_win\\web2py\\applications\\Casa_de_Apuestas\\controllers/default.py", line 208, in <module>\n  File "gluon/globals.py", line 149, in <lambda>\n  File "C:\\Python32\\web2py_win\\web2py\\applications\\Casa_de_Apuestas\\controllers/default.py", line 69, in crearEvento\n  File "gluon/globals.py", line 185, in render\n  File "gluon/compileapp.py", line 524, in run_view_in\n  File "gluon/restricted.py", line 202, in restricted\nRestrictedError\n'
p3966
s.