(dp1
S'output'
p2
S''
sS'layer'
p3
S'C:\\Python32\\web2py\\applications\\Casa_de_Apuestas\\controllers/default.py'
p4
sS'code'
p5
S"# -*- coding: utf-8 -*-\n### required - do no delete\ndef user(): return dict(form=auth())\ndef download(): return response.download(request,db)\ndef call(): return service()\n### end requires\ndef index():\n    return dict()\n\ndef error():\n    return dict()\n   \n   \ndef maquinas():\n    return dict()\n\n\ndef crearCategoria():\n    categorias = db().select(db.categorias.ALL)\n    form = crud.create(db.categorias)\n    return dict(form=form, categorias=categorias)\n\ndef crearEvento():\n    form = crud.create(db.eventos)\n    return dict(form=form)\n    \ndef crearParticipantes():\n    form = crud.create(db.participantes)\n    return dict(form=form)\n\ndef crearEventosParticipantes():\n    form = crud.create(db.evetos_participantes)\n    return dict(form=form)\n\ndef crearUsuarios():\n    form = crud.create(db.usuarios)\n    return dict(form=form)\n    \ndef crearMaquina():\n    form = crud.create(db.maquinas)\n    return dict(form=form)\n    \ndef generar_xml(rows):\n    idx=range(len(rows.colnames))\n    colnames=[item.replace('.','_') for item in rows.colnames]\n    records=[]\n    for row in rows.response: \n        records.append(TAG['record'](*[TAG[colnames[i]](row[i]) for i in idx]))\n    return str(TAG['records'](*records))\n    #return str(estrin)\n    \ndef prueba_xml():\n    import md5\n    codificador = md5.new()\n    codificador1 = md5.new()\n    codificador1.update(generar_xml(db().select(db.participantes.ALL)))\n    response.headers['Content-Type']='application/xml'\n    #a = generar_xml(db().select(db.participantes.ALL));\n    codificador.update(generar_xml(db().select(db.participantes.ALL)))\n    #return generar_xml(db().select(db.participantes.ALL))\n    return dict(var=codificador.hexdigest(), var1=codificador1.hexdigest())\n    \n    \ndef eliminarCategoria():\n    form = crud.delete(db.categorias)\n    return dict(form=form)\n\nresponse._vars=response._caller(eliminarCategoria)\n"
p6
sS'snapshot'
p7
(dp8
S'exception'
p9
(dp10
S'__hash__'
p11
S"<method-wrapper '__hash__' of exceptions.TypeError object at 0x05D28530>"
p12
sS'__setattr__'
p13
S"<method-wrapper '__setattr__' of exceptions.TypeError object at 0x05D28530>"
p14
sS'__reduce_ex__'
p15
S'<built-in method __reduce_ex__ of exceptions.TypeError object at 0x05D28530>'
p16
sS'__getslice__'
p17
S"<method-wrapper '__getslice__' of exceptions.TypeError object at 0x05D28530>"
p18
sS'__getitem__'
p19
S"<method-wrapper '__getitem__' of exceptions.TypeError object at 0x05D28530>"
p20
sS'__setstate__'
p21
S'<built-in method __setstate__ of exceptions.TypeError object at 0x05D28530>'
p22
sS'__reduce__'
p23
S'<built-in method __reduce__ of exceptions.TypeError object at 0x05D28530>'
p24
sS'__str__'
p25
S"<method-wrapper '__str__' of exceptions.TypeError object at 0x05D28530>"
p26
sS'args'
p27
S"('delete() takes at least 3 arguments (2 given)',)"
p28
sS'__getattribute__'
p29
S"<method-wrapper '__getattribute__' of exceptions.TypeError object at 0x05D28530>"
p30
sS'__class__'
p31
S"<type 'exceptions.TypeError'>"
p32
sS'__delattr__'
p33
S"<method-wrapper '__delattr__' of exceptions.TypeError object at 0x05D28530>"
p34
sS'__repr__'
p35
S"<method-wrapper '__repr__' of exceptions.TypeError object at 0x05D28530>"
p36
sS'__dict__'
p37
S'{}'
p38
sS'__doc__'
p39
S"'Inappropriate argument type.'"
p40
sS'__init__'
p41
S"<method-wrapper '__init__' of exceptions.TypeError object at 0x05D28530>"
p42
sS'__new__'
p43
S'<built-in method __new__ of type object at 0x1E1CCD78>'
p44
ssS'evalue'
p45
S'delete() takes at least 3 arguments (2 given)'
p46
sS'request'
p47
ccopy_reg
_reconstructor
p48
(cgluon.html
BEAUTIFY
p49
c__builtin__
object
p50
NtRp51
(dp52
S'attributes'
p53
(dp54
sS'components'
p55
(lp56
g48
(cgluon.html
TABLE
p57
g50
NtRp58
(dp59
g53
(dp60
S'level'
p61
I5
ssS'parent'
p62
Nsg55
(lp63
g48
(cgluon.html
TR
p64
g50
NtRp65
(dp66
g53
(dp67
sg62
g58
sg55
(lp68
g48
(cgluon.html
TD
p69
g50
NtRp70
(dp71
g53
(dp72
S'_style'
p73
S'font-weight:bold;'
p74
ssg62
g65
sg55
(lp75
S'ajax'
p76
asbag48
(g69
g50
NtRp77
(dp78
g53
(dp79
S'_valign'
p80
S'top'
p81
ssg62
g65
sg55
(lp82
S':'
asbag48
(g69
g50
NtRp83
(dp84
g53
(dp85
sg62
g65
sg55
(lp86
g48
(g49
g50
NtRp87
(dp88
g53
(dp89
g61
I5
ssg62
g83
sg55
(lp90
S'False'
p91
asbasbasbag48
(g64
g50
NtRp92
(dp93
g53
(dp94
sg62
g58
sg55
(lp95
g48
(g69
g50
NtRp96
(dp97
g53
(dp98
g73
g74
ssg62
g92
sg55
(lp99
S'application'
p100
asbag48
(g69
g50
NtRp101
(dp102
g53
(dp103
g80
g81
ssg62
g92
sg55
(lp104
S':'
asbag48
(g69
g50
NtRp105
(dp106
g53
(dp107
sg62
g92
sg55
(lp108
g48
(g49
g50
NtRp109
(dp110
g53
(dp111
g61
I5
ssg62
g105
sg55
(lp112
S'Casa_de_Apuestas'
p113
asbasbasbag48
(g64
g50
NtRp114
(dp115
g53
(dp116
sg62
g58
sg55
(lp117
g48
(g69
g50
NtRp118
(dp119
g53
(dp120
g73
g74
ssg62
g114
sg55
(lp121
g27
asbag48
(g69
g50
NtRp122
(dp123
g53
(dp124
g80
g81
ssg62
g114
sg55
(lp125
S':'
asbag48
(g69
g50
NtRp126
(dp127
g53
(dp128
sg62
g114
sg55
(lp129
g48
(g49
g50
NtRp130
(dp131
g53
(dp132
g61
I5
ssg62
g126
sg55
(lp133
g48
(g57
g50
NtRp134
(dp135
g53
(dp136
g61
I4
ssg62
Nsg55
(lp137
sbasbasbasbag48
(g64
g50
NtRp138
(dp139
g53
(dp140
sg62
g58
sg55
(lp141
g48
(g69
g50
NtRp142
(dp143
g53
(dp144
g73
g74
ssg62
g138
sg55
(lp145
S'body'
p146
asbag48
(g69
g50
NtRp147
(dp148
g53
(dp149
g80
g81
ssg62
g138
sg55
(lp150
S':'
asbag48
(g69
g50
NtRp151
(dp152
g53
(dp153
sg62
g138
sg55
(lp154
g48
(g49
g50
NtRp155
(dp156
g53
(dp157
g61
I5
ssg62
g151
sg55
(lp158
S'<cStringIO.StringO object at 0x05D29D80>'
p159
asbasbasbag48
(g64
g50
NtRp160
(dp161
g53
(dp162
sg62
g58
sg55
(lp163
g48
(g69
g50
NtRp164
(dp165
g53
(dp166
g73
g74
ssg62
g160
sg55
(lp167
S'client'
p168
asbag48
(g69
g50
NtRp169
(dp170
g53
(dp171
g80
g81
ssg62
g160
sg55
(lp172
S':'
asbag48
(g69
g50
NtRp173
(dp174
g53
(dp175
sg62
g160
sg55
(lp176
g48
(g49
g50
NtRp177
(dp178
g53
(dp179
g61
I5
ssg62
g173
sg55
(lp180
S'127.0.0.1'
p181
asbasbasbag48
(g64
g50
NtRp182
(dp183
g53
(dp184
sg62
g58
sg55
(lp185
g48
(g69
g50
NtRp186
(dp187
g53
(dp188
g73
g74
ssg62
g182
sg55
(lp189
S'controller'
p190
asbag48
(g69
g50
NtRp191
(dp192
g53
(dp193
g80
g81
ssg62
g182
sg55
(lp194
S':'
asbag48
(g69
g50
NtRp195
(dp196
g53
(dp197
sg62
g182
sg55
(lp198
g48
(g49
g50
NtRp199
(dp200
g53
(dp201
g61
I5
ssg62
g195
sg55
(lp202
S'default'
p203
asbasbasbag48
(g64
g50
NtRp204
(dp205
g53
(dp206
sg62
g58
sg55
(lp207
g48
(g69
g50
NtRp208
(dp209
g53
(dp210
g73
g74
ssg62
g204
sg55
(lp211
S'cookies'
p212
asbag48
(g69
g50
NtRp213
(dp214
g53
(dp215
g80
g81
ssg62
g204
sg55
(lp216
S':'
asbag48
(g69
g50
NtRp217
(dp218
g53
(dp219
sg62
g204
sg55
(lp220
g48
(g49
g50
NtRp221
(dp222
g53
(dp223
g61
I5
ssg62
g217
sg55
(lp224
g48
(g57
g50
NtRp225
(dp226
g53
(dp227
g61
I4
ssg62
Nsg55
(lp228
g48
(g64
g50
NtRp229
(dp230
g53
(dp231
sg62
g225
sg55
(lp232
g48
(g69
g50
NtRp233
(dp234
g53
(dp235
g73
g74
ssg62
g229
sg55
(lp236
S'session_id_admin'
p237
asbag48
(g69
g50
NtRp238
(dp239
g53
(dp240
g80
g81
ssg62
g229
sg55
(lp241
S':'
asbag48
(g69
g50
NtRp242
(dp243
g53
(dp244
sg62
g229
sg55
(lp245
g48
(g49
g50
NtRp246
(dp247
g53
(dp248
g61
I4
ssg62
g242
sg55
(lp249
g48
(g57
g50
NtRp250
(dp251
g53
(dp252
g61
I3
ssg62
Nsg55
(lp253
g48
(g64
g50
NtRp254
(dp255
g53
(dp256
sg62
g250
sg55
(lp257
g48
(g69
g50
NtRp258
(dp259
g53
(dp260
g73
g74
ssg62
g254
sg55
(lp261
S'comment'
p262
asbag48
(g69
g50
NtRp263
(dp264
g53
(dp265
g80
g81
ssg62
g254
sg55
(lp266
S':'
asbag48
(g69
g50
NtRp267
(dp268
g53
(dp269
sg62
g254
sg55
(lp270
g48
(g49
g50
NtRp271
(dp272
g53
(dp273
g61
I3
ssg62
g267
sg55
(lp274
S''
asbasbasbag48
(g64
g50
NtRp275
(dp276
g53
(dp277
sg62
g250
sg55
(lp278
g48
(g69
g50
NtRp279
(dp280
g53
(dp281
g73
g74
ssg62
g275
sg55
(lp282
S'domain'
p283
asbag48
(g69
g50
NtRp284
(dp285
g53
(dp286
g80
g81
ssg62
g275
sg55
(lp287
S':'
asbag48
(g69
g50
NtRp288
(dp289
g53
(dp290
sg62
g275
sg55
(lp291
g48
(g49
g50
NtRp292
(dp293
g53
(dp294
g61
I3
ssg62
g288
sg55
(lp295
S''
asbasbasbag48
(g64
g50
NtRp296
(dp297
g53
(dp298
sg62
g250
sg55
(lp299
g48
(g69
g50
NtRp300
(dp301
g53
(dp302
g73
g74
ssg62
g296
sg55
(lp303
S'expires'
p304
asbag48
(g69
g50
NtRp305
(dp306
g53
(dp307
g80
g81
ssg62
g296
sg55
(lp308
S':'
asbag48
(g69
g50
NtRp309
(dp310
g53
(dp311
sg62
g296
sg55
(lp312
g48
(g49
g50
NtRp313
(dp314
g53
(dp315
g61
I3
ssg62
g309
sg55
(lp316
S''
asbasbasbag48
(g64
g50
NtRp317
(dp318
g53
(dp319
sg62
g250
sg55
(lp320
g48
(g69
g50
NtRp321
(dp322
g53
(dp323
g73
g74
ssg62
g317
sg55
(lp324
S'max-age'
p325
asbag48
(g69
g50
NtRp326
(dp327
g53
(dp328
g80
g81
ssg62
g317
sg55
(lp329
S':'
asbag48
(g69
g50
NtRp330
(dp331
g53
(dp332
sg62
g317
sg55
(lp333
g48
(g49
g50
NtRp334
(dp335
g53
(dp336
g61
I3
ssg62
g330
sg55
(lp337
S''
asbasbasbag48
(g64
g50
NtRp338
(dp339
g53
(dp340
sg62
g250
sg55
(lp341
g48
(g69
g50
NtRp342
(dp343
g53
(dp344
g73
g74
ssg62
g338
sg55
(lp345
S'path'
p346
asbag48
(g69
g50
NtRp347
(dp348
g53
(dp349
g80
g81
ssg62
g338
sg55
(lp350
S':'
asbag48
(g69
g50
NtRp351
(dp352
g53
(dp353
sg62
g338
sg55
(lp354
g48
(g49
g50
NtRp355
(dp356
g53
(dp357
g61
I3
ssg62
g351
sg55
(lp358
S''
asbasbasbag48
(g64
g50
NtRp359
(dp360
g53
(dp361
sg62
g250
sg55
(lp362
g48
(g69
g50
NtRp363
(dp364
g53
(dp365
g73
g74
ssg62
g359
sg55
(lp366
S'secure'
p367
asbag48
(g69
g50
NtRp368
(dp369
g53
(dp370
g80
g81
ssg62
g359
sg55
(lp371
S':'
asbag48
(g69
g50
NtRp372
(dp373
g53
(dp374
sg62
g359
sg55
(lp375
g48
(g49
g50
NtRp376
(dp377
g53
(dp378
g61
I3
ssg62
g372
sg55
(lp379
S''
asbasbasbag48
(g64
g50
NtRp380
(dp381
g53
(dp382
sg62
g250
sg55
(lp383
g48
(g69
g50
NtRp384
(dp385
g53
(dp386
g73
g74
ssg62
g380
sg55
(lp387
S'version'
p388
asbag48
(g69
g50
NtRp389
(dp390
g53
(dp391
g80
g81
ssg62
g380
sg55
(lp392
S':'
asbag48
(g69
g50
NtRp393
(dp394
g53
(dp395
sg62
g380
sg55
(lp396
g48
(g49
g50
NtRp397
(dp398
g53
(dp399
g61
I3
ssg62
g393
sg55
(lp400
S''
asbasbasbasbasbasbasbag48
(g64
g50
NtRp401
(dp402
g53
(dp403
sg62
g225
sg55
(lp404
g48
(g69
g50
NtRp405
(dp406
g53
(dp407
g73
g74
ssg62
g401
sg55
(lp408
S'session_id_casa_de_apuestas'
p409
asbag48
(g69
g50
NtRp410
(dp411
g53
(dp412
g80
g81
ssg62
g401
sg55
(lp413
S':'
asbag48
(g69
g50
NtRp414
(dp415
g53
(dp416
sg62
g401
sg55
(lp417
g48
(g49
g50
NtRp418
(dp419
g53
(dp420
g61
I4
ssg62
g414
sg55
(lp421
g48
(g57
g50
NtRp422
(dp423
g53
(dp424
g61
I3
ssg62
Nsg55
(lp425
g48
(g64
g50
NtRp426
(dp427
g53
(dp428
sg62
g422
sg55
(lp429
g48
(g69
g50
NtRp430
(dp431
g53
(dp432
g73
g74
ssg62
g426
sg55
(lp433
g262
asbag48
(g69
g50
NtRp434
(dp435
g53
(dp436
g80
g81
ssg62
g426
sg55
(lp437
S':'
asbag48
(g69
g50
NtRp438
(dp439
g53
(dp440
sg62
g426
sg55
(lp441
g48
(g49
g50
NtRp442
(dp443
g53
(dp444
g61
I3
ssg62
g438
sg55
(lp445
S''
asbasbasbag48
(g64
g50
NtRp446
(dp447
g53
(dp448
sg62
g422
sg55
(lp449
g48
(g69
g50
NtRp450
(dp451
g53
(dp452
g73
g74
ssg62
g446
sg55
(lp453
g283
asbag48
(g69
g50
NtRp454
(dp455
g53
(dp456
g80
g81
ssg62
g446
sg55
(lp457
S':'
asbag48
(g69
g50
NtRp458
(dp459
g53
(dp460
sg62
g446
sg55
(lp461
g48
(g49
g50
NtRp462
(dp463
g53
(dp464
g61
I3
ssg62
g458
sg55
(lp465
S''
asbasbasbag48
(g64
g50
NtRp466
(dp467
g53
(dp468
sg62
g422
sg55
(lp469
g48
(g69
g50
NtRp470
(dp471
g53
(dp472
g73
g74
ssg62
g466
sg55
(lp473
g304
asbag48
(g69
g50
NtRp474
(dp475
g53
(dp476
g80
g81
ssg62
g466
sg55
(lp477
S':'
asbag48
(g69
g50
NtRp478
(dp479
g53
(dp480
sg62
g466
sg55
(lp481
g48
(g49
g50
NtRp482
(dp483
g53
(dp484
g61
I3
ssg62
g478
sg55
(lp485
S''
asbasbasbag48
(g64
g50
NtRp486
(dp487
g53
(dp488
sg62
g422
sg55
(lp489
g48
(g69
g50
NtRp490
(dp491
g53
(dp492
g73
g74
ssg62
g486
sg55
(lp493
g325
asbag48
(g69
g50
NtRp494
(dp495
g53
(dp496
g80
g81
ssg62
g486
sg55
(lp497
S':'
asbag48
(g69
g50
NtRp498
(dp499
g53
(dp500
sg62
g486
sg55
(lp501
g48
(g49
g50
NtRp502
(dp503
g53
(dp504
g61
I3
ssg62
g498
sg55
(lp505
S''
asbasbasbag48
(g64
g50
NtRp506
(dp507
g53
(dp508
sg62
g422
sg55
(lp509
g48
(g69
g50
NtRp510
(dp511
g53
(dp512
g73
g74
ssg62
g506
sg55
(lp513
g346
asbag48
(g69
g50
NtRp514
(dp515
g53
(dp516
g80
g81
ssg62
g506
sg55
(lp517
S':'
asbag48
(g69
g50
NtRp518
(dp519
g53
(dp520
sg62
g506
sg55
(lp521
g48
(g49
g50
NtRp522
(dp523
g53
(dp524
g61
I3
ssg62
g518
sg55
(lp525
S''
asbasbasbag48
(g64
g50
NtRp526
(dp527
g53
(dp528
sg62
g422
sg55
(lp529
g48
(g69
g50
NtRp530
(dp531
g53
(dp532
g73
g74
ssg62
g526
sg55
(lp533
g367
asbag48
(g69
g50
NtRp534
(dp535
g53
(dp536
g80
g81
ssg62
g526
sg55
(lp537
S':'
asbag48
(g69
g50
NtRp538
(dp539
g53
(dp540
sg62
g526
sg55
(lp541
g48
(g49
g50
NtRp542
(dp543
g53
(dp544
g61
I3
ssg62
g538
sg55
(lp545
S''
asbasbasbag48
(g64
g50
NtRp546
(dp547
g53
(dp548
sg62
g422
sg55
(lp549
g48
(g69
g50
NtRp550
(dp551
g53
(dp552
g73
g74
ssg62
g546
sg55
(lp553
g388
asbag48
(g69
g50
NtRp554
(dp555
g53
(dp556
g80
g81
ssg62
g546
sg55
(lp557
S':'
asbag48
(g69
g50
NtRp558
(dp559
g53
(dp560
sg62
g546
sg55
(lp561
g48
(g49
g50
NtRp562
(dp563
g53
(dp564
g61
I3
ssg62
g558
sg55
(lp565
S''
asbasbasbasbasbasbasbag48
(g64
g50
NtRp566
(dp567
g53
(dp568
sg62
g225
sg55
(lp569
g48
(g69
g50
NtRp570
(dp571
g53
(dp572
g73
g74
ssg62
g566
sg55
(lp573
S'session_id_images'
p574
asbag48
(g69
g50
NtRp575
(dp576
g53
(dp577
g80
g81
ssg62
g566
sg55
(lp578
S':'
asbag48
(g69
g50
NtRp579
(dp580
g53
(dp581
sg62
g566
sg55
(lp582
g48
(g49
g50
NtRp583
(dp584
g53
(dp585
g61
I4
ssg62
g579
sg55
(lp586
g48
(g57
g50
NtRp587
(dp588
g53
(dp589
g61
I3
ssg62
Nsg55
(lp590
g48
(g64
g50
NtRp591
(dp592
g53
(dp593
sg62
g587
sg55
(lp594
g48
(g69
g50
NtRp595
(dp596
g53
(dp597
g73
g74
ssg62
g591
sg55
(lp598
g262
asbag48
(g69
g50
NtRp599
(dp600
g53
(dp601
g80
g81
ssg62
g591
sg55
(lp602
S':'
asbag48
(g69
g50
NtRp603
(dp604
g53
(dp605
sg62
g591
sg55
(lp606
g48
(g49
g50
NtRp607
(dp608
g53
(dp609
g61
I3
ssg62
g603
sg55
(lp610
S''
asbasbasbag48
(g64
g50
NtRp611
(dp612
g53
(dp613
sg62
g587
sg55
(lp614
g48
(g69
g50
NtRp615
(dp616
g53
(dp617
g73
g74
ssg62
g611
sg55
(lp618
g283
asbag48
(g69
g50
NtRp619
(dp620
g53
(dp621
g80
g81
ssg62
g611
sg55
(lp622
S':'
asbag48
(g69
g50
NtRp623
(dp624
g53
(dp625
sg62
g611
sg55
(lp626
g48
(g49
g50
NtRp627
(dp628
g53
(dp629
g61
I3
ssg62
g623
sg55
(lp630
S''
asbasbasbag48
(g64
g50
NtRp631
(dp632
g53
(dp633
sg62
g587
sg55
(lp634
g48
(g69
g50
NtRp635
(dp636
g53
(dp637
g73
g74
ssg62
g631
sg55
(lp638
g304
asbag48
(g69
g50
NtRp639
(dp640
g53
(dp641
g80
g81
ssg62
g631
sg55
(lp642
S':'
asbag48
(g69
g50
NtRp643
(dp644
g53
(dp645
sg62
g631
sg55
(lp646
g48
(g49
g50
NtRp647
(dp648
g53
(dp649
g61
I3
ssg62
g643
sg55
(lp650
S''
asbasbasbag48
(g64
g50
NtRp651
(dp652
g53
(dp653
sg62
g587
sg55
(lp654
g48
(g69
g50
NtRp655
(dp656
g53
(dp657
g73
g74
ssg62
g651
sg55
(lp658
g325
asbag48
(g69
g50
NtRp659
(dp660
g53
(dp661
g80
g81
ssg62
g651
sg55
(lp662
S':'
asbag48
(g69
g50
NtRp663
(dp664
g53
(dp665
sg62
g651
sg55
(lp666
g48
(g49
g50
NtRp667
(dp668
g53
(dp669
g61
I3
ssg62
g663
sg55
(lp670
S''
asbasbasbag48
(g64
g50
NtRp671
(dp672
g53
(dp673
sg62
g587
sg55
(lp674
g48
(g69
g50
NtRp675
(dp676
g53
(dp677
g73
g74
ssg62
g671
sg55
(lp678
g346
asbag48
(g69
g50
NtRp679
(dp680
g53
(dp681
g80
g81
ssg62
g671
sg55
(lp682
S':'
asbag48
(g69
g50
NtRp683
(dp684
g53
(dp685
sg62
g671
sg55
(lp686
g48
(g49
g50
NtRp687
(dp688
g53
(dp689
g61
I3
ssg62
g683
sg55
(lp690
S''
asbasbasbag48
(g64
g50
NtRp691
(dp692
g53
(dp693
sg62
g587
sg55
(lp694
g48
(g69
g50
NtRp695
(dp696
g53
(dp697
g73
g74
ssg62
g691
sg55
(lp698
g367
asbag48
(g69
g50
NtRp699
(dp700
g53
(dp701
g80
g81
ssg62
g691
sg55
(lp702
S':'
asbag48
(g69
g50
NtRp703
(dp704
g53
(dp705
sg62
g691
sg55
(lp706
g48
(g49
g50
NtRp707
(dp708
g53
(dp709
g61
I3
ssg62
g703
sg55
(lp710
S''
asbasbasbag48
(g64
g50
NtRp711
(dp712
g53
(dp713
sg62
g587
sg55
(lp714
g48
(g69
g50
NtRp715
(dp716
g53
(dp717
g73
g74
ssg62
g711
sg55
(lp718
g388
asbag48
(g69
g50
NtRp719
(dp720
g53
(dp721
g80
g81
ssg62
g711
sg55
(lp722
S':'
asbag48
(g69
g50
NtRp723
(dp724
g53
(dp725
sg62
g711
sg55
(lp726
g48
(g49
g50
NtRp727
(dp728
g53
(dp729
g61
I3
ssg62
g723
sg55
(lp730
S''
asbasbasbasbasbasbasbag48
(g64
g50
NtRp731
(dp732
g53
(dp733
sg62
g225
sg55
(lp734
g48
(g69
g50
NtRp735
(dp736
g53
(dp737
g73
g74
ssg62
g731
sg55
(lp738
S'session_id_welcome'
p739
asbag48
(g69
g50
NtRp740
(dp741
g53
(dp742
g80
g81
ssg62
g731
sg55
(lp743
S':'
asbag48
(g69
g50
NtRp744
(dp745
g53
(dp746
sg62
g731
sg55
(lp747
g48
(g49
g50
NtRp748
(dp749
g53
(dp750
g61
I4
ssg62
g744
sg55
(lp751
g48
(g57
g50
NtRp752
(dp753
g53
(dp754
g61
I3
ssg62
Nsg55
(lp755
g48
(g64
g50
NtRp756
(dp757
g53
(dp758
sg62
g752
sg55
(lp759
g48
(g69
g50
NtRp760
(dp761
g53
(dp762
g73
g74
ssg62
g756
sg55
(lp763
g262
asbag48
(g69
g50
NtRp764
(dp765
g53
(dp766
g80
g81
ssg62
g756
sg55
(lp767
S':'
asbag48
(g69
g50
NtRp768
(dp769
g53
(dp770
sg62
g756
sg55
(lp771
g48
(g49
g50
NtRp772
(dp773
g53
(dp774
g61
I3
ssg62
g768
sg55
(lp775
S''
asbasbasbag48
(g64
g50
NtRp776
(dp777
g53
(dp778
sg62
g752
sg55
(lp779
g48
(g69
g50
NtRp780
(dp781
g53
(dp782
g73
g74
ssg62
g776
sg55
(lp783
g283
asbag48
(g69
g50
NtRp784
(dp785
g53
(dp786
g80
g81
ssg62
g776
sg55
(lp787
S':'
asbag48
(g69
g50
NtRp788
(dp789
g53
(dp790
sg62
g776
sg55
(lp791
g48
(g49
g50
NtRp792
(dp793
g53
(dp794
g61
I3
ssg62
g788
sg55
(lp795
S''
asbasbasbag48
(g64
g50
NtRp796
(dp797
g53
(dp798
sg62
g752
sg55
(lp799
g48
(g69
g50
NtRp800
(dp801
g53
(dp802
g73
g74
ssg62
g796
sg55
(lp803
g304
asbag48
(g69
g50
NtRp804
(dp805
g53
(dp806
g80
g81
ssg62
g796
sg55
(lp807
S':'
asbag48
(g69
g50
NtRp808
(dp809
g53
(dp810
sg62
g796
sg55
(lp811
g48
(g49
g50
NtRp812
(dp813
g53
(dp814
g61
I3
ssg62
g808
sg55
(lp815
S''
asbasbasbag48
(g64
g50
NtRp816
(dp817
g53
(dp818
sg62
g752
sg55
(lp819
g48
(g69
g50
NtRp820
(dp821
g53
(dp822
g73
g74
ssg62
g816
sg55
(lp823
g325
asbag48
(g69
g50
NtRp824
(dp825
g53
(dp826
g80
g81
ssg62
g816
sg55
(lp827
S':'
asbag48
(g69
g50
NtRp828
(dp829
g53
(dp830
sg62
g816
sg55
(lp831
g48
(g49
g50
NtRp832
(dp833
g53
(dp834
g61
I3
ssg62
g828
sg55
(lp835
S''
asbasbasbag48
(g64
g50
NtRp836
(dp837
g53
(dp838
sg62
g752
sg55
(lp839
g48
(g69
g50
NtRp840
(dp841
g53
(dp842
g73
g74
ssg62
g836
sg55
(lp843
g346
asbag48
(g69
g50
NtRp844
(dp845
g53
(dp846
g80
g81
ssg62
g836
sg55
(lp847
S':'
asbag48
(g69
g50
NtRp848
(dp849
g53
(dp850
sg62
g836
sg55
(lp851
g48
(g49
g50
NtRp852
(dp853
g53
(dp854
g61
I3
ssg62
g848
sg55
(lp855
S''
asbasbasbag48
(g64
g50
NtRp856
(dp857
g53
(dp858
sg62
g752
sg55
(lp859
g48
(g69
g50
NtRp860
(dp861
g53
(dp862
g73
g74
ssg62
g856
sg55
(lp863
g367
asbag48
(g69
g50
NtRp864
(dp865
g53
(dp866
g80
g81
ssg62
g856
sg55
(lp867
S':'
asbag48
(g69
g50
NtRp868
(dp869
g53
(dp870
sg62
g856
sg55
(lp871
g48
(g49
g50
NtRp872
(dp873
g53
(dp874
g61
I3
ssg62
g868
sg55
(lp875
S''
asbasbasbag48
(g64
g50
NtRp876
(dp877
g53
(dp878
sg62
g752
sg55
(lp879
g48
(g69
g50
NtRp880
(dp881
g53
(dp882
g73
g74
ssg62
g876
sg55
(lp883
g388
asbag48
(g69
g50
NtRp884
(dp885
g53
(dp886
g80
g81
ssg62
g876
sg55
(lp887
S':'
asbag48
(g69
g50
NtRp888
(dp889
g53
(dp890
sg62
g876
sg55
(lp891
g48
(g49
g50
NtRp892
(dp893
g53
(dp894
g61
I3
ssg62
g888
sg55
(lp895
S''
asbasbasbasbasbasbasbasbasbasbasbag48
(g64
g50
NtRp896
(dp897
g53
(dp898
sg62
g58
sg55
(lp899
g48
(g69
g50
NtRp900
(dp901
g53
(dp902
g73
g74
ssg62
g896
sg55
(lp903
S'env'
p904
asbag48
(g69
g50
NtRp905
(dp906
g53
(dp907
g80
g81
ssg62
g896
sg55
(lp908
S':'
asbag48
(g69
g50
NtRp909
(dp910
g53
(dp911
sg62
g896
sg55
(lp912
g48
(g49
g50
NtRp913
(dp914
g53
(dp915
g61
I5
ssg62
g909
sg55
(lp916
g48
(g57
g50
NtRp917
(dp918
g53
(dp919
g61
I4
ssg62
Nsg55
(lp920
g48
(g64
g50
NtRp921
(dp922
g53
(dp923
sg62
g917
sg55
(lp924
g48
(g69
g50
NtRp925
(dp926
g53
(dp927
g73
g74
ssg62
g921
sg55
(lp928
S'app_folders'
p929
asbag48
(g69
g50
NtRp930
(dp931
g53
(dp932
g80
g81
ssg62
g921
sg55
(lp933
S':'
asbag48
(g69
g50
NtRp934
(dp935
g53
(dp936
sg62
g921
sg55
(lp937
g48
(g49
g50
NtRp938
(dp939
g53
(dp940
g61
I4
ssg62
g934
sg55
(lp941
S"set(['C:\\\\Python32\\\\web2py\\\\applications\\\\Casa_de_Apuestas\\\\', 'C:\\\\Python32\\\\web2py\\\\applications\\\\welcome\\\\', 'C:\\\\Python32\\\\web2py\\\\applications\\\\admin\\\\'])"
p942
asbasbasbag48
(g64
g50
NtRp943
(dp944
g53
(dp945
sg62
g917
sg55
(lp946
g48
(g69
g50
NtRp947
(dp948
g53
(dp949
g73
g74
ssg62
g943
sg55
(lp950
S'applications_parent'
p951
asbag48
(g69
g50
NtRp952
(dp953
g53
(dp954
g80
g81
ssg62
g943
sg55
(lp955
S':'
asbag48
(g69
g50
NtRp956
(dp957
g53
(dp958
sg62
g943
sg55
(lp959
g48
(g49
g50
NtRp960
(dp961
g53
(dp962
g61
I4
ssg62
g956
sg55
(lp963
S'C:\\Python32\\web2py'
p964
asbasbasbag48
(g64
g50
NtRp965
(dp966
g53
(dp967
sg62
g917
sg55
(lp968
g48
(g69
g50
NtRp969
(dp970
g53
(dp971
g73
g74
ssg62
g965
sg55
(lp972
S'cmd_args'
p973
asbag48
(g69
g50
NtRp974
(dp975
g53
(dp976
g80
g81
ssg62
g965
sg55
(lp977
S':'
asbag48
(g69
g50
NtRp978
(dp979
g53
(dp980
sg62
g965
sg55
(lp981
g48
(g49
g50
NtRp982
(dp983
g53
(dp984
g61
I4
ssg62
g978
sg55
(lp985
g48
(g57
g50
NtRp986
(dp987
g53
(dp988
g61
I3
ssg62
Nsg55
(lp989
sbasbasbasbag48
(g64
g50
NtRp990
(dp991
g53
(dp992
sg62
g917
sg55
(lp993
g48
(g69
g50
NtRp994
(dp995
g53
(dp996
g73
g74
ssg62
g990
sg55
(lp997
S'cmd_options'
p998
asbag48
(g69
g50
NtRp999
(dp1000
g53
(dp1001
g80
g81
ssg62
g990
sg55
(lp1002
S':'
asbag48
(g69
g50
NtRp1003
(dp1004
g53
(dp1005
sg62
g990
sg55
(lp1006
g48
(g49
g50
NtRp1007
(dp1008
g53
(dp1009
g61
I4
ssg62
g1003
sg55
(lp1010
S"<Values at 0x2e18f30: {'verbose': False, 'ip': '127.0.0.1', 'shutdown_timeout': 5, 'taskbar': False, 'nocron': False, 'pid_filename': 'httpserver.pid', 'maxthreads': None, 'softcron': False, 'server_name': 'hector-asus', 'bpython': False, 'nogui': False, 'port': 8000, 'extcron': False, 'debuglevel': 30, 'test': None, 'folder': 'C:\\\\Python32\\\\web2py', 'config': '', 'import_models': False, 'winservice': '', 'shell': None, 'run': '', 'log_filename': 'httpserver.log', 'args': [''], 'ssl_ca_certificate': None, 'scheduler': None, 'profiler_filename': None, 'ssl_private_key': '', 'password': '<ask>', 'request_queue_size': 5, 'ssl_certificate': '', 'cronjob': False, 'plain': False, 'quiet': False, 'interfaces': None, 'minthreads': None, 'timeout': 10, 'numthreads': None, 'nobanner': False}>"
p1011
asbasbasbag48
(g64
g50
NtRp1012
(dp1013
g53
(dp1014
sg62
g917
sg55
(lp1015
g48
(g69
g50
NtRp1016
(dp1017
g53
(dp1018
g73
g74
ssg62
g1012
sg55
(lp1019
S'db_sessions'
p1020
asbag48
(g69
g50
NtRp1021
(dp1022
g53
(dp1023
g80
g81
ssg62
g1012
sg55
(lp1024
S':'
asbag48
(g69
g50
NtRp1025
(dp1026
g53
(dp1027
sg62
g1012
sg55
(lp1028
g48
(g49
g50
NtRp1029
(dp1030
g53
(dp1031
g61
I4
ssg62
g1025
sg55
(lp1032
S'set([])'
p1033
asbasbasbag48
(g64
g50
NtRp1034
(dp1035
g53
(dp1036
sg62
g917
sg55
(lp1037
g48
(g69
g50
NtRp1038
(dp1039
g53
(dp1040
g73
g74
ssg62
g1034
sg55
(lp1041
S'debugging'
p1042
asbag48
(g69
g50
NtRp1043
(dp1044
g53
(dp1045
g80
g81
ssg62
g1034
sg55
(lp1046
S':'
asbag48
(g69
g50
NtRp1047
(dp1048
g53
(dp1049
sg62
g1034
sg55
(lp1050
g48
(g49
g50
NtRp1051
(dp1052
g53
(dp1053
g61
I4
ssg62
g1047
sg55
(lp1054
g91
asbasbasbag48
(g64
g50
NtRp1055
(dp1056
g53
(dp1057
sg62
g917
sg55
(lp1058
g48
(g69
g50
NtRp1059
(dp1060
g53
(dp1061
g73
g74
ssg62
g1055
sg55
(lp1062
S'gluon_parent'
p1063
asbag48
(g69
g50
NtRp1064
(dp1065
g53
(dp1066
g80
g81
ssg62
g1055
sg55
(lp1067
S':'
asbag48
(g69
g50
NtRp1068
(dp1069
g53
(dp1070
sg62
g1055
sg55
(lp1071
g48
(g49
g50
NtRp1072
(dp1073
g53
(dp1074
g61
I4
ssg62
g1068
sg55
(lp1075
S'C:\\Python32\\web2py'
p1076
asbasbasbag48
(g64
g50
NtRp1077
(dp1078
g53
(dp1079
sg62
g917
sg55
(lp1080
g48
(g69
g50
NtRp1081
(dp1082
g53
(dp1083
g73
g74
ssg62
g1077
sg55
(lp1084
S'http_accept'
p1085
asbag48
(g69
g50
NtRp1086
(dp1087
g53
(dp1088
g80
g81
ssg62
g1077
sg55
(lp1089
S':'
asbag48
(g69
g50
NtRp1090
(dp1091
g53
(dp1092
sg62
g1077
sg55
(lp1093
g48
(g49
g50
NtRp1094
(dp1095
g53
(dp1096
g61
I4
ssg62
g1090
sg55
(lp1097
S'text/html,application/xhtml+xml,application/xml;q=0.9,*/*;q=0.8'
p1098
asbasbasbag48
(g64
g50
NtRp1099
(dp1100
g53
(dp1101
sg62
g917
sg55
(lp1102
g48
(g69
g50
NtRp1103
(dp1104
g53
(dp1105
g73
g74
ssg62
g1099
sg55
(lp1106
S'http_accept_charset'
p1107
asbag48
(g69
g50
NtRp1108
(dp1109
g53
(dp1110
g80
g81
ssg62
g1099
sg55
(lp1111
S':'
asbag48
(g69
g50
NtRp1112
(dp1113
g53
(dp1114
sg62
g1099
sg55
(lp1115
g48
(g49
g50
NtRp1116
(dp1117
g53
(dp1118
g61
I4
ssg62
g1112
sg55
(lp1119
S'ISO-8859-1,utf-8;q=0.7,*;q=0.3'
p1120
asbasbasbag48
(g64
g50
NtRp1121
(dp1122
g53
(dp1123
sg62
g917
sg55
(lp1124
g48
(g69
g50
NtRp1125
(dp1126
g53
(dp1127
g73
g74
ssg62
g1121
sg55
(lp1128
S'http_accept_encoding'
p1129
asbag48
(g69
g50
NtRp1130
(dp1131
g53
(dp1132
g80
g81
ssg62
g1121
sg55
(lp1133
S':'
asbag48
(g69
g50
NtRp1134
(dp1135
g53
(dp1136
sg62
g1121
sg55
(lp1137
g48
(g49
g50
NtRp1138
(dp1139
g53
(dp1140
g61
I4
ssg62
g1134
sg55
(lp1141
S'gzip,deflate,sdch'
p1142
asbasbasbag48
(g64
g50
NtRp1143
(dp1144
g53
(dp1145
sg62
g917
sg55
(lp1146
g48
(g69
g50
NtRp1147
(dp1148
g53
(dp1149
g73
g74
ssg62
g1143
sg55
(lp1150
S'http_accept_language'
p1151
asbag48
(g69
g50
NtRp1152
(dp1153
g53
(dp1154
g80
g81
ssg62
g1143
sg55
(lp1155
S':'
asbag48
(g69
g50
NtRp1156
(dp1157
g53
(dp1158
sg62
g1143
sg55
(lp1159
g48
(g49
g50
NtRp1160
(dp1161
g53
(dp1162
g61
I4
ssg62
g1156
sg55
(lp1163
S'en-US,en;q=0.8'
p1164
asbasbasbag48
(g64
g50
NtRp1165
(dp1166
g53
(dp1167
sg62
g917
sg55
(lp1168
g48
(g69
g50
NtRp1169
(dp1170
g53
(dp1171
g73
g74
ssg62
g1165
sg55
(lp1172
S'http_connection'
p1173
asbag48
(g69
g50
NtRp1174
(dp1175
g53
(dp1176
g80
g81
ssg62
g1165
sg55
(lp1177
S':'
asbag48
(g69
g50
NtRp1178
(dp1179
g53
(dp1180
sg62
g1165
sg55
(lp1181
g48
(g49
g50
NtRp1182
(dp1183
g53
(dp1184
g61
I4
ssg62
g1178
sg55
(lp1185
S'keep-alive'
p1186
asbasbasbag48
(g64
g50
NtRp1187
(dp1188
g53
(dp1189
sg62
g917
sg55
(lp1190
g48
(g69
g50
NtRp1191
(dp1192
g53
(dp1193
g73
g74
ssg62
g1187
sg55
(lp1194
S'http_cookie'
p1195
asbag48
(g69
g50
NtRp1196
(dp1197
g53
(dp1198
g80
g81
ssg62
g1187
sg55
(lp1199
S':'
asbag48
(g69
g50
NtRp1200
(dp1201
g53
(dp1202
sg62
g1187
sg55
(lp1203
g48
(g49
g50
NtRp1204
(dp1205
g53
(dp1206
g61
I4
ssg62
g1200
sg55
(lp1207
S'session_id_casa_de_apuestas=127.0.0.1-ff075696-a054-47b7-bd6f-733e6903bb65; session_id_images=127.0.0.1-76066058-421b-430a-9a62-afa49217a4d1; session_id_welcome=127.0.0.1-2a2eec8a-c97d-4512-a526-907c78c7e746; session_id_admin=127.0.0.1-5155ace7-c952-49d3-a385-f66534093f7a'
p1208
asbasbasbag48
(g64
g50
NtRp1209
(dp1210
g53
(dp1211
sg62
g917
sg55
(lp1212
g48
(g69
g50
NtRp1213
(dp1214
g53
(dp1215
g73
g74
ssg62
g1209
sg55
(lp1216
S'http_host'
p1217
asbag48
(g69
g50
NtRp1218
(dp1219
g53
(dp1220
g80
g81
ssg62
g1209
sg55
(lp1221
S':'
asbag48
(g69
g50
NtRp1222
(dp1223
g53
(dp1224
sg62
g1209
sg55
(lp1225
g48
(g49
g50
NtRp1226
(dp1227
g53
(dp1228
g61
I4
ssg62
g1222
sg55
(lp1229
S'127.0.0.1:8000'
p1230
asbasbasbag48
(g64
g50
NtRp1231
(dp1232
g53
(dp1233
sg62
g917
sg55
(lp1234
g48
(g69
g50
NtRp1235
(dp1236
g53
(dp1237
g73
g74
ssg62
g1231
sg55
(lp1238
S'http_referer'
p1239
asbag48
(g69
g50
NtRp1240
(dp1241
g53
(dp1242
g80
g81
ssg62
g1231
sg55
(lp1243
S':'
asbag48
(g69
g50
NtRp1244
(dp1245
g53
(dp1246
sg62
g1231
sg55
(lp1247
g48
(g49
g50
NtRp1248
(dp1249
g53
(dp1250
g61
I4
ssg62
g1244
sg55
(lp1251
S'http://127.0.0.1:8000/admin/default/edit/Casa_de_Apuestas/views/default/eliminarCategoria.html'
p1252
asbasbasbag48
(g64
g50
NtRp1253
(dp1254
g53
(dp1255
sg62
g917
sg55
(lp1256
g48
(g69
g50
NtRp1257
(dp1258
g53
(dp1259
g73
g74
ssg62
g1253
sg55
(lp1260
S'http_user_agent'
p1261
asbag48
(g69
g50
NtRp1262
(dp1263
g53
(dp1264
g80
g81
ssg62
g1253
sg55
(lp1265
S':'
asbag48
(g69
g50
NtRp1266
(dp1267
g53
(dp1268
sg62
g1253
sg55
(lp1269
g48
(g49
g50
NtRp1270
(dp1271
g53
(dp1272
g61
I4
ssg62
g1266
sg55
(lp1273
S'Mozilla/5.0 (Windows NT 6.1; WOW64) AppleWebKit/535.2 (KHTML, like Gecko) Chrome/15.0.874.106 Safari/535.2'
p1274
asbasbasbag48
(g64
g50
NtRp1275
(dp1276
g53
(dp1277
sg62
g917
sg55
(lp1278
g48
(g69
g50
NtRp1279
(dp1280
g53
(dp1281
g73
g74
ssg62
g1275
sg55
(lp1282
S'is_jython'
p1283
asbag48
(g69
g50
NtRp1284
(dp1285
g53
(dp1286
g80
g81
ssg62
g1275
sg55
(lp1287
S':'
asbag48
(g69
g50
NtRp1288
(dp1289
g53
(dp1290
sg62
g1275
sg55
(lp1291
g48
(g49
g50
NtRp1292
(dp1293
g53
(dp1294
g61
I4
ssg62
g1288
sg55
(lp1295
g91
asbasbasbag48
(g64
g50
NtRp1296
(dp1297
g53
(dp1298
sg62
g917
sg55
(lp1299
g48
(g69
g50
NtRp1300
(dp1301
g53
(dp1302
g73
g74
ssg62
g1296
sg55
(lp1303
S'path_info'
p1304
asbag48
(g69
g50
NtRp1305
(dp1306
g53
(dp1307
g80
g81
ssg62
g1296
sg55
(lp1308
S':'
asbag48
(g69
g50
NtRp1309
(dp1310
g53
(dp1311
sg62
g1296
sg55
(lp1312
g48
(g49
g50
NtRp1313
(dp1314
g53
(dp1315
g61
I4
ssg62
g1309
sg55
(lp1316
S'/Casa_de_Apuestas/default/eliminarCategoria'
p1317
asbasbasbag48
(g64
g50
NtRp1318
(dp1319
g53
(dp1320
sg62
g917
sg55
(lp1321
g48
(g69
g50
NtRp1322
(dp1323
g53
(dp1324
g73
g74
ssg62
g1318
sg55
(lp1325
S'query_string'
p1326
asbag48
(g69
g50
NtRp1327
(dp1328
g53
(dp1329
g80
g81
ssg62
g1318
sg55
(lp1330
S':'
asbag48
(g69
g50
NtRp1331
(dp1332
g53
(dp1333
sg62
g1318
sg55
(lp1334
g48
(g49
g50
NtRp1335
(dp1336
g53
(dp1337
g61
I4
ssg62
g1331
sg55
(lp1338
S''
asbasbasbag48
(g64
g50
NtRp1339
(dp1340
g53
(dp1341
sg62
g917
sg55
(lp1342
g48
(g69
g50
NtRp1343
(dp1344
g53
(dp1345
g73
g74
ssg62
g1339
sg55
(lp1346
S'remote_addr'
p1347
asbag48
(g69
g50
NtRp1348
(dp1349
g53
(dp1350
g80
g81
ssg62
g1339
sg55
(lp1351
S':'
asbag48
(g69
g50
NtRp1352
(dp1353
g53
(dp1354
sg62
g1339
sg55
(lp1355
g48
(g49
g50
NtRp1356
(dp1357
g53
(dp1358
g61
I4
ssg62
g1352
sg55
(lp1359
g181
asbasbasbag48
(g64
g50
NtRp1360
(dp1361
g53
(dp1362
sg62
g917
sg55
(lp1363
g48
(g69
g50
NtRp1364
(dp1365
g53
(dp1366
g73
g74
ssg62
g1360
sg55
(lp1367
S'remote_port'
p1368
asbag48
(g69
g50
NtRp1369
(dp1370
g53
(dp1371
g80
g81
ssg62
g1360
sg55
(lp1372
S':'
asbag48
(g69
g50
NtRp1373
(dp1374
g53
(dp1375
sg62
g1360
sg55
(lp1376
g48
(g49
g50
NtRp1377
(dp1378
g53
(dp1379
g61
I4
ssg62
g1373
sg55
(lp1380
S'51324'
p1381
asbasbasbag48
(g64
g50
NtRp1382
(dp1383
g53
(dp1384
sg62
g917
sg55
(lp1385
g48
(g69
g50
NtRp1386
(dp1387
g53
(dp1388
g73
g74
ssg62
g1382
sg55
(lp1389
S'request_method'
p1390
asbag48
(g69
g50
NtRp1391
(dp1392
g53
(dp1393
g80
g81
ssg62
g1382
sg55
(lp1394
S':'
asbag48
(g69
g50
NtRp1395
(dp1396
g53
(dp1397
sg62
g1382
sg55
(lp1398
g48
(g49
g50
NtRp1399
(dp1400
g53
(dp1401
g61
I4
ssg62
g1395
sg55
(lp1402
S'GET'
p1403
asbasbasbag48
(g64
g50
NtRp1404
(dp1405
g53
(dp1406
sg62
g917
sg55
(lp1407
g48
(g69
g50
NtRp1408
(dp1409
g53
(dp1410
g73
g74
ssg62
g1404
sg55
(lp1411
S'script_name'
p1412
asbag48
(g69
g50
NtRp1413
(dp1414
g53
(dp1415
g80
g81
ssg62
g1404
sg55
(lp1416
S':'
asbag48
(g69
g50
NtRp1417
(dp1418
g53
(dp1419
sg62
g1404
sg55
(lp1420
g48
(g49
g50
NtRp1421
(dp1422
g53
(dp1423
g61
I4
ssg62
g1417
sg55
(lp1424
S''
asbasbasbag48
(g64
g50
NtRp1425
(dp1426
g53
(dp1427
sg62
g917
sg55
(lp1428
g48
(g69
g50
NtRp1429
(dp1430
g53
(dp1431
g73
g74
ssg62
g1425
sg55
(lp1432
S'server_name'
p1433
asbag48
(g69
g50
NtRp1434
(dp1435
g53
(dp1436
g80
g81
ssg62
g1425
sg55
(lp1437
S':'
asbag48
(g69
g50
NtRp1438
(dp1439
g53
(dp1440
sg62
g1425
sg55
(lp1441
g48
(g49
g50
NtRp1442
(dp1443
g53
(dp1444
g61
I4
ssg62
g1438
sg55
(lp1445
S'hector-asus'
p1446
asbasbasbag48
(g64
g50
NtRp1447
(dp1448
g53
(dp1449
sg62
g917
sg55
(lp1450
g48
(g69
g50
NtRp1451
(dp1452
g53
(dp1453
g73
g74
ssg62
g1447
sg55
(lp1454
S'server_port'
p1455
asbag48
(g69
g50
NtRp1456
(dp1457
g53
(dp1458
g80
g81
ssg62
g1447
sg55
(lp1459
S':'
asbag48
(g69
g50
NtRp1460
(dp1461
g53
(dp1462
sg62
g1447
sg55
(lp1463
g48
(g49
g50
NtRp1464
(dp1465
g53
(dp1466
g61
I4
ssg62
g1460
sg55
(lp1467
S'8000'
p1468
asbasbasbag48
(g64
g50
NtRp1469
(dp1470
g53
(dp1471
sg62
g917
sg55
(lp1472
g48
(g69
g50
NtRp1473
(dp1474
g53
(dp1475
g73
g74
ssg62
g1469
sg55
(lp1476
S'server_protocol'
p1477
asbag48
(g69
g50
NtRp1478
(dp1479
g53
(dp1480
g80
g81
ssg62
g1469
sg55
(lp1481
S':'
asbag48
(g69
g50
NtRp1482
(dp1483
g53
(dp1484
sg62
g1469
sg55
(lp1485
g48
(g49
g50
NtRp1486
(dp1487
g53
(dp1488
g61
I4
ssg62
g1482
sg55
(lp1489
S'HTTP/1.1'
p1490
asbasbasbag48
(g64
g50
NtRp1491
(dp1492
g53
(dp1493
sg62
g917
sg55
(lp1494
g48
(g69
g50
NtRp1495
(dp1496
g53
(dp1497
g73
g74
ssg62
g1491
sg55
(lp1498
S'server_software'
p1499
asbag48
(g69
g50
NtRp1500
(dp1501
g53
(dp1502
g80
g81
ssg62
g1491
sg55
(lp1503
S':'
asbag48
(g69
g50
NtRp1504
(dp1505
g53
(dp1506
sg62
g1491
sg55
(lp1507
g48
(g49
g50
NtRp1508
(dp1509
g53
(dp1510
g61
I4
ssg62
g1504
sg55
(lp1511
S'Rocket 1.2.4'
p1512
asbasbasbag48
(g64
g50
NtRp1513
(dp1514
g53
(dp1515
sg62
g917
sg55
(lp1516
g48
(g69
g50
NtRp1517
(dp1518
g53
(dp1519
g73
g74
ssg62
g1513
sg55
(lp1520
S'web2py_crontype'
p1521
asbag48
(g69
g50
NtRp1522
(dp1523
g53
(dp1524
g80
g81
ssg62
g1513
sg55
(lp1525
S':'
asbag48
(g69
g50
NtRp1526
(dp1527
g53
(dp1528
sg62
g1513
sg55
(lp1529
g48
(g49
g50
NtRp1530
(dp1531
g53
(dp1532
g61
I4
ssg62
g1526
sg55
(lp1533
S'hard'
p1534
asbasbasbag48
(g64
g50
NtRp1535
(dp1536
g53
(dp1537
sg62
g917
sg55
(lp1538
g48
(g69
g50
NtRp1539
(dp1540
g53
(dp1541
g73
g74
ssg62
g1535
sg55
(lp1542
S'web2py_path'
p1543
asbag48
(g69
g50
NtRp1544
(dp1545
g53
(dp1546
g80
g81
ssg62
g1535
sg55
(lp1547
S':'
asbag48
(g69
g50
NtRp1548
(dp1549
g53
(dp1550
sg62
g1535
sg55
(lp1551
g48
(g49
g50
NtRp1552
(dp1553
g53
(dp1554
g61
I4
ssg62
g1548
sg55
(lp1555
g964
asbasbasbag48
(g64
g50
NtRp1556
(dp1557
g53
(dp1558
sg62
g917
sg55
(lp1559
g48
(g69
g50
NtRp1560
(dp1561
g53
(dp1562
g73
g74
ssg62
g1556
sg55
(lp1563
S'web2py_version'
p1564
asbag48
(g69
g50
NtRp1565
(dp1566
g53
(dp1567
g80
g81
ssg62
g1556
sg55
(lp1568
S':'
asbag48
(g69
g50
NtRp1569
(dp1570
g53
(dp1571
sg62
g1556
sg55
(lp1572
g48
(g49
g50
NtRp1573
(dp1574
g53
(dp1575
g61
I4
ssg62
g1569
sg55
(lp1576
g48
(g57
g50
NtRp1577
(dp1578
g53
(dp1579
g61
I3
ssg62
Nsg55
(lp1580
g48
(g64
g50
NtRp1581
(dp1582
g53
(dp1583
sg62
g1577
sg55
(lp1584
g48
(g69
g50
NtRp1585
(dp1586
g53
(dp1587
sg62
g1581
sg55
(lp1588
g48
(g49
g50
NtRp1589
(dp1590
g53
(dp1591
g61
I3
ssg62
g1585
sg55
(lp1592
S'1'
asbasbasbag48
(g64
g50
NtRp1593
(dp1594
g53
(dp1595
sg62
g1577
sg55
(lp1596
g48
(g69
g50
NtRp1597
(dp1598
g53
(dp1599
sg62
g1593
sg55
(lp1600
g48
(g49
g50
NtRp1601
(dp1602
g53
(dp1603
g61
I3
ssg62
g1597
sg55
(lp1604
S'99'
p1605
asbasbasbag48
(g64
g50
NtRp1606
(dp1607
g53
(dp1608
sg62
g1577
sg55
(lp1609
g48
(g69
g50
NtRp1610
(dp1611
g53
(dp1612
sg62
g1606
sg55
(lp1613
g48
(g49
g50
NtRp1614
(dp1615
g53
(dp1616
g61
I3
ssg62
g1610
sg55
(lp1617
S'2'
asbasbasbag48
(g64
g50
NtRp1618
(dp1619
g53
(dp1620
sg62
g1577
sg55
(lp1621
g48
(g69
g50
NtRp1622
(dp1623
g53
(dp1624
sg62
g1618
sg55
(lp1625
g48
(g49
g50
NtRp1626
(dp1627
g53
(dp1628
g61
I3
ssg62
g1622
sg55
(lp1629
S'datetime.datetime(2011, 9, 26, 6, 55, 33)'
p1630
asbasbasbag48
(g64
g50
NtRp1631
(dp1632
g53
(dp1633
sg62
g1577
sg55
(lp1634
g48
(g69
g50
NtRp1635
(dp1636
g53
(dp1637
sg62
g1631
sg55
(lp1638
g48
(g49
g50
NtRp1639
(dp1640
g53
(dp1641
g61
I3
ssg62
g1635
sg55
(lp1642
S'stable'
p1643
asbasbasbasbasbasbasbag48
(g64
g50
NtRp1644
(dp1645
g53
(dp1646
sg62
g917
sg55
(lp1647
g48
(g69
g50
NtRp1648
(dp1649
g53
(dp1650
g73
g74
ssg62
g1644
sg55
(lp1651
S'wsgi_errors'
p1652
asbag48
(g69
g50
NtRp1653
(dp1654
g53
(dp1655
g80
g81
ssg62
g1644
sg55
(lp1656
S':'
asbag48
(g69
g50
NtRp1657
(dp1658
g53
(dp1659
sg62
g1644
sg55
(lp1660
g48
(g49
g50
NtRp1661
(dp1662
g53
(dp1663
g61
I4
ssg62
g1657
sg55
(lp1664
S"<open file '<stderr>', mode 'w' at 0x004200B0>"
p1665
asbasbasbag48
(g64
g50
NtRp1666
(dp1667
g53
(dp1668
sg62
g917
sg55
(lp1669
g48
(g69
g50
NtRp1670
(dp1671
g53
(dp1672
g73
g74
ssg62
g1666
sg55
(lp1673
S'wsgi_file_wrapper'
p1674
asbag48
(g69
g50
NtRp1675
(dp1676
g53
(dp1677
g80
g81
ssg62
g1666
sg55
(lp1678
S':'
asbag48
(g69
g50
NtRp1679
(dp1680
g53
(dp1681
sg62
g1666
sg55
(lp1682
g48
(g49
g50
NtRp1683
(dp1684
g53
(dp1685
g61
I4
ssg62
g1679
sg55
(lp1686
S'<class wsgiref.util.FileWrapper at 0x02BB0D80>'
p1687
asbasbasbag48
(g64
g50
NtRp1688
(dp1689
g53
(dp1690
sg62
g917
sg55
(lp1691
g48
(g69
g50
NtRp1692
(dp1693
g53
(dp1694
g73
g74
ssg62
g1688
sg55
(lp1695
S'wsgi_input'
p1696
asbag48
(g69
g50
NtRp1697
(dp1698
g53
(dp1699
g80
g81
ssg62
g1688
sg55
(lp1700
S':'
asbag48
(g69
g50
NtRp1701
(dp1702
g53
(dp1703
sg62
g1688
sg55
(lp1704
g48
(g49
g50
NtRp1705
(dp1706
g53
(dp1707
g61
I4
ssg62
g1701
sg55
(lp1708
S'<socket._fileobject object at 0x05D24B70>'
p1709
asbasbasbag48
(g64
g50
NtRp1710
(dp1711
g53
(dp1712
sg62
g917
sg55
(lp1713
g48
(g69
g50
NtRp1714
(dp1715
g53
(dp1716
g73
g74
ssg62
g1710
sg55
(lp1717
S'wsgi_multiprocess'
p1718
asbag48
(g69
g50
NtRp1719
(dp1720
g53
(dp1721
g80
g81
ssg62
g1710
sg55
(lp1722
S':'
asbag48
(g69
g50
NtRp1723
(dp1724
g53
(dp1725
sg62
g1710
sg55
(lp1726
g48
(g49
g50
NtRp1727
(dp1728
g53
(dp1729
g61
I4
ssg62
g1723
sg55
(lp1730
g91
asbasbasbag48
(g64
g50
NtRp1731
(dp1732
g53
(dp1733
sg62
g917
sg55
(lp1734
g48
(g69
g50
NtRp1735
(dp1736
g53
(dp1737
g73
g74
ssg62
g1731
sg55
(lp1738
S'wsgi_multithread'
p1739
asbag48
(g69
g50
NtRp1740
(dp1741
g53
(dp1742
g80
g81
ssg62
g1731
sg55
(lp1743
S':'
asbag48
(g69
g50
NtRp1744
(dp1745
g53
(dp1746
sg62
g1731
sg55
(lp1747
g48
(g49
g50
NtRp1748
(dp1749
g53
(dp1750
g61
I4
ssg62
g1744
sg55
(lp1751
S'True'
p1752
asbasbasbag48
(g64
g50
NtRp1753
(dp1754
g53
(dp1755
sg62
g917
sg55
(lp1756
g48
(g69
g50
NtRp1757
(dp1758
g53
(dp1759
g73
g74
ssg62
g1753
sg55
(lp1760
S'wsgi_run_once'
p1761
asbag48
(g69
g50
NtRp1762
(dp1763
g53
(dp1764
g80
g81
ssg62
g1753
sg55
(lp1765
S':'
asbag48
(g69
g50
NtRp1766
(dp1767
g53
(dp1768
sg62
g1753
sg55
(lp1769
g48
(g49
g50
NtRp1770
(dp1771
g53
(dp1772
g61
I4
ssg62
g1766
sg55
(lp1773
g91
asbasbasbag48
(g64
g50
NtRp1774
(dp1775
g53
(dp1776
sg62
g917
sg55
(lp1777
g48
(g69
g50
NtRp1778
(dp1779
g53
(dp1780
g73
g74
ssg62
g1774
sg55
(lp1781
S'wsgi_url_scheme'
p1782
asbag48
(g69
g50
NtRp1783
(dp1784
g53
(dp1785
g80
g81
ssg62
g1774
sg55
(lp1786
S':'
asbag48
(g69
g50
NtRp1787
(dp1788
g53
(dp1789
sg62
g1774
sg55
(lp1790
g48
(g49
g50
NtRp1791
(dp1792
g53
(dp1793
g61
I4
ssg62
g1787
sg55
(lp1794
S'http'
p1795
asbasbasbag48
(g64
g50
NtRp1796
(dp1797
g53
(dp1798
sg62
g917
sg55
(lp1799
g48
(g69
g50
NtRp1800
(dp1801
g53
(dp1802
g73
g74
ssg62
g1796
sg55
(lp1803
S'wsgi_version'
p1804
asbag48
(g69
g50
NtRp1805
(dp1806
g53
(dp1807
g80
g81
ssg62
g1796
sg55
(lp1808
S':'
asbag48
(g69
g50
NtRp1809
(dp1810
g53
(dp1811
sg62
g1796
sg55
(lp1812
g48
(g49
g50
NtRp1813
(dp1814
g53
(dp1815
g61
I4
ssg62
g1809
sg55
(lp1816
g48
(g57
g50
NtRp1817
(dp1818
g53
(dp1819
g61
I3
ssg62
Nsg55
(lp1820
g48
(g64
g50
NtRp1821
(dp1822
g53
(dp1823
sg62
g1817
sg55
(lp1824
g48
(g69
g50
NtRp1825
(dp1826
g53
(dp1827
sg62
g1821
sg55
(lp1828
g48
(g49
g50
NtRp1829
(dp1830
g53
(dp1831
g61
I3
ssg62
g1825
sg55
(lp1832
S'1'
asbasbasbag48
(g64
g50
NtRp1833
(dp1834
g53
(dp1835
sg62
g1817
sg55
(lp1836
g48
(g69
g50
NtRp1837
(dp1838
g53
(dp1839
sg62
g1833
sg55
(lp1840
g48
(g49
g50
NtRp1841
(dp1842
g53
(dp1843
g61
I3
ssg62
g1837
sg55
(lp1844
S'0'
asbasbasbasbasbasbasbasbasbasbasbag48
(g64
g50
NtRp1845
(dp1846
g53
(dp1847
sg62
g58
sg55
(lp1848
g48
(g69
g50
NtRp1849
(dp1850
g53
(dp1851
g73
g74
ssg62
g1845
sg55
(lp1852
S'extension'
p1853
asbag48
(g69
g50
NtRp1854
(dp1855
g53
(dp1856
g80
g81
ssg62
g1845
sg55
(lp1857
S':'
asbag48
(g69
g50
NtRp1858
(dp1859
g53
(dp1860
sg62
g1845
sg55
(lp1861
g48
(g49
g50
NtRp1862
(dp1863
g53
(dp1864
g61
I5
ssg62
g1858
sg55
(lp1865
S'html'
p1866
asbasbasbag48
(g64
g50
NtRp1867
(dp1868
g53
(dp1869
sg62
g58
sg55
(lp1870
g48
(g69
g50
NtRp1871
(dp1872
g53
(dp1873
g73
g74
ssg62
g1867
sg55
(lp1874
S'folder'
p1875
asbag48
(g69
g50
NtRp1876
(dp1877
g53
(dp1878
g80
g81
ssg62
g1867
sg55
(lp1879
S':'
asbag48
(g69
g50
NtRp1880
(dp1881
g53
(dp1882
sg62
g1867
sg55
(lp1883
g48
(g49
g50
NtRp1884
(dp1885
g53
(dp1886
g61
I5
ssg62
g1880
sg55
(lp1887
S'C:\\Python32\\web2py\\applications\\Casa_de_Apuestas\\'
p1888
asbasbasbag48
(g64
g50
NtRp1889
(dp1890
g53
(dp1891
sg62
g58
sg55
(lp1892
g48
(g69
g50
NtRp1893
(dp1894
g53
(dp1895
g73
g74
ssg62
g1889
sg55
(lp1896
S'function'
p1897
asbag48
(g69
g50
NtRp1898
(dp1899
g53
(dp1900
g80
g81
ssg62
g1889
sg55
(lp1901
S':'
asbag48
(g69
g50
NtRp1902
(dp1903
g53
(dp1904
sg62
g1889
sg55
(lp1905
g48
(g49
g50
NtRp1906
(dp1907
g53
(dp1908
g61
I5
ssg62
g1902
sg55
(lp1909
S'eliminarCategoria'
p1910
asbasbasbag48
(g64
g50
NtRp1911
(dp1912
g53
(dp1913
sg62
g58
sg55
(lp1914
g48
(g69
g50
NtRp1915
(dp1916
g53
(dp1917
g73
g74
ssg62
g1911
sg55
(lp1918
S'get_vars'
p1919
asbag48
(g69
g50
NtRp1920
(dp1921
g53
(dp1922
g80
g81
ssg62
g1911
sg55
(lp1923
S':'
asbag48
(g69
g50
NtRp1924
(dp1925
g53
(dp1926
sg62
g1911
sg55
(lp1927
g48
(g49
g50
NtRp1928
(dp1929
g53
(dp1930
g61
I5
ssg62
g1924
sg55
(lp1931
g48
(g57
g50
NtRp1932
(dp1933
g53
(dp1934
g61
I4
ssg62
Nsg55
(lp1935
sbasbasbasbag48
(g64
g50
NtRp1936
(dp1937
g53
(dp1938
sg62
g58
sg55
(lp1939
g48
(g69
g50
NtRp1940
(dp1941
g53
(dp1942
g73
g74
ssg62
g1936
sg55
(lp1943
S'global_settings'
p1944
asbag48
(g69
g50
NtRp1945
(dp1946
g53
(dp1947
g80
g81
ssg62
g1936
sg55
(lp1948
S':'
asbag48
(g69
g50
NtRp1949
(dp1950
g53
(dp1951
sg62
g1936
sg55
(lp1952
g48
(g49
g50
NtRp1953
(dp1954
g53
(dp1955
g61
I5
ssg62
g1949
sg55
(lp1956
g48
(g57
g50
NtRp1957
(dp1958
g53
(dp1959
g61
I4
ssg62
Nsg55
(lp1960
g48
(g64
g50
NtRp1961
(dp1962
g53
(dp1963
sg62
g1957
sg55
(lp1964
g48
(g69
g50
NtRp1965
(dp1966
g53
(dp1967
g73
g74
ssg62
g1961
sg55
(lp1968
g929
asbag48
(g69
g50
NtRp1969
(dp1970
g53
(dp1971
g80
g81
ssg62
g1961
sg55
(lp1972
S':'
asbag48
(g69
g50
NtRp1973
(dp1974
g53
(dp1975
sg62
g1961
sg55
(lp1976
g48
(g49
g50
NtRp1977
(dp1978
g53
(dp1979
g61
I4
ssg62
g1973
sg55
(lp1980
S"set(['C:\\\\Python32\\\\web2py\\\\applications\\\\Casa_de_Apuestas\\\\', 'C:\\\\Python32\\\\web2py\\\\applications\\\\welcome\\\\', 'C:\\\\Python32\\\\web2py\\\\applications\\\\admin\\\\'])"
p1981
asbasbasbag48
(g64
g50
NtRp1982
(dp1983
g53
(dp1984
sg62
g1957
sg55
(lp1985
g48
(g69
g50
NtRp1986
(dp1987
g53
(dp1988
g73
g74
ssg62
g1982
sg55
(lp1989
g951
asbag48
(g69
g50
NtRp1990
(dp1991
g53
(dp1992
g80
g81
ssg62
g1982
sg55
(lp1993
S':'
asbag48
(g69
g50
NtRp1994
(dp1995
g53
(dp1996
sg62
g1982
sg55
(lp1997
g48
(g49
g50
NtRp1998
(dp1999
g53
(dp2000
g61
I4
ssg62
g1994
sg55
(lp2001
g964
asbasbasbag48
(g64
g50
NtRp2002
(dp2003
g53
(dp2004
sg62
g1957
sg55
(lp2005
g48
(g69
g50
NtRp2006
(dp2007
g53
(dp2008
g73
g74
ssg62
g2002
sg55
(lp2009
g973
asbag48
(g69
g50
NtRp2010
(dp2011
g53
(dp2012
g80
g81
ssg62
g2002
sg55
(lp2013
S':'
asbag48
(g69
g50
NtRp2014
(dp2015
g53
(dp2016
sg62
g2002
sg55
(lp2017
g48
(g49
g50
NtRp2018
(dp2019
g53
(dp2020
g61
I4
ssg62
g2014
sg55
(lp2021
g48
(g57
g50
NtRp2022
(dp2023
g53
(dp2024
g61
I3
ssg62
Nsg55
(lp2025
sbasbasbasbag48
(g64
g50
NtRp2026
(dp2027
g53
(dp2028
sg62
g1957
sg55
(lp2029
g48
(g69
g50
NtRp2030
(dp2031
g53
(dp2032
g73
g74
ssg62
g2026
sg55
(lp2033
g998
asbag48
(g69
g50
NtRp2034
(dp2035
g53
(dp2036
g80
g81
ssg62
g2026
sg55
(lp2037
S':'
asbag48
(g69
g50
NtRp2038
(dp2039
g53
(dp2040
sg62
g2026
sg55
(lp2041
g48
(g49
g50
NtRp2042
(dp2043
g53
(dp2044
g61
I4
ssg62
g2038
sg55
(lp2045
S"<Values at 0x2e18f30: {'verbose': False, 'ip': '127.0.0.1', 'shutdown_timeout': 5, 'taskbar': False, 'nocron': False, 'pid_filename': 'httpserver.pid', 'maxthreads': None, 'softcron': False, 'server_name': 'hector-asus', 'bpython': False, 'nogui': False, 'port': 8000, 'extcron': False, 'debuglevel': 30, 'test': None, 'folder': 'C:\\\\Python32\\\\web2py', 'config': '', 'import_models': False, 'winservice': '', 'shell': None, 'run': '', 'log_filename': 'httpserver.log', 'args': [''], 'ssl_ca_certificate': None, 'scheduler': None, 'profiler_filename': None, 'ssl_private_key': '', 'password': '<ask>', 'request_queue_size': 5, 'ssl_certificate': '', 'cronjob': False, 'plain': False, 'quiet': False, 'interfaces': None, 'minthreads': None, 'timeout': 10, 'numthreads': None, 'nobanner': False}>"
p2046
asbasbasbag48
(g64
g50
NtRp2047
(dp2048
g53
(dp2049
sg62
g1957
sg55
(lp2050
g48
(g69
g50
NtRp2051
(dp2052
g53
(dp2053
g73
g74
ssg62
g2047
sg55
(lp2054
g1020
asbag48
(g69
g50
NtRp2055
(dp2056
g53
(dp2057
g80
g81
ssg62
g2047
sg55
(lp2058
S':'
asbag48
(g69
g50
NtRp2059
(dp2060
g53
(dp2061
sg62
g2047
sg55
(lp2062
g48
(g49
g50
NtRp2063
(dp2064
g53
(dp2065
g61
I4
ssg62
g2059
sg55
(lp2066
S'set([])'
p2067
asbasbasbag48
(g64
g50
NtRp2068
(dp2069
g53
(dp2070
sg62
g1957
sg55
(lp2071
g48
(g69
g50
NtRp2072
(dp2073
g53
(dp2074
g73
g74
ssg62
g2068
sg55
(lp2075
g1042
asbag48
(g69
g50
NtRp2076
(dp2077
g53
(dp2078
g80
g81
ssg62
g2068
sg55
(lp2079
S':'
asbag48
(g69
g50
NtRp2080
(dp2081
g53
(dp2082
sg62
g2068
sg55
(lp2083
g48
(g49
g50
NtRp2084
(dp2085
g53
(dp2086
g61
I4
ssg62
g2080
sg55
(lp2087
g91
asbasbasbag48
(g64
g50
NtRp2088
(dp2089
g53
(dp2090
sg62
g1957
sg55
(lp2091
g48
(g69
g50
NtRp2092
(dp2093
g53
(dp2094
g73
g74
ssg62
g2088
sg55
(lp2095
g1063
asbag48
(g69
g50
NtRp2096
(dp2097
g53
(dp2098
g80
g81
ssg62
g2088
sg55
(lp2099
S':'
asbag48
(g69
g50
NtRp2100
(dp2101
g53
(dp2102
sg62
g2088
sg55
(lp2103
g48
(g49
g50
NtRp2104
(dp2105
g53
(dp2106
g61
I4
ssg62
g2100
sg55
(lp2107
g1076
asbasbasbag48
(g64
g50
NtRp2108
(dp2109
g53
(dp2110
sg62
g1957
sg55
(lp2111
g48
(g69
g50
NtRp2112
(dp2113
g53
(dp2114
g73
g74
ssg62
g2108
sg55
(lp2115
g1283
asbag48
(g69
g50
NtRp2116
(dp2117
g53
(dp2118
g80
g81
ssg62
g2108
sg55
(lp2119
S':'
asbag48
(g69
g50
NtRp2120
(dp2121
g53
(dp2122
sg62
g2108
sg55
(lp2123
g48
(g49
g50
NtRp2124
(dp2125
g53
(dp2126
g61
I4
ssg62
g2120
sg55
(lp2127
g91
asbasbasbag48
(g64
g50
NtRp2128
(dp2129
g53
(dp2130
sg62
g1957
sg55
(lp2131
g48
(g69
g50
NtRp2132
(dp2133
g53
(dp2134
g73
g74
ssg62
g2128
sg55
(lp2135
g1521
asbag48
(g69
g50
NtRp2136
(dp2137
g53
(dp2138
g80
g81
ssg62
g2128
sg55
(lp2139
S':'
asbag48
(g69
g50
NtRp2140
(dp2141
g53
(dp2142
sg62
g2128
sg55
(lp2143
g48
(g49
g50
NtRp2144
(dp2145
g53
(dp2146
g61
I4
ssg62
g2140
sg55
(lp2147
g1534
asbasbasbag48
(g64
g50
NtRp2148
(dp2149
g53
(dp2150
sg62
g1957
sg55
(lp2151
g48
(g69
g50
NtRp2152
(dp2153
g53
(dp2154
g73
g74
ssg62
g2148
sg55
(lp2155
g1564
asbag48
(g69
g50
NtRp2156
(dp2157
g53
(dp2158
g80
g81
ssg62
g2148
sg55
(lp2159
S':'
asbag48
(g69
g50
NtRp2160
(dp2161
g53
(dp2162
sg62
g2148
sg55
(lp2163
g48
(g49
g50
NtRp2164
(dp2165
g53
(dp2166
g61
I4
ssg62
g2160
sg55
(lp2167
g48
(g57
g50
NtRp2168
(dp2169
g53
(dp2170
g61
I3
ssg62
Nsg55
(lp2171
g48
(g64
g50
NtRp2172
(dp2173
g53
(dp2174
sg62
g2168
sg55
(lp2175
g48
(g69
g50
NtRp2176
(dp2177
g53
(dp2178
sg62
g2172
sg55
(lp2179
g48
(g49
g50
NtRp2180
(dp2181
g53
(dp2182
g61
I3
ssg62
g2176
sg55
(lp2183
S'1'
asbasbasbag48
(g64
g50
NtRp2184
(dp2185
g53
(dp2186
sg62
g2168
sg55
(lp2187
g48
(g69
g50
NtRp2188
(dp2189
g53
(dp2190
sg62
g2184
sg55
(lp2191
g48
(g49
g50
NtRp2192
(dp2193
g53
(dp2194
g61
I3
ssg62
g2188
sg55
(lp2195
S'99'
p2196
asbasbasbag48
(g64
g50
NtRp2197
(dp2198
g53
(dp2199
sg62
g2168
sg55
(lp2200
g48
(g69
g50
NtRp2201
(dp2202
g53
(dp2203
sg62
g2197
sg55
(lp2204
g48
(g49
g50
NtRp2205
(dp2206
g53
(dp2207
g61
I3
ssg62
g2201
sg55
(lp2208
S'2'
asbasbasbag48
(g64
g50
NtRp2209
(dp2210
g53
(dp2211
sg62
g2168
sg55
(lp2212
g48
(g69
g50
NtRp2213
(dp2214
g53
(dp2215
sg62
g2209
sg55
(lp2216
g48
(g49
g50
NtRp2217
(dp2218
g53
(dp2219
g61
I3
ssg62
g2213
sg55
(lp2220
S'datetime.datetime(2011, 9, 26, 6, 55, 33)'
p2221
asbasbasbag48
(g64
g50
NtRp2222
(dp2223
g53
(dp2224
sg62
g2168
sg55
(lp2225
g48
(g69
g50
NtRp2226
(dp2227
g53
(dp2228
sg62
g2222
sg55
(lp2229
g48
(g49
g50
NtRp2230
(dp2231
g53
(dp2232
g61
I3
ssg62
g2226
sg55
(lp2233
g1643
asbasbasbasbasbasbasbasbasbasbasbag48
(g64
g50
NtRp2234
(dp2235
g53
(dp2236
sg62
g58
sg55
(lp2237
g48
(g69
g50
NtRp2238
(dp2239
g53
(dp2240
g73
g74
ssg62
g2234
sg55
(lp2241
S'is_https'
p2242
asbag48
(g69
g50
NtRp2243
(dp2244
g53
(dp2245
g80
g81
ssg62
g2234
sg55
(lp2246
S':'
asbag48
(g69
g50
NtRp2247
(dp2248
g53
(dp2249
sg62
g2234
sg55
(lp2250
g48
(g49
g50
NtRp2251
(dp2252
g53
(dp2253
g61
I5
ssg62
g2247
sg55
(lp2254
g91
asbasbasbag48
(g64
g50
NtRp2255
(dp2256
g53
(dp2257
sg62
g58
sg55
(lp2258
g48
(g69
g50
NtRp2259
(dp2260
g53
(dp2261
g73
g74
ssg62
g2255
sg55
(lp2262
S'is_local'
p2263
asbag48
(g69
g50
NtRp2264
(dp2265
g53
(dp2266
g80
g81
ssg62
g2255
sg55
(lp2267
S':'
asbag48
(g69
g50
NtRp2268
(dp2269
g53
(dp2270
sg62
g2255
sg55
(lp2271
g48
(g49
g50
NtRp2272
(dp2273
g53
(dp2274
g61
I5
ssg62
g2268
sg55
(lp2275
g1752
asbasbasbag48
(g64
g50
NtRp2276
(dp2277
g53
(dp2278
sg62
g58
sg55
(lp2279
g48
(g69
g50
NtRp2280
(dp2281
g53
(dp2282
g73
g74
ssg62
g2276
sg55
(lp2283
S'is_restful'
p2284
asbag48
(g69
g50
NtRp2285
(dp2286
g53
(dp2287
g80
g81
ssg62
g2276
sg55
(lp2288
S':'
asbag48
(g69
g50
NtRp2289
(dp2290
g53
(dp2291
sg62
g2276
sg55
(lp2292
g48
(g49
g50
NtRp2293
(dp2294
g53
(dp2295
g61
I5
ssg62
g2289
sg55
(lp2296
g91
asbasbasbag48
(g64
g50
NtRp2297
(dp2298
g53
(dp2299
sg62
g58
sg55
(lp2300
g48
(g69
g50
NtRp2301
(dp2302
g53
(dp2303
g73
g74
ssg62
g2297
sg55
(lp2304
S'now'
p2305
asbag48
(g69
g50
NtRp2306
(dp2307
g53
(dp2308
g80
g81
ssg62
g2297
sg55
(lp2309
S':'
asbag48
(g69
g50
NtRp2310
(dp2311
g53
(dp2312
sg62
g2297
sg55
(lp2313
g48
(g49
g50
NtRp2314
(dp2315
g53
(dp2316
g61
I5
ssg62
g2310
sg55
(lp2317
S'datetime.datetime(2011, 11, 12, 20, 9, 54, 757000)'
p2318
asbasbasbag48
(g64
g50
NtRp2319
(dp2320
g53
(dp2321
sg62
g58
sg55
(lp2322
g48
(g69
g50
NtRp2323
(dp2324
g53
(dp2325
g73
g74
ssg62
g2319
sg55
(lp2326
S'post_vars'
p2327
asbag48
(g69
g50
NtRp2328
(dp2329
g53
(dp2330
g80
g81
ssg62
g2319
sg55
(lp2331
S':'
asbag48
(g69
g50
NtRp2332
(dp2333
g53
(dp2334
sg62
g2319
sg55
(lp2335
g48
(g49
g50
NtRp2336
(dp2337
g53
(dp2338
g61
I5
ssg62
g2332
sg55
(lp2339
g48
(g57
g50
NtRp2340
(dp2341
g53
(dp2342
g61
I4
ssg62
Nsg55
(lp2343
sbasbasbasbag48
(g64
g50
NtRp2344
(dp2345
g53
(dp2346
sg62
g58
sg55
(lp2347
g48
(g69
g50
NtRp2348
(dp2349
g53
(dp2350
g73
g74
ssg62
g2344
sg55
(lp2351
S'url'
p2352
asbag48
(g69
g50
NtRp2353
(dp2354
g53
(dp2355
g80
g81
ssg62
g2344
sg55
(lp2356
S':'
asbag48
(g69
g50
NtRp2357
(dp2358
g53
(dp2359
sg62
g2344
sg55
(lp2360
g48
(g49
g50
NtRp2361
(dp2362
g53
(dp2363
g61
I5
ssg62
g2357
sg55
(lp2364
S'/Casa_de_Apuestas/default/eliminarCategoria'
p2365
asbasbasbag48
(g64
g50
NtRp2366
(dp2367
g53
(dp2368
sg62
g58
sg55
(lp2369
g48
(g69
g50
NtRp2370
(dp2371
g53
(dp2372
g73
g74
ssg62
g2366
sg55
(lp2373
S'utcnow'
p2374
asbag48
(g69
g50
NtRp2375
(dp2376
g53
(dp2377
g80
g81
ssg62
g2366
sg55
(lp2378
S':'
asbag48
(g69
g50
NtRp2379
(dp2380
g53
(dp2381
sg62
g2366
sg55
(lp2382
g48
(g49
g50
NtRp2383
(dp2384
g53
(dp2385
g61
I5
ssg62
g2379
sg55
(lp2386
S'datetime.datetime(2011, 11, 13, 0, 39, 54, 757000)'
p2387
asbasbasbag48
(g64
g50
NtRp2388
(dp2389
g53
(dp2390
sg62
g58
sg55
(lp2391
g48
(g69
g50
NtRp2392
(dp2393
g53
(dp2394
g73
g74
ssg62
g2388
sg55
(lp2395
S'uuid'
p2396
asbag48
(g69
g50
NtRp2397
(dp2398
g53
(dp2399
g80
g81
ssg62
g2388
sg55
(lp2400
S':'
asbag48
(g69
g50
NtRp2401
(dp2402
g53
(dp2403
sg62
g2388
sg55
(lp2404
g48
(g49
g50
NtRp2405
(dp2406
g53
(dp2407
g61
I5
ssg62
g2401
sg55
(lp2408
S'Casa_de_Apuestas/127.0.0.1.2011-11-12.20-09-54.df075155-fbe5-4a72-87fb-41eb7d7d73a1'
p2409
asbasbasbag48
(g64
g50
NtRp2410
(dp2411
g53
(dp2412
sg62
g58
sg55
(lp2413
g48
(g69
g50
NtRp2414
(dp2415
g53
(dp2416
g73
g74
ssg62
g2410
sg55
(lp2417
S'vars'
p2418
asbag48
(g69
g50
NtRp2419
(dp2420
g53
(dp2421
g80
g81
ssg62
g2410
sg55
(lp2422
S':'
asbag48
(g69
g50
NtRp2423
(dp2424
g53
(dp2425
sg62
g2410
sg55
(lp2426
g48
(g49
g50
NtRp2427
(dp2428
g53
(dp2429
g61
I5
ssg62
g2423
sg55
(lp2430
g48
(g57
g50
NtRp2431
(dp2432
g53
(dp2433
g61
I4
ssg62
Nsg55
(lp2434
sbasbasbasbag48
(g64
g50
NtRp2435
(dp2436
g53
(dp2437
sg62
g58
sg55
(lp2438
g48
(g69
g50
NtRp2439
(dp2440
g53
(dp2441
g73
g74
ssg62
g2435
sg55
(lp2442
S'wsgi'
p2443
asbag48
(g69
g50
NtRp2444
(dp2445
g53
(dp2446
g80
g81
ssg62
g2435
sg55
(lp2447
S':'
asbag48
(g69
g50
NtRp2448
(dp2449
g53
(dp2450
sg62
g2435
sg55
(lp2451
g48
(g49
g50
NtRp2452
(dp2453
g53
(dp2454
g61
I5
ssg62
g2448
sg55
(lp2455
g48
(g57
g50
NtRp2456
(dp2457
g53
(dp2458
g61
I4
ssg62
Nsg55
(lp2459
g48
(g64
g50
NtRp2460
(dp2461
g53
(dp2462
sg62
g2456
sg55
(lp2463
g48
(g69
g50
NtRp2464
(dp2465
g53
(dp2466
g73
g74
ssg62
g2460
sg55
(lp2467
S'environ'
p2468
asbag48
(g69
g50
NtRp2469
(dp2470
g53
(dp2471
g80
g81
ssg62
g2460
sg55
(lp2472
S':'
asbag48
(g69
g50
NtRp2473
(dp2474
g53
(dp2475
sg62
g2460
sg55
(lp2476
g48
(g49
g50
NtRp2477
(dp2478
g53
(dp2479
g61
I4
ssg62
g2473
sg55
(lp2480
g48
(g57
g50
NtRp2481
(dp2482
g53
(dp2483
g61
I3
ssg62
Nsg55
(lp2484
g48
(g64
g50
NtRp2485
(dp2486
g53
(dp2487
sg62
g2481
sg55
(lp2488
g48
(g69
g50
NtRp2489
(dp2490
g53
(dp2491
g73
g74
ssg62
g2485
sg55
(lp2492
S'HTTP_ACCEPT'
p2493
asbag48
(g69
g50
NtRp2494
(dp2495
g53
(dp2496
g80
g81
ssg62
g2485
sg55
(lp2497
S':'
asbag48
(g69
g50
NtRp2498
(dp2499
g53
(dp2500
sg62
g2485
sg55
(lp2501
g48
(g49
g50
NtRp2502
(dp2503
g53
(dp2504
g61
I3
ssg62
g2498
sg55
(lp2505
g1098
asbasbasbag48
(g64
g50
NtRp2506
(dp2507
g53
(dp2508
sg62
g2481
sg55
(lp2509
g48
(g69
g50
NtRp2510
(dp2511
g53
(dp2512
g73
g74
ssg62
g2506
sg55
(lp2513
S'HTTP_ACCEPT_CHARSET'
p2514
asbag48
(g69
g50
NtRp2515
(dp2516
g53
(dp2517
g80
g81
ssg62
g2506
sg55
(lp2518
S':'
asbag48
(g69
g50
NtRp2519
(dp2520
g53
(dp2521
sg62
g2506
sg55
(lp2522
g48
(g49
g50
NtRp2523
(dp2524
g53
(dp2525
g61
I3
ssg62
g2519
sg55
(lp2526
g1120
asbasbasbag48
(g64
g50
NtRp2527
(dp2528
g53
(dp2529
sg62
g2481
sg55
(lp2530
g48
(g69
g50
NtRp2531
(dp2532
g53
(dp2533
g73
g74
ssg62
g2527
sg55
(lp2534
S'HTTP_ACCEPT_ENCODING'
p2535
asbag48
(g69
g50
NtRp2536
(dp2537
g53
(dp2538
g80
g81
ssg62
g2527
sg55
(lp2539
S':'
asbag48
(g69
g50
NtRp2540
(dp2541
g53
(dp2542
sg62
g2527
sg55
(lp2543
g48
(g49
g50
NtRp2544
(dp2545
g53
(dp2546
g61
I3
ssg62
g2540
sg55
(lp2547
g1142
asbasbasbag48
(g64
g50
NtRp2548
(dp2549
g53
(dp2550
sg62
g2481
sg55
(lp2551
g48
(g69
g50
NtRp2552
(dp2553
g53
(dp2554
g73
g74
ssg62
g2548
sg55
(lp2555
S'HTTP_ACCEPT_LANGUAGE'
p2556
asbag48
(g69
g50
NtRp2557
(dp2558
g53
(dp2559
g80
g81
ssg62
g2548
sg55
(lp2560
S':'
asbag48
(g69
g50
NtRp2561
(dp2562
g53
(dp2563
sg62
g2548
sg55
(lp2564
g48
(g49
g50
NtRp2565
(dp2566
g53
(dp2567
g61
I3
ssg62
g2561
sg55
(lp2568
g1164
asbasbasbag48
(g64
g50
NtRp2569
(dp2570
g53
(dp2571
sg62
g2481
sg55
(lp2572
g48
(g69
g50
NtRp2573
(dp2574
g53
(dp2575
g73
g74
ssg62
g2569
sg55
(lp2576
S'HTTP_CONNECTION'
p2577
asbag48
(g69
g50
NtRp2578
(dp2579
g53
(dp2580
g80
g81
ssg62
g2569
sg55
(lp2581
S':'
asbag48
(g69
g50
NtRp2582
(dp2583
g53
(dp2584
sg62
g2569
sg55
(lp2585
g48
(g49
g50
NtRp2586
(dp2587
g53
(dp2588
g61
I3
ssg62
g2582
sg55
(lp2589
g1186
asbasbasbag48
(g64
g50
NtRp2590
(dp2591
g53
(dp2592
sg62
g2481
sg55
(lp2593
g48
(g69
g50
NtRp2594
(dp2595
g53
(dp2596
g73
g74
ssg62
g2590
sg55
(lp2597
S'HTTP_COOKIE'
p2598
asbag48
(g69
g50
NtRp2599
(dp2600
g53
(dp2601
g80
g81
ssg62
g2590
sg55
(lp2602
S':'
asbag48
(g69
g50
NtRp2603
(dp2604
g53
(dp2605
sg62
g2590
sg55
(lp2606
g48
(g49
g50
NtRp2607
(dp2608
g53
(dp2609
g61
I3
ssg62
g2603
sg55
(lp2610
g1208
asbasbasbag48
(g64
g50
NtRp2611
(dp2612
g53
(dp2613
sg62
g2481
sg55
(lp2614
g48
(g69
g50
NtRp2615
(dp2616
g53
(dp2617
g73
g74
ssg62
g2611
sg55
(lp2618
S'HTTP_HOST'
p2619
asbag48
(g69
g50
NtRp2620
(dp2621
g53
(dp2622
g80
g81
ssg62
g2611
sg55
(lp2623
S':'
asbag48
(g69
g50
NtRp2624
(dp2625
g53
(dp2626
sg62
g2611
sg55
(lp2627
g48
(g49
g50
NtRp2628
(dp2629
g53
(dp2630
g61
I3
ssg62
g2624
sg55
(lp2631
g1230
asbasbasbag48
(g64
g50
NtRp2632
(dp2633
g53
(dp2634
sg62
g2481
sg55
(lp2635
g48
(g69
g50
NtRp2636
(dp2637
g53
(dp2638
g73
g74
ssg62
g2632
sg55
(lp2639
S'HTTP_REFERER'
p2640
asbag48
(g69
g50
NtRp2641
(dp2642
g53
(dp2643
g80
g81
ssg62
g2632
sg55
(lp2644
S':'
asbag48
(g69
g50
NtRp2645
(dp2646
g53
(dp2647
sg62
g2632
sg55
(lp2648
g48
(g49
g50
NtRp2649
(dp2650
g53
(dp2651
g61
I3
ssg62
g2645
sg55
(lp2652
g1252
asbasbasbag48
(g64
g50
NtRp2653
(dp2654
g53
(dp2655
sg62
g2481
sg55
(lp2656
g48
(g69
g50
NtRp2657
(dp2658
g53
(dp2659
g73
g74
ssg62
g2653
sg55
(lp2660
S'HTTP_USER_AGENT'
p2661
asbag48
(g69
g50
NtRp2662
(dp2663
g53
(dp2664
g80
g81
ssg62
g2653
sg55
(lp2665
S':'
asbag48
(g69
g50
NtRp2666
(dp2667
g53
(dp2668
sg62
g2653
sg55
(lp2669
g48
(g49
g50
NtRp2670
(dp2671
g53
(dp2672
g61
I3
ssg62
g2666
sg55
(lp2673
g1274
asbasbasbag48
(g64
g50
NtRp2674
(dp2675
g53
(dp2676
sg62
g2481
sg55
(lp2677
g48
(g69
g50
NtRp2678
(dp2679
g53
(dp2680
g73
g74
ssg62
g2674
sg55
(lp2681
S'PATH_INFO'
p2682
asbag48
(g69
g50
NtRp2683
(dp2684
g53
(dp2685
g80
g81
ssg62
g2674
sg55
(lp2686
S':'
asbag48
(g69
g50
NtRp2687
(dp2688
g53
(dp2689
sg62
g2674
sg55
(lp2690
g48
(g49
g50
NtRp2691
(dp2692
g53
(dp2693
g61
I3
ssg62
g2687
sg55
(lp2694
g1317
asbasbasbag48
(g64
g50
NtRp2695
(dp2696
g53
(dp2697
sg62
g2481
sg55
(lp2698
g48
(g69
g50
NtRp2699
(dp2700
g53
(dp2701
g73
g74
ssg62
g2695
sg55
(lp2702
S'QUERY_STRING'
p2703
asbag48
(g69
g50
NtRp2704
(dp2705
g53
(dp2706
g80
g81
ssg62
g2695
sg55
(lp2707
S':'
asbag48
(g69
g50
NtRp2708
(dp2709
g53
(dp2710
sg62
g2695
sg55
(lp2711
g48
(g49
g50
NtRp2712
(dp2713
g53
(dp2714
g61
I3
ssg62
g2708
sg55
(lp2715
S''
asbasbasbag48
(g64
g50
NtRp2716
(dp2717
g53
(dp2718
sg62
g2481
sg55
(lp2719
g48
(g69
g50
NtRp2720
(dp2721
g53
(dp2722
g73
g74
ssg62
g2716
sg55
(lp2723
S'REMOTE_ADDR'
p2724
asbag48
(g69
g50
NtRp2725
(dp2726
g53
(dp2727
g80
g81
ssg62
g2716
sg55
(lp2728
S':'
asbag48
(g69
g50
NtRp2729
(dp2730
g53
(dp2731
sg62
g2716
sg55
(lp2732
g48
(g49
g50
NtRp2733
(dp2734
g53
(dp2735
g61
I3
ssg62
g2729
sg55
(lp2736
g181
asbasbasbag48
(g64
g50
NtRp2737
(dp2738
g53
(dp2739
sg62
g2481
sg55
(lp2740
g48
(g69
g50
NtRp2741
(dp2742
g53
(dp2743
g73
g74
ssg62
g2737
sg55
(lp2744
S'REMOTE_PORT'
p2745
asbag48
(g69
g50
NtRp2746
(dp2747
g53
(dp2748
g80
g81
ssg62
g2737
sg55
(lp2749
S':'
asbag48
(g69
g50
NtRp2750
(dp2751
g53
(dp2752
sg62
g2737
sg55
(lp2753
g48
(g49
g50
NtRp2754
(dp2755
g53
(dp2756
g61
I3
ssg62
g2750
sg55
(lp2757
g1381
asbasbasbag48
(g64
g50
NtRp2758
(dp2759
g53
(dp2760
sg62
g2481
sg55
(lp2761
g48
(g69
g50
NtRp2762
(dp2763
g53
(dp2764
g73
g74
ssg62
g2758
sg55
(lp2765
S'REQUEST_METHOD'
p2766
asbag48
(g69
g50
NtRp2767
(dp2768
g53
(dp2769
g80
g81
ssg62
g2758
sg55
(lp2770
S':'
asbag48
(g69
g50
NtRp2771
(dp2772
g53
(dp2773
sg62
g2758
sg55
(lp2774
g48
(g49
g50
NtRp2775
(dp2776
g53
(dp2777
g61
I3
ssg62
g2771
sg55
(lp2778
g1403
asbasbasbag48
(g64
g50
NtRp2779
(dp2780
g53
(dp2781
sg62
g2481
sg55
(lp2782
g48
(g69
g50
NtRp2783
(dp2784
g53
(dp2785
g73
g74
ssg62
g2779
sg55
(lp2786
S'SCRIPT_NAME'
p2787
asbag48
(g69
g50
NtRp2788
(dp2789
g53
(dp2790
g80
g81
ssg62
g2779
sg55
(lp2791
S':'
asbag48
(g69
g50
NtRp2792
(dp2793
g53
(dp2794
sg62
g2779
sg55
(lp2795
g48
(g49
g50
NtRp2796
(dp2797
g53
(dp2798
g61
I3
ssg62
g2792
sg55
(lp2799
S''
asbasbasbag48
(g64
g50
NtRp2800
(dp2801
g53
(dp2802
sg62
g2481
sg55
(lp2803
g48
(g69
g50
NtRp2804
(dp2805
g53
(dp2806
g73
g74
ssg62
g2800
sg55
(lp2807
S'SERVER_NAME'
p2808
asbag48
(g69
g50
NtRp2809
(dp2810
g53
(dp2811
g80
g81
ssg62
g2800
sg55
(lp2812
S':'
asbag48
(g69
g50
NtRp2813
(dp2814
g53
(dp2815
sg62
g2800
sg55
(lp2816
g48
(g49
g50
NtRp2817
(dp2818
g53
(dp2819
g61
I3
ssg62
g2813
sg55
(lp2820
g1446
asbasbasbag48
(g64
g50
NtRp2821
(dp2822
g53
(dp2823
sg62
g2481
sg55
(lp2824
g48
(g69
g50
NtRp2825
(dp2826
g53
(dp2827
g73
g74
ssg62
g2821
sg55
(lp2828
S'SERVER_PORT'
p2829
asbag48
(g69
g50
NtRp2830
(dp2831
g53
(dp2832
g80
g81
ssg62
g2821
sg55
(lp2833
S':'
asbag48
(g69
g50
NtRp2834
(dp2835
g53
(dp2836
sg62
g2821
sg55
(lp2837
g48
(g49
g50
NtRp2838
(dp2839
g53
(dp2840
g61
I3
ssg62
g2834
sg55
(lp2841
g1468
asbasbasbag48
(g64
g50
NtRp2842
(dp2843
g53
(dp2844
sg62
g2481
sg55
(lp2845
g48
(g69
g50
NtRp2846
(dp2847
g53
(dp2848
g73
g74
ssg62
g2842
sg55
(lp2849
S'SERVER_PROTOCOL'
p2850
asbag48
(g69
g50
NtRp2851
(dp2852
g53
(dp2853
g80
g81
ssg62
g2842
sg55
(lp2854
S':'
asbag48
(g69
g50
NtRp2855
(dp2856
g53
(dp2857
sg62
g2842
sg55
(lp2858
g48
(g49
g50
NtRp2859
(dp2860
g53
(dp2861
g61
I3
ssg62
g2855
sg55
(lp2862
g1490
asbasbasbag48
(g64
g50
NtRp2863
(dp2864
g53
(dp2865
sg62
g2481
sg55
(lp2866
g48
(g69
g50
NtRp2867
(dp2868
g53
(dp2869
g73
g74
ssg62
g2863
sg55
(lp2870
S'SERVER_SOFTWARE'
p2871
asbag48
(g69
g50
NtRp2872
(dp2873
g53
(dp2874
g80
g81
ssg62
g2863
sg55
(lp2875
S':'
asbag48
(g69
g50
NtRp2876
(dp2877
g53
(dp2878
sg62
g2863
sg55
(lp2879
g48
(g49
g50
NtRp2880
(dp2881
g53
(dp2882
g61
I3
ssg62
g2876
sg55
(lp2883
g1512
asbasbasbag48
(g64
g50
NtRp2884
(dp2885
g53
(dp2886
sg62
g2481
sg55
(lp2887
g48
(g69
g50
NtRp2888
(dp2889
g53
(dp2890
g73
g74
ssg62
g2884
sg55
(lp2891
S'wsgi.errors'
p2892
asbag48
(g69
g50
NtRp2893
(dp2894
g53
(dp2895
g80
g81
ssg62
g2884
sg55
(lp2896
S':'
asbag48
(g69
g50
NtRp2897
(dp2898
g53
(dp2899
sg62
g2884
sg55
(lp2900
g48
(g49
g50
NtRp2901
(dp2902
g53
(dp2903
g61
I3
ssg62
g2897
sg55
(lp2904
S"<open file '<stderr>', mode 'w' at 0x004200B0>"
p2905
asbasbasbag48
(g64
g50
NtRp2906
(dp2907
g53
(dp2908
sg62
g2481
sg55
(lp2909
g48
(g69
g50
NtRp2910
(dp2911
g53
(dp2912
g73
g74
ssg62
g2906
sg55
(lp2913
S'wsgi.file_wrapper'
p2914
asbag48
(g69
g50
NtRp2915
(dp2916
g53
(dp2917
g80
g81
ssg62
g2906
sg55
(lp2918
S':'
asbag48
(g69
g50
NtRp2919
(dp2920
g53
(dp2921
sg62
g2906
sg55
(lp2922
g48
(g49
g50
NtRp2923
(dp2924
g53
(dp2925
g61
I3
ssg62
g2919
sg55
(lp2926
S'<class wsgiref.util.FileWrapper at 0x02BB0D80>'
p2927
asbasbasbag48
(g64
g50
NtRp2928
(dp2929
g53
(dp2930
sg62
g2481
sg55
(lp2931
g48
(g69
g50
NtRp2932
(dp2933
g53
(dp2934
g73
g74
ssg62
g2928
sg55
(lp2935
S'wsgi.input'
p2936
asbag48
(g69
g50
NtRp2937
(dp2938
g53
(dp2939
g80
g81
ssg62
g2928
sg55
(lp2940
S':'
asbag48
(g69
g50
NtRp2941
(dp2942
g53
(dp2943
sg62
g2928
sg55
(lp2944
g48
(g49
g50
NtRp2945
(dp2946
g53
(dp2947
g61
I3
ssg62
g2941
sg55
(lp2948
S'<cStringIO.StringO object at 0x05D29D80>'
p2949
asbasbasbag48
(g64
g50
NtRp2950
(dp2951
g53
(dp2952
sg62
g2481
sg55
(lp2953
g48
(g69
g50
NtRp2954
(dp2955
g53
(dp2956
g73
g74
ssg62
g2950
sg55
(lp2957
S'wsgi.multiprocess'
p2958
asbag48
(g69
g50
NtRp2959
(dp2960
g53
(dp2961
g80
g81
ssg62
g2950
sg55
(lp2962
S':'
asbag48
(g69
g50
NtRp2963
(dp2964
g53
(dp2965
sg62
g2950
sg55
(lp2966
g48
(g49
g50
NtRp2967
(dp2968
g53
(dp2969
g61
I3
ssg62
g2963
sg55
(lp2970
g91
asbasbasbag48
(g64
g50
NtRp2971
(dp2972
g53
(dp2973
sg62
g2481
sg55
(lp2974
g48
(g69
g50
NtRp2975
(dp2976
g53
(dp2977
g73
g74
ssg62
g2971
sg55
(lp2978
S'wsgi.multithread'
p2979
asbag48
(g69
g50
NtRp2980
(dp2981
g53
(dp2982
g80
g81
ssg62
g2971
sg55
(lp2983
S':'
asbag48
(g69
g50
NtRp2984
(dp2985
g53
(dp2986
sg62
g2971
sg55
(lp2987
g48
(g49
g50
NtRp2988
(dp2989
g53
(dp2990
g61
I3
ssg62
g2984
sg55
(lp2991
g1752
asbasbasbag48
(g64
g50
NtRp2992
(dp2993
g53
(dp2994
sg62
g2481
sg55
(lp2995
g48
(g69
g50
NtRp2996
(dp2997
g53
(dp2998
g73
g74
ssg62
g2992
sg55
(lp2999
S'wsgi.run_once'
p3000
asbag48
(g69
g50
NtRp3001
(dp3002
g53
(dp3003
g80
g81
ssg62
g2992
sg55
(lp3004
S':'
asbag48
(g69
g50
NtRp3005
(dp3006
g53
(dp3007
sg62
g2992
sg55
(lp3008
g48
(g49
g50
NtRp3009
(dp3010
g53
(dp3011
g61
I3
ssg62
g3005
sg55
(lp3012
g91
asbasbasbag48
(g64
g50
NtRp3013
(dp3014
g53
(dp3015
sg62
g2481
sg55
(lp3016
g48
(g69
g50
NtRp3017
(dp3018
g53
(dp3019
g73
g74
ssg62
g3013
sg55
(lp3020
S'wsgi.url_scheme'
p3021
asbag48
(g69
g50
NtRp3022
(dp3023
g53
(dp3024
g80
g81
ssg62
g3013
sg55
(lp3025
S':'
asbag48
(g69
g50
NtRp3026
(dp3027
g53
(dp3028
sg62
g3013
sg55
(lp3029
g48
(g49
g50
NtRp3030
(dp3031
g53
(dp3032
g61
I3
ssg62
g3026
sg55
(lp3033
g1795
asbasbasbag48
(g64
g50
NtRp3034
(dp3035
g53
(dp3036
sg62
g2481
sg55
(lp3037
g48
(g69
g50
NtRp3038
(dp3039
g53
(dp3040
g73
g74
ssg62
g3034
sg55
(lp3041
S'wsgi.version'
p3042
asbag48
(g69
g50
NtRp3043
(dp3044
g53
(dp3045
g80
g81
ssg62
g3034
sg55
(lp3046
S':'
asbag48
(g69
g50
NtRp3047
(dp3048
g53
(dp3049
sg62
g3034
sg55
(lp3050
g48
(g49
g50
NtRp3051
(dp3052
g53
(dp3053
g61
I3
ssg62
g3047
sg55
(lp3054
S'1'
asbasbasbasbasbasbasbasbasbasbasbasbasbsS'frames'
p3055
(lp3056
(dp3057
S'file'
p3058
S'C:\\Python32\\web2py\\gluon\\restricted.py'
p3059
sS'dump'
p3060
(dp3061
sS'lnum'
p3062
I194
sS'lines'
p3063
(dp3064
sS'call'
p3065
S"(code='# -*- coding: utf-8 -*-\\n### required - do no del...sponse._vars=response._caller(eliminarCategoria)\\n', environment={'A': <class 'gluon.html.A'>, 'Auth': <class 'gluon.tools.Auth'>, 'B': <class 'gluon.html.B'>, 'BEAUTIFY': <class 'gluon.html.BEAUTIFY'>, 'BODY': <class 'gluon.html.BODY'>, 'BR': <class 'gluon.html.BR'>, 'BUTTON': <class 'gluon.html.BUTTON'>, 'CAT': <class 'gluon.html.CAT'>, 'CENTER': <class 'gluon.html.CENTER'>, 'CLEANUP': <class 'gluon.validators.CLEANUP'>, ...}, layer=r'C:\\Python32\\web2py\\applications\\Casa_de_Apuestas\\controllers/default.py')"
p3066
sS'func'
p3067
S'restricted'
p3068
sa(dp3069
g3058
S'C:\\Python32\\web2py\\applications\\Casa_de_Apuestas\\controllers\\default.py'
p3070
sg3060
(dp3071
sg3062
I68
sg3063
(dp3072
I64
S'def eliminarCategoria():'
p3073
sI65
S'    form = crud.delete(db.categorias)'
p3074
sI66
S'    return dict(form=form)'
p3075
sI57
S"    response.headers['Content-Type']='application/xml'"
p3076
sI58
S'    #a = generar_xml(db().select(db.participantes.ALL));'
p3077
sI59
S'    codificador.update(generar_xml(db().select(db.participantes.ALL)))'
p3078
sI60
S'    #return generar_xml(db().select(db.participantes.ALL))'
p3079
sI61
S'    return dict(var=codificador.hexdigest(), var1=codificador1.hexdigest())'
p3080
sI62
S''
sI63
S''
ssg3065
S'()'
p3081
sg3067
S'<module>'
p3082
sa(dp3083
g3058
S'C:\\Python32\\web2py\\gluon\\globals.py'
p3084
sg3060
(dp3085
sg3062
I149
sg3063
(dp3086
sg3065
S'(f=<function eliminarCategoria at 0x05D1A1B0>)'
p3087
sg3067
S'<lambda>'
p3088
sa(dp3089
g3058
S'C:\\Python32\\web2py\\applications\\Casa_de_Apuestas\\controllers\\default.py'
p3090
sg3060
(dp3091
sg3062
I65
sg3063
(dp3092
I64
S'def eliminarCategoria():'
p3093
sI65
S'    form = crud.delete(db.categorias)'
p3094
sI66
S'    return dict(form=form)'
p3095
sI57
S"    response.headers['Content-Type']='application/xml'"
p3096
sI58
S'    #a = generar_xml(db().select(db.participantes.ALL));'
p3097
sI59
S'    codificador.update(generar_xml(db().select(db.participantes.ALL)))'
p3098
sI60
S'    #return generar_xml(db().select(db.participantes.ALL))'
p3099
sI61
S'    return dict(var=codificador.hexdigest(), var1=codificador1.hexdigest())'
p3100
sI62
S''
sI63
S''
ssg3065
S'()'
p3101
sg3067
S'eliminarCategoria'
p3102
sasS'pyver'
p3103
S'Python 2.5.4: C:\\Python32\\web2py\\web2py.exe'
p3104
sS'session'
p3105
g48
(g49
g50
NtRp3106
(dp3107
g53
(dp3108
sg55
(lp3109
g48
(g57
g50
NtRp3110
(dp3111
g53
(dp3112
g61
I5
ssg62
Nsg55
(lp3113
g48
(g64
g50
NtRp3114
(dp3115
g53
(dp3116
sg62
g3110
sg55
(lp3117
g48
(g69
g50
NtRp3118
(dp3119
g53
(dp3120
g73
g74
ssg62
g3114
sg55
(lp3121
S'last_query'
p3122
asbag48
(g69
g50
NtRp3123
(dp3124
g53
(dp3125
g80
g81
ssg62
g3114
sg55
(lp3126
S':'
asbag48
(g69
g50
NtRp3127
(dp3128
g53
(dp3129
sg62
g3114
sg55
(lp3130
g48
(g49
g50
NtRp3131
(dp3132
g53
(dp3133
g61
I5
ssg62
g3127
sg55
(lp3134
S'db.eventosparticipantes.eventos_id>0'
p3135
asbasbasbasbasbsS'etype'
p3136
S"<type 'exceptions.TypeError'>"
p3137
sS'date'
p3138
S'Sat Nov 12 20:09:54 2011'
p3139
sS'response'
p3140
g48
(g49
g50
NtRp3141
(dp3142
g53
(dp3143
sg55
(lp3144
g48
(g57
g50
NtRp3145
(dp3146
g53
(dp3147
g61
I5
ssg62
Nsg55
(lp3148
g48
(g64
g50
NtRp3149
(dp3150
g53
(dp3151
sg62
g3145
sg55
(lp3152
g48
(g69
g50
NtRp3153
(dp3154
g53
(dp3155
g73
g74
ssg62
g3149
sg55
(lp3156
g146
asbag48
(g69
g50
NtRp3157
(dp3158
g53
(dp3159
g80
g81
ssg62
g3149
sg55
(lp3160
S':'
asbag48
(g69
g50
NtRp3161
(dp3162
g53
(dp3163
sg62
g3149
sg55
(lp3164
g48
(g49
g50
NtRp3165
(dp3166
g53
(dp3167
g61
I5
ssg62
g3161
sg55
(lp3168
S'<cStringIO.StringO object at 0x02FCD340>'
p3169
asbasbasbag48
(g64
g50
NtRp3170
(dp3171
g53
(dp3172
sg62
g3145
sg55
(lp3173
g48
(g69
g50
NtRp3174
(dp3175
g53
(dp3176
g73
g74
ssg62
g3170
sg55
(lp3177
g212
asbag48
(g69
g50
NtRp3178
(dp3179
g53
(dp3180
g80
g81
ssg62
g3170
sg55
(lp3181
S':'
asbag48
(g69
g50
NtRp3182
(dp3183
g53
(dp3184
sg62
g3170
sg55
(lp3185
g48
(g49
g50
NtRp3186
(dp3187
g53
(dp3188
g61
I5
ssg62
g3182
sg55
(lp3189
g48
(g57
g50
NtRp3190
(dp3191
g53
(dp3192
g61
I4
ssg62
Nsg55
(lp3193
g48
(g64
g50
NtRp3194
(dp3195
g53
(dp3196
sg62
g3190
sg55
(lp3197
g48
(g69
g50
NtRp3198
(dp3199
g53
(dp3200
g73
g74
ssg62
g3194
sg55
(lp3201
S'session_id_casa_de_apuestas'
p3202
asbag48
(g69
g50
NtRp3203
(dp3204
g53
(dp3205
g80
g81
ssg62
g3194
sg55
(lp3206
S':'
asbag48
(g69
g50
NtRp3207
(dp3208
g53
(dp3209
sg62
g3194
sg55
(lp3210
g48
(g49
g50
NtRp3211
(dp3212
g53
(dp3213
g61
I4
ssg62
g3207
sg55
(lp3214
g48
(g57
g50
NtRp3215
(dp3216
g53
(dp3217
g61
I3
ssg62
Nsg55
(lp3218
g48
(g64
g50
NtRp3219
(dp3220
g53
(dp3221
sg62
g3215
sg55
(lp3222
g48
(g69
g50
NtRp3223
(dp3224
g53
(dp3225
g73
g74
ssg62
g3219
sg55
(lp3226
g262
asbag48
(g69
g50
NtRp3227
(dp3228
g53
(dp3229
g80
g81
ssg62
g3219
sg55
(lp3230
S':'
asbag48
(g69
g50
NtRp3231
(dp3232
g53
(dp3233
sg62
g3219
sg55
(lp3234
g48
(g49
g50
NtRp3235
(dp3236
g53
(dp3237
g61
I3
ssg62
g3231
sg55
(lp3238
S''
asbasbasbag48
(g64
g50
NtRp3239
(dp3240
g53
(dp3241
sg62
g3215
sg55
(lp3242
g48
(g69
g50
NtRp3243
(dp3244
g53
(dp3245
g73
g74
ssg62
g3239
sg55
(lp3246
g283
asbag48
(g69
g50
NtRp3247
(dp3248
g53
(dp3249
g80
g81
ssg62
g3239
sg55
(lp3250
S':'
asbag48
(g69
g50
NtRp3251
(dp3252
g53
(dp3253
sg62
g3239
sg55
(lp3254
g48
(g49
g50
NtRp3255
(dp3256
g53
(dp3257
g61
I3
ssg62
g3251
sg55
(lp3258
S''
asbasbasbag48
(g64
g50
NtRp3259
(dp3260
g53
(dp3261
sg62
g3215
sg55
(lp3262
g48
(g69
g50
NtRp3263
(dp3264
g53
(dp3265
g73
g74
ssg62
g3259
sg55
(lp3266
g304
asbag48
(g69
g50
NtRp3267
(dp3268
g53
(dp3269
g80
g81
ssg62
g3259
sg55
(lp3270
S':'
asbag48
(g69
g50
NtRp3271
(dp3272
g53
(dp3273
sg62
g3259
sg55
(lp3274
g48
(g49
g50
NtRp3275
(dp3276
g53
(dp3277
g61
I3
ssg62
g3271
sg55
(lp3278
S''
asbasbasbag48
(g64
g50
NtRp3279
(dp3280
g53
(dp3281
sg62
g3215
sg55
(lp3282
g48
(g69
g50
NtRp3283
(dp3284
g53
(dp3285
g73
g74
ssg62
g3279
sg55
(lp3286
g325
asbag48
(g69
g50
NtRp3287
(dp3288
g53
(dp3289
g80
g81
ssg62
g3279
sg55
(lp3290
S':'
asbag48
(g69
g50
NtRp3291
(dp3292
g53
(dp3293
sg62
g3279
sg55
(lp3294
g48
(g49
g50
NtRp3295
(dp3296
g53
(dp3297
g61
I3
ssg62
g3291
sg55
(lp3298
S''
asbasbasbag48
(g64
g50
NtRp3299
(dp3300
g53
(dp3301
sg62
g3215
sg55
(lp3302
g48
(g69
g50
NtRp3303
(dp3304
g53
(dp3305
g73
g74
ssg62
g3299
sg55
(lp3306
g346
asbag48
(g69
g50
NtRp3307
(dp3308
g53
(dp3309
g80
g81
ssg62
g3299
sg55
(lp3310
S':'
asbag48
(g69
g50
NtRp3311
(dp3312
g53
(dp3313
sg62
g3299
sg55
(lp3314
g48
(g49
g50
NtRp3315
(dp3316
g53
(dp3317
g61
I3
ssg62
g3311
sg55
(lp3318
S'/'
asbasbasbag48
(g64
g50
NtRp3319
(dp3320
g53
(dp3321
sg62
g3215
sg55
(lp3322
g48
(g69
g50
NtRp3323
(dp3324
g53
(dp3325
g73
g74
ssg62
g3319
sg55
(lp3326
g367
asbag48
(g69
g50
NtRp3327
(dp3328
g53
(dp3329
g80
g81
ssg62
g3319
sg55
(lp3330
S':'
asbag48
(g69
g50
NtRp3331
(dp3332
g53
(dp3333
sg62
g3319
sg55
(lp3334
g48
(g49
g50
NtRp3335
(dp3336
g53
(dp3337
g61
I3
ssg62
g3331
sg55
(lp3338
S''
asbasbasbag48
(g64
g50
NtRp3339
(dp3340
g53
(dp3341
sg62
g3215
sg55
(lp3342
g48
(g69
g50
NtRp3343
(dp3344
g53
(dp3345
g73
g74
ssg62
g3339
sg55
(lp3346
g388
asbag48
(g69
g50
NtRp3347
(dp3348
g53
(dp3349
g80
g81
ssg62
g3339
sg55
(lp3350
S':'
asbag48
(g69
g50
NtRp3351
(dp3352
g53
(dp3353
sg62
g3339
sg55
(lp3354
g48
(g49
g50
NtRp3355
(dp3356
g53
(dp3357
g61
I3
ssg62
g3351
sg55
(lp3358
S''
asbasbasbasbasbasbasbasbasbasbasbag48
(g64
g50
NtRp3359
(dp3360
g53
(dp3361
sg62
g3145
sg55
(lp3362
g48
(g69
g50
NtRp3363
(dp3364
g53
(dp3365
g73
g74
ssg62
g3359
sg55
(lp3366
S'files'
p3367
asbag48
(g69
g50
NtRp3368
(dp3369
g53
(dp3370
g80
g81
ssg62
g3359
sg55
(lp3371
S':'
asbag48
(g69
g50
NtRp3372
(dp3373
g53
(dp3374
sg62
g3359
sg55
(lp3375
g48
(g49
g50
NtRp3376
(dp3377
g53
(dp3378
g61
I5
ssg62
g3372
sg55
(lp3379
g48
(g57
g50
NtRp3380
(dp3381
g53
(dp3382
g61
I4
ssg62
Nsg55
(lp3383
sbasbasbasbag48
(g64
g50
NtRp3384
(dp3385
g53
(dp3386
sg62
g3145
sg55
(lp3387
g48
(g69
g50
NtRp3388
(dp3389
g53
(dp3390
g73
g74
ssg62
g3384
sg55
(lp3391
S'flash'
p3392
asbag48
(g69
g50
NtRp3393
(dp3394
g53
(dp3395
g80
g81
ssg62
g3384
sg55
(lp3396
S':'
asbag48
(g69
g50
NtRp3397
(dp3398
g53
(dp3399
sg62
g3384
sg55
(lp3400
g48
(g49
g50
NtRp3401
(dp3402
g53
(dp3403
g61
I5
ssg62
g3397
sg55
(lp3404
S''
asbasbasbag48
(g64
g50
NtRp3405
(dp3406
g53
(dp3407
sg62
g3145
sg55
(lp3408
g48
(g69
g50
NtRp3409
(dp3410
g53
(dp3411
g73
g74
ssg62
g3405
sg55
(lp3412
S'generic_patterns'
p3413
asbag48
(g69
g50
NtRp3414
(dp3415
g53
(dp3416
g80
g81
ssg62
g3405
sg55
(lp3417
S':'
asbag48
(g69
g50
NtRp3418
(dp3419
g53
(dp3420
sg62
g3405
sg55
(lp3421
g48
(g49
g50
NtRp3422
(dp3423
g53
(dp3424
g61
I5
ssg62
g3418
sg55
(lp3425
g48
(g57
g50
NtRp3426
(dp3427
g53
(dp3428
g61
I4
ssg62
Nsg55
(lp3429
g48
(g64
g50
NtRp3430
(dp3431
g53
(dp3432
sg62
g3426
sg55
(lp3433
g48
(g69
g50
NtRp3434
(dp3435
g53
(dp3436
sg62
g3430
sg55
(lp3437
g48
(g49
g50
NtRp3438
(dp3439
g53
(dp3440
g61
I4
ssg62
g3434
sg55
(lp3441
S'*'
asbasbasbasbasbasbasbag48
(g64
g50
NtRp3442
(dp3443
g53
(dp3444
sg62
g3145
sg55
(lp3445
g48
(g69
g50
NtRp3446
(dp3447
g53
(dp3448
g73
g74
ssg62
g3442
sg55
(lp3449
S'headers'
p3450
asbag48
(g69
g50
NtRp3451
(dp3452
g53
(dp3453
g80
g81
ssg62
g3442
sg55
(lp3454
S':'
asbag48
(g69
g50
NtRp3455
(dp3456
g53
(dp3457
sg62
g3442
sg55
(lp3458
g48
(g49
g50
NtRp3459
(dp3460
g53
(dp3461
g61
I5
ssg62
g3455
sg55
(lp3462
g48
(g57
g50
NtRp3463
(dp3464
g53
(dp3465
g61
I4
ssg62
Nsg55
(lp3466
g48
(g64
g50
NtRp3467
(dp3468
g53
(dp3469
sg62
g3463
sg55
(lp3470
g48
(g69
g50
NtRp3471
(dp3472
g53
(dp3473
g73
g74
ssg62
g3467
sg55
(lp3474
S'Cache-Control'
p3475
asbag48
(g69
g50
NtRp3476
(dp3477
g53
(dp3478
g80
g81
ssg62
g3467
sg55
(lp3479
S':'
asbag48
(g69
g50
NtRp3480
(dp3481
g53
(dp3482
sg62
g3467
sg55
(lp3483
g48
(g49
g50
NtRp3484
(dp3485
g53
(dp3486
g61
I4
ssg62
g3480
sg55
(lp3487
S'no-store, no-cache, must-revalidate, post-check=0, pre-check=0'
p3488
asbasbasbag48
(g64
g50
NtRp3489
(dp3490
g53
(dp3491
sg62
g3463
sg55
(lp3492
g48
(g69
g50
NtRp3493
(dp3494
g53
(dp3495
g73
g74
ssg62
g3489
sg55
(lp3496
S'Content-Type'
p3497
asbag48
(g69
g50
NtRp3498
(dp3499
g53
(dp3500
g80
g81
ssg62
g3489
sg55
(lp3501
S':'
asbag48
(g69
g50
NtRp3502
(dp3503
g53
(dp3504
sg62
g3489
sg55
(lp3505
g48
(g49
g50
NtRp3506
(dp3507
g53
(dp3508
g61
I4
ssg62
g3502
sg55
(lp3509
S'text/html; charset=utf-8'
p3510
asbasbasbag48
(g64
g50
NtRp3511
(dp3512
g53
(dp3513
sg62
g3463
sg55
(lp3514
g48
(g69
g50
NtRp3515
(dp3516
g53
(dp3517
g73
g74
ssg62
g3511
sg55
(lp3518
S'Expires'
p3519
asbag48
(g69
g50
NtRp3520
(dp3521
g53
(dp3522
g80
g81
ssg62
g3511
sg55
(lp3523
S':'
asbag48
(g69
g50
NtRp3524
(dp3525
g53
(dp3526
sg62
g3511
sg55
(lp3527
g48
(g49
g50
NtRp3528
(dp3529
g53
(dp3530
g61
I4
ssg62
g3524
sg55
(lp3531
S'Sun, 13 Nov 2011 00:39:54 GMT'
p3532
asbasbasbag48
(g64
g50
NtRp3533
(dp3534
g53
(dp3535
sg62
g3463
sg55
(lp3536
g48
(g69
g50
NtRp3537
(dp3538
g53
(dp3539
g73
g74
ssg62
g3533
sg55
(lp3540
S'Pragma'
p3541
asbag48
(g69
g50
NtRp3542
(dp3543
g53
(dp3544
g80
g81
ssg62
g3533
sg55
(lp3545
S':'
asbag48
(g69
g50
NtRp3546
(dp3547
g53
(dp3548
sg62
g3533
sg55
(lp3549
g48
(g49
g50
NtRp3550
(dp3551
g53
(dp3552
g61
I4
ssg62
g3546
sg55
(lp3553
S'no-cache'
p3554
asbasbasbag48
(g64
g50
NtRp3555
(dp3556
g53
(dp3557
sg62
g3463
sg55
(lp3558
g48
(g69
g50
NtRp3559
(dp3560
g53
(dp3561
g73
g74
ssg62
g3555
sg55
(lp3562
S'X-Powered-By'
p3563
asbag48
(g69
g50
NtRp3564
(dp3565
g53
(dp3566
g80
g81
ssg62
g3555
sg55
(lp3567
S':'
asbag48
(g69
g50
NtRp3568
(dp3569
g53
(dp3570
sg62
g3555
sg55
(lp3571
g48
(g49
g50
NtRp3572
(dp3573
g53
(dp3574
g61
I4
ssg62
g3568
sg55
(lp3575
S'web2py'
p3576
asbasbasbasbasbasbasbag48
(g64
g50
NtRp3577
(dp3578
g53
(dp3579
sg62
g3145
sg55
(lp3580
g48
(g69
g50
NtRp3581
(dp3582
g53
(dp3583
g73
g74
ssg62
g3577
sg55
(lp3584
S'menu'
p3585
asbag48
(g69
g50
NtRp3586
(dp3587
g53
(dp3588
g80
g81
ssg62
g3577
sg55
(lp3589
S':'
asbag48
(g69
g50
NtRp3590
(dp3591
g53
(dp3592
sg62
g3577
sg55
(lp3593
g48
(g49
g50
NtRp3594
(dp3595
g53
(dp3596
g61
I5
ssg62
g3590
sg55
(lp3597
g48
(g57
g50
NtRp3598
(dp3599
g53
(dp3600
g61
I4
ssg62
Nsg55
(lp3601
g48
(g64
g50
NtRp3602
(dp3603
g53
(dp3604
sg62
g3598
sg55
(lp3605
g48
(g69
g50
NtRp3606
(dp3607
g53
(dp3608
sg62
g3602
sg55
(lp3609
g48
(g49
g50
NtRp3610
(dp3611
g53
(dp3612
g61
I4
ssg62
g3606
sg55
(lp3613
g48
(g57
g50
NtRp3614
(dp3615
g53
(dp3616
g61
I3
ssg62
Nsg55
(lp3617
g48
(g64
g50
NtRp3618
(dp3619
g53
(dp3620
sg62
g3614
sg55
(lp3621
g48
(g69
g50
NtRp3622
(dp3623
g53
(dp3624
sg62
g3618
sg55
(lp3625
g48
(g49
g50
NtRp3626
(dp3627
g53
(dp3628
g61
I3
ssg62
g3622
sg55
(lp3629
cgluon.languages
lazyT_unpickle
p3630
(S's\x05\x00\x00\x00Index'
tRp3631
asbasbasbag48
(g64
g50
NtRp3632
(dp3633
g53
(dp3634
sg62
g3614
sg55
(lp3635
g48
(g69
g50
NtRp3636
(dp3637
g53
(dp3638
sg62
g3632
sg55
(lp3639
g48
(g49
g50
NtRp3640
(dp3641
g53
(dp3642
g61
I3
ssg62
g3636
sg55
(lp3643
g91
asbasbasbag48
(g64
g50
NtRp3644
(dp3645
g53
(dp3646
sg62
g3614
sg55
(lp3647
g48
(g69
g50
NtRp3648
(dp3649
g53
(dp3650
sg62
g3644
sg55
(lp3651
g48
(g49
g50
NtRp3652
(dp3653
g53
(dp3654
g61
I3
ssg62
g3648
sg55
(lp3655
S'/Casa_de_Apuestas/default/index'
p3656
asbasbasbag48
(g64
g50
NtRp3657
(dp3658
g53
(dp3659
sg62
g3614
sg55
(lp3660
g48
(g69
g50
NtRp3661
(dp3662
g53
(dp3663
sg62
g3657
sg55
(lp3664
g48
(g49
g50
NtRp3665
(dp3666
g53
(dp3667
g61
I3
ssg62
g3661
sg55
(lp3668
g48
(g57
g50
NtRp3669
(dp3670
g53
(dp3671
g61
I2
ssg62
Nsg55
(lp3672
sbasbasbasbasbasbasbasbasbasbasbasbag48
(g64
g50
NtRp3673
(dp3674
g53
(dp3675
sg62
g3145
sg55
(lp3676
g48
(g69
g50
NtRp3677
(dp3678
g53
(dp3679
g73
g74
ssg62
g3673
sg55
(lp3680
S'meta'
p3681
asbag48
(g69
g50
NtRp3682
(dp3683
g53
(dp3684
g80
g81
ssg62
g3673
sg55
(lp3685
S':'
asbag48
(g69
g50
NtRp3686
(dp3687
g53
(dp3688
sg62
g3673
sg55
(lp3689
g48
(g49
g50
NtRp3690
(dp3691
g53
(dp3692
g61
I5
ssg62
g3686
sg55
(lp3693
g48
(g57
g50
NtRp3694
(dp3695
g53
(dp3696
g61
I4
ssg62
Nsg55
(lp3697
g48
(g64
g50
NtRp3698
(dp3699
g53
(dp3700
sg62
g3694
sg55
(lp3701
g48
(g69
g50
NtRp3702
(dp3703
g53
(dp3704
g73
g74
ssg62
g3698
sg55
(lp3705
S'author'
p3706
asbag48
(g69
g50
NtRp3707
(dp3708
g53
(dp3709
g80
g81
ssg62
g3698
sg55
(lp3710
S':'
asbag48
(g69
g50
NtRp3711
(dp3712
g53
(dp3713
sg62
g3698
sg55
(lp3714
g48
(g49
g50
NtRp3715
(dp3716
g53
(dp3717
g61
I4
ssg62
g3711
sg55
(lp3718
S'JSG Systems <jsg@example.com>'
p3719
asbasbasbag48
(g64
g50
NtRp3720
(dp3721
g53
(dp3722
sg62
g3694
sg55
(lp3723
g48
(g69
g50
NtRp3724
(dp3725
g53
(dp3726
g73
g74
ssg62
g3720
sg55
(lp3727
S'description'
p3728
asbag48
(g69
g50
NtRp3729
(dp3730
g53
(dp3731
g80
g81
ssg62
g3720
sg55
(lp3732
S':'
asbag48
(g69
g50
NtRp3733
(dp3734
g53
(dp3735
sg62
g3720
sg55
(lp3736
g48
(g49
g50
NtRp3737
(dp3738
g53
(dp3739
g61
I4
ssg62
g3733
sg55
(lp3740
S''
asbasbasbag48
(g64
g50
NtRp3741
(dp3742
g53
(dp3743
sg62
g3694
sg55
(lp3744
g48
(g69
g50
NtRp3745
(dp3746
g53
(dp3747
g73
g74
ssg62
g3741
sg55
(lp3748
S'keywords'
p3749
asbag48
(g69
g50
NtRp3750
(dp3751
g53
(dp3752
g80
g81
ssg62
g3741
sg55
(lp3753
S':'
asbag48
(g69
g50
NtRp3754
(dp3755
g53
(dp3756
sg62
g3741
sg55
(lp3757
g48
(g49
g50
NtRp3758
(dp3759
g53
(dp3760
g61
I4
ssg62
g3754
sg55
(lp3761
S'casa, apuestas'
p3762
asbasbasbasbasbasbasbag48
(g64
g50
NtRp3763
(dp3764
g53
(dp3765
sg62
g3145
sg55
(lp3766
g48
(g69
g50
NtRp3767
(dp3768
g53
(dp3769
g73
g74
ssg62
g3763
sg55
(lp3770
S'postprocessing'
p3771
asbag48
(g69
g50
NtRp3772
(dp3773
g53
(dp3774
g80
g81
ssg62
g3763
sg55
(lp3775
S':'
asbag48
(g69
g50
NtRp3776
(dp3777
g53
(dp3778
sg62
g3763
sg55
(lp3779
g48
(g49
g50
NtRp3780
(dp3781
g53
(dp3782
g61
I5
ssg62
g3776
sg55
(lp3783
g48
(g57
g50
NtRp3784
(dp3785
g53
(dp3786
g61
I4
ssg62
Nsg55
(lp3787
sbasbasbasbag48
(g64
g50
NtRp3788
(dp3789
g53
(dp3790
sg62
g3145
sg55
(lp3791
g48
(g69
g50
NtRp3792
(dp3793
g53
(dp3794
g73
g74
ssg62
g3788
sg55
(lp3795
S'session_file'
p3796
asbag48
(g69
g50
NtRp3797
(dp3798
g53
(dp3799
g80
g81
ssg62
g3788
sg55
(lp3800
S':'
asbag48
(g69
g50
NtRp3801
(dp3802
g53
(dp3803
sg62
g3788
sg55
(lp3804
g48
(g49
g50
NtRp3805
(dp3806
g53
(dp3807
g61
I5
ssg62
g3801
sg55
(lp3808
S"<open file 'C:\\Python32\\web2py\\applications\\Casa_de_Apuestas\\sessions\\127.0.0.1-ff075696-a054-47b7-bd6f-733e6903bb65', mode 'rb+' at 0x05D64B60>"
p3809
asbasbasbag48
(g64
g50
NtRp3810
(dp3811
g53
(dp3812
sg62
g3145
sg55
(lp3813
g48
(g69
g50
NtRp3814
(dp3815
g53
(dp3816
g73
g74
ssg62
g3810
sg55
(lp3817
S'session_filename'
p3818
asbag48
(g69
g50
NtRp3819
(dp3820
g53
(dp3821
g80
g81
ssg62
g3810
sg55
(lp3822
S':'
asbag48
(g69
g50
NtRp3823
(dp3824
g53
(dp3825
sg62
g3810
sg55
(lp3826
g48
(g49
g50
NtRp3827
(dp3828
g53
(dp3829
g61
I5
ssg62
g3823
sg55
(lp3830
S'C:\\Python32\\web2py\\applications\\Casa_de_Apuestas\\sessions\\127.0.0.1-ff075696-a054-47b7-bd6f-733e6903bb65'
p3831
asbasbasbag48
(g64
g50
NtRp3832
(dp3833
g53
(dp3834
sg62
g3145
sg55
(lp3835
g48
(g69
g50
NtRp3836
(dp3837
g53
(dp3838
g73
g74
ssg62
g3832
sg55
(lp3839
S'session_id'
p3840
asbag48
(g69
g50
NtRp3841
(dp3842
g53
(dp3843
g80
g81
ssg62
g3832
sg55
(lp3844
S':'
asbag48
(g69
g50
NtRp3845
(dp3846
g53
(dp3847
sg62
g3832
sg55
(lp3848
g48
(g49
g50
NtRp3849
(dp3850
g53
(dp3851
g61
I5
ssg62
g3845
sg55
(lp3852
S'127.0.0.1-ff075696-a054-47b7-bd6f-733e6903bb65'
p3853
asbasbasbag48
(g64
g50
NtRp3854
(dp3855
g53
(dp3856
sg62
g3145
sg55
(lp3857
g48
(g69
g50
NtRp3858
(dp3859
g53
(dp3860
g73
g74
ssg62
g3854
sg55
(lp3861
S'session_id_name'
p3862
asbag48
(g69
g50
NtRp3863
(dp3864
g53
(dp3865
g80
g81
ssg62
g3854
sg55
(lp3866
S':'
asbag48
(g69
g50
NtRp3867
(dp3868
g53
(dp3869
sg62
g3854
sg55
(lp3870
g48
(g49
g50
NtRp3871
(dp3872
g53
(dp3873
g61
I5
ssg62
g3867
sg55
(lp3874
g3202
asbasbasbag48
(g64
g50
NtRp3875
(dp3876
g53
(dp3877
sg62
g3145
sg55
(lp3878
g48
(g69
g50
NtRp3879
(dp3880
g53
(dp3881
g73
g74
ssg62
g3875
sg55
(lp3882
S'session_locked'
p3883
asbag48
(g69
g50
NtRp3884
(dp3885
g53
(dp3886
g80
g81
ssg62
g3875
sg55
(lp3887
S':'
asbag48
(g69
g50
NtRp3888
(dp3889
g53
(dp3890
sg62
g3875
sg55
(lp3891
g48
(g49
g50
NtRp3892
(dp3893
g53
(dp3894
g61
I5
ssg62
g3888
sg55
(lp3895
g1752
asbasbasbag48
(g64
g50
NtRp3896
(dp3897
g53
(dp3898
sg62
g3145
sg55
(lp3899
g48
(g69
g50
NtRp3900
(dp3901
g53
(dp3902
g73
g74
ssg62
g3896
sg55
(lp3903
S'session_new'
p3904
asbag48
(g69
g50
NtRp3905
(dp3906
g53
(dp3907
g80
g81
ssg62
g3896
sg55
(lp3908
S':'
asbag48
(g69
g50
NtRp3909
(dp3910
g53
(dp3911
sg62
g3896
sg55
(lp3912
g48
(g49
g50
NtRp3913
(dp3914
g53
(dp3915
g61
I5
ssg62
g3909
sg55
(lp3916
g91
asbasbasbag48
(g64
g50
NtRp3917
(dp3918
g53
(dp3919
sg62
g3145
sg55
(lp3920
g48
(g69
g50
NtRp3921
(dp3922
g53
(dp3923
g73
g74
ssg62
g3917
sg55
(lp3924
S'status'
p3925
asbag48
(g69
g50
NtRp3926
(dp3927
g53
(dp3928
g80
g81
ssg62
g3917
sg55
(lp3929
S':'
asbag48
(g69
g50
NtRp3930
(dp3931
g53
(dp3932
sg62
g3917
sg55
(lp3933
g48
(g49
g50
NtRp3934
(dp3935
g53
(dp3936
g61
I5
ssg62
g3930
sg55
(lp3937
S'200'
p3938
asbasbasbag48
(g64
g50
NtRp3939
(dp3940
g53
(dp3941
sg62
g3145
sg55
(lp3942
g48
(g69
g50
NtRp3943
(dp3944
g53
(dp3945
g73
g74
ssg62
g3939
sg55
(lp3946
S'subtitle'
p3947
asbag48
(g69
g50
NtRp3948
(dp3949
g53
(dp3950
g80
g81
ssg62
g3939
sg55
(lp3951
S':'
asbag48
(g69
g50
NtRp3952
(dp3953
g53
(dp3954
sg62
g3939
sg55
(lp3955
g48
(g49
g50
NtRp3956
(dp3957
g53
(dp3958
g61
I5
ssg62
g3952
sg55
(lp3959
S''
asbasbasbag48
(g64
g50
NtRp3960
(dp3961
g53
(dp3962
sg62
g3145
sg55
(lp3963
g48
(g69
g50
NtRp3964
(dp3965
g53
(dp3966
g73
g74
ssg62
g3960
sg55
(lp3967
S'title'
p3968
asbag48
(g69
g50
NtRp3969
(dp3970
g53
(dp3971
g80
g81
ssg62
g3960
sg55
(lp3972
S':'
asbag48
(g69
g50
NtRp3973
(dp3974
g53
(dp3975
sg62
g3960
sg55
(lp3976
g48
(g49
g50
NtRp3977
(dp3978
g53
(dp3979
g61
I5
ssg62
g3973
sg55
(lp3980
S'Casa de Apuestas'
p3981
asbasbasbag48
(g64
g50
NtRp3982
(dp3983
g53
(dp3984
sg62
g3145
sg55
(lp3985
g48
(g69
g50
NtRp3986
(dp3987
g53
(dp3988
g73
g74
ssg62
g3982
sg55
(lp3989
g2396
asbag48
(g69
g50
NtRp3990
(dp3991
g53
(dp3992
g80
g81
ssg62
g3982
sg55
(lp3993
S':'
asbag48
(g69
g50
NtRp3994
(dp3995
g53
(dp3996
sg62
g3982
sg55
(lp3997
g48
(g49
g50
NtRp3998
(dp3999
g53
(dp4000
g61
I5
ssg62
g3994
sg55
(lp4001
g2409
asbasbasbag48
(g64
g50
NtRp4002
(dp4003
g53
(dp4004
sg62
g3145
sg55
(lp4005
g48
(g69
g50
NtRp4006
(dp4007
g53
(dp4008
g73
g74
ssg62
g4002
sg55
(lp4009
S'view'
p4010
asbag48
(g69
g50
NtRp4011
(dp4012
g53
(dp4013
g80
g81
ssg62
g4002
sg55
(lp4014
S':'
asbag48
(g69
g50
NtRp4015
(dp4016
g53
(dp4017
sg62
g4002
sg55
(lp4018
g48
(g49
g50
NtRp4019
(dp4020
g53
(dp4021
g61
I5
ssg62
g4015
sg55
(lp4022
S'default/eliminarCategoria.html'
p4023
asbasbasbasbasbsS'locals'
p4024
(dp4025
ssS'traceback'
p4026
S'Traceback (most recent call last):\n  File "gluon/restricted.py", line 194, in restricted\n  File "C:\\Python32\\web2py\\applications\\Casa_de_Apuestas\\controllers/default.py", line 68, in <module>\n  File "gluon/globals.py", line 149, in <lambda>\n  File "C:\\Python32\\web2py\\applications\\Casa_de_Apuestas\\controllers/default.py", line 65, in eliminarCategoria\nTypeError: delete() takes at least 3 arguments (2 given)\n'
p4027
s.