(dp1
S'output'
p2
S''
sS'layer'
p3
S'C:\\Python32\\web2py\\applications\\Casa_de_Apuestas\\views\\default/prueba.html'
p4
sS'code'
p5
S'from Categoria\na = Categoria("Hector", "Cara Rota")\na.getDescripcion()\nresponse.write(\'\\r\\n\', escape=False)'
p6
sS'snapshot'
p7
(dp8
S'exception'
p9
(dp10
S'__getslice__'
p11
S"<method-wrapper '__getslice__' of exceptions.SyntaxError object at 0x02EF9BF0>"
p12
sS'text'
p13
S"'from Categoria\\n'"
p14
sS'__str__'
p15
S"<method-wrapper '__str__' of exceptions.SyntaxError object at 0x02EF9BF0>"
p16
sS'__reduce__'
p17
S'<built-in method __reduce__ of exceptions.SyntaxError object at 0x02EF9BF0>'
p18
sS'__dict__'
p19
S'{}'
p20
sS'__init__'
p21
S"<method-wrapper '__init__' of exceptions.SyntaxError object at 0x02EF9BF0>"
p22
sS'__setattr__'
p23
S"<method-wrapper '__setattr__' of exceptions.SyntaxError object at 0x02EF9BF0>"
p24
sS'__reduce_ex__'
p25
S'<built-in method __reduce_ex__ of exceptions.SyntaxError object at 0x02EF9BF0>'
p26
sS'__new__'
p27
S'<built-in method __new__ of type object at 0x1E1CDBD0>'
p28
sS'__class__'
p29
S"<type 'exceptions.SyntaxError'>"
p30
sS'filename'
p31
S"r'C:\\Python32\\web2py\\applications\\Casa_de_Apuestas\\views\\default/prueba.html'"
p32
sS'lineno'
p33
S'1'
sS'msg'
p34
S"'invalid syntax'"
p35
sS'__doc__'
p36
S"'Invalid syntax.'"
p37
sS'__getitem__'
p38
S"<method-wrapper '__getitem__' of exceptions.SyntaxError object at 0x02EF9BF0>"
p39
sS'__setstate__'
p40
S'<built-in method __setstate__ of exceptions.SyntaxError object at 0x02EF9BF0>'
p41
sS'__getattribute__'
p42
S"<method-wrapper '__getattribute__' of exceptions.SyntaxError object at 0x02EF9BF0>"
p43
sS'print_file_and_line'
p44
S'None'
p45
sS'args'
p46
S"('invalid syntax', (r'C:\\Python32\\web2py\\applications\\Casa_de_Apuestas\\views\\default/prueba.html', 1, 15, 'from Categoria\\n'))"
p47
sS'offset'
p48
S'15'
p49
sS'__delattr__'
p50
S"<method-wrapper '__delattr__' of exceptions.SyntaxError object at 0x02EF9BF0>"
p51
sS'__repr__'
p52
S"<method-wrapper '__repr__' of exceptions.SyntaxError object at 0x02EF9BF0>"
p53
sS'__hash__'
p54
S"<method-wrapper '__hash__' of exceptions.SyntaxError object at 0x02EF9BF0>"
p55
ssS'evalue'
p56
S'invalid syntax (default/prueba.html, line 1)'
p57
sS'request'
p58
ccopy_reg
_reconstructor
p59
(cgluon.html
BEAUTIFY
p60
c__builtin__
object
p61
NtRp62
(dp63
S'attributes'
p64
(dp65
sS'components'
p66
(lp67
g59
(cgluon.html
TABLE
p68
g61
NtRp69
(dp70
g64
(dp71
S'level'
p72
I5
ssS'parent'
p73
Nsg66
(lp74
g59
(cgluon.html
TR
p75
g61
NtRp76
(dp77
g64
(dp78
sg73
g69
sg66
(lp79
g59
(cgluon.html
TD
p80
g61
NtRp81
(dp82
g64
(dp83
S'_style'
p84
S'font-weight:bold;'
p85
ssg73
g76
sg66
(lp86
S'ajax'
p87
asbag59
(g80
g61
NtRp88
(dp89
g64
(dp90
S'_valign'
p91
S'top'
p92
ssg73
g76
sg66
(lp93
S':'
asbag59
(g80
g61
NtRp94
(dp95
g64
(dp96
sg73
g76
sg66
(lp97
g59
(g60
g61
NtRp98
(dp99
g64
(dp100
g72
I5
ssg73
g94
sg66
(lp101
S'False'
p102
asbasbasbag59
(g75
g61
NtRp103
(dp104
g64
(dp105
sg73
g69
sg66
(lp106
g59
(g80
g61
NtRp107
(dp108
g64
(dp109
g84
g85
ssg73
g103
sg66
(lp110
S'application'
p111
asbag59
(g80
g61
NtRp112
(dp113
g64
(dp114
g91
g92
ssg73
g103
sg66
(lp115
S':'
asbag59
(g80
g61
NtRp116
(dp117
g64
(dp118
sg73
g103
sg66
(lp119
g59
(g60
g61
NtRp120
(dp121
g64
(dp122
g72
I5
ssg73
g116
sg66
(lp123
S'Casa_de_Apuestas'
p124
asbasbasbag59
(g75
g61
NtRp125
(dp126
g64
(dp127
sg73
g69
sg66
(lp128
g59
(g80
g61
NtRp129
(dp130
g64
(dp131
g84
g85
ssg73
g125
sg66
(lp132
g46
asbag59
(g80
g61
NtRp133
(dp134
g64
(dp135
g91
g92
ssg73
g125
sg66
(lp136
S':'
asbag59
(g80
g61
NtRp137
(dp138
g64
(dp139
sg73
g125
sg66
(lp140
g59
(g60
g61
NtRp141
(dp142
g64
(dp143
g72
I5
ssg73
g137
sg66
(lp144
g59
(g68
g61
NtRp145
(dp146
g64
(dp147
g72
I4
ssg73
Nsg66
(lp148
sbasbasbasbag59
(g75
g61
NtRp149
(dp150
g64
(dp151
sg73
g69
sg66
(lp152
g59
(g80
g61
NtRp153
(dp154
g64
(dp155
g84
g85
ssg73
g149
sg66
(lp156
S'body'
p157
asbag59
(g80
g61
NtRp158
(dp159
g64
(dp160
g91
g92
ssg73
g149
sg66
(lp161
S':'
asbag59
(g80
g61
NtRp162
(dp163
g64
(dp164
sg73
g149
sg66
(lp165
g59
(g60
g61
NtRp166
(dp167
g64
(dp168
g72
I5
ssg73
g162
sg66
(lp169
S'<cStringIO.StringO object at 0x0617A140>'
p170
asbasbasbag59
(g75
g61
NtRp171
(dp172
g64
(dp173
sg73
g69
sg66
(lp174
g59
(g80
g61
NtRp175
(dp176
g64
(dp177
g84
g85
ssg73
g171
sg66
(lp178
S'client'
p179
asbag59
(g80
g61
NtRp180
(dp181
g64
(dp182
g91
g92
ssg73
g171
sg66
(lp183
S':'
asbag59
(g80
g61
NtRp184
(dp185
g64
(dp186
sg73
g171
sg66
(lp187
g59
(g60
g61
NtRp188
(dp189
g64
(dp190
g72
I5
ssg73
g184
sg66
(lp191
S'127.0.0.1'
p192
asbasbasbag59
(g75
g61
NtRp193
(dp194
g64
(dp195
sg73
g69
sg66
(lp196
g59
(g80
g61
NtRp197
(dp198
g64
(dp199
g84
g85
ssg73
g193
sg66
(lp200
S'controller'
p201
asbag59
(g80
g61
NtRp202
(dp203
g64
(dp204
g91
g92
ssg73
g193
sg66
(lp205
S':'
asbag59
(g80
g61
NtRp206
(dp207
g64
(dp208
sg73
g193
sg66
(lp209
g59
(g60
g61
NtRp210
(dp211
g64
(dp212
g72
I5
ssg73
g206
sg66
(lp213
S'default'
p214
asbasbasbag59
(g75
g61
NtRp215
(dp216
g64
(dp217
sg73
g69
sg66
(lp218
g59
(g80
g61
NtRp219
(dp220
g64
(dp221
g84
g85
ssg73
g215
sg66
(lp222
S'cookies'
p223
asbag59
(g80
g61
NtRp224
(dp225
g64
(dp226
g91
g92
ssg73
g215
sg66
(lp227
S':'
asbag59
(g80
g61
NtRp228
(dp229
g64
(dp230
sg73
g215
sg66
(lp231
g59
(g60
g61
NtRp232
(dp233
g64
(dp234
g72
I5
ssg73
g228
sg66
(lp235
g59
(g68
g61
NtRp236
(dp237
g64
(dp238
g72
I4
ssg73
Nsg66
(lp239
g59
(g75
g61
NtRp240
(dp241
g64
(dp242
sg73
g236
sg66
(lp243
g59
(g80
g61
NtRp244
(dp245
g64
(dp246
g84
g85
ssg73
g240
sg66
(lp247
S'session_id_admin'
p248
asbag59
(g80
g61
NtRp249
(dp250
g64
(dp251
g91
g92
ssg73
g240
sg66
(lp252
S':'
asbag59
(g80
g61
NtRp253
(dp254
g64
(dp255
sg73
g240
sg66
(lp256
g59
(g60
g61
NtRp257
(dp258
g64
(dp259
g72
I4
ssg73
g253
sg66
(lp260
g59
(g68
g61
NtRp261
(dp262
g64
(dp263
g72
I3
ssg73
Nsg66
(lp264
g59
(g75
g61
NtRp265
(dp266
g64
(dp267
sg73
g261
sg66
(lp268
g59
(g80
g61
NtRp269
(dp270
g64
(dp271
g84
g85
ssg73
g265
sg66
(lp272
S'comment'
p273
asbag59
(g80
g61
NtRp274
(dp275
g64
(dp276
g91
g92
ssg73
g265
sg66
(lp277
S':'
asbag59
(g80
g61
NtRp278
(dp279
g64
(dp280
sg73
g265
sg66
(lp281
g59
(g60
g61
NtRp282
(dp283
g64
(dp284
g72
I3
ssg73
g278
sg66
(lp285
S''
asbasbasbag59
(g75
g61
NtRp286
(dp287
g64
(dp288
sg73
g261
sg66
(lp289
g59
(g80
g61
NtRp290
(dp291
g64
(dp292
g84
g85
ssg73
g286
sg66
(lp293
S'domain'
p294
asbag59
(g80
g61
NtRp295
(dp296
g64
(dp297
g91
g92
ssg73
g286
sg66
(lp298
S':'
asbag59
(g80
g61
NtRp299
(dp300
g64
(dp301
sg73
g286
sg66
(lp302
g59
(g60
g61
NtRp303
(dp304
g64
(dp305
g72
I3
ssg73
g299
sg66
(lp306
S''
asbasbasbag59
(g75
g61
NtRp307
(dp308
g64
(dp309
sg73
g261
sg66
(lp310
g59
(g80
g61
NtRp311
(dp312
g64
(dp313
g84
g85
ssg73
g307
sg66
(lp314
S'expires'
p315
asbag59
(g80
g61
NtRp316
(dp317
g64
(dp318
g91
g92
ssg73
g307
sg66
(lp319
S':'
asbag59
(g80
g61
NtRp320
(dp321
g64
(dp322
sg73
g307
sg66
(lp323
g59
(g60
g61
NtRp324
(dp325
g64
(dp326
g72
I3
ssg73
g320
sg66
(lp327
S''
asbasbasbag59
(g75
g61
NtRp328
(dp329
g64
(dp330
sg73
g261
sg66
(lp331
g59
(g80
g61
NtRp332
(dp333
g64
(dp334
g84
g85
ssg73
g328
sg66
(lp335
S'max-age'
p336
asbag59
(g80
g61
NtRp337
(dp338
g64
(dp339
g91
g92
ssg73
g328
sg66
(lp340
S':'
asbag59
(g80
g61
NtRp341
(dp342
g64
(dp343
sg73
g328
sg66
(lp344
g59
(g60
g61
NtRp345
(dp346
g64
(dp347
g72
I3
ssg73
g341
sg66
(lp348
S''
asbasbasbag59
(g75
g61
NtRp349
(dp350
g64
(dp351
sg73
g261
sg66
(lp352
g59
(g80
g61
NtRp353
(dp354
g64
(dp355
g84
g85
ssg73
g349
sg66
(lp356
S'path'
p357
asbag59
(g80
g61
NtRp358
(dp359
g64
(dp360
g91
g92
ssg73
g349
sg66
(lp361
S':'
asbag59
(g80
g61
NtRp362
(dp363
g64
(dp364
sg73
g349
sg66
(lp365
g59
(g60
g61
NtRp366
(dp367
g64
(dp368
g72
I3
ssg73
g362
sg66
(lp369
S''
asbasbasbag59
(g75
g61
NtRp370
(dp371
g64
(dp372
sg73
g261
sg66
(lp373
g59
(g80
g61
NtRp374
(dp375
g64
(dp376
g84
g85
ssg73
g370
sg66
(lp377
S'secure'
p378
asbag59
(g80
g61
NtRp379
(dp380
g64
(dp381
g91
g92
ssg73
g370
sg66
(lp382
S':'
asbag59
(g80
g61
NtRp383
(dp384
g64
(dp385
sg73
g370
sg66
(lp386
g59
(g60
g61
NtRp387
(dp388
g64
(dp389
g72
I3
ssg73
g383
sg66
(lp390
S''
asbasbasbag59
(g75
g61
NtRp391
(dp392
g64
(dp393
sg73
g261
sg66
(lp394
g59
(g80
g61
NtRp395
(dp396
g64
(dp397
g84
g85
ssg73
g391
sg66
(lp398
S'version'
p399
asbag59
(g80
g61
NtRp400
(dp401
g64
(dp402
g91
g92
ssg73
g391
sg66
(lp403
S':'
asbag59
(g80
g61
NtRp404
(dp405
g64
(dp406
sg73
g391
sg66
(lp407
g59
(g60
g61
NtRp408
(dp409
g64
(dp410
g72
I3
ssg73
g404
sg66
(lp411
S''
asbasbasbasbasbasbasbag59
(g75
g61
NtRp412
(dp413
g64
(dp414
sg73
g236
sg66
(lp415
g59
(g80
g61
NtRp416
(dp417
g64
(dp418
g84
g85
ssg73
g412
sg66
(lp419
S'session_id_casa_de_apuestas'
p420
asbag59
(g80
g61
NtRp421
(dp422
g64
(dp423
g91
g92
ssg73
g412
sg66
(lp424
S':'
asbag59
(g80
g61
NtRp425
(dp426
g64
(dp427
sg73
g412
sg66
(lp428
g59
(g60
g61
NtRp429
(dp430
g64
(dp431
g72
I4
ssg73
g425
sg66
(lp432
g59
(g68
g61
NtRp433
(dp434
g64
(dp435
g72
I3
ssg73
Nsg66
(lp436
g59
(g75
g61
NtRp437
(dp438
g64
(dp439
sg73
g433
sg66
(lp440
g59
(g80
g61
NtRp441
(dp442
g64
(dp443
g84
g85
ssg73
g437
sg66
(lp444
g273
asbag59
(g80
g61
NtRp445
(dp446
g64
(dp447
g91
g92
ssg73
g437
sg66
(lp448
S':'
asbag59
(g80
g61
NtRp449
(dp450
g64
(dp451
sg73
g437
sg66
(lp452
g59
(g60
g61
NtRp453
(dp454
g64
(dp455
g72
I3
ssg73
g449
sg66
(lp456
S''
asbasbasbag59
(g75
g61
NtRp457
(dp458
g64
(dp459
sg73
g433
sg66
(lp460
g59
(g80
g61
NtRp461
(dp462
g64
(dp463
g84
g85
ssg73
g457
sg66
(lp464
g294
asbag59
(g80
g61
NtRp465
(dp466
g64
(dp467
g91
g92
ssg73
g457
sg66
(lp468
S':'
asbag59
(g80
g61
NtRp469
(dp470
g64
(dp471
sg73
g457
sg66
(lp472
g59
(g60
g61
NtRp473
(dp474
g64
(dp475
g72
I3
ssg73
g469
sg66
(lp476
S''
asbasbasbag59
(g75
g61
NtRp477
(dp478
g64
(dp479
sg73
g433
sg66
(lp480
g59
(g80
g61
NtRp481
(dp482
g64
(dp483
g84
g85
ssg73
g477
sg66
(lp484
g315
asbag59
(g80
g61
NtRp485
(dp486
g64
(dp487
g91
g92
ssg73
g477
sg66
(lp488
S':'
asbag59
(g80
g61
NtRp489
(dp490
g64
(dp491
sg73
g477
sg66
(lp492
g59
(g60
g61
NtRp493
(dp494
g64
(dp495
g72
I3
ssg73
g489
sg66
(lp496
S''
asbasbasbag59
(g75
g61
NtRp497
(dp498
g64
(dp499
sg73
g433
sg66
(lp500
g59
(g80
g61
NtRp501
(dp502
g64
(dp503
g84
g85
ssg73
g497
sg66
(lp504
g336
asbag59
(g80
g61
NtRp505
(dp506
g64
(dp507
g91
g92
ssg73
g497
sg66
(lp508
S':'
asbag59
(g80
g61
NtRp509
(dp510
g64
(dp511
sg73
g497
sg66
(lp512
g59
(g60
g61
NtRp513
(dp514
g64
(dp515
g72
I3
ssg73
g509
sg66
(lp516
S''
asbasbasbag59
(g75
g61
NtRp517
(dp518
g64
(dp519
sg73
g433
sg66
(lp520
g59
(g80
g61
NtRp521
(dp522
g64
(dp523
g84
g85
ssg73
g517
sg66
(lp524
g357
asbag59
(g80
g61
NtRp525
(dp526
g64
(dp527
g91
g92
ssg73
g517
sg66
(lp528
S':'
asbag59
(g80
g61
NtRp529
(dp530
g64
(dp531
sg73
g517
sg66
(lp532
g59
(g60
g61
NtRp533
(dp534
g64
(dp535
g72
I3
ssg73
g529
sg66
(lp536
S''
asbasbasbag59
(g75
g61
NtRp537
(dp538
g64
(dp539
sg73
g433
sg66
(lp540
g59
(g80
g61
NtRp541
(dp542
g64
(dp543
g84
g85
ssg73
g537
sg66
(lp544
g378
asbag59
(g80
g61
NtRp545
(dp546
g64
(dp547
g91
g92
ssg73
g537
sg66
(lp548
S':'
asbag59
(g80
g61
NtRp549
(dp550
g64
(dp551
sg73
g537
sg66
(lp552
g59
(g60
g61
NtRp553
(dp554
g64
(dp555
g72
I3
ssg73
g549
sg66
(lp556
S''
asbasbasbag59
(g75
g61
NtRp557
(dp558
g64
(dp559
sg73
g433
sg66
(lp560
g59
(g80
g61
NtRp561
(dp562
g64
(dp563
g84
g85
ssg73
g557
sg66
(lp564
g399
asbag59
(g80
g61
NtRp565
(dp566
g64
(dp567
g91
g92
ssg73
g557
sg66
(lp568
S':'
asbag59
(g80
g61
NtRp569
(dp570
g64
(dp571
sg73
g557
sg66
(lp572
g59
(g60
g61
NtRp573
(dp574
g64
(dp575
g72
I3
ssg73
g569
sg66
(lp576
S''
asbasbasbasbasbasbasbag59
(g75
g61
NtRp577
(dp578
g64
(dp579
sg73
g236
sg66
(lp580
g59
(g80
g61
NtRp581
(dp582
g64
(dp583
g84
g85
ssg73
g577
sg66
(lp584
S'session_id_welcome'
p585
asbag59
(g80
g61
NtRp586
(dp587
g64
(dp588
g91
g92
ssg73
g577
sg66
(lp589
S':'
asbag59
(g80
g61
NtRp590
(dp591
g64
(dp592
sg73
g577
sg66
(lp593
g59
(g60
g61
NtRp594
(dp595
g64
(dp596
g72
I4
ssg73
g590
sg66
(lp597
g59
(g68
g61
NtRp598
(dp599
g64
(dp600
g72
I3
ssg73
Nsg66
(lp601
g59
(g75
g61
NtRp602
(dp603
g64
(dp604
sg73
g598
sg66
(lp605
g59
(g80
g61
NtRp606
(dp607
g64
(dp608
g84
g85
ssg73
g602
sg66
(lp609
g273
asbag59
(g80
g61
NtRp610
(dp611
g64
(dp612
g91
g92
ssg73
g602
sg66
(lp613
S':'
asbag59
(g80
g61
NtRp614
(dp615
g64
(dp616
sg73
g602
sg66
(lp617
g59
(g60
g61
NtRp618
(dp619
g64
(dp620
g72
I3
ssg73
g614
sg66
(lp621
S''
asbasbasbag59
(g75
g61
NtRp622
(dp623
g64
(dp624
sg73
g598
sg66
(lp625
g59
(g80
g61
NtRp626
(dp627
g64
(dp628
g84
g85
ssg73
g622
sg66
(lp629
g294
asbag59
(g80
g61
NtRp630
(dp631
g64
(dp632
g91
g92
ssg73
g622
sg66
(lp633
S':'
asbag59
(g80
g61
NtRp634
(dp635
g64
(dp636
sg73
g622
sg66
(lp637
g59
(g60
g61
NtRp638
(dp639
g64
(dp640
g72
I3
ssg73
g634
sg66
(lp641
S''
asbasbasbag59
(g75
g61
NtRp642
(dp643
g64
(dp644
sg73
g598
sg66
(lp645
g59
(g80
g61
NtRp646
(dp647
g64
(dp648
g84
g85
ssg73
g642
sg66
(lp649
g315
asbag59
(g80
g61
NtRp650
(dp651
g64
(dp652
g91
g92
ssg73
g642
sg66
(lp653
S':'
asbag59
(g80
g61
NtRp654
(dp655
g64
(dp656
sg73
g642
sg66
(lp657
g59
(g60
g61
NtRp658
(dp659
g64
(dp660
g72
I3
ssg73
g654
sg66
(lp661
S''
asbasbasbag59
(g75
g61
NtRp662
(dp663
g64
(dp664
sg73
g598
sg66
(lp665
g59
(g80
g61
NtRp666
(dp667
g64
(dp668
g84
g85
ssg73
g662
sg66
(lp669
g336
asbag59
(g80
g61
NtRp670
(dp671
g64
(dp672
g91
g92
ssg73
g662
sg66
(lp673
S':'
asbag59
(g80
g61
NtRp674
(dp675
g64
(dp676
sg73
g662
sg66
(lp677
g59
(g60
g61
NtRp678
(dp679
g64
(dp680
g72
I3
ssg73
g674
sg66
(lp681
S''
asbasbasbag59
(g75
g61
NtRp682
(dp683
g64
(dp684
sg73
g598
sg66
(lp685
g59
(g80
g61
NtRp686
(dp687
g64
(dp688
g84
g85
ssg73
g682
sg66
(lp689
g357
asbag59
(g80
g61
NtRp690
(dp691
g64
(dp692
g91
g92
ssg73
g682
sg66
(lp693
S':'
asbag59
(g80
g61
NtRp694
(dp695
g64
(dp696
sg73
g682
sg66
(lp697
g59
(g60
g61
NtRp698
(dp699
g64
(dp700
g72
I3
ssg73
g694
sg66
(lp701
S''
asbasbasbag59
(g75
g61
NtRp702
(dp703
g64
(dp704
sg73
g598
sg66
(lp705
g59
(g80
g61
NtRp706
(dp707
g64
(dp708
g84
g85
ssg73
g702
sg66
(lp709
g378
asbag59
(g80
g61
NtRp710
(dp711
g64
(dp712
g91
g92
ssg73
g702
sg66
(lp713
S':'
asbag59
(g80
g61
NtRp714
(dp715
g64
(dp716
sg73
g702
sg66
(lp717
g59
(g60
g61
NtRp718
(dp719
g64
(dp720
g72
I3
ssg73
g714
sg66
(lp721
S''
asbasbasbag59
(g75
g61
NtRp722
(dp723
g64
(dp724
sg73
g598
sg66
(lp725
g59
(g80
g61
NtRp726
(dp727
g64
(dp728
g84
g85
ssg73
g722
sg66
(lp729
g399
asbag59
(g80
g61
NtRp730
(dp731
g64
(dp732
g91
g92
ssg73
g722
sg66
(lp733
S':'
asbag59
(g80
g61
NtRp734
(dp735
g64
(dp736
sg73
g722
sg66
(lp737
g59
(g60
g61
NtRp738
(dp739
g64
(dp740
g72
I3
ssg73
g734
sg66
(lp741
S''
asbasbasbasbasbasbasbasbasbasbasbag59
(g75
g61
NtRp742
(dp743
g64
(dp744
sg73
g69
sg66
(lp745
g59
(g80
g61
NtRp746
(dp747
g64
(dp748
g84
g85
ssg73
g742
sg66
(lp749
S'env'
p750
asbag59
(g80
g61
NtRp751
(dp752
g64
(dp753
g91
g92
ssg73
g742
sg66
(lp754
S':'
asbag59
(g80
g61
NtRp755
(dp756
g64
(dp757
sg73
g742
sg66
(lp758
g59
(g60
g61
NtRp759
(dp760
g64
(dp761
g72
I5
ssg73
g755
sg66
(lp762
g59
(g68
g61
NtRp763
(dp764
g64
(dp765
g72
I4
ssg73
Nsg66
(lp766
g59
(g75
g61
NtRp767
(dp768
g64
(dp769
sg73
g763
sg66
(lp770
g59
(g80
g61
NtRp771
(dp772
g64
(dp773
g84
g85
ssg73
g767
sg66
(lp774
S'app_folders'
p775
asbag59
(g80
g61
NtRp776
(dp777
g64
(dp778
g91
g92
ssg73
g767
sg66
(lp779
S':'
asbag59
(g80
g61
NtRp780
(dp781
g64
(dp782
sg73
g767
sg66
(lp783
g59
(g60
g61
NtRp784
(dp785
g64
(dp786
g72
I4
ssg73
g780
sg66
(lp787
S"set(['C:\\\\Python32\\\\web2py\\\\applications\\\\Casa_de_Apuestas\\\\', 'C:\\\\Python32\\\\web2py\\\\applications\\\\welcome\\\\', 'C:\\\\Python32\\\\web2py\\\\applications\\\\admin\\\\'])"
p788
asbasbasbag59
(g75
g61
NtRp789
(dp790
g64
(dp791
sg73
g763
sg66
(lp792
g59
(g80
g61
NtRp793
(dp794
g64
(dp795
g84
g85
ssg73
g789
sg66
(lp796
S'applications_parent'
p797
asbag59
(g80
g61
NtRp798
(dp799
g64
(dp800
g91
g92
ssg73
g789
sg66
(lp801
S':'
asbag59
(g80
g61
NtRp802
(dp803
g64
(dp804
sg73
g789
sg66
(lp805
g59
(g60
g61
NtRp806
(dp807
g64
(dp808
g72
I4
ssg73
g802
sg66
(lp809
S'C:\\Python32\\web2py'
p810
asbasbasbag59
(g75
g61
NtRp811
(dp812
g64
(dp813
sg73
g763
sg66
(lp814
g59
(g80
g61
NtRp815
(dp816
g64
(dp817
g84
g85
ssg73
g811
sg66
(lp818
S'cmd_args'
p819
asbag59
(g80
g61
NtRp820
(dp821
g64
(dp822
g91
g92
ssg73
g811
sg66
(lp823
S':'
asbag59
(g80
g61
NtRp824
(dp825
g64
(dp826
sg73
g811
sg66
(lp827
g59
(g60
g61
NtRp828
(dp829
g64
(dp830
g72
I4
ssg73
g824
sg66
(lp831
g59
(g68
g61
NtRp832
(dp833
g64
(dp834
g72
I3
ssg73
Nsg66
(lp835
sbasbasbasbag59
(g75
g61
NtRp836
(dp837
g64
(dp838
sg73
g763
sg66
(lp839
g59
(g80
g61
NtRp840
(dp841
g64
(dp842
g84
g85
ssg73
g836
sg66
(lp843
S'cmd_options'
p844
asbag59
(g80
g61
NtRp845
(dp846
g64
(dp847
g91
g92
ssg73
g836
sg66
(lp848
S':'
asbag59
(g80
g61
NtRp849
(dp850
g64
(dp851
sg73
g836
sg66
(lp852
g59
(g60
g61
NtRp853
(dp854
g64
(dp855
g72
I4
ssg73
g849
sg66
(lp856
S"<Values at 0x2d68f30: {'verbose': False, 'ip': '127.0.0.1', 'shutdown_timeout': 5, 'taskbar': False, 'nocron': False, 'pid_filename': 'httpserver.pid', 'maxthreads': None, 'softcron': False, 'server_name': 'hector-asus', 'bpython': False, 'nogui': False, 'port': 8000, 'extcron': False, 'debuglevel': 30, 'test': None, 'folder': 'C:\\\\Python32\\\\web2py', 'config': '', 'import_models': False, 'winservice': '', 'shell': None, 'run': '', 'log_filename': 'httpserver.log', 'args': [''], 'ssl_ca_certificate': None, 'scheduler': None, 'profiler_filename': None, 'ssl_private_key': '', 'password': '<ask>', 'request_queue_size': 5, 'ssl_certificate': '', 'cronjob': False, 'plain': False, 'quiet': False, 'interfaces': None, 'minthreads': None, 'timeout': 10, 'numthreads': None, 'nobanner': False}>"
p857
asbasbasbag59
(g75
g61
NtRp858
(dp859
g64
(dp860
sg73
g763
sg66
(lp861
g59
(g80
g61
NtRp862
(dp863
g64
(dp864
g84
g85
ssg73
g858
sg66
(lp865
S'db_sessions'
p866
asbag59
(g80
g61
NtRp867
(dp868
g64
(dp869
g91
g92
ssg73
g858
sg66
(lp870
S':'
asbag59
(g80
g61
NtRp871
(dp872
g64
(dp873
sg73
g858
sg66
(lp874
g59
(g60
g61
NtRp875
(dp876
g64
(dp877
g72
I4
ssg73
g871
sg66
(lp878
S'set([])'
p879
asbasbasbag59
(g75
g61
NtRp880
(dp881
g64
(dp882
sg73
g763
sg66
(lp883
g59
(g80
g61
NtRp884
(dp885
g64
(dp886
g84
g85
ssg73
g880
sg66
(lp887
S'debugging'
p888
asbag59
(g80
g61
NtRp889
(dp890
g64
(dp891
g91
g92
ssg73
g880
sg66
(lp892
S':'
asbag59
(g80
g61
NtRp893
(dp894
g64
(dp895
sg73
g880
sg66
(lp896
g59
(g60
g61
NtRp897
(dp898
g64
(dp899
g72
I4
ssg73
g893
sg66
(lp900
g102
asbasbasbag59
(g75
g61
NtRp901
(dp902
g64
(dp903
sg73
g763
sg66
(lp904
g59
(g80
g61
NtRp905
(dp906
g64
(dp907
g84
g85
ssg73
g901
sg66
(lp908
S'gluon_parent'
p909
asbag59
(g80
g61
NtRp910
(dp911
g64
(dp912
g91
g92
ssg73
g901
sg66
(lp913
S':'
asbag59
(g80
g61
NtRp914
(dp915
g64
(dp916
sg73
g901
sg66
(lp917
g59
(g60
g61
NtRp918
(dp919
g64
(dp920
g72
I4
ssg73
g914
sg66
(lp921
S'C:\\Python32\\web2py'
p922
asbasbasbag59
(g75
g61
NtRp923
(dp924
g64
(dp925
sg73
g763
sg66
(lp926
g59
(g80
g61
NtRp927
(dp928
g64
(dp929
g84
g85
ssg73
g923
sg66
(lp930
S'http_accept'
p931
asbag59
(g80
g61
NtRp932
(dp933
g64
(dp934
g91
g92
ssg73
g923
sg66
(lp935
S':'
asbag59
(g80
g61
NtRp936
(dp937
g64
(dp938
sg73
g923
sg66
(lp939
g59
(g60
g61
NtRp940
(dp941
g64
(dp942
g72
I4
ssg73
g936
sg66
(lp943
S'text/html,application/xhtml+xml,application/xml;q=0.9,*/*;q=0.8'
p944
asbasbasbag59
(g75
g61
NtRp945
(dp946
g64
(dp947
sg73
g763
sg66
(lp948
g59
(g80
g61
NtRp949
(dp950
g64
(dp951
g84
g85
ssg73
g945
sg66
(lp952
S'http_accept_charset'
p953
asbag59
(g80
g61
NtRp954
(dp955
g64
(dp956
g91
g92
ssg73
g945
sg66
(lp957
S':'
asbag59
(g80
g61
NtRp958
(dp959
g64
(dp960
sg73
g945
sg66
(lp961
g59
(g60
g61
NtRp962
(dp963
g64
(dp964
g72
I4
ssg73
g958
sg66
(lp965
S'ISO-8859-1,utf-8;q=0.7,*;q=0.3'
p966
asbasbasbag59
(g75
g61
NtRp967
(dp968
g64
(dp969
sg73
g763
sg66
(lp970
g59
(g80
g61
NtRp971
(dp972
g64
(dp973
g84
g85
ssg73
g967
sg66
(lp974
S'http_accept_encoding'
p975
asbag59
(g80
g61
NtRp976
(dp977
g64
(dp978
g91
g92
ssg73
g967
sg66
(lp979
S':'
asbag59
(g80
g61
NtRp980
(dp981
g64
(dp982
sg73
g967
sg66
(lp983
g59
(g60
g61
NtRp984
(dp985
g64
(dp986
g72
I4
ssg73
g980
sg66
(lp987
S'gzip,deflate,sdch'
p988
asbasbasbag59
(g75
g61
NtRp989
(dp990
g64
(dp991
sg73
g763
sg66
(lp992
g59
(g80
g61
NtRp993
(dp994
g64
(dp995
g84
g85
ssg73
g989
sg66
(lp996
S'http_accept_language'
p997
asbag59
(g80
g61
NtRp998
(dp999
g64
(dp1000
g91
g92
ssg73
g989
sg66
(lp1001
S':'
asbag59
(g80
g61
NtRp1002
(dp1003
g64
(dp1004
sg73
g989
sg66
(lp1005
g59
(g60
g61
NtRp1006
(dp1007
g64
(dp1008
g72
I4
ssg73
g1002
sg66
(lp1009
S'en-US,en;q=0.8'
p1010
asbasbasbag59
(g75
g61
NtRp1011
(dp1012
g64
(dp1013
sg73
g763
sg66
(lp1014
g59
(g80
g61
NtRp1015
(dp1016
g64
(dp1017
g84
g85
ssg73
g1011
sg66
(lp1018
S'http_cache_control'
p1019
asbag59
(g80
g61
NtRp1020
(dp1021
g64
(dp1022
g91
g92
ssg73
g1011
sg66
(lp1023
S':'
asbag59
(g80
g61
NtRp1024
(dp1025
g64
(dp1026
sg73
g1011
sg66
(lp1027
g59
(g60
g61
NtRp1028
(dp1029
g64
(dp1030
g72
I4
ssg73
g1024
sg66
(lp1031
S'max-age=0'
p1032
asbasbasbag59
(g75
g61
NtRp1033
(dp1034
g64
(dp1035
sg73
g763
sg66
(lp1036
g59
(g80
g61
NtRp1037
(dp1038
g64
(dp1039
g84
g85
ssg73
g1033
sg66
(lp1040
S'http_connection'
p1041
asbag59
(g80
g61
NtRp1042
(dp1043
g64
(dp1044
g91
g92
ssg73
g1033
sg66
(lp1045
S':'
asbag59
(g80
g61
NtRp1046
(dp1047
g64
(dp1048
sg73
g1033
sg66
(lp1049
g59
(g60
g61
NtRp1050
(dp1051
g64
(dp1052
g72
I4
ssg73
g1046
sg66
(lp1053
S'keep-alive'
p1054
asbasbasbag59
(g75
g61
NtRp1055
(dp1056
g64
(dp1057
sg73
g763
sg66
(lp1058
g59
(g80
g61
NtRp1059
(dp1060
g64
(dp1061
g84
g85
ssg73
g1055
sg66
(lp1062
S'http_cookie'
p1063
asbag59
(g80
g61
NtRp1064
(dp1065
g64
(dp1066
g91
g92
ssg73
g1055
sg66
(lp1067
S':'
asbag59
(g80
g61
NtRp1068
(dp1069
g64
(dp1070
sg73
g1055
sg66
(lp1071
g59
(g60
g61
NtRp1072
(dp1073
g64
(dp1074
g72
I4
ssg73
g1068
sg66
(lp1075
S'session_id_welcome=127.0.0.1-773dac17-5739-4b50-9e8b-7b34e2f8e095; session_id_casa_de_apuestas=127.0.0.1-db15a7e0-d383-4281-870c-8916a64875df; session_id_admin=127.0.0.1-4e5ab1d0-6a91-4fc1-98c9-41f90c585d5c'
p1076
asbasbasbag59
(g75
g61
NtRp1077
(dp1078
g64
(dp1079
sg73
g763
sg66
(lp1080
g59
(g80
g61
NtRp1081
(dp1082
g64
(dp1083
g84
g85
ssg73
g1077
sg66
(lp1084
S'http_host'
p1085
asbag59
(g80
g61
NtRp1086
(dp1087
g64
(dp1088
g91
g92
ssg73
g1077
sg66
(lp1089
S':'
asbag59
(g80
g61
NtRp1090
(dp1091
g64
(dp1092
sg73
g1077
sg66
(lp1093
g59
(g60
g61
NtRp1094
(dp1095
g64
(dp1096
g72
I4
ssg73
g1090
sg66
(lp1097
S'127.0.0.1:8000'
p1098
asbasbasbag59
(g75
g61
NtRp1099
(dp1100
g64
(dp1101
sg73
g763
sg66
(lp1102
g59
(g80
g61
NtRp1103
(dp1104
g64
(dp1105
g84
g85
ssg73
g1099
sg66
(lp1106
S'http_user_agent'
p1107
asbag59
(g80
g61
NtRp1108
(dp1109
g64
(dp1110
g91
g92
ssg73
g1099
sg66
(lp1111
S':'
asbag59
(g80
g61
NtRp1112
(dp1113
g64
(dp1114
sg73
g1099
sg66
(lp1115
g59
(g60
g61
NtRp1116
(dp1117
g64
(dp1118
g72
I4
ssg73
g1112
sg66
(lp1119
S'Mozilla/5.0 (Windows NT 6.1; WOW64) AppleWebKit/535.2 (KHTML, like Gecko) Chrome/15.0.874.106 Safari/535.2'
p1120
asbasbasbag59
(g75
g61
NtRp1121
(dp1122
g64
(dp1123
sg73
g763
sg66
(lp1124
g59
(g80
g61
NtRp1125
(dp1126
g64
(dp1127
g84
g85
ssg73
g1121
sg66
(lp1128
S'is_jython'
p1129
asbag59
(g80
g61
NtRp1130
(dp1131
g64
(dp1132
g91
g92
ssg73
g1121
sg66
(lp1133
S':'
asbag59
(g80
g61
NtRp1134
(dp1135
g64
(dp1136
sg73
g1121
sg66
(lp1137
g59
(g60
g61
NtRp1138
(dp1139
g64
(dp1140
g72
I4
ssg73
g1134
sg66
(lp1141
g102
asbasbasbag59
(g75
g61
NtRp1142
(dp1143
g64
(dp1144
sg73
g763
sg66
(lp1145
g59
(g80
g61
NtRp1146
(dp1147
g64
(dp1148
g84
g85
ssg73
g1142
sg66
(lp1149
S'path_info'
p1150
asbag59
(g80
g61
NtRp1151
(dp1152
g64
(dp1153
g91
g92
ssg73
g1142
sg66
(lp1154
S':'
asbag59
(g80
g61
NtRp1155
(dp1156
g64
(dp1157
sg73
g1142
sg66
(lp1158
g59
(g60
g61
NtRp1159
(dp1160
g64
(dp1161
g72
I4
ssg73
g1155
sg66
(lp1162
S'/Casa_de_Apuestas/default/prueba'
p1163
asbasbasbag59
(g75
g61
NtRp1164
(dp1165
g64
(dp1166
sg73
g763
sg66
(lp1167
g59
(g80
g61
NtRp1168
(dp1169
g64
(dp1170
g84
g85
ssg73
g1164
sg66
(lp1171
S'query_string'
p1172
asbag59
(g80
g61
NtRp1173
(dp1174
g64
(dp1175
g91
g92
ssg73
g1164
sg66
(lp1176
S':'
asbag59
(g80
g61
NtRp1177
(dp1178
g64
(dp1179
sg73
g1164
sg66
(lp1180
g59
(g60
g61
NtRp1181
(dp1182
g64
(dp1183
g72
I4
ssg73
g1177
sg66
(lp1184
S''
asbasbasbag59
(g75
g61
NtRp1185
(dp1186
g64
(dp1187
sg73
g763
sg66
(lp1188
g59
(g80
g61
NtRp1189
(dp1190
g64
(dp1191
g84
g85
ssg73
g1185
sg66
(lp1192
S'remote_addr'
p1193
asbag59
(g80
g61
NtRp1194
(dp1195
g64
(dp1196
g91
g92
ssg73
g1185
sg66
(lp1197
S':'
asbag59
(g80
g61
NtRp1198
(dp1199
g64
(dp1200
sg73
g1185
sg66
(lp1201
g59
(g60
g61
NtRp1202
(dp1203
g64
(dp1204
g72
I4
ssg73
g1198
sg66
(lp1205
g192
asbasbasbag59
(g75
g61
NtRp1206
(dp1207
g64
(dp1208
sg73
g763
sg66
(lp1209
g59
(g80
g61
NtRp1210
(dp1211
g64
(dp1212
g84
g85
ssg73
g1206
sg66
(lp1213
S'remote_port'
p1214
asbag59
(g80
g61
NtRp1215
(dp1216
g64
(dp1217
g91
g92
ssg73
g1206
sg66
(lp1218
S':'
asbag59
(g80
g61
NtRp1219
(dp1220
g64
(dp1221
sg73
g1206
sg66
(lp1222
g59
(g60
g61
NtRp1223
(dp1224
g64
(dp1225
g72
I4
ssg73
g1219
sg66
(lp1226
S'49528'
p1227
asbasbasbag59
(g75
g61
NtRp1228
(dp1229
g64
(dp1230
sg73
g763
sg66
(lp1231
g59
(g80
g61
NtRp1232
(dp1233
g64
(dp1234
g84
g85
ssg73
g1228
sg66
(lp1235
S'request_method'
p1236
asbag59
(g80
g61
NtRp1237
(dp1238
g64
(dp1239
g91
g92
ssg73
g1228
sg66
(lp1240
S':'
asbag59
(g80
g61
NtRp1241
(dp1242
g64
(dp1243
sg73
g1228
sg66
(lp1244
g59
(g60
g61
NtRp1245
(dp1246
g64
(dp1247
g72
I4
ssg73
g1241
sg66
(lp1248
S'GET'
p1249
asbasbasbag59
(g75
g61
NtRp1250
(dp1251
g64
(dp1252
sg73
g763
sg66
(lp1253
g59
(g80
g61
NtRp1254
(dp1255
g64
(dp1256
g84
g85
ssg73
g1250
sg66
(lp1257
S'script_name'
p1258
asbag59
(g80
g61
NtRp1259
(dp1260
g64
(dp1261
g91
g92
ssg73
g1250
sg66
(lp1262
S':'
asbag59
(g80
g61
NtRp1263
(dp1264
g64
(dp1265
sg73
g1250
sg66
(lp1266
g59
(g60
g61
NtRp1267
(dp1268
g64
(dp1269
g72
I4
ssg73
g1263
sg66
(lp1270
S''
asbasbasbag59
(g75
g61
NtRp1271
(dp1272
g64
(dp1273
sg73
g763
sg66
(lp1274
g59
(g80
g61
NtRp1275
(dp1276
g64
(dp1277
g84
g85
ssg73
g1271
sg66
(lp1278
S'server_name'
p1279
asbag59
(g80
g61
NtRp1280
(dp1281
g64
(dp1282
g91
g92
ssg73
g1271
sg66
(lp1283
S':'
asbag59
(g80
g61
NtRp1284
(dp1285
g64
(dp1286
sg73
g1271
sg66
(lp1287
g59
(g60
g61
NtRp1288
(dp1289
g64
(dp1290
g72
I4
ssg73
g1284
sg66
(lp1291
S'hector-asus'
p1292
asbasbasbag59
(g75
g61
NtRp1293
(dp1294
g64
(dp1295
sg73
g763
sg66
(lp1296
g59
(g80
g61
NtRp1297
(dp1298
g64
(dp1299
g84
g85
ssg73
g1293
sg66
(lp1300
S'server_port'
p1301
asbag59
(g80
g61
NtRp1302
(dp1303
g64
(dp1304
g91
g92
ssg73
g1293
sg66
(lp1305
S':'
asbag59
(g80
g61
NtRp1306
(dp1307
g64
(dp1308
sg73
g1293
sg66
(lp1309
g59
(g60
g61
NtRp1310
(dp1311
g64
(dp1312
g72
I4
ssg73
g1306
sg66
(lp1313
S'8000'
p1314
asbasbasbag59
(g75
g61
NtRp1315
(dp1316
g64
(dp1317
sg73
g763
sg66
(lp1318
g59
(g80
g61
NtRp1319
(dp1320
g64
(dp1321
g84
g85
ssg73
g1315
sg66
(lp1322
S'server_protocol'
p1323
asbag59
(g80
g61
NtRp1324
(dp1325
g64
(dp1326
g91
g92
ssg73
g1315
sg66
(lp1327
S':'
asbag59
(g80
g61
NtRp1328
(dp1329
g64
(dp1330
sg73
g1315
sg66
(lp1331
g59
(g60
g61
NtRp1332
(dp1333
g64
(dp1334
g72
I4
ssg73
g1328
sg66
(lp1335
S'HTTP/1.1'
p1336
asbasbasbag59
(g75
g61
NtRp1337
(dp1338
g64
(dp1339
sg73
g763
sg66
(lp1340
g59
(g80
g61
NtRp1341
(dp1342
g64
(dp1343
g84
g85
ssg73
g1337
sg66
(lp1344
S'server_software'
p1345
asbag59
(g80
g61
NtRp1346
(dp1347
g64
(dp1348
g91
g92
ssg73
g1337
sg66
(lp1349
S':'
asbag59
(g80
g61
NtRp1350
(dp1351
g64
(dp1352
sg73
g1337
sg66
(lp1353
g59
(g60
g61
NtRp1354
(dp1355
g64
(dp1356
g72
I4
ssg73
g1350
sg66
(lp1357
S'Rocket 1.2.4'
p1358
asbasbasbag59
(g75
g61
NtRp1359
(dp1360
g64
(dp1361
sg73
g763
sg66
(lp1362
g59
(g80
g61
NtRp1363
(dp1364
g64
(dp1365
g84
g85
ssg73
g1359
sg66
(lp1366
S'web2py_crontype'
p1367
asbag59
(g80
g61
NtRp1368
(dp1369
g64
(dp1370
g91
g92
ssg73
g1359
sg66
(lp1371
S':'
asbag59
(g80
g61
NtRp1372
(dp1373
g64
(dp1374
sg73
g1359
sg66
(lp1375
g59
(g60
g61
NtRp1376
(dp1377
g64
(dp1378
g72
I4
ssg73
g1372
sg66
(lp1379
S'hard'
p1380
asbasbasbag59
(g75
g61
NtRp1381
(dp1382
g64
(dp1383
sg73
g763
sg66
(lp1384
g59
(g80
g61
NtRp1385
(dp1386
g64
(dp1387
g84
g85
ssg73
g1381
sg66
(lp1388
S'web2py_path'
p1389
asbag59
(g80
g61
NtRp1390
(dp1391
g64
(dp1392
g91
g92
ssg73
g1381
sg66
(lp1393
S':'
asbag59
(g80
g61
NtRp1394
(dp1395
g64
(dp1396
sg73
g1381
sg66
(lp1397
g59
(g60
g61
NtRp1398
(dp1399
g64
(dp1400
g72
I4
ssg73
g1394
sg66
(lp1401
g810
asbasbasbag59
(g75
g61
NtRp1402
(dp1403
g64
(dp1404
sg73
g763
sg66
(lp1405
g59
(g80
g61
NtRp1406
(dp1407
g64
(dp1408
g84
g85
ssg73
g1402
sg66
(lp1409
S'web2py_version'
p1410
asbag59
(g80
g61
NtRp1411
(dp1412
g64
(dp1413
g91
g92
ssg73
g1402
sg66
(lp1414
S':'
asbag59
(g80
g61
NtRp1415
(dp1416
g64
(dp1417
sg73
g1402
sg66
(lp1418
g59
(g60
g61
NtRp1419
(dp1420
g64
(dp1421
g72
I4
ssg73
g1415
sg66
(lp1422
g59
(g68
g61
NtRp1423
(dp1424
g64
(dp1425
g72
I3
ssg73
Nsg66
(lp1426
g59
(g75
g61
NtRp1427
(dp1428
g64
(dp1429
sg73
g1423
sg66
(lp1430
g59
(g80
g61
NtRp1431
(dp1432
g64
(dp1433
sg73
g1427
sg66
(lp1434
g59
(g60
g61
NtRp1435
(dp1436
g64
(dp1437
g72
I3
ssg73
g1431
sg66
(lp1438
S'1'
asbasbasbag59
(g75
g61
NtRp1439
(dp1440
g64
(dp1441
sg73
g1423
sg66
(lp1442
g59
(g80
g61
NtRp1443
(dp1444
g64
(dp1445
sg73
g1439
sg66
(lp1446
g59
(g60
g61
NtRp1447
(dp1448
g64
(dp1449
g72
I3
ssg73
g1443
sg66
(lp1450
S'99'
p1451
asbasbasbag59
(g75
g61
NtRp1452
(dp1453
g64
(dp1454
sg73
g1423
sg66
(lp1455
g59
(g80
g61
NtRp1456
(dp1457
g64
(dp1458
sg73
g1452
sg66
(lp1459
g59
(g60
g61
NtRp1460
(dp1461
g64
(dp1462
g72
I3
ssg73
g1456
sg66
(lp1463
S'2'
asbasbasbag59
(g75
g61
NtRp1464
(dp1465
g64
(dp1466
sg73
g1423
sg66
(lp1467
g59
(g80
g61
NtRp1468
(dp1469
g64
(dp1470
sg73
g1464
sg66
(lp1471
g59
(g60
g61
NtRp1472
(dp1473
g64
(dp1474
g72
I3
ssg73
g1468
sg66
(lp1475
S'datetime.datetime(2011, 9, 26, 6, 55, 33)'
p1476
asbasbasbag59
(g75
g61
NtRp1477
(dp1478
g64
(dp1479
sg73
g1423
sg66
(lp1480
g59
(g80
g61
NtRp1481
(dp1482
g64
(dp1483
sg73
g1477
sg66
(lp1484
g59
(g60
g61
NtRp1485
(dp1486
g64
(dp1487
g72
I3
ssg73
g1481
sg66
(lp1488
S'stable'
p1489
asbasbasbasbasbasbasbag59
(g75
g61
NtRp1490
(dp1491
g64
(dp1492
sg73
g763
sg66
(lp1493
g59
(g80
g61
NtRp1494
(dp1495
g64
(dp1496
g84
g85
ssg73
g1490
sg66
(lp1497
S'wsgi_errors'
p1498
asbag59
(g80
g61
NtRp1499
(dp1500
g64
(dp1501
g91
g92
ssg73
g1490
sg66
(lp1502
S':'
asbag59
(g80
g61
NtRp1503
(dp1504
g64
(dp1505
sg73
g1490
sg66
(lp1506
g59
(g60
g61
NtRp1507
(dp1508
g64
(dp1509
g72
I4
ssg73
g1503
sg66
(lp1510
S"<open file '<stderr>', mode 'w' at 0x01FF00B0>"
p1511
asbasbasbag59
(g75
g61
NtRp1512
(dp1513
g64
(dp1514
sg73
g763
sg66
(lp1515
g59
(g80
g61
NtRp1516
(dp1517
g64
(dp1518
g84
g85
ssg73
g1512
sg66
(lp1519
S'wsgi_file_wrapper'
p1520
asbag59
(g80
g61
NtRp1521
(dp1522
g64
(dp1523
g91
g92
ssg73
g1512
sg66
(lp1524
S':'
asbag59
(g80
g61
NtRp1525
(dp1526
g64
(dp1527
sg73
g1512
sg66
(lp1528
g59
(g60
g61
NtRp1529
(dp1530
g64
(dp1531
g72
I4
ssg73
g1525
sg66
(lp1532
S'<class wsgiref.util.FileWrapper at 0x02B00D80>'
p1533
asbasbasbag59
(g75
g61
NtRp1534
(dp1535
g64
(dp1536
sg73
g763
sg66
(lp1537
g59
(g80
g61
NtRp1538
(dp1539
g64
(dp1540
g84
g85
ssg73
g1534
sg66
(lp1541
S'wsgi_input'
p1542
asbag59
(g80
g61
NtRp1543
(dp1544
g64
(dp1545
g91
g92
ssg73
g1534
sg66
(lp1546
S':'
asbag59
(g80
g61
NtRp1547
(dp1548
g64
(dp1549
sg73
g1534
sg66
(lp1550
g59
(g60
g61
NtRp1551
(dp1552
g64
(dp1553
g72
I4
ssg73
g1547
sg66
(lp1554
S'<socket._fileobject object at 0x068BEDF0>'
p1555
asbasbasbag59
(g75
g61
NtRp1556
(dp1557
g64
(dp1558
sg73
g763
sg66
(lp1559
g59
(g80
g61
NtRp1560
(dp1561
g64
(dp1562
g84
g85
ssg73
g1556
sg66
(lp1563
S'wsgi_multiprocess'
p1564
asbag59
(g80
g61
NtRp1565
(dp1566
g64
(dp1567
g91
g92
ssg73
g1556
sg66
(lp1568
S':'
asbag59
(g80
g61
NtRp1569
(dp1570
g64
(dp1571
sg73
g1556
sg66
(lp1572
g59
(g60
g61
NtRp1573
(dp1574
g64
(dp1575
g72
I4
ssg73
g1569
sg66
(lp1576
g102
asbasbasbag59
(g75
g61
NtRp1577
(dp1578
g64
(dp1579
sg73
g763
sg66
(lp1580
g59
(g80
g61
NtRp1581
(dp1582
g64
(dp1583
g84
g85
ssg73
g1577
sg66
(lp1584
S'wsgi_multithread'
p1585
asbag59
(g80
g61
NtRp1586
(dp1587
g64
(dp1588
g91
g92
ssg73
g1577
sg66
(lp1589
S':'
asbag59
(g80
g61
NtRp1590
(dp1591
g64
(dp1592
sg73
g1577
sg66
(lp1593
g59
(g60
g61
NtRp1594
(dp1595
g64
(dp1596
g72
I4
ssg73
g1590
sg66
(lp1597
S'True'
p1598
asbasbasbag59
(g75
g61
NtRp1599
(dp1600
g64
(dp1601
sg73
g763
sg66
(lp1602
g59
(g80
g61
NtRp1603
(dp1604
g64
(dp1605
g84
g85
ssg73
g1599
sg66
(lp1606
S'wsgi_run_once'
p1607
asbag59
(g80
g61
NtRp1608
(dp1609
g64
(dp1610
g91
g92
ssg73
g1599
sg66
(lp1611
S':'
asbag59
(g80
g61
NtRp1612
(dp1613
g64
(dp1614
sg73
g1599
sg66
(lp1615
g59
(g60
g61
NtRp1616
(dp1617
g64
(dp1618
g72
I4
ssg73
g1612
sg66
(lp1619
g102
asbasbasbag59
(g75
g61
NtRp1620
(dp1621
g64
(dp1622
sg73
g763
sg66
(lp1623
g59
(g80
g61
NtRp1624
(dp1625
g64
(dp1626
g84
g85
ssg73
g1620
sg66
(lp1627
S'wsgi_url_scheme'
p1628
asbag59
(g80
g61
NtRp1629
(dp1630
g64
(dp1631
g91
g92
ssg73
g1620
sg66
(lp1632
S':'
asbag59
(g80
g61
NtRp1633
(dp1634
g64
(dp1635
sg73
g1620
sg66
(lp1636
g59
(g60
g61
NtRp1637
(dp1638
g64
(dp1639
g72
I4
ssg73
g1633
sg66
(lp1640
S'http'
p1641
asbasbasbag59
(g75
g61
NtRp1642
(dp1643
g64
(dp1644
sg73
g763
sg66
(lp1645
g59
(g80
g61
NtRp1646
(dp1647
g64
(dp1648
g84
g85
ssg73
g1642
sg66
(lp1649
S'wsgi_version'
p1650
asbag59
(g80
g61
NtRp1651
(dp1652
g64
(dp1653
g91
g92
ssg73
g1642
sg66
(lp1654
S':'
asbag59
(g80
g61
NtRp1655
(dp1656
g64
(dp1657
sg73
g1642
sg66
(lp1658
g59
(g60
g61
NtRp1659
(dp1660
g64
(dp1661
g72
I4
ssg73
g1655
sg66
(lp1662
g59
(g68
g61
NtRp1663
(dp1664
g64
(dp1665
g72
I3
ssg73
Nsg66
(lp1666
g59
(g75
g61
NtRp1667
(dp1668
g64
(dp1669
sg73
g1663
sg66
(lp1670
g59
(g80
g61
NtRp1671
(dp1672
g64
(dp1673
sg73
g1667
sg66
(lp1674
g59
(g60
g61
NtRp1675
(dp1676
g64
(dp1677
g72
I3
ssg73
g1671
sg66
(lp1678
S'1'
asbasbasbag59
(g75
g61
NtRp1679
(dp1680
g64
(dp1681
sg73
g1663
sg66
(lp1682
g59
(g80
g61
NtRp1683
(dp1684
g64
(dp1685
sg73
g1679
sg66
(lp1686
g59
(g60
g61
NtRp1687
(dp1688
g64
(dp1689
g72
I3
ssg73
g1683
sg66
(lp1690
S'0'
asbasbasbasbasbasbasbasbasbasbasbag59
(g75
g61
NtRp1691
(dp1692
g64
(dp1693
sg73
g69
sg66
(lp1694
g59
(g80
g61
NtRp1695
(dp1696
g64
(dp1697
g84
g85
ssg73
g1691
sg66
(lp1698
S'extension'
p1699
asbag59
(g80
g61
NtRp1700
(dp1701
g64
(dp1702
g91
g92
ssg73
g1691
sg66
(lp1703
S':'
asbag59
(g80
g61
NtRp1704
(dp1705
g64
(dp1706
sg73
g1691
sg66
(lp1707
g59
(g60
g61
NtRp1708
(dp1709
g64
(dp1710
g72
I5
ssg73
g1704
sg66
(lp1711
S'html'
p1712
asbasbasbag59
(g75
g61
NtRp1713
(dp1714
g64
(dp1715
sg73
g69
sg66
(lp1716
g59
(g80
g61
NtRp1717
(dp1718
g64
(dp1719
g84
g85
ssg73
g1713
sg66
(lp1720
S'folder'
p1721
asbag59
(g80
g61
NtRp1722
(dp1723
g64
(dp1724
g91
g92
ssg73
g1713
sg66
(lp1725
S':'
asbag59
(g80
g61
NtRp1726
(dp1727
g64
(dp1728
sg73
g1713
sg66
(lp1729
g59
(g60
g61
NtRp1730
(dp1731
g64
(dp1732
g72
I5
ssg73
g1726
sg66
(lp1733
S'C:\\Python32\\web2py\\applications\\Casa_de_Apuestas\\'
p1734
asbasbasbag59
(g75
g61
NtRp1735
(dp1736
g64
(dp1737
sg73
g69
sg66
(lp1738
g59
(g80
g61
NtRp1739
(dp1740
g64
(dp1741
g84
g85
ssg73
g1735
sg66
(lp1742
S'function'
p1743
asbag59
(g80
g61
NtRp1744
(dp1745
g64
(dp1746
g91
g92
ssg73
g1735
sg66
(lp1747
S':'
asbag59
(g80
g61
NtRp1748
(dp1749
g64
(dp1750
sg73
g1735
sg66
(lp1751
g59
(g60
g61
NtRp1752
(dp1753
g64
(dp1754
g72
I5
ssg73
g1748
sg66
(lp1755
S'prueba'
p1756
asbasbasbag59
(g75
g61
NtRp1757
(dp1758
g64
(dp1759
sg73
g69
sg66
(lp1760
g59
(g80
g61
NtRp1761
(dp1762
g64
(dp1763
g84
g85
ssg73
g1757
sg66
(lp1764
S'get_vars'
p1765
asbag59
(g80
g61
NtRp1766
(dp1767
g64
(dp1768
g91
g92
ssg73
g1757
sg66
(lp1769
S':'
asbag59
(g80
g61
NtRp1770
(dp1771
g64
(dp1772
sg73
g1757
sg66
(lp1773
g59
(g60
g61
NtRp1774
(dp1775
g64
(dp1776
g72
I5
ssg73
g1770
sg66
(lp1777
g59
(g68
g61
NtRp1778
(dp1779
g64
(dp1780
g72
I4
ssg73
Nsg66
(lp1781
sbasbasbasbag59
(g75
g61
NtRp1782
(dp1783
g64
(dp1784
sg73
g69
sg66
(lp1785
g59
(g80
g61
NtRp1786
(dp1787
g64
(dp1788
g84
g85
ssg73
g1782
sg66
(lp1789
S'global_settings'
p1790
asbag59
(g80
g61
NtRp1791
(dp1792
g64
(dp1793
g91
g92
ssg73
g1782
sg66
(lp1794
S':'
asbag59
(g80
g61
NtRp1795
(dp1796
g64
(dp1797
sg73
g1782
sg66
(lp1798
g59
(g60
g61
NtRp1799
(dp1800
g64
(dp1801
g72
I5
ssg73
g1795
sg66
(lp1802
g59
(g68
g61
NtRp1803
(dp1804
g64
(dp1805
g72
I4
ssg73
Nsg66
(lp1806
g59
(g75
g61
NtRp1807
(dp1808
g64
(dp1809
sg73
g1803
sg66
(lp1810
g59
(g80
g61
NtRp1811
(dp1812
g64
(dp1813
g84
g85
ssg73
g1807
sg66
(lp1814
g775
asbag59
(g80
g61
NtRp1815
(dp1816
g64
(dp1817
g91
g92
ssg73
g1807
sg66
(lp1818
S':'
asbag59
(g80
g61
NtRp1819
(dp1820
g64
(dp1821
sg73
g1807
sg66
(lp1822
g59
(g60
g61
NtRp1823
(dp1824
g64
(dp1825
g72
I4
ssg73
g1819
sg66
(lp1826
S"set(['C:\\\\Python32\\\\web2py\\\\applications\\\\Casa_de_Apuestas\\\\', 'C:\\\\Python32\\\\web2py\\\\applications\\\\welcome\\\\', 'C:\\\\Python32\\\\web2py\\\\applications\\\\admin\\\\'])"
p1827
asbasbasbag59
(g75
g61
NtRp1828
(dp1829
g64
(dp1830
sg73
g1803
sg66
(lp1831
g59
(g80
g61
NtRp1832
(dp1833
g64
(dp1834
g84
g85
ssg73
g1828
sg66
(lp1835
g797
asbag59
(g80
g61
NtRp1836
(dp1837
g64
(dp1838
g91
g92
ssg73
g1828
sg66
(lp1839
S':'
asbag59
(g80
g61
NtRp1840
(dp1841
g64
(dp1842
sg73
g1828
sg66
(lp1843
g59
(g60
g61
NtRp1844
(dp1845
g64
(dp1846
g72
I4
ssg73
g1840
sg66
(lp1847
g810
asbasbasbag59
(g75
g61
NtRp1848
(dp1849
g64
(dp1850
sg73
g1803
sg66
(lp1851
g59
(g80
g61
NtRp1852
(dp1853
g64
(dp1854
g84
g85
ssg73
g1848
sg66
(lp1855
g819
asbag59
(g80
g61
NtRp1856
(dp1857
g64
(dp1858
g91
g92
ssg73
g1848
sg66
(lp1859
S':'
asbag59
(g80
g61
NtRp1860
(dp1861
g64
(dp1862
sg73
g1848
sg66
(lp1863
g59
(g60
g61
NtRp1864
(dp1865
g64
(dp1866
g72
I4
ssg73
g1860
sg66
(lp1867
g59
(g68
g61
NtRp1868
(dp1869
g64
(dp1870
g72
I3
ssg73
Nsg66
(lp1871
sbasbasbasbag59
(g75
g61
NtRp1872
(dp1873
g64
(dp1874
sg73
g1803
sg66
(lp1875
g59
(g80
g61
NtRp1876
(dp1877
g64
(dp1878
g84
g85
ssg73
g1872
sg66
(lp1879
g844
asbag59
(g80
g61
NtRp1880
(dp1881
g64
(dp1882
g91
g92
ssg73
g1872
sg66
(lp1883
S':'
asbag59
(g80
g61
NtRp1884
(dp1885
g64
(dp1886
sg73
g1872
sg66
(lp1887
g59
(g60
g61
NtRp1888
(dp1889
g64
(dp1890
g72
I4
ssg73
g1884
sg66
(lp1891
S"<Values at 0x2d68f30: {'verbose': False, 'ip': '127.0.0.1', 'shutdown_timeout': 5, 'taskbar': False, 'nocron': False, 'pid_filename': 'httpserver.pid', 'maxthreads': None, 'softcron': False, 'server_name': 'hector-asus', 'bpython': False, 'nogui': False, 'port': 8000, 'extcron': False, 'debuglevel': 30, 'test': None, 'folder': 'C:\\\\Python32\\\\web2py', 'config': '', 'import_models': False, 'winservice': '', 'shell': None, 'run': '', 'log_filename': 'httpserver.log', 'args': [''], 'ssl_ca_certificate': None, 'scheduler': None, 'profiler_filename': None, 'ssl_private_key': '', 'password': '<ask>', 'request_queue_size': 5, 'ssl_certificate': '', 'cronjob': False, 'plain': False, 'quiet': False, 'interfaces': None, 'minthreads': None, 'timeout': 10, 'numthreads': None, 'nobanner': False}>"
p1892
asbasbasbag59
(g75
g61
NtRp1893
(dp1894
g64
(dp1895
sg73
g1803
sg66
(lp1896
g59
(g80
g61
NtRp1897
(dp1898
g64
(dp1899
g84
g85
ssg73
g1893
sg66
(lp1900
g866
asbag59
(g80
g61
NtRp1901
(dp1902
g64
(dp1903
g91
g92
ssg73
g1893
sg66
(lp1904
S':'
asbag59
(g80
g61
NtRp1905
(dp1906
g64
(dp1907
sg73
g1893
sg66
(lp1908
g59
(g60
g61
NtRp1909
(dp1910
g64
(dp1911
g72
I4
ssg73
g1905
sg66
(lp1912
S'set([])'
p1913
asbasbasbag59
(g75
g61
NtRp1914
(dp1915
g64
(dp1916
sg73
g1803
sg66
(lp1917
g59
(g80
g61
NtRp1918
(dp1919
g64
(dp1920
g84
g85
ssg73
g1914
sg66
(lp1921
g888
asbag59
(g80
g61
NtRp1922
(dp1923
g64
(dp1924
g91
g92
ssg73
g1914
sg66
(lp1925
S':'
asbag59
(g80
g61
NtRp1926
(dp1927
g64
(dp1928
sg73
g1914
sg66
(lp1929
g59
(g60
g61
NtRp1930
(dp1931
g64
(dp1932
g72
I4
ssg73
g1926
sg66
(lp1933
g102
asbasbasbag59
(g75
g61
NtRp1934
(dp1935
g64
(dp1936
sg73
g1803
sg66
(lp1937
g59
(g80
g61
NtRp1938
(dp1939
g64
(dp1940
g84
g85
ssg73
g1934
sg66
(lp1941
g909
asbag59
(g80
g61
NtRp1942
(dp1943
g64
(dp1944
g91
g92
ssg73
g1934
sg66
(lp1945
S':'
asbag59
(g80
g61
NtRp1946
(dp1947
g64
(dp1948
sg73
g1934
sg66
(lp1949
g59
(g60
g61
NtRp1950
(dp1951
g64
(dp1952
g72
I4
ssg73
g1946
sg66
(lp1953
g922
asbasbasbag59
(g75
g61
NtRp1954
(dp1955
g64
(dp1956
sg73
g1803
sg66
(lp1957
g59
(g80
g61
NtRp1958
(dp1959
g64
(dp1960
g84
g85
ssg73
g1954
sg66
(lp1961
g1129
asbag59
(g80
g61
NtRp1962
(dp1963
g64
(dp1964
g91
g92
ssg73
g1954
sg66
(lp1965
S':'
asbag59
(g80
g61
NtRp1966
(dp1967
g64
(dp1968
sg73
g1954
sg66
(lp1969
g59
(g60
g61
NtRp1970
(dp1971
g64
(dp1972
g72
I4
ssg73
g1966
sg66
(lp1973
g102
asbasbasbag59
(g75
g61
NtRp1974
(dp1975
g64
(dp1976
sg73
g1803
sg66
(lp1977
g59
(g80
g61
NtRp1978
(dp1979
g64
(dp1980
g84
g85
ssg73
g1974
sg66
(lp1981
g1367
asbag59
(g80
g61
NtRp1982
(dp1983
g64
(dp1984
g91
g92
ssg73
g1974
sg66
(lp1985
S':'
asbag59
(g80
g61
NtRp1986
(dp1987
g64
(dp1988
sg73
g1974
sg66
(lp1989
g59
(g60
g61
NtRp1990
(dp1991
g64
(dp1992
g72
I4
ssg73
g1986
sg66
(lp1993
g1380
asbasbasbag59
(g75
g61
NtRp1994
(dp1995
g64
(dp1996
sg73
g1803
sg66
(lp1997
g59
(g80
g61
NtRp1998
(dp1999
g64
(dp2000
g84
g85
ssg73
g1994
sg66
(lp2001
g1410
asbag59
(g80
g61
NtRp2002
(dp2003
g64
(dp2004
g91
g92
ssg73
g1994
sg66
(lp2005
S':'
asbag59
(g80
g61
NtRp2006
(dp2007
g64
(dp2008
sg73
g1994
sg66
(lp2009
g59
(g60
g61
NtRp2010
(dp2011
g64
(dp2012
g72
I4
ssg73
g2006
sg66
(lp2013
g59
(g68
g61
NtRp2014
(dp2015
g64
(dp2016
g72
I3
ssg73
Nsg66
(lp2017
g59
(g75
g61
NtRp2018
(dp2019
g64
(dp2020
sg73
g2014
sg66
(lp2021
g59
(g80
g61
NtRp2022
(dp2023
g64
(dp2024
sg73
g2018
sg66
(lp2025
g59
(g60
g61
NtRp2026
(dp2027
g64
(dp2028
g72
I3
ssg73
g2022
sg66
(lp2029
S'1'
asbasbasbag59
(g75
g61
NtRp2030
(dp2031
g64
(dp2032
sg73
g2014
sg66
(lp2033
g59
(g80
g61
NtRp2034
(dp2035
g64
(dp2036
sg73
g2030
sg66
(lp2037
g59
(g60
g61
NtRp2038
(dp2039
g64
(dp2040
g72
I3
ssg73
g2034
sg66
(lp2041
S'99'
p2042
asbasbasbag59
(g75
g61
NtRp2043
(dp2044
g64
(dp2045
sg73
g2014
sg66
(lp2046
g59
(g80
g61
NtRp2047
(dp2048
g64
(dp2049
sg73
g2043
sg66
(lp2050
g59
(g60
g61
NtRp2051
(dp2052
g64
(dp2053
g72
I3
ssg73
g2047
sg66
(lp2054
S'2'
asbasbasbag59
(g75
g61
NtRp2055
(dp2056
g64
(dp2057
sg73
g2014
sg66
(lp2058
g59
(g80
g61
NtRp2059
(dp2060
g64
(dp2061
sg73
g2055
sg66
(lp2062
g59
(g60
g61
NtRp2063
(dp2064
g64
(dp2065
g72
I3
ssg73
g2059
sg66
(lp2066
S'datetime.datetime(2011, 9, 26, 6, 55, 33)'
p2067
asbasbasbag59
(g75
g61
NtRp2068
(dp2069
g64
(dp2070
sg73
g2014
sg66
(lp2071
g59
(g80
g61
NtRp2072
(dp2073
g64
(dp2074
sg73
g2068
sg66
(lp2075
g59
(g60
g61
NtRp2076
(dp2077
g64
(dp2078
g72
I3
ssg73
g2072
sg66
(lp2079
g1489
asbasbasbasbasbasbasbasbasbasbasbag59
(g75
g61
NtRp2080
(dp2081
g64
(dp2082
sg73
g69
sg66
(lp2083
g59
(g80
g61
NtRp2084
(dp2085
g64
(dp2086
g84
g85
ssg73
g2080
sg66
(lp2087
S'is_https'
p2088
asbag59
(g80
g61
NtRp2089
(dp2090
g64
(dp2091
g91
g92
ssg73
g2080
sg66
(lp2092
S':'
asbag59
(g80
g61
NtRp2093
(dp2094
g64
(dp2095
sg73
g2080
sg66
(lp2096
g59
(g60
g61
NtRp2097
(dp2098
g64
(dp2099
g72
I5
ssg73
g2093
sg66
(lp2100
g102
asbasbasbag59
(g75
g61
NtRp2101
(dp2102
g64
(dp2103
sg73
g69
sg66
(lp2104
g59
(g80
g61
NtRp2105
(dp2106
g64
(dp2107
g84
g85
ssg73
g2101
sg66
(lp2108
S'is_local'
p2109
asbag59
(g80
g61
NtRp2110
(dp2111
g64
(dp2112
g91
g92
ssg73
g2101
sg66
(lp2113
S':'
asbag59
(g80
g61
NtRp2114
(dp2115
g64
(dp2116
sg73
g2101
sg66
(lp2117
g59
(g60
g61
NtRp2118
(dp2119
g64
(dp2120
g72
I5
ssg73
g2114
sg66
(lp2121
g1598
asbasbasbag59
(g75
g61
NtRp2122
(dp2123
g64
(dp2124
sg73
g69
sg66
(lp2125
g59
(g80
g61
NtRp2126
(dp2127
g64
(dp2128
g84
g85
ssg73
g2122
sg66
(lp2129
S'is_restful'
p2130
asbag59
(g80
g61
NtRp2131
(dp2132
g64
(dp2133
g91
g92
ssg73
g2122
sg66
(lp2134
S':'
asbag59
(g80
g61
NtRp2135
(dp2136
g64
(dp2137
sg73
g2122
sg66
(lp2138
g59
(g60
g61
NtRp2139
(dp2140
g64
(dp2141
g72
I5
ssg73
g2135
sg66
(lp2142
g102
asbasbasbag59
(g75
g61
NtRp2143
(dp2144
g64
(dp2145
sg73
g69
sg66
(lp2146
g59
(g80
g61
NtRp2147
(dp2148
g64
(dp2149
g84
g85
ssg73
g2143
sg66
(lp2150
S'now'
p2151
asbag59
(g80
g61
NtRp2152
(dp2153
g64
(dp2154
g91
g92
ssg73
g2143
sg66
(lp2155
S':'
asbag59
(g80
g61
NtRp2156
(dp2157
g64
(dp2158
sg73
g2143
sg66
(lp2159
g59
(g60
g61
NtRp2160
(dp2161
g64
(dp2162
g72
I5
ssg73
g2156
sg66
(lp2163
S'datetime.datetime(2011, 11, 9, 16, 53, 53, 814000)'
p2164
asbasbasbag59
(g75
g61
NtRp2165
(dp2166
g64
(dp2167
sg73
g69
sg66
(lp2168
g59
(g80
g61
NtRp2169
(dp2170
g64
(dp2171
g84
g85
ssg73
g2165
sg66
(lp2172
S'post_vars'
p2173
asbag59
(g80
g61
NtRp2174
(dp2175
g64
(dp2176
g91
g92
ssg73
g2165
sg66
(lp2177
S':'
asbag59
(g80
g61
NtRp2178
(dp2179
g64
(dp2180
sg73
g2165
sg66
(lp2181
g59
(g60
g61
NtRp2182
(dp2183
g64
(dp2184
g72
I5
ssg73
g2178
sg66
(lp2185
g59
(g68
g61
NtRp2186
(dp2187
g64
(dp2188
g72
I4
ssg73
Nsg66
(lp2189
sbasbasbasbag59
(g75
g61
NtRp2190
(dp2191
g64
(dp2192
sg73
g69
sg66
(lp2193
g59
(g80
g61
NtRp2194
(dp2195
g64
(dp2196
g84
g85
ssg73
g2190
sg66
(lp2197
S'url'
p2198
asbag59
(g80
g61
NtRp2199
(dp2200
g64
(dp2201
g91
g92
ssg73
g2190
sg66
(lp2202
S':'
asbag59
(g80
g61
NtRp2203
(dp2204
g64
(dp2205
sg73
g2190
sg66
(lp2206
g59
(g60
g61
NtRp2207
(dp2208
g64
(dp2209
g72
I5
ssg73
g2203
sg66
(lp2210
S'/Casa_de_Apuestas/default/prueba'
p2211
asbasbasbag59
(g75
g61
NtRp2212
(dp2213
g64
(dp2214
sg73
g69
sg66
(lp2215
g59
(g80
g61
NtRp2216
(dp2217
g64
(dp2218
g84
g85
ssg73
g2212
sg66
(lp2219
S'utcnow'
p2220
asbag59
(g80
g61
NtRp2221
(dp2222
g64
(dp2223
g91
g92
ssg73
g2212
sg66
(lp2224
S':'
asbag59
(g80
g61
NtRp2225
(dp2226
g64
(dp2227
sg73
g2212
sg66
(lp2228
g59
(g60
g61
NtRp2229
(dp2230
g64
(dp2231
g72
I5
ssg73
g2225
sg66
(lp2232
S'datetime.datetime(2011, 11, 9, 21, 23, 53, 814000)'
p2233
asbasbasbag59
(g75
g61
NtRp2234
(dp2235
g64
(dp2236
sg73
g69
sg66
(lp2237
g59
(g80
g61
NtRp2238
(dp2239
g64
(dp2240
g84
g85
ssg73
g2234
sg66
(lp2241
S'uuid'
p2242
asbag59
(g80
g61
NtRp2243
(dp2244
g64
(dp2245
g91
g92
ssg73
g2234
sg66
(lp2246
S':'
asbag59
(g80
g61
NtRp2247
(dp2248
g64
(dp2249
sg73
g2234
sg66
(lp2250
g59
(g60
g61
NtRp2251
(dp2252
g64
(dp2253
g72
I5
ssg73
g2247
sg66
(lp2254
S'Casa_de_Apuestas/127.0.0.1.2011-11-09.16-53-53.6240adec-9b2a-4a90-b013-193f4d89ca6b'
p2255
asbasbasbag59
(g75
g61
NtRp2256
(dp2257
g64
(dp2258
sg73
g69
sg66
(lp2259
g59
(g80
g61
NtRp2260
(dp2261
g64
(dp2262
g84
g85
ssg73
g2256
sg66
(lp2263
S'vars'
p2264
asbag59
(g80
g61
NtRp2265
(dp2266
g64
(dp2267
g91
g92
ssg73
g2256
sg66
(lp2268
S':'
asbag59
(g80
g61
NtRp2269
(dp2270
g64
(dp2271
sg73
g2256
sg66
(lp2272
g59
(g60
g61
NtRp2273
(dp2274
g64
(dp2275
g72
I5
ssg73
g2269
sg66
(lp2276
g59
(g68
g61
NtRp2277
(dp2278
g64
(dp2279
g72
I4
ssg73
Nsg66
(lp2280
sbasbasbasbag59
(g75
g61
NtRp2281
(dp2282
g64
(dp2283
sg73
g69
sg66
(lp2284
g59
(g80
g61
NtRp2285
(dp2286
g64
(dp2287
g84
g85
ssg73
g2281
sg66
(lp2288
S'wsgi'
p2289
asbag59
(g80
g61
NtRp2290
(dp2291
g64
(dp2292
g91
g92
ssg73
g2281
sg66
(lp2293
S':'
asbag59
(g80
g61
NtRp2294
(dp2295
g64
(dp2296
sg73
g2281
sg66
(lp2297
g59
(g60
g61
NtRp2298
(dp2299
g64
(dp2300
g72
I5
ssg73
g2294
sg66
(lp2301
g59
(g68
g61
NtRp2302
(dp2303
g64
(dp2304
g72
I4
ssg73
Nsg66
(lp2305
g59
(g75
g61
NtRp2306
(dp2307
g64
(dp2308
sg73
g2302
sg66
(lp2309
g59
(g80
g61
NtRp2310
(dp2311
g64
(dp2312
g84
g85
ssg73
g2306
sg66
(lp2313
S'environ'
p2314
asbag59
(g80
g61
NtRp2315
(dp2316
g64
(dp2317
g91
g92
ssg73
g2306
sg66
(lp2318
S':'
asbag59
(g80
g61
NtRp2319
(dp2320
g64
(dp2321
sg73
g2306
sg66
(lp2322
g59
(g60
g61
NtRp2323
(dp2324
g64
(dp2325
g72
I4
ssg73
g2319
sg66
(lp2326
g59
(g68
g61
NtRp2327
(dp2328
g64
(dp2329
g72
I3
ssg73
Nsg66
(lp2330
g59
(g75
g61
NtRp2331
(dp2332
g64
(dp2333
sg73
g2327
sg66
(lp2334
g59
(g80
g61
NtRp2335
(dp2336
g64
(dp2337
g84
g85
ssg73
g2331
sg66
(lp2338
S'HTTP_ACCEPT'
p2339
asbag59
(g80
g61
NtRp2340
(dp2341
g64
(dp2342
g91
g92
ssg73
g2331
sg66
(lp2343
S':'
asbag59
(g80
g61
NtRp2344
(dp2345
g64
(dp2346
sg73
g2331
sg66
(lp2347
g59
(g60
g61
NtRp2348
(dp2349
g64
(dp2350
g72
I3
ssg73
g2344
sg66
(lp2351
g944
asbasbasbag59
(g75
g61
NtRp2352
(dp2353
g64
(dp2354
sg73
g2327
sg66
(lp2355
g59
(g80
g61
NtRp2356
(dp2357
g64
(dp2358
g84
g85
ssg73
g2352
sg66
(lp2359
S'HTTP_ACCEPT_CHARSET'
p2360
asbag59
(g80
g61
NtRp2361
(dp2362
g64
(dp2363
g91
g92
ssg73
g2352
sg66
(lp2364
S':'
asbag59
(g80
g61
NtRp2365
(dp2366
g64
(dp2367
sg73
g2352
sg66
(lp2368
g59
(g60
g61
NtRp2369
(dp2370
g64
(dp2371
g72
I3
ssg73
g2365
sg66
(lp2372
g966
asbasbasbag59
(g75
g61
NtRp2373
(dp2374
g64
(dp2375
sg73
g2327
sg66
(lp2376
g59
(g80
g61
NtRp2377
(dp2378
g64
(dp2379
g84
g85
ssg73
g2373
sg66
(lp2380
S'HTTP_ACCEPT_ENCODING'
p2381
asbag59
(g80
g61
NtRp2382
(dp2383
g64
(dp2384
g91
g92
ssg73
g2373
sg66
(lp2385
S':'
asbag59
(g80
g61
NtRp2386
(dp2387
g64
(dp2388
sg73
g2373
sg66
(lp2389
g59
(g60
g61
NtRp2390
(dp2391
g64
(dp2392
g72
I3
ssg73
g2386
sg66
(lp2393
g988
asbasbasbag59
(g75
g61
NtRp2394
(dp2395
g64
(dp2396
sg73
g2327
sg66
(lp2397
g59
(g80
g61
NtRp2398
(dp2399
g64
(dp2400
g84
g85
ssg73
g2394
sg66
(lp2401
S'HTTP_ACCEPT_LANGUAGE'
p2402
asbag59
(g80
g61
NtRp2403
(dp2404
g64
(dp2405
g91
g92
ssg73
g2394
sg66
(lp2406
S':'
asbag59
(g80
g61
NtRp2407
(dp2408
g64
(dp2409
sg73
g2394
sg66
(lp2410
g59
(g60
g61
NtRp2411
(dp2412
g64
(dp2413
g72
I3
ssg73
g2407
sg66
(lp2414
g1010
asbasbasbag59
(g75
g61
NtRp2415
(dp2416
g64
(dp2417
sg73
g2327
sg66
(lp2418
g59
(g80
g61
NtRp2419
(dp2420
g64
(dp2421
g84
g85
ssg73
g2415
sg66
(lp2422
S'HTTP_CACHE_CONTROL'
p2423
asbag59
(g80
g61
NtRp2424
(dp2425
g64
(dp2426
g91
g92
ssg73
g2415
sg66
(lp2427
S':'
asbag59
(g80
g61
NtRp2428
(dp2429
g64
(dp2430
sg73
g2415
sg66
(lp2431
g59
(g60
g61
NtRp2432
(dp2433
g64
(dp2434
g72
I3
ssg73
g2428
sg66
(lp2435
g1032
asbasbasbag59
(g75
g61
NtRp2436
(dp2437
g64
(dp2438
sg73
g2327
sg66
(lp2439
g59
(g80
g61
NtRp2440
(dp2441
g64
(dp2442
g84
g85
ssg73
g2436
sg66
(lp2443
S'HTTP_CONNECTION'
p2444
asbag59
(g80
g61
NtRp2445
(dp2446
g64
(dp2447
g91
g92
ssg73
g2436
sg66
(lp2448
S':'
asbag59
(g80
g61
NtRp2449
(dp2450
g64
(dp2451
sg73
g2436
sg66
(lp2452
g59
(g60
g61
NtRp2453
(dp2454
g64
(dp2455
g72
I3
ssg73
g2449
sg66
(lp2456
g1054
asbasbasbag59
(g75
g61
NtRp2457
(dp2458
g64
(dp2459
sg73
g2327
sg66
(lp2460
g59
(g80
g61
NtRp2461
(dp2462
g64
(dp2463
g84
g85
ssg73
g2457
sg66
(lp2464
S'HTTP_COOKIE'
p2465
asbag59
(g80
g61
NtRp2466
(dp2467
g64
(dp2468
g91
g92
ssg73
g2457
sg66
(lp2469
S':'
asbag59
(g80
g61
NtRp2470
(dp2471
g64
(dp2472
sg73
g2457
sg66
(lp2473
g59
(g60
g61
NtRp2474
(dp2475
g64
(dp2476
g72
I3
ssg73
g2470
sg66
(lp2477
g1076
asbasbasbag59
(g75
g61
NtRp2478
(dp2479
g64
(dp2480
sg73
g2327
sg66
(lp2481
g59
(g80
g61
NtRp2482
(dp2483
g64
(dp2484
g84
g85
ssg73
g2478
sg66
(lp2485
S'HTTP_HOST'
p2486
asbag59
(g80
g61
NtRp2487
(dp2488
g64
(dp2489
g91
g92
ssg73
g2478
sg66
(lp2490
S':'
asbag59
(g80
g61
NtRp2491
(dp2492
g64
(dp2493
sg73
g2478
sg66
(lp2494
g59
(g60
g61
NtRp2495
(dp2496
g64
(dp2497
g72
I3
ssg73
g2491
sg66
(lp2498
g1098
asbasbasbag59
(g75
g61
NtRp2499
(dp2500
g64
(dp2501
sg73
g2327
sg66
(lp2502
g59
(g80
g61
NtRp2503
(dp2504
g64
(dp2505
g84
g85
ssg73
g2499
sg66
(lp2506
S'HTTP_USER_AGENT'
p2507
asbag59
(g80
g61
NtRp2508
(dp2509
g64
(dp2510
g91
g92
ssg73
g2499
sg66
(lp2511
S':'
asbag59
(g80
g61
NtRp2512
(dp2513
g64
(dp2514
sg73
g2499
sg66
(lp2515
g59
(g60
g61
NtRp2516
(dp2517
g64
(dp2518
g72
I3
ssg73
g2512
sg66
(lp2519
g1120
asbasbasbag59
(g75
g61
NtRp2520
(dp2521
g64
(dp2522
sg73
g2327
sg66
(lp2523
g59
(g80
g61
NtRp2524
(dp2525
g64
(dp2526
g84
g85
ssg73
g2520
sg66
(lp2527
S'PATH_INFO'
p2528
asbag59
(g80
g61
NtRp2529
(dp2530
g64
(dp2531
g91
g92
ssg73
g2520
sg66
(lp2532
S':'
asbag59
(g80
g61
NtRp2533
(dp2534
g64
(dp2535
sg73
g2520
sg66
(lp2536
g59
(g60
g61
NtRp2537
(dp2538
g64
(dp2539
g72
I3
ssg73
g2533
sg66
(lp2540
g1163
asbasbasbag59
(g75
g61
NtRp2541
(dp2542
g64
(dp2543
sg73
g2327
sg66
(lp2544
g59
(g80
g61
NtRp2545
(dp2546
g64
(dp2547
g84
g85
ssg73
g2541
sg66
(lp2548
S'QUERY_STRING'
p2549
asbag59
(g80
g61
NtRp2550
(dp2551
g64
(dp2552
g91
g92
ssg73
g2541
sg66
(lp2553
S':'
asbag59
(g80
g61
NtRp2554
(dp2555
g64
(dp2556
sg73
g2541
sg66
(lp2557
g59
(g60
g61
NtRp2558
(dp2559
g64
(dp2560
g72
I3
ssg73
g2554
sg66
(lp2561
S''
asbasbasbag59
(g75
g61
NtRp2562
(dp2563
g64
(dp2564
sg73
g2327
sg66
(lp2565
g59
(g80
g61
NtRp2566
(dp2567
g64
(dp2568
g84
g85
ssg73
g2562
sg66
(lp2569
S'REMOTE_ADDR'
p2570
asbag59
(g80
g61
NtRp2571
(dp2572
g64
(dp2573
g91
g92
ssg73
g2562
sg66
(lp2574
S':'
asbag59
(g80
g61
NtRp2575
(dp2576
g64
(dp2577
sg73
g2562
sg66
(lp2578
g59
(g60
g61
NtRp2579
(dp2580
g64
(dp2581
g72
I3
ssg73
g2575
sg66
(lp2582
g192
asbasbasbag59
(g75
g61
NtRp2583
(dp2584
g64
(dp2585
sg73
g2327
sg66
(lp2586
g59
(g80
g61
NtRp2587
(dp2588
g64
(dp2589
g84
g85
ssg73
g2583
sg66
(lp2590
S'REMOTE_PORT'
p2591
asbag59
(g80
g61
NtRp2592
(dp2593
g64
(dp2594
g91
g92
ssg73
g2583
sg66
(lp2595
S':'
asbag59
(g80
g61
NtRp2596
(dp2597
g64
(dp2598
sg73
g2583
sg66
(lp2599
g59
(g60
g61
NtRp2600
(dp2601
g64
(dp2602
g72
I3
ssg73
g2596
sg66
(lp2603
g1227
asbasbasbag59
(g75
g61
NtRp2604
(dp2605
g64
(dp2606
sg73
g2327
sg66
(lp2607
g59
(g80
g61
NtRp2608
(dp2609
g64
(dp2610
g84
g85
ssg73
g2604
sg66
(lp2611
S'REQUEST_METHOD'
p2612
asbag59
(g80
g61
NtRp2613
(dp2614
g64
(dp2615
g91
g92
ssg73
g2604
sg66
(lp2616
S':'
asbag59
(g80
g61
NtRp2617
(dp2618
g64
(dp2619
sg73
g2604
sg66
(lp2620
g59
(g60
g61
NtRp2621
(dp2622
g64
(dp2623
g72
I3
ssg73
g2617
sg66
(lp2624
g1249
asbasbasbag59
(g75
g61
NtRp2625
(dp2626
g64
(dp2627
sg73
g2327
sg66
(lp2628
g59
(g80
g61
NtRp2629
(dp2630
g64
(dp2631
g84
g85
ssg73
g2625
sg66
(lp2632
S'SCRIPT_NAME'
p2633
asbag59
(g80
g61
NtRp2634
(dp2635
g64
(dp2636
g91
g92
ssg73
g2625
sg66
(lp2637
S':'
asbag59
(g80
g61
NtRp2638
(dp2639
g64
(dp2640
sg73
g2625
sg66
(lp2641
g59
(g60
g61
NtRp2642
(dp2643
g64
(dp2644
g72
I3
ssg73
g2638
sg66
(lp2645
S''
asbasbasbag59
(g75
g61
NtRp2646
(dp2647
g64
(dp2648
sg73
g2327
sg66
(lp2649
g59
(g80
g61
NtRp2650
(dp2651
g64
(dp2652
g84
g85
ssg73
g2646
sg66
(lp2653
S'SERVER_NAME'
p2654
asbag59
(g80
g61
NtRp2655
(dp2656
g64
(dp2657
g91
g92
ssg73
g2646
sg66
(lp2658
S':'
asbag59
(g80
g61
NtRp2659
(dp2660
g64
(dp2661
sg73
g2646
sg66
(lp2662
g59
(g60
g61
NtRp2663
(dp2664
g64
(dp2665
g72
I3
ssg73
g2659
sg66
(lp2666
g1292
asbasbasbag59
(g75
g61
NtRp2667
(dp2668
g64
(dp2669
sg73
g2327
sg66
(lp2670
g59
(g80
g61
NtRp2671
(dp2672
g64
(dp2673
g84
g85
ssg73
g2667
sg66
(lp2674
S'SERVER_PORT'
p2675
asbag59
(g80
g61
NtRp2676
(dp2677
g64
(dp2678
g91
g92
ssg73
g2667
sg66
(lp2679
S':'
asbag59
(g80
g61
NtRp2680
(dp2681
g64
(dp2682
sg73
g2667
sg66
(lp2683
g59
(g60
g61
NtRp2684
(dp2685
g64
(dp2686
g72
I3
ssg73
g2680
sg66
(lp2687
g1314
asbasbasbag59
(g75
g61
NtRp2688
(dp2689
g64
(dp2690
sg73
g2327
sg66
(lp2691
g59
(g80
g61
NtRp2692
(dp2693
g64
(dp2694
g84
g85
ssg73
g2688
sg66
(lp2695
S'SERVER_PROTOCOL'
p2696
asbag59
(g80
g61
NtRp2697
(dp2698
g64
(dp2699
g91
g92
ssg73
g2688
sg66
(lp2700
S':'
asbag59
(g80
g61
NtRp2701
(dp2702
g64
(dp2703
sg73
g2688
sg66
(lp2704
g59
(g60
g61
NtRp2705
(dp2706
g64
(dp2707
g72
I3
ssg73
g2701
sg66
(lp2708
g1336
asbasbasbag59
(g75
g61
NtRp2709
(dp2710
g64
(dp2711
sg73
g2327
sg66
(lp2712
g59
(g80
g61
NtRp2713
(dp2714
g64
(dp2715
g84
g85
ssg73
g2709
sg66
(lp2716
S'SERVER_SOFTWARE'
p2717
asbag59
(g80
g61
NtRp2718
(dp2719
g64
(dp2720
g91
g92
ssg73
g2709
sg66
(lp2721
S':'
asbag59
(g80
g61
NtRp2722
(dp2723
g64
(dp2724
sg73
g2709
sg66
(lp2725
g59
(g60
g61
NtRp2726
(dp2727
g64
(dp2728
g72
I3
ssg73
g2722
sg66
(lp2729
g1358
asbasbasbag59
(g75
g61
NtRp2730
(dp2731
g64
(dp2732
sg73
g2327
sg66
(lp2733
g59
(g80
g61
NtRp2734
(dp2735
g64
(dp2736
g84
g85
ssg73
g2730
sg66
(lp2737
S'wsgi.errors'
p2738
asbag59
(g80
g61
NtRp2739
(dp2740
g64
(dp2741
g91
g92
ssg73
g2730
sg66
(lp2742
S':'
asbag59
(g80
g61
NtRp2743
(dp2744
g64
(dp2745
sg73
g2730
sg66
(lp2746
g59
(g60
g61
NtRp2747
(dp2748
g64
(dp2749
g72
I3
ssg73
g2743
sg66
(lp2750
S"<open file '<stderr>', mode 'w' at 0x01FF00B0>"
p2751
asbasbasbag59
(g75
g61
NtRp2752
(dp2753
g64
(dp2754
sg73
g2327
sg66
(lp2755
g59
(g80
g61
NtRp2756
(dp2757
g64
(dp2758
g84
g85
ssg73
g2752
sg66
(lp2759
S'wsgi.file_wrapper'
p2760
asbag59
(g80
g61
NtRp2761
(dp2762
g64
(dp2763
g91
g92
ssg73
g2752
sg66
(lp2764
S':'
asbag59
(g80
g61
NtRp2765
(dp2766
g64
(dp2767
sg73
g2752
sg66
(lp2768
g59
(g60
g61
NtRp2769
(dp2770
g64
(dp2771
g72
I3
ssg73
g2765
sg66
(lp2772
S'<class wsgiref.util.FileWrapper at 0x02B00D80>'
p2773
asbasbasbag59
(g75
g61
NtRp2774
(dp2775
g64
(dp2776
sg73
g2327
sg66
(lp2777
g59
(g80
g61
NtRp2778
(dp2779
g64
(dp2780
g84
g85
ssg73
g2774
sg66
(lp2781
S'wsgi.input'
p2782
asbag59
(g80
g61
NtRp2783
(dp2784
g64
(dp2785
g91
g92
ssg73
g2774
sg66
(lp2786
S':'
asbag59
(g80
g61
NtRp2787
(dp2788
g64
(dp2789
sg73
g2774
sg66
(lp2790
g59
(g60
g61
NtRp2791
(dp2792
g64
(dp2793
g72
I3
ssg73
g2787
sg66
(lp2794
S'<cStringIO.StringO object at 0x0617A140>'
p2795
asbasbasbag59
(g75
g61
NtRp2796
(dp2797
g64
(dp2798
sg73
g2327
sg66
(lp2799
g59
(g80
g61
NtRp2800
(dp2801
g64
(dp2802
g84
g85
ssg73
g2796
sg66
(lp2803
S'wsgi.multiprocess'
p2804
asbag59
(g80
g61
NtRp2805
(dp2806
g64
(dp2807
g91
g92
ssg73
g2796
sg66
(lp2808
S':'
asbag59
(g80
g61
NtRp2809
(dp2810
g64
(dp2811
sg73
g2796
sg66
(lp2812
g59
(g60
g61
NtRp2813
(dp2814
g64
(dp2815
g72
I3
ssg73
g2809
sg66
(lp2816
g102
asbasbasbag59
(g75
g61
NtRp2817
(dp2818
g64
(dp2819
sg73
g2327
sg66
(lp2820
g59
(g80
g61
NtRp2821
(dp2822
g64
(dp2823
g84
g85
ssg73
g2817
sg66
(lp2824
S'wsgi.multithread'
p2825
asbag59
(g80
g61
NtRp2826
(dp2827
g64
(dp2828
g91
g92
ssg73
g2817
sg66
(lp2829
S':'
asbag59
(g80
g61
NtRp2830
(dp2831
g64
(dp2832
sg73
g2817
sg66
(lp2833
g59
(g60
g61
NtRp2834
(dp2835
g64
(dp2836
g72
I3
ssg73
g2830
sg66
(lp2837
g1598
asbasbasbag59
(g75
g61
NtRp2838
(dp2839
g64
(dp2840
sg73
g2327
sg66
(lp2841
g59
(g80
g61
NtRp2842
(dp2843
g64
(dp2844
g84
g85
ssg73
g2838
sg66
(lp2845
S'wsgi.run_once'
p2846
asbag59
(g80
g61
NtRp2847
(dp2848
g64
(dp2849
g91
g92
ssg73
g2838
sg66
(lp2850
S':'
asbag59
(g80
g61
NtRp2851
(dp2852
g64
(dp2853
sg73
g2838
sg66
(lp2854
g59
(g60
g61
NtRp2855
(dp2856
g64
(dp2857
g72
I3
ssg73
g2851
sg66
(lp2858
g102
asbasbasbag59
(g75
g61
NtRp2859
(dp2860
g64
(dp2861
sg73
g2327
sg66
(lp2862
g59
(g80
g61
NtRp2863
(dp2864
g64
(dp2865
g84
g85
ssg73
g2859
sg66
(lp2866
S'wsgi.url_scheme'
p2867
asbag59
(g80
g61
NtRp2868
(dp2869
g64
(dp2870
g91
g92
ssg73
g2859
sg66
(lp2871
S':'
asbag59
(g80
g61
NtRp2872
(dp2873
g64
(dp2874
sg73
g2859
sg66
(lp2875
g59
(g60
g61
NtRp2876
(dp2877
g64
(dp2878
g72
I3
ssg73
g2872
sg66
(lp2879
g1641
asbasbasbag59
(g75
g61
NtRp2880
(dp2881
g64
(dp2882
sg73
g2327
sg66
(lp2883
g59
(g80
g61
NtRp2884
(dp2885
g64
(dp2886
g84
g85
ssg73
g2880
sg66
(lp2887
S'wsgi.version'
p2888
asbag59
(g80
g61
NtRp2889
(dp2890
g64
(dp2891
g91
g92
ssg73
g2880
sg66
(lp2892
S':'
asbag59
(g80
g61
NtRp2893
(dp2894
g64
(dp2895
sg73
g2880
sg66
(lp2896
g59
(g60
g61
NtRp2897
(dp2898
g64
(dp2899
g72
I3
ssg73
g2893
sg66
(lp2900
S'1'
asbasbasbasbasbasbasbasbasbasbasbasbasbsS'frames'
p2901
(lp2902
(dp2903
S'file'
p2904
S'C:\\Python32\\web2py\\gluon\\restricted.py'
p2905
sS'dump'
p2906
(dp2907
sS'lnum'
p2908
I193
sS'lines'
p2909
(dp2910
sS'call'
p2911
S'(code=\'from Categoria\\na = Categoria("Hector", "Cara Rot...escripcion()\\nresponse.write(\\\'\\\\r\\\\n\\\', escape=False)\', environment={\'A\': <class \'gluon.html.A\'>, \'Auth\': <class \'gluon.tools.Auth\'>, \'B\': <class \'gluon.html.B\'>, \'BEAUTIFY\': <class \'gluon.html.BEAUTIFY\'>, \'BODY\': <class \'gluon.html.BODY\'>, \'BR\': <class \'gluon.html.BR\'>, \'BUTTON\': <class \'gluon.html.BUTTON\'>, \'CAT\': <class \'gluon.html.CAT\'>, \'CENTER\': <class \'gluon.html.CENTER\'>, \'CLEANUP\': <class \'gluon.validators.CLEANUP\'>, ...}, layer=r\'C:\\Python32\\web2py\\applications\\Casa_de_Apuestas\\views\\default/prueba.html\')'
p2912
sS'func'
p2913
S'restricted'
p2914
sa(dp2915
g2904
S'C:\\Python32\\web2py\\gluon\\restricted.py'
p2916
sg2906
(dp2917
sg2908
I179
sg2909
(dp2918
sg2911
S'(code=\'from Categoria\\na = Categoria("Hector", "Cara Rot...escripcion()\\nresponse.write(\\\'\\\\r\\\\n\\\', escape=False)\', layer=r\'C:\\Python32\\web2py\\applications\\Casa_de_Apuestas\\views\\default/prueba.html\')'
p2919
sg2913
S'compile2'
p2920
sasS'pyver'
p2921
S'Python 2.5.4: C:\\Python32\\web2py\\web2py.exe'
p2922
sS'session'
p2923
g59
(g60
g61
NtRp2924
(dp2925
g64
(dp2926
sg66
(lp2927
g59
(g68
g61
NtRp2928
(dp2929
g64
(dp2930
g72
I5
ssg73
Nsg66
(lp2931
g59
(g75
g61
NtRp2932
(dp2933
g64
(dp2934
sg73
g2928
sg66
(lp2935
g59
(g80
g61
NtRp2936
(dp2937
g64
(dp2938
g84
g85
ssg73
g2932
sg66
(lp2939
S'last_query'
p2940
asbag59
(g80
g61
NtRp2941
(dp2942
g64
(dp2943
g91
g92
ssg73
g2932
sg66
(lp2944
S':'
asbag59
(g80
g61
NtRp2945
(dp2946
g64
(dp2947
sg73
g2932
sg66
(lp2948
g59
(g60
g61
NtRp2949
(dp2950
g64
(dp2951
g72
I5
ssg73
g2945
sg66
(lp2952
S'db.categorias.id>0'
p2953
asbasbasbasbasbsS'etype'
p2954
S"<type 'exceptions.SyntaxError'>"
p2955
sS'date'
p2956
S'Wed Nov 09 16:53:53 2011'
p2957
sS'response'
p2958
g59
(g60
g61
NtRp2959
(dp2960
g64
(dp2961
sg66
(lp2962
g59
(g68
g61
NtRp2963
(dp2964
g64
(dp2965
g72
I5
ssg73
Nsg66
(lp2966
g59
(g75
g61
NtRp2967
(dp2968
g64
(dp2969
sg73
g2963
sg66
(lp2970
g59
(g80
g61
NtRp2971
(dp2972
g64
(dp2973
g84
g85
ssg73
g2967
sg66
(lp2974
g157
asbag59
(g80
g61
NtRp2975
(dp2976
g64
(dp2977
g91
g92
ssg73
g2967
sg66
(lp2978
S':'
asbag59
(g80
g61
NtRp2979
(dp2980
g64
(dp2981
sg73
g2967
sg66
(lp2982
g59
(g60
g61
NtRp2983
(dp2984
g64
(dp2985
g72
I5
ssg73
g2979
sg66
(lp2986
S'<cStringIO.StringO object at 0x0617ABE0>'
p2987
asbasbasbag59
(g75
g61
NtRp2988
(dp2989
g64
(dp2990
sg73
g2963
sg66
(lp2991
g59
(g80
g61
NtRp2992
(dp2993
g64
(dp2994
g84
g85
ssg73
g2988
sg66
(lp2995
g223
asbag59
(g80
g61
NtRp2996
(dp2997
g64
(dp2998
g91
g92
ssg73
g2988
sg66
(lp2999
S':'
asbag59
(g80
g61
NtRp3000
(dp3001
g64
(dp3002
sg73
g2988
sg66
(lp3003
g59
(g60
g61
NtRp3004
(dp3005
g64
(dp3006
g72
I5
ssg73
g3000
sg66
(lp3007
g59
(g68
g61
NtRp3008
(dp3009
g64
(dp3010
g72
I4
ssg73
Nsg66
(lp3011
g59
(g75
g61
NtRp3012
(dp3013
g64
(dp3014
sg73
g3008
sg66
(lp3015
g59
(g80
g61
NtRp3016
(dp3017
g64
(dp3018
g84
g85
ssg73
g3012
sg66
(lp3019
S'session_id_casa_de_apuestas'
p3020
asbag59
(g80
g61
NtRp3021
(dp3022
g64
(dp3023
g91
g92
ssg73
g3012
sg66
(lp3024
S':'
asbag59
(g80
g61
NtRp3025
(dp3026
g64
(dp3027
sg73
g3012
sg66
(lp3028
g59
(g60
g61
NtRp3029
(dp3030
g64
(dp3031
g72
I4
ssg73
g3025
sg66
(lp3032
g59
(g68
g61
NtRp3033
(dp3034
g64
(dp3035
g72
I3
ssg73
Nsg66
(lp3036
g59
(g75
g61
NtRp3037
(dp3038
g64
(dp3039
sg73
g3033
sg66
(lp3040
g59
(g80
g61
NtRp3041
(dp3042
g64
(dp3043
g84
g85
ssg73
g3037
sg66
(lp3044
g273
asbag59
(g80
g61
NtRp3045
(dp3046
g64
(dp3047
g91
g92
ssg73
g3037
sg66
(lp3048
S':'
asbag59
(g80
g61
NtRp3049
(dp3050
g64
(dp3051
sg73
g3037
sg66
(lp3052
g59
(g60
g61
NtRp3053
(dp3054
g64
(dp3055
g72
I3
ssg73
g3049
sg66
(lp3056
S''
asbasbasbag59
(g75
g61
NtRp3057
(dp3058
g64
(dp3059
sg73
g3033
sg66
(lp3060
g59
(g80
g61
NtRp3061
(dp3062
g64
(dp3063
g84
g85
ssg73
g3057
sg66
(lp3064
g294
asbag59
(g80
g61
NtRp3065
(dp3066
g64
(dp3067
g91
g92
ssg73
g3057
sg66
(lp3068
S':'
asbag59
(g80
g61
NtRp3069
(dp3070
g64
(dp3071
sg73
g3057
sg66
(lp3072
g59
(g60
g61
NtRp3073
(dp3074
g64
(dp3075
g72
I3
ssg73
g3069
sg66
(lp3076
S''
asbasbasbag59
(g75
g61
NtRp3077
(dp3078
g64
(dp3079
sg73
g3033
sg66
(lp3080
g59
(g80
g61
NtRp3081
(dp3082
g64
(dp3083
g84
g85
ssg73
g3077
sg66
(lp3084
g315
asbag59
(g80
g61
NtRp3085
(dp3086
g64
(dp3087
g91
g92
ssg73
g3077
sg66
(lp3088
S':'
asbag59
(g80
g61
NtRp3089
(dp3090
g64
(dp3091
sg73
g3077
sg66
(lp3092
g59
(g60
g61
NtRp3093
(dp3094
g64
(dp3095
g72
I3
ssg73
g3089
sg66
(lp3096
S''
asbasbasbag59
(g75
g61
NtRp3097
(dp3098
g64
(dp3099
sg73
g3033
sg66
(lp3100
g59
(g80
g61
NtRp3101
(dp3102
g64
(dp3103
g84
g85
ssg73
g3097
sg66
(lp3104
g336
asbag59
(g80
g61
NtRp3105
(dp3106
g64
(dp3107
g91
g92
ssg73
g3097
sg66
(lp3108
S':'
asbag59
(g80
g61
NtRp3109
(dp3110
g64
(dp3111
sg73
g3097
sg66
(lp3112
g59
(g60
g61
NtRp3113
(dp3114
g64
(dp3115
g72
I3
ssg73
g3109
sg66
(lp3116
S''
asbasbasbag59
(g75
g61
NtRp3117
(dp3118
g64
(dp3119
sg73
g3033
sg66
(lp3120
g59
(g80
g61
NtRp3121
(dp3122
g64
(dp3123
g84
g85
ssg73
g3117
sg66
(lp3124
g357
asbag59
(g80
g61
NtRp3125
(dp3126
g64
(dp3127
g91
g92
ssg73
g3117
sg66
(lp3128
S':'
asbag59
(g80
g61
NtRp3129
(dp3130
g64
(dp3131
sg73
g3117
sg66
(lp3132
g59
(g60
g61
NtRp3133
(dp3134
g64
(dp3135
g72
I3
ssg73
g3129
sg66
(lp3136
S'/'
asbasbasbag59
(g75
g61
NtRp3137
(dp3138
g64
(dp3139
sg73
g3033
sg66
(lp3140
g59
(g80
g61
NtRp3141
(dp3142
g64
(dp3143
g84
g85
ssg73
g3137
sg66
(lp3144
g378
asbag59
(g80
g61
NtRp3145
(dp3146
g64
(dp3147
g91
g92
ssg73
g3137
sg66
(lp3148
S':'
asbag59
(g80
g61
NtRp3149
(dp3150
g64
(dp3151
sg73
g3137
sg66
(lp3152
g59
(g60
g61
NtRp3153
(dp3154
g64
(dp3155
g72
I3
ssg73
g3149
sg66
(lp3156
S''
asbasbasbag59
(g75
g61
NtRp3157
(dp3158
g64
(dp3159
sg73
g3033
sg66
(lp3160
g59
(g80
g61
NtRp3161
(dp3162
g64
(dp3163
g84
g85
ssg73
g3157
sg66
(lp3164
g399
asbag59
(g80
g61
NtRp3165
(dp3166
g64
(dp3167
g91
g92
ssg73
g3157
sg66
(lp3168
S':'
asbag59
(g80
g61
NtRp3169
(dp3170
g64
(dp3171
sg73
g3157
sg66
(lp3172
g59
(g60
g61
NtRp3173
(dp3174
g64
(dp3175
g72
I3
ssg73
g3169
sg66
(lp3176
S''
asbasbasbasbasbasbasbasbasbasbasbag59
(g75
g61
NtRp3177
(dp3178
g64
(dp3179
sg73
g2963
sg66
(lp3180
g59
(g80
g61
NtRp3181
(dp3182
g64
(dp3183
g84
g85
ssg73
g3177
sg66
(lp3184
S'files'
p3185
asbag59
(g80
g61
NtRp3186
(dp3187
g64
(dp3188
g91
g92
ssg73
g3177
sg66
(lp3189
S':'
asbag59
(g80
g61
NtRp3190
(dp3191
g64
(dp3192
sg73
g3177
sg66
(lp3193
g59
(g60
g61
NtRp3194
(dp3195
g64
(dp3196
g72
I5
ssg73
g3190
sg66
(lp3197
g59
(g68
g61
NtRp3198
(dp3199
g64
(dp3200
g72
I4
ssg73
Nsg66
(lp3201
sbasbasbasbag59
(g75
g61
NtRp3202
(dp3203
g64
(dp3204
sg73
g2963
sg66
(lp3205
g59
(g80
g61
NtRp3206
(dp3207
g64
(dp3208
g84
g85
ssg73
g3202
sg66
(lp3209
S'flash'
p3210
asbag59
(g80
g61
NtRp3211
(dp3212
g64
(dp3213
g91
g92
ssg73
g3202
sg66
(lp3214
S':'
asbag59
(g80
g61
NtRp3215
(dp3216
g64
(dp3217
sg73
g3202
sg66
(lp3218
g59
(g60
g61
NtRp3219
(dp3220
g64
(dp3221
g72
I5
ssg73
g3215
sg66
(lp3222
S''
asbasbasbag59
(g75
g61
NtRp3223
(dp3224
g64
(dp3225
sg73
g2963
sg66
(lp3226
g59
(g80
g61
NtRp3227
(dp3228
g64
(dp3229
g84
g85
ssg73
g3223
sg66
(lp3230
S'generic_patterns'
p3231
asbag59
(g80
g61
NtRp3232
(dp3233
g64
(dp3234
g91
g92
ssg73
g3223
sg66
(lp3235
S':'
asbag59
(g80
g61
NtRp3236
(dp3237
g64
(dp3238
sg73
g3223
sg66
(lp3239
g59
(g60
g61
NtRp3240
(dp3241
g64
(dp3242
g72
I5
ssg73
g3236
sg66
(lp3243
g59
(g68
g61
NtRp3244
(dp3245
g64
(dp3246
g72
I4
ssg73
Nsg66
(lp3247
g59
(g75
g61
NtRp3248
(dp3249
g64
(dp3250
sg73
g3244
sg66
(lp3251
g59
(g80
g61
NtRp3252
(dp3253
g64
(dp3254
sg73
g3248
sg66
(lp3255
g59
(g60
g61
NtRp3256
(dp3257
g64
(dp3258
g72
I4
ssg73
g3252
sg66
(lp3259
S'*'
asbasbasbasbasbasbasbag59
(g75
g61
NtRp3260
(dp3261
g64
(dp3262
sg73
g2963
sg66
(lp3263
g59
(g80
g61
NtRp3264
(dp3265
g64
(dp3266
g84
g85
ssg73
g3260
sg66
(lp3267
S'headers'
p3268
asbag59
(g80
g61
NtRp3269
(dp3270
g64
(dp3271
g91
g92
ssg73
g3260
sg66
(lp3272
S':'
asbag59
(g80
g61
NtRp3273
(dp3274
g64
(dp3275
sg73
g3260
sg66
(lp3276
g59
(g60
g61
NtRp3277
(dp3278
g64
(dp3279
g72
I5
ssg73
g3273
sg66
(lp3280
g59
(g68
g61
NtRp3281
(dp3282
g64
(dp3283
g72
I4
ssg73
Nsg66
(lp3284
g59
(g75
g61
NtRp3285
(dp3286
g64
(dp3287
sg73
g3281
sg66
(lp3288
g59
(g80
g61
NtRp3289
(dp3290
g64
(dp3291
g84
g85
ssg73
g3285
sg66
(lp3292
S'Cache-Control'
p3293
asbag59
(g80
g61
NtRp3294
(dp3295
g64
(dp3296
g91
g92
ssg73
g3285
sg66
(lp3297
S':'
asbag59
(g80
g61
NtRp3298
(dp3299
g64
(dp3300
sg73
g3285
sg66
(lp3301
g59
(g60
g61
NtRp3302
(dp3303
g64
(dp3304
g72
I4
ssg73
g3298
sg66
(lp3305
S'no-store, no-cache, must-revalidate, post-check=0, pre-check=0'
p3306
asbasbasbag59
(g75
g61
NtRp3307
(dp3308
g64
(dp3309
sg73
g3281
sg66
(lp3310
g59
(g80
g61
NtRp3311
(dp3312
g64
(dp3313
g84
g85
ssg73
g3307
sg66
(lp3314
S'Content-Type'
p3315
asbag59
(g80
g61
NtRp3316
(dp3317
g64
(dp3318
g91
g92
ssg73
g3307
sg66
(lp3319
S':'
asbag59
(g80
g61
NtRp3320
(dp3321
g64
(dp3322
sg73
g3307
sg66
(lp3323
g59
(g60
g61
NtRp3324
(dp3325
g64
(dp3326
g72
I4
ssg73
g3320
sg66
(lp3327
S'text/html; charset=utf-8'
p3328
asbasbasbag59
(g75
g61
NtRp3329
(dp3330
g64
(dp3331
sg73
g3281
sg66
(lp3332
g59
(g80
g61
NtRp3333
(dp3334
g64
(dp3335
g84
g85
ssg73
g3329
sg66
(lp3336
S'Expires'
p3337
asbag59
(g80
g61
NtRp3338
(dp3339
g64
(dp3340
g91
g92
ssg73
g3329
sg66
(lp3341
S':'
asbag59
(g80
g61
NtRp3342
(dp3343
g64
(dp3344
sg73
g3329
sg66
(lp3345
g59
(g60
g61
NtRp3346
(dp3347
g64
(dp3348
g72
I4
ssg73
g3342
sg66
(lp3349
S'Wed, 09 Nov 2011 21:23:53 GMT'
p3350
asbasbasbag59
(g75
g61
NtRp3351
(dp3352
g64
(dp3353
sg73
g3281
sg66
(lp3354
g59
(g80
g61
NtRp3355
(dp3356
g64
(dp3357
g84
g85
ssg73
g3351
sg66
(lp3358
S'Pragma'
p3359
asbag59
(g80
g61
NtRp3360
(dp3361
g64
(dp3362
g91
g92
ssg73
g3351
sg66
(lp3363
S':'
asbag59
(g80
g61
NtRp3364
(dp3365
g64
(dp3366
sg73
g3351
sg66
(lp3367
g59
(g60
g61
NtRp3368
(dp3369
g64
(dp3370
g72
I4
ssg73
g3364
sg66
(lp3371
S'no-cache'
p3372
asbasbasbag59
(g75
g61
NtRp3373
(dp3374
g64
(dp3375
sg73
g3281
sg66
(lp3376
g59
(g80
g61
NtRp3377
(dp3378
g64
(dp3379
g84
g85
ssg73
g3373
sg66
(lp3380
S'X-Powered-By'
p3381
asbag59
(g80
g61
NtRp3382
(dp3383
g64
(dp3384
g91
g92
ssg73
g3373
sg66
(lp3385
S':'
asbag59
(g80
g61
NtRp3386
(dp3387
g64
(dp3388
sg73
g3373
sg66
(lp3389
g59
(g60
g61
NtRp3390
(dp3391
g64
(dp3392
g72
I4
ssg73
g3386
sg66
(lp3393
S'web2py'
p3394
asbasbasbasbasbasbasbag59
(g75
g61
NtRp3395
(dp3396
g64
(dp3397
sg73
g2963
sg66
(lp3398
g59
(g80
g61
NtRp3399
(dp3400
g64
(dp3401
g84
g85
ssg73
g3395
sg66
(lp3402
S'menu'
p3403
asbag59
(g80
g61
NtRp3404
(dp3405
g64
(dp3406
g91
g92
ssg73
g3395
sg66
(lp3407
S':'
asbag59
(g80
g61
NtRp3408
(dp3409
g64
(dp3410
sg73
g3395
sg66
(lp3411
g59
(g60
g61
NtRp3412
(dp3413
g64
(dp3414
g72
I5
ssg73
g3408
sg66
(lp3415
g59
(g68
g61
NtRp3416
(dp3417
g64
(dp3418
g72
I4
ssg73
Nsg66
(lp3419
g59
(g75
g61
NtRp3420
(dp3421
g64
(dp3422
sg73
g3416
sg66
(lp3423
g59
(g80
g61
NtRp3424
(dp3425
g64
(dp3426
sg73
g3420
sg66
(lp3427
g59
(g60
g61
NtRp3428
(dp3429
g64
(dp3430
g72
I4
ssg73
g3424
sg66
(lp3431
g59
(g68
g61
NtRp3432
(dp3433
g64
(dp3434
g72
I3
ssg73
Nsg66
(lp3435
g59
(g75
g61
NtRp3436
(dp3437
g64
(dp3438
sg73
g3432
sg66
(lp3439
g59
(g80
g61
NtRp3440
(dp3441
g64
(dp3442
sg73
g3436
sg66
(lp3443
g59
(g60
g61
NtRp3444
(dp3445
g64
(dp3446
g72
I3
ssg73
g3440
sg66
(lp3447
cgluon.languages
lazyT_unpickle
p3448
(S's\x05\x00\x00\x00Index'
tRp3449
asbasbasbag59
(g75
g61
NtRp3450
(dp3451
g64
(dp3452
sg73
g3432
sg66
(lp3453
g59
(g80
g61
NtRp3454
(dp3455
g64
(dp3456
sg73
g3450
sg66
(lp3457
g59
(g60
g61
NtRp3458
(dp3459
g64
(dp3460
g72
I3
ssg73
g3454
sg66
(lp3461
g102
asbasbasbag59
(g75
g61
NtRp3462
(dp3463
g64
(dp3464
sg73
g3432
sg66
(lp3465
g59
(g80
g61
NtRp3466
(dp3467
g64
(dp3468
sg73
g3462
sg66
(lp3469
g59
(g60
g61
NtRp3470
(dp3471
g64
(dp3472
g72
I3
ssg73
g3466
sg66
(lp3473
S'/Casa_de_Apuestas/default/index'
p3474
asbasbasbag59
(g75
g61
NtRp3475
(dp3476
g64
(dp3477
sg73
g3432
sg66
(lp3478
g59
(g80
g61
NtRp3479
(dp3480
g64
(dp3481
sg73
g3475
sg66
(lp3482
g59
(g60
g61
NtRp3483
(dp3484
g64
(dp3485
g72
I3
ssg73
g3479
sg66
(lp3486
g59
(g68
g61
NtRp3487
(dp3488
g64
(dp3489
g72
I2
ssg73
Nsg66
(lp3490
sbasbasbasbasbasbasbasbasbasbasbasbag59
(g75
g61
NtRp3491
(dp3492
g64
(dp3493
sg73
g2963
sg66
(lp3494
g59
(g80
g61
NtRp3495
(dp3496
g64
(dp3497
g84
g85
ssg73
g3491
sg66
(lp3498
S'meta'
p3499
asbag59
(g80
g61
NtRp3500
(dp3501
g64
(dp3502
g91
g92
ssg73
g3491
sg66
(lp3503
S':'
asbag59
(g80
g61
NtRp3504
(dp3505
g64
(dp3506
sg73
g3491
sg66
(lp3507
g59
(g60
g61
NtRp3508
(dp3509
g64
(dp3510
g72
I5
ssg73
g3504
sg66
(lp3511
g59
(g68
g61
NtRp3512
(dp3513
g64
(dp3514
g72
I4
ssg73
Nsg66
(lp3515
g59
(g75
g61
NtRp3516
(dp3517
g64
(dp3518
sg73
g3512
sg66
(lp3519
g59
(g80
g61
NtRp3520
(dp3521
g64
(dp3522
g84
g85
ssg73
g3516
sg66
(lp3523
S'author'
p3524
asbag59
(g80
g61
NtRp3525
(dp3526
g64
(dp3527
g91
g92
ssg73
g3516
sg66
(lp3528
S':'
asbag59
(g80
g61
NtRp3529
(dp3530
g64
(dp3531
sg73
g3516
sg66
(lp3532
g59
(g60
g61
NtRp3533
(dp3534
g64
(dp3535
g72
I4
ssg73
g3529
sg66
(lp3536
S'JSG Systems <jsg@example.com>'
p3537
asbasbasbag59
(g75
g61
NtRp3538
(dp3539
g64
(dp3540
sg73
g3512
sg66
(lp3541
g59
(g80
g61
NtRp3542
(dp3543
g64
(dp3544
g84
g85
ssg73
g3538
sg66
(lp3545
S'description'
p3546
asbag59
(g80
g61
NtRp3547
(dp3548
g64
(dp3549
g91
g92
ssg73
g3538
sg66
(lp3550
S':'
asbag59
(g80
g61
NtRp3551
(dp3552
g64
(dp3553
sg73
g3538
sg66
(lp3554
g59
(g60
g61
NtRp3555
(dp3556
g64
(dp3557
g72
I4
ssg73
g3551
sg66
(lp3558
S''
asbasbasbag59
(g75
g61
NtRp3559
(dp3560
g64
(dp3561
sg73
g3512
sg66
(lp3562
g59
(g80
g61
NtRp3563
(dp3564
g64
(dp3565
g84
g85
ssg73
g3559
sg66
(lp3566
S'keywords'
p3567
asbag59
(g80
g61
NtRp3568
(dp3569
g64
(dp3570
g91
g92
ssg73
g3559
sg66
(lp3571
S':'
asbag59
(g80
g61
NtRp3572
(dp3573
g64
(dp3574
sg73
g3559
sg66
(lp3575
g59
(g60
g61
NtRp3576
(dp3577
g64
(dp3578
g72
I4
ssg73
g3572
sg66
(lp3579
S'casa, apuestas'
p3580
asbasbasbasbasbasbasbag59
(g75
g61
NtRp3581
(dp3582
g64
(dp3583
sg73
g2963
sg66
(lp3584
g59
(g80
g61
NtRp3585
(dp3586
g64
(dp3587
g84
g85
ssg73
g3581
sg66
(lp3588
S'postprocessing'
p3589
asbag59
(g80
g61
NtRp3590
(dp3591
g64
(dp3592
g91
g92
ssg73
g3581
sg66
(lp3593
S':'
asbag59
(g80
g61
NtRp3594
(dp3595
g64
(dp3596
sg73
g3581
sg66
(lp3597
g59
(g60
g61
NtRp3598
(dp3599
g64
(dp3600
g72
I5
ssg73
g3594
sg66
(lp3601
g59
(g68
g61
NtRp3602
(dp3603
g64
(dp3604
g72
I4
ssg73
Nsg66
(lp3605
sbasbasbasbag59
(g75
g61
NtRp3606
(dp3607
g64
(dp3608
sg73
g2963
sg66
(lp3609
g59
(g80
g61
NtRp3610
(dp3611
g64
(dp3612
g84
g85
ssg73
g3606
sg66
(lp3613
S'session_file'
p3614
asbag59
(g80
g61
NtRp3615
(dp3616
g64
(dp3617
g91
g92
ssg73
g3606
sg66
(lp3618
S':'
asbag59
(g80
g61
NtRp3619
(dp3620
g64
(dp3621
sg73
g3606
sg66
(lp3622
g59
(g60
g61
NtRp3623
(dp3624
g64
(dp3625
g72
I5
ssg73
g3619
sg66
(lp3626
S"<open file 'C:\\Python32\\web2py\\applications\\Casa_de_Apuestas\\sessions\\127.0.0.1-db15a7e0-d383-4281-870c-8916a64875df', mode 'rb+' at 0x060EEC80>"
p3627
asbasbasbag59
(g75
g61
NtRp3628
(dp3629
g64
(dp3630
sg73
g2963
sg66
(lp3631
g59
(g80
g61
NtRp3632
(dp3633
g64
(dp3634
g84
g85
ssg73
g3628
sg66
(lp3635
S'session_filename'
p3636
asbag59
(g80
g61
NtRp3637
(dp3638
g64
(dp3639
g91
g92
ssg73
g3628
sg66
(lp3640
S':'
asbag59
(g80
g61
NtRp3641
(dp3642
g64
(dp3643
sg73
g3628
sg66
(lp3644
g59
(g60
g61
NtRp3645
(dp3646
g64
(dp3647
g72
I5
ssg73
g3641
sg66
(lp3648
S'C:\\Python32\\web2py\\applications\\Casa_de_Apuestas\\sessions\\127.0.0.1-db15a7e0-d383-4281-870c-8916a64875df'
p3649
asbasbasbag59
(g75
g61
NtRp3650
(dp3651
g64
(dp3652
sg73
g2963
sg66
(lp3653
g59
(g80
g61
NtRp3654
(dp3655
g64
(dp3656
g84
g85
ssg73
g3650
sg66
(lp3657
S'session_id'
p3658
asbag59
(g80
g61
NtRp3659
(dp3660
g64
(dp3661
g91
g92
ssg73
g3650
sg66
(lp3662
S':'
asbag59
(g80
g61
NtRp3663
(dp3664
g64
(dp3665
sg73
g3650
sg66
(lp3666
g59
(g60
g61
NtRp3667
(dp3668
g64
(dp3669
g72
I5
ssg73
g3663
sg66
(lp3670
S'127.0.0.1-db15a7e0-d383-4281-870c-8916a64875df'
p3671
asbasbasbag59
(g75
g61
NtRp3672
(dp3673
g64
(dp3674
sg73
g2963
sg66
(lp3675
g59
(g80
g61
NtRp3676
(dp3677
g64
(dp3678
g84
g85
ssg73
g3672
sg66
(lp3679
S'session_id_name'
p3680
asbag59
(g80
g61
NtRp3681
(dp3682
g64
(dp3683
g91
g92
ssg73
g3672
sg66
(lp3684
S':'
asbag59
(g80
g61
NtRp3685
(dp3686
g64
(dp3687
sg73
g3672
sg66
(lp3688
g59
(g60
g61
NtRp3689
(dp3690
g64
(dp3691
g72
I5
ssg73
g3685
sg66
(lp3692
g3020
asbasbasbag59
(g75
g61
NtRp3693
(dp3694
g64
(dp3695
sg73
g2963
sg66
(lp3696
g59
(g80
g61
NtRp3697
(dp3698
g64
(dp3699
g84
g85
ssg73
g3693
sg66
(lp3700
S'session_locked'
p3701
asbag59
(g80
g61
NtRp3702
(dp3703
g64
(dp3704
g91
g92
ssg73
g3693
sg66
(lp3705
S':'
asbag59
(g80
g61
NtRp3706
(dp3707
g64
(dp3708
sg73
g3693
sg66
(lp3709
g59
(g60
g61
NtRp3710
(dp3711
g64
(dp3712
g72
I5
ssg73
g3706
sg66
(lp3713
g1598
asbasbasbag59
(g75
g61
NtRp3714
(dp3715
g64
(dp3716
sg73
g2963
sg66
(lp3717
g59
(g80
g61
NtRp3718
(dp3719
g64
(dp3720
g84
g85
ssg73
g3714
sg66
(lp3721
S'session_new'
p3722
asbag59
(g80
g61
NtRp3723
(dp3724
g64
(dp3725
g91
g92
ssg73
g3714
sg66
(lp3726
S':'
asbag59
(g80
g61
NtRp3727
(dp3728
g64
(dp3729
sg73
g3714
sg66
(lp3730
g59
(g60
g61
NtRp3731
(dp3732
g64
(dp3733
g72
I5
ssg73
g3727
sg66
(lp3734
g102
asbasbasbag59
(g75
g61
NtRp3735
(dp3736
g64
(dp3737
sg73
g2963
sg66
(lp3738
g59
(g80
g61
NtRp3739
(dp3740
g64
(dp3741
g84
g85
ssg73
g3735
sg66
(lp3742
S'status'
p3743
asbag59
(g80
g61
NtRp3744
(dp3745
g64
(dp3746
g91
g92
ssg73
g3735
sg66
(lp3747
S':'
asbag59
(g80
g61
NtRp3748
(dp3749
g64
(dp3750
sg73
g3735
sg66
(lp3751
g59
(g60
g61
NtRp3752
(dp3753
g64
(dp3754
g72
I5
ssg73
g3748
sg66
(lp3755
S'200'
p3756
asbasbasbag59
(g75
g61
NtRp3757
(dp3758
g64
(dp3759
sg73
g2963
sg66
(lp3760
g59
(g80
g61
NtRp3761
(dp3762
g64
(dp3763
g84
g85
ssg73
g3757
sg66
(lp3764
S'subtitle'
p3765
asbag59
(g80
g61
NtRp3766
(dp3767
g64
(dp3768
g91
g92
ssg73
g3757
sg66
(lp3769
S':'
asbag59
(g80
g61
NtRp3770
(dp3771
g64
(dp3772
sg73
g3757
sg66
(lp3773
g59
(g60
g61
NtRp3774
(dp3775
g64
(dp3776
g72
I5
ssg73
g3770
sg66
(lp3777
S''
asbasbasbag59
(g75
g61
NtRp3778
(dp3779
g64
(dp3780
sg73
g2963
sg66
(lp3781
g59
(g80
g61
NtRp3782
(dp3783
g64
(dp3784
g84
g85
ssg73
g3778
sg66
(lp3785
S'title'
p3786
asbag59
(g80
g61
NtRp3787
(dp3788
g64
(dp3789
g91
g92
ssg73
g3778
sg66
(lp3790
S':'
asbag59
(g80
g61
NtRp3791
(dp3792
g64
(dp3793
sg73
g3778
sg66
(lp3794
g59
(g60
g61
NtRp3795
(dp3796
g64
(dp3797
g72
I5
ssg73
g3791
sg66
(lp3798
S'Casa de Apuestas'
p3799
asbasbasbag59
(g75
g61
NtRp3800
(dp3801
g64
(dp3802
sg73
g2963
sg66
(lp3803
g59
(g80
g61
NtRp3804
(dp3805
g64
(dp3806
g84
g85
ssg73
g3800
sg66
(lp3807
g2242
asbag59
(g80
g61
NtRp3808
(dp3809
g64
(dp3810
g91
g92
ssg73
g3800
sg66
(lp3811
S':'
asbag59
(g80
g61
NtRp3812
(dp3813
g64
(dp3814
sg73
g3800
sg66
(lp3815
g59
(g60
g61
NtRp3816
(dp3817
g64
(dp3818
g72
I5
ssg73
g3812
sg66
(lp3819
g2255
asbasbasbag59
(g75
g61
NtRp3820
(dp3821
g64
(dp3822
sg73
g2963
sg66
(lp3823
g59
(g80
g61
NtRp3824
(dp3825
g64
(dp3826
g84
g85
ssg73
g3820
sg66
(lp3827
S'view'
p3828
asbag59
(g80
g61
NtRp3829
(dp3830
g64
(dp3831
g91
g92
ssg73
g3820
sg66
(lp3832
S':'
asbag59
(g80
g61
NtRp3833
(dp3834
g64
(dp3835
sg73
g3820
sg66
(lp3836
g59
(g60
g61
NtRp3837
(dp3838
g64
(dp3839
g72
I5
ssg73
g3833
sg66
(lp3840
S'default/prueba.html'
p3841
asbasbasbasbasbsS'locals'
p3842
(dp3843
g3
S"r'C:\\Python32\\web2py\\applications\\Casa_de_Apuestas\\views\\default/prueba.html'"
p3844
sg5
S'\'from Categoria\\na = Categoria("Hector", "Cara Rot...escripcion()\\nresponse.write(\\\'\\\\r\\\\n\\\', escape=False)\''
p3845
sssS'traceback'
p3846
S'Traceback (most recent call last):\n  File "gluon/restricted.py", line 193, in restricted\n  File "gluon/restricted.py", line 179, in compile2\n  File "C:\\Python32\\web2py\\applications\\Casa_de_Apuestas\\views\\default/prueba.html", line 1\n    from Categoria\n                 \n^\nSyntaxError: invalid syntax\n'
p3847
s.