(dp1
S'output'
p2
S''
sS'layer'
p3
S'C:\\Python32\\web2py_win\\web2py\\applications\\Casa_de_Apuestas\\views\\default/crearCategoria.html'
p4
sS'code'
p5
S'response.write(\'<!DOCTYPE html PUBLIC "-//W3C//DTD XHTML 1.0 Strict//EN" "http://www.w3.org/TR/xhtml1/DTD/xhtml1-strict.dtd">\\r\\n<!--\\r\\nDesign by Free CSS Templates\\r\\nhttp://www.freecsstemplates.org\\r\\nReleased for free under a Creative Commons Attribution 2.5 License\\r\\n\\r\\nName       : Balanced\\r\\nDescription: A two-column, fixed-width design suitable for blogs and small websites.\\r\\nVersion    : 1.0\\r\\nReleased   : 20090927\\r\\n\\r\\n-->\\r\\n<html xmlns="http://www.w3.org/1999/xhtml">\\r\\n <head>\\r\\n  <title>\\r\\n   \', escape=False)\nresponse.write(response.title or request.application)\nresponse.write(\'\\r\\n  </title>\\r\\n  \', escape=False)\nresponse.files.append(URL(request.application,\'static\',\'plugin_layouts/layouts/Balanced/default.css\'))\nresponse.write(\'\\r\\n  \', escape=False)\nresponse.files.append(URL(\'static\',\'plugin_layouts/superfish.js\'))\nresponse.write(\'\\r\\n  \', escape=False)\nresponse.files.insert(0,URL(\'static\',\'js/jquery.js\'))\nresponse.files.insert(1,URL(\'static\',\'css/anytime.css\'))\nresponse.files.insert(2,URL(\'static\',\'js/anytime.js\'))\nresponse.include_meta()\nresponse.include_files()\nresponse.write(\'\\r\\n<script type="text/javascript"><!--\\r\\n    // These variables are used by the web2py_ajax_init function in web2py_ajax.js (which is loaded below).\\r\\n    var w2p_ajax_confirm_message = "\', escape=False)\nresponse.write(T(\'Are you sure you want to delete this object?\'))\nresponse.write(\'";\\r\\n    var w2p_ajax_date_format = "\', escape=False)\nresponse.write(T(\'%Y-%m-%d\'))\nresponse.write(\'";\\r\\n    var w2p_ajax_datetime_format = "\', escape=False)\nresponse.write(T(\'%Y-%m-%d %H:%M:%S\'))\nresponse.write(\'";\\r\\n    //--></script>\\r\\n    <script src="\', escape=False)\nresponse.write(URL(\'static\',\'js/web2py_ajax.js\'))\nresponse.write(\'" type="text/javascript"></script>\\r\\n\', escape=False)\nresponse.write(\'\\r\\n  <style>\\r\\nul.web2py-menu-vertical { width: 150px; position: relative; top:1em; left:1em;  z-index:30; border:0; margin:0; padding: 0; list-style: none; text-decoration: none;}\\r\\nul.web2py-menu-vertical li { margin:0; padding:0; border:0; width: 150px; background: black; text-align:left;}\\r\\nul.web2py-menu-vertical li a { margin:0; padding: 1px 3px 1px 3px; border:0; width: 144px; color: white; font-size:12px;}\\r\\ndiv.flash { position: fixed; float: right; padding: 10px; top: 10px; right: 30px; opacity: 0.75; margin: 10px 10px 10px 10px; text-align: center; clear: both; color: #fff; font-size: 11pt; text-align: center; vertical-align: middle; cursor: pointer; background: black; border: 2px solid #fff; -moz-border-radius: 5px; -webkit-border-radius: 5px; z-index: 2; }\\r\\ndiv.error { background-color: red; color: white; padding: 3px; }\\r\\n.auth_navbar { text-align:right; z-index:20; position: absolute; top: 2px; right:30px; border:0; padding:0 }\\r\\n  </style>\\r\\n </head>\\r\\n <body>\\r\\n  <!-- start header -->\\r\\n  \', escape=False)\ntry:\n    response.write(auth.navbar(action=URL(\'default\',\'user\')))\nexcept:pass\nresponse.write(\'\\r\\n\\r\\n  <!-- start header -->\\r\\n  <div id="header">\\r\\n   <div id="logo">\\r\\n    <h1>\\r\\n     Sistema de Gesti\\xc3\\xb3n 1.0\\r\\n    </h1>\\r\\n   </div>\\r\\n  </div>\\r\\n  <!-- end header -->\\r\\n  <!-- start page -->\\r\\n  <div id="page">\\r\\n   <!-- start content -->\\r\\n   <!-- end content -->\\r\\n   \', escape=False)\nresponse.write(\'\\r\\n<div id="content">\\r\\n    <div class="post greenbox">\\r\\n           <div class="title">\\r\\n                <h1>Insertar Categoria</h1>\\r\\n           </div>\\r\\n           <div class="entry">\\r\\n                    \', escape=False)\nresponse.write(form)\nresponse.write(\'\\r\\n           </div>\\r\\n           <div class="btm">\\r\\n              <div class="l">\\r\\n                  <div class="r">\\r\\n                       <small>*Por favor llenar todos los campos solicitados</small>\\r\\n                  </div>\\r\\n              </div>\\r\\n           </div>\\r\\n     </div>\\r\\n</div>\\r\\n<div id="sidebar">\\r\\n  <ul>\\r\\n    <li>\\r\\n      <h2>\\r\\n       Categorias Agregadas\\r\\n      </h2>\\r\\n      <ul align="center">\\r\\n         \', escape=False)\nfor cat in categorias:\n    response.write(\'\\r\\n         \', escape=False)\n    response.write(T(cat.nombre<"br">))\n    response.write(\'\\r\\n         \', escape=False)\n    pass\nresponse.write(\'\\r\\n      </ul>\\r\\n    </li>\\r\\n     \\r\\n     <!--<h2>\\r\\n      Titulo2\\r\\n     </h2>\\r\\n     <ul>\\r\\n      Mundo\\r\\n     </ul>\\r\\n   </ul>-->\\r\\n</div>\\r\\n\', escape=False)\npass\nresponse.write(\'\\r\\n\', escape=False)\nresponse.write(\'\\r\\n   <!-- start sidebar -->\\r\\n   <!-- end sidebar -->\\r\\n  </div>\\r\\n  <!-- end page -->\\r\\n  <div style="clear: both;">\\r\\n   &nbsp;\\r\\n  </div>\\r\\n  <div id="footer">\\r\\n   <p>\\r\\n    &copy;2011 All Rights Reserved. &nbsp;&bull;&nbsp; Design by JSG Systems\\r\\n   </p>\\r\\n  </div>\\r\\n </body>\\r\\n</html>\\r\\n\', escape=False)'
p6
sS'snapshot'
p7
(dp8
S'exception'
p9
(dp10
S'__getslice__'
p11
S"<method-wrapper '__getslice__' of exceptions.SyntaxError object at 0x0615BAF0>"
p12
sS'text'
p13
S'\'    response.write(T(cat.nombre<"br">))\\n\''
p14
sS'__str__'
p15
S"<method-wrapper '__str__' of exceptions.SyntaxError object at 0x0615BAF0>"
p16
sS'__reduce__'
p17
S'<built-in method __reduce__ of exceptions.SyntaxError object at 0x0615BAF0>'
p18
sS'__dict__'
p19
S'{}'
p20
sS'__init__'
p21
S"<method-wrapper '__init__' of exceptions.SyntaxError object at 0x0615BAF0>"
p22
sS'__setattr__'
p23
S"<method-wrapper '__setattr__' of exceptions.SyntaxError object at 0x0615BAF0>"
p24
sS'__reduce_ex__'
p25
S'<built-in method __reduce_ex__ of exceptions.SyntaxError object at 0x0615BAF0>'
p26
sS'__new__'
p27
S'<built-in method __new__ of type object at 0x1E1CDBD0>'
p28
sS'__class__'
p29
S"<type 'exceptions.SyntaxError'>"
p30
sS'filename'
p31
S"r'C:\\Python32\\web2py_win\\web2py\\applications\\Casa_de_Apuestas\\views\\default/crearCategoria.html'"
p32
sS'lineno'
p33
S'32'
p34
sS'msg'
p35
S"'invalid syntax'"
p36
sS'__doc__'
p37
S"'Invalid syntax.'"
p38
sS'__getitem__'
p39
S"<method-wrapper '__getitem__' of exceptions.SyntaxError object at 0x0615BAF0>"
p40
sS'__setstate__'
p41
S'<built-in method __setstate__ of exceptions.SyntaxError object at 0x0615BAF0>'
p42
sS'__getattribute__'
p43
S"<method-wrapper '__getattribute__' of exceptions.SyntaxError object at 0x0615BAF0>"
p44
sS'print_file_and_line'
p45
S'None'
p46
sS'args'
p47
S'(\'invalid syntax\', (r\'C:\\Python32\\web2py_win\\web2py\\applications\\Casa_de_Apuestas\\views\\default/crearCategoria.html\', 32, 38, \'    response.write(T(cat.nombre<"br">))\\n\'))'
p48
sS'offset'
p49
S'38'
p50
sS'__delattr__'
p51
S"<method-wrapper '__delattr__' of exceptions.SyntaxError object at 0x0615BAF0>"
p52
sS'__repr__'
p53
S"<method-wrapper '__repr__' of exceptions.SyntaxError object at 0x0615BAF0>"
p54
sS'__hash__'
p55
S"<method-wrapper '__hash__' of exceptions.SyntaxError object at 0x0615BAF0>"
p56
ssS'evalue'
p57
S'invalid syntax (default/crearCategoria.html, line 32)'
p58
sS'request'
p59
ccopy_reg
_reconstructor
p60
(cgluon.html
BEAUTIFY
p61
c__builtin__
object
p62
NtRp63
(dp64
S'attributes'
p65
(dp66
sS'components'
p67
(lp68
g60
(cgluon.html
TABLE
p69
g62
NtRp70
(dp71
g65
(dp72
S'level'
p73
I5
ssS'parent'
p74
Nsg67
(lp75
g60
(cgluon.html
TR
p76
g62
NtRp77
(dp78
g65
(dp79
sg74
g70
sg67
(lp80
g60
(cgluon.html
TD
p81
g62
NtRp82
(dp83
g65
(dp84
S'_style'
p85
S'font-weight:bold;'
p86
ssg74
g77
sg67
(lp87
S'ajax'
p88
asbag60
(g81
g62
NtRp89
(dp90
g65
(dp91
S'_valign'
p92
S'top'
p93
ssg74
g77
sg67
(lp94
S':'
asbag60
(g81
g62
NtRp95
(dp96
g65
(dp97
sg74
g77
sg67
(lp98
g60
(g61
g62
NtRp99
(dp100
g65
(dp101
g73
I5
ssg74
g95
sg67
(lp102
S'False'
p103
asbasbasbag60
(g76
g62
NtRp104
(dp105
g65
(dp106
sg74
g70
sg67
(lp107
g60
(g81
g62
NtRp108
(dp109
g65
(dp110
g85
g86
ssg74
g104
sg67
(lp111
S'application'
p112
asbag60
(g81
g62
NtRp113
(dp114
g65
(dp115
g92
g93
ssg74
g104
sg67
(lp116
S':'
asbag60
(g81
g62
NtRp117
(dp118
g65
(dp119
sg74
g104
sg67
(lp120
g60
(g61
g62
NtRp121
(dp122
g65
(dp123
g73
I5
ssg74
g117
sg67
(lp124
S'Casa_de_Apuestas'
p125
asbasbasbag60
(g76
g62
NtRp126
(dp127
g65
(dp128
sg74
g70
sg67
(lp129
g60
(g81
g62
NtRp130
(dp131
g65
(dp132
g85
g86
ssg74
g126
sg67
(lp133
g47
asbag60
(g81
g62
NtRp134
(dp135
g65
(dp136
g92
g93
ssg74
g126
sg67
(lp137
S':'
asbag60
(g81
g62
NtRp138
(dp139
g65
(dp140
sg74
g126
sg67
(lp141
g60
(g61
g62
NtRp142
(dp143
g65
(dp144
g73
I5
ssg74
g138
sg67
(lp145
g60
(g69
g62
NtRp146
(dp147
g65
(dp148
g73
I4
ssg74
Nsg67
(lp149
sbasbasbasbag60
(g76
g62
NtRp150
(dp151
g65
(dp152
sg74
g70
sg67
(lp153
g60
(g81
g62
NtRp154
(dp155
g65
(dp156
g85
g86
ssg74
g150
sg67
(lp157
S'body'
p158
asbag60
(g81
g62
NtRp159
(dp160
g65
(dp161
g92
g93
ssg74
g150
sg67
(lp162
S':'
asbag60
(g81
g62
NtRp163
(dp164
g65
(dp165
sg74
g150
sg67
(lp166
g60
(g61
g62
NtRp167
(dp168
g65
(dp169
g73
I5
ssg74
g163
sg67
(lp170
S'<cStringIO.StringO object at 0x064286A0>'
p171
asbasbasbag60
(g76
g62
NtRp172
(dp173
g65
(dp174
sg74
g70
sg67
(lp175
g60
(g81
g62
NtRp176
(dp177
g65
(dp178
g85
g86
ssg74
g172
sg67
(lp179
S'client'
p180
asbag60
(g81
g62
NtRp181
(dp182
g65
(dp183
g92
g93
ssg74
g172
sg67
(lp184
S':'
asbag60
(g81
g62
NtRp185
(dp186
g65
(dp187
sg74
g172
sg67
(lp188
g60
(g61
g62
NtRp189
(dp190
g65
(dp191
g73
I5
ssg74
g185
sg67
(lp192
S'127.0.0.1'
p193
asbasbasbag60
(g76
g62
NtRp194
(dp195
g65
(dp196
sg74
g70
sg67
(lp197
g60
(g81
g62
NtRp198
(dp199
g65
(dp200
g85
g86
ssg74
g194
sg67
(lp201
S'controller'
p202
asbag60
(g81
g62
NtRp203
(dp204
g65
(dp205
g92
g93
ssg74
g194
sg67
(lp206
S':'
asbag60
(g81
g62
NtRp207
(dp208
g65
(dp209
sg74
g194
sg67
(lp210
g60
(g61
g62
NtRp211
(dp212
g65
(dp213
g73
I5
ssg74
g207
sg67
(lp214
S'default'
p215
asbasbasbag60
(g76
g62
NtRp216
(dp217
g65
(dp218
sg74
g70
sg67
(lp219
g60
(g81
g62
NtRp220
(dp221
g65
(dp222
g85
g86
ssg74
g216
sg67
(lp223
S'cookies'
p224
asbag60
(g81
g62
NtRp225
(dp226
g65
(dp227
g92
g93
ssg74
g216
sg67
(lp228
S':'
asbag60
(g81
g62
NtRp229
(dp230
g65
(dp231
sg74
g216
sg67
(lp232
g60
(g61
g62
NtRp233
(dp234
g65
(dp235
g73
I5
ssg74
g229
sg67
(lp236
g60
(g69
g62
NtRp237
(dp238
g65
(dp239
g73
I4
ssg74
Nsg67
(lp240
g60
(g76
g62
NtRp241
(dp242
g65
(dp243
sg74
g237
sg67
(lp244
g60
(g81
g62
NtRp245
(dp246
g65
(dp247
g85
g86
ssg74
g241
sg67
(lp248
S'session_id_admin'
p249
asbag60
(g81
g62
NtRp250
(dp251
g65
(dp252
g92
g93
ssg74
g241
sg67
(lp253
S':'
asbag60
(g81
g62
NtRp254
(dp255
g65
(dp256
sg74
g241
sg67
(lp257
g60
(g61
g62
NtRp258
(dp259
g65
(dp260
g73
I4
ssg74
g254
sg67
(lp261
g60
(g69
g62
NtRp262
(dp263
g65
(dp264
g73
I3
ssg74
Nsg67
(lp265
g60
(g76
g62
NtRp266
(dp267
g65
(dp268
sg74
g262
sg67
(lp269
g60
(g81
g62
NtRp270
(dp271
g65
(dp272
g85
g86
ssg74
g266
sg67
(lp273
S'comment'
p274
asbag60
(g81
g62
NtRp275
(dp276
g65
(dp277
g92
g93
ssg74
g266
sg67
(lp278
S':'
asbag60
(g81
g62
NtRp279
(dp280
g65
(dp281
sg74
g266
sg67
(lp282
g60
(g61
g62
NtRp283
(dp284
g65
(dp285
g73
I3
ssg74
g279
sg67
(lp286
S''
asbasbasbag60
(g76
g62
NtRp287
(dp288
g65
(dp289
sg74
g262
sg67
(lp290
g60
(g81
g62
NtRp291
(dp292
g65
(dp293
g85
g86
ssg74
g287
sg67
(lp294
S'domain'
p295
asbag60
(g81
g62
NtRp296
(dp297
g65
(dp298
g92
g93
ssg74
g287
sg67
(lp299
S':'
asbag60
(g81
g62
NtRp300
(dp301
g65
(dp302
sg74
g287
sg67
(lp303
g60
(g61
g62
NtRp304
(dp305
g65
(dp306
g73
I3
ssg74
g300
sg67
(lp307
S''
asbasbasbag60
(g76
g62
NtRp308
(dp309
g65
(dp310
sg74
g262
sg67
(lp311
g60
(g81
g62
NtRp312
(dp313
g65
(dp314
g85
g86
ssg74
g308
sg67
(lp315
S'expires'
p316
asbag60
(g81
g62
NtRp317
(dp318
g65
(dp319
g92
g93
ssg74
g308
sg67
(lp320
S':'
asbag60
(g81
g62
NtRp321
(dp322
g65
(dp323
sg74
g308
sg67
(lp324
g60
(g61
g62
NtRp325
(dp326
g65
(dp327
g73
I3
ssg74
g321
sg67
(lp328
S''
asbasbasbag60
(g76
g62
NtRp329
(dp330
g65
(dp331
sg74
g262
sg67
(lp332
g60
(g81
g62
NtRp333
(dp334
g65
(dp335
g85
g86
ssg74
g329
sg67
(lp336
S'max-age'
p337
asbag60
(g81
g62
NtRp338
(dp339
g65
(dp340
g92
g93
ssg74
g329
sg67
(lp341
S':'
asbag60
(g81
g62
NtRp342
(dp343
g65
(dp344
sg74
g329
sg67
(lp345
g60
(g61
g62
NtRp346
(dp347
g65
(dp348
g73
I3
ssg74
g342
sg67
(lp349
S''
asbasbasbag60
(g76
g62
NtRp350
(dp351
g65
(dp352
sg74
g262
sg67
(lp353
g60
(g81
g62
NtRp354
(dp355
g65
(dp356
g85
g86
ssg74
g350
sg67
(lp357
S'path'
p358
asbag60
(g81
g62
NtRp359
(dp360
g65
(dp361
g92
g93
ssg74
g350
sg67
(lp362
S':'
asbag60
(g81
g62
NtRp363
(dp364
g65
(dp365
sg74
g350
sg67
(lp366
g60
(g61
g62
NtRp367
(dp368
g65
(dp369
g73
I3
ssg74
g363
sg67
(lp370
S''
asbasbasbag60
(g76
g62
NtRp371
(dp372
g65
(dp373
sg74
g262
sg67
(lp374
g60
(g81
g62
NtRp375
(dp376
g65
(dp377
g85
g86
ssg74
g371
sg67
(lp378
S'secure'
p379
asbag60
(g81
g62
NtRp380
(dp381
g65
(dp382
g92
g93
ssg74
g371
sg67
(lp383
S':'
asbag60
(g81
g62
NtRp384
(dp385
g65
(dp386
sg74
g371
sg67
(lp387
g60
(g61
g62
NtRp388
(dp389
g65
(dp390
g73
I3
ssg74
g384
sg67
(lp391
S''
asbasbasbag60
(g76
g62
NtRp392
(dp393
g65
(dp394
sg74
g262
sg67
(lp395
g60
(g81
g62
NtRp396
(dp397
g65
(dp398
g85
g86
ssg74
g392
sg67
(lp399
S'version'
p400
asbag60
(g81
g62
NtRp401
(dp402
g65
(dp403
g92
g93
ssg74
g392
sg67
(lp404
S':'
asbag60
(g81
g62
NtRp405
(dp406
g65
(dp407
sg74
g392
sg67
(lp408
g60
(g61
g62
NtRp409
(dp410
g65
(dp411
g73
I3
ssg74
g405
sg67
(lp412
S''
asbasbasbasbasbasbasbag60
(g76
g62
NtRp413
(dp414
g65
(dp415
sg74
g237
sg67
(lp416
g60
(g81
g62
NtRp417
(dp418
g65
(dp419
g85
g86
ssg74
g413
sg67
(lp420
S'session_id_casa_de_apuestas'
p421
asbag60
(g81
g62
NtRp422
(dp423
g65
(dp424
g92
g93
ssg74
g413
sg67
(lp425
S':'
asbag60
(g81
g62
NtRp426
(dp427
g65
(dp428
sg74
g413
sg67
(lp429
g60
(g61
g62
NtRp430
(dp431
g65
(dp432
g73
I4
ssg74
g426
sg67
(lp433
g60
(g69
g62
NtRp434
(dp435
g65
(dp436
g73
I3
ssg74
Nsg67
(lp437
g60
(g76
g62
NtRp438
(dp439
g65
(dp440
sg74
g434
sg67
(lp441
g60
(g81
g62
NtRp442
(dp443
g65
(dp444
g85
g86
ssg74
g438
sg67
(lp445
g274
asbag60
(g81
g62
NtRp446
(dp447
g65
(dp448
g92
g93
ssg74
g438
sg67
(lp449
S':'
asbag60
(g81
g62
NtRp450
(dp451
g65
(dp452
sg74
g438
sg67
(lp453
g60
(g61
g62
NtRp454
(dp455
g65
(dp456
g73
I3
ssg74
g450
sg67
(lp457
S''
asbasbasbag60
(g76
g62
NtRp458
(dp459
g65
(dp460
sg74
g434
sg67
(lp461
g60
(g81
g62
NtRp462
(dp463
g65
(dp464
g85
g86
ssg74
g458
sg67
(lp465
g295
asbag60
(g81
g62
NtRp466
(dp467
g65
(dp468
g92
g93
ssg74
g458
sg67
(lp469
S':'
asbag60
(g81
g62
NtRp470
(dp471
g65
(dp472
sg74
g458
sg67
(lp473
g60
(g61
g62
NtRp474
(dp475
g65
(dp476
g73
I3
ssg74
g470
sg67
(lp477
S''
asbasbasbag60
(g76
g62
NtRp478
(dp479
g65
(dp480
sg74
g434
sg67
(lp481
g60
(g81
g62
NtRp482
(dp483
g65
(dp484
g85
g86
ssg74
g478
sg67
(lp485
g316
asbag60
(g81
g62
NtRp486
(dp487
g65
(dp488
g92
g93
ssg74
g478
sg67
(lp489
S':'
asbag60
(g81
g62
NtRp490
(dp491
g65
(dp492
sg74
g478
sg67
(lp493
g60
(g61
g62
NtRp494
(dp495
g65
(dp496
g73
I3
ssg74
g490
sg67
(lp497
S''
asbasbasbag60
(g76
g62
NtRp498
(dp499
g65
(dp500
sg74
g434
sg67
(lp501
g60
(g81
g62
NtRp502
(dp503
g65
(dp504
g85
g86
ssg74
g498
sg67
(lp505
g337
asbag60
(g81
g62
NtRp506
(dp507
g65
(dp508
g92
g93
ssg74
g498
sg67
(lp509
S':'
asbag60
(g81
g62
NtRp510
(dp511
g65
(dp512
sg74
g498
sg67
(lp513
g60
(g61
g62
NtRp514
(dp515
g65
(dp516
g73
I3
ssg74
g510
sg67
(lp517
S''
asbasbasbag60
(g76
g62
NtRp518
(dp519
g65
(dp520
sg74
g434
sg67
(lp521
g60
(g81
g62
NtRp522
(dp523
g65
(dp524
g85
g86
ssg74
g518
sg67
(lp525
g358
asbag60
(g81
g62
NtRp526
(dp527
g65
(dp528
g92
g93
ssg74
g518
sg67
(lp529
S':'
asbag60
(g81
g62
NtRp530
(dp531
g65
(dp532
sg74
g518
sg67
(lp533
g60
(g61
g62
NtRp534
(dp535
g65
(dp536
g73
I3
ssg74
g530
sg67
(lp537
S''
asbasbasbag60
(g76
g62
NtRp538
(dp539
g65
(dp540
sg74
g434
sg67
(lp541
g60
(g81
g62
NtRp542
(dp543
g65
(dp544
g85
g86
ssg74
g538
sg67
(lp545
g379
asbag60
(g81
g62
NtRp546
(dp547
g65
(dp548
g92
g93
ssg74
g538
sg67
(lp549
S':'
asbag60
(g81
g62
NtRp550
(dp551
g65
(dp552
sg74
g538
sg67
(lp553
g60
(g61
g62
NtRp554
(dp555
g65
(dp556
g73
I3
ssg74
g550
sg67
(lp557
S''
asbasbasbag60
(g76
g62
NtRp558
(dp559
g65
(dp560
sg74
g434
sg67
(lp561
g60
(g81
g62
NtRp562
(dp563
g65
(dp564
g85
g86
ssg74
g558
sg67
(lp565
g400
asbag60
(g81
g62
NtRp566
(dp567
g65
(dp568
g92
g93
ssg74
g558
sg67
(lp569
S':'
asbag60
(g81
g62
NtRp570
(dp571
g65
(dp572
sg74
g558
sg67
(lp573
g60
(g61
g62
NtRp574
(dp575
g65
(dp576
g73
I3
ssg74
g570
sg67
(lp577
S''
asbasbasbasbasbasbasbag60
(g76
g62
NtRp578
(dp579
g65
(dp580
sg74
g237
sg67
(lp581
g60
(g81
g62
NtRp582
(dp583
g65
(dp584
g85
g86
ssg74
g578
sg67
(lp585
S'session_id_welcome'
p586
asbag60
(g81
g62
NtRp587
(dp588
g65
(dp589
g92
g93
ssg74
g578
sg67
(lp590
S':'
asbag60
(g81
g62
NtRp591
(dp592
g65
(dp593
sg74
g578
sg67
(lp594
g60
(g61
g62
NtRp595
(dp596
g65
(dp597
g73
I4
ssg74
g591
sg67
(lp598
g60
(g69
g62
NtRp599
(dp600
g65
(dp601
g73
I3
ssg74
Nsg67
(lp602
g60
(g76
g62
NtRp603
(dp604
g65
(dp605
sg74
g599
sg67
(lp606
g60
(g81
g62
NtRp607
(dp608
g65
(dp609
g85
g86
ssg74
g603
sg67
(lp610
g274
asbag60
(g81
g62
NtRp611
(dp612
g65
(dp613
g92
g93
ssg74
g603
sg67
(lp614
S':'
asbag60
(g81
g62
NtRp615
(dp616
g65
(dp617
sg74
g603
sg67
(lp618
g60
(g61
g62
NtRp619
(dp620
g65
(dp621
g73
I3
ssg74
g615
sg67
(lp622
S''
asbasbasbag60
(g76
g62
NtRp623
(dp624
g65
(dp625
sg74
g599
sg67
(lp626
g60
(g81
g62
NtRp627
(dp628
g65
(dp629
g85
g86
ssg74
g623
sg67
(lp630
g295
asbag60
(g81
g62
NtRp631
(dp632
g65
(dp633
g92
g93
ssg74
g623
sg67
(lp634
S':'
asbag60
(g81
g62
NtRp635
(dp636
g65
(dp637
sg74
g623
sg67
(lp638
g60
(g61
g62
NtRp639
(dp640
g65
(dp641
g73
I3
ssg74
g635
sg67
(lp642
S''
asbasbasbag60
(g76
g62
NtRp643
(dp644
g65
(dp645
sg74
g599
sg67
(lp646
g60
(g81
g62
NtRp647
(dp648
g65
(dp649
g85
g86
ssg74
g643
sg67
(lp650
g316
asbag60
(g81
g62
NtRp651
(dp652
g65
(dp653
g92
g93
ssg74
g643
sg67
(lp654
S':'
asbag60
(g81
g62
NtRp655
(dp656
g65
(dp657
sg74
g643
sg67
(lp658
g60
(g61
g62
NtRp659
(dp660
g65
(dp661
g73
I3
ssg74
g655
sg67
(lp662
S''
asbasbasbag60
(g76
g62
NtRp663
(dp664
g65
(dp665
sg74
g599
sg67
(lp666
g60
(g81
g62
NtRp667
(dp668
g65
(dp669
g85
g86
ssg74
g663
sg67
(lp670
g337
asbag60
(g81
g62
NtRp671
(dp672
g65
(dp673
g92
g93
ssg74
g663
sg67
(lp674
S':'
asbag60
(g81
g62
NtRp675
(dp676
g65
(dp677
sg74
g663
sg67
(lp678
g60
(g61
g62
NtRp679
(dp680
g65
(dp681
g73
I3
ssg74
g675
sg67
(lp682
S''
asbasbasbag60
(g76
g62
NtRp683
(dp684
g65
(dp685
sg74
g599
sg67
(lp686
g60
(g81
g62
NtRp687
(dp688
g65
(dp689
g85
g86
ssg74
g683
sg67
(lp690
g358
asbag60
(g81
g62
NtRp691
(dp692
g65
(dp693
g92
g93
ssg74
g683
sg67
(lp694
S':'
asbag60
(g81
g62
NtRp695
(dp696
g65
(dp697
sg74
g683
sg67
(lp698
g60
(g61
g62
NtRp699
(dp700
g65
(dp701
g73
I3
ssg74
g695
sg67
(lp702
S''
asbasbasbag60
(g76
g62
NtRp703
(dp704
g65
(dp705
sg74
g599
sg67
(lp706
g60
(g81
g62
NtRp707
(dp708
g65
(dp709
g85
g86
ssg74
g703
sg67
(lp710
g379
asbag60
(g81
g62
NtRp711
(dp712
g65
(dp713
g92
g93
ssg74
g703
sg67
(lp714
S':'
asbag60
(g81
g62
NtRp715
(dp716
g65
(dp717
sg74
g703
sg67
(lp718
g60
(g61
g62
NtRp719
(dp720
g65
(dp721
g73
I3
ssg74
g715
sg67
(lp722
S''
asbasbasbag60
(g76
g62
NtRp723
(dp724
g65
(dp725
sg74
g599
sg67
(lp726
g60
(g81
g62
NtRp727
(dp728
g65
(dp729
g85
g86
ssg74
g723
sg67
(lp730
g400
asbag60
(g81
g62
NtRp731
(dp732
g65
(dp733
g92
g93
ssg74
g723
sg67
(lp734
S':'
asbag60
(g81
g62
NtRp735
(dp736
g65
(dp737
sg74
g723
sg67
(lp738
g60
(g61
g62
NtRp739
(dp740
g65
(dp741
g73
I3
ssg74
g735
sg67
(lp742
S''
asbasbasbasbasbasbasbasbasbasbasbag60
(g76
g62
NtRp743
(dp744
g65
(dp745
sg74
g70
sg67
(lp746
g60
(g81
g62
NtRp747
(dp748
g65
(dp749
g85
g86
ssg74
g743
sg67
(lp750
S'env'
p751
asbag60
(g81
g62
NtRp752
(dp753
g65
(dp754
g92
g93
ssg74
g743
sg67
(lp755
S':'
asbag60
(g81
g62
NtRp756
(dp757
g65
(dp758
sg74
g743
sg67
(lp759
g60
(g61
g62
NtRp760
(dp761
g65
(dp762
g73
I5
ssg74
g756
sg67
(lp763
g60
(g69
g62
NtRp764
(dp765
g65
(dp766
g73
I4
ssg74
Nsg67
(lp767
g60
(g76
g62
NtRp768
(dp769
g65
(dp770
sg74
g764
sg67
(lp771
g60
(g81
g62
NtRp772
(dp773
g65
(dp774
g85
g86
ssg74
g768
sg67
(lp775
S'app_folders'
p776
asbag60
(g81
g62
NtRp777
(dp778
g65
(dp779
g92
g93
ssg74
g768
sg67
(lp780
S':'
asbag60
(g81
g62
NtRp781
(dp782
g65
(dp783
sg74
g768
sg67
(lp784
g60
(g61
g62
NtRp785
(dp786
g65
(dp787
g73
I4
ssg74
g781
sg67
(lp788
S"set(['C:\\\\Python32\\\\web2py_win\\\\web2py\\\\applications\\\\admin\\\\', 'C:\\\\Python32\\\\web2py_win\\\\web2py\\\\applications\\\\welcome\\\\', 'C:\\\\Python32\\\\web2py_win\\\\web2py\\\\applications\\\\Casa_de_Apuestas\\\\'])"
p789
asbasbasbag60
(g76
g62
NtRp790
(dp791
g65
(dp792
sg74
g764
sg67
(lp793
g60
(g81
g62
NtRp794
(dp795
g65
(dp796
g85
g86
ssg74
g790
sg67
(lp797
S'applications_parent'
p798
asbag60
(g81
g62
NtRp799
(dp800
g65
(dp801
g92
g93
ssg74
g790
sg67
(lp802
S':'
asbag60
(g81
g62
NtRp803
(dp804
g65
(dp805
sg74
g790
sg67
(lp806
g60
(g61
g62
NtRp807
(dp808
g65
(dp809
g73
I4
ssg74
g803
sg67
(lp810
S'C:\\Python32\\web2py_win\\web2py'
p811
asbasbasbag60
(g76
g62
NtRp812
(dp813
g65
(dp814
sg74
g764
sg67
(lp815
g60
(g81
g62
NtRp816
(dp817
g65
(dp818
g85
g86
ssg74
g812
sg67
(lp819
S'cmd_args'
p820
asbag60
(g81
g62
NtRp821
(dp822
g65
(dp823
g92
g93
ssg74
g812
sg67
(lp824
S':'
asbag60
(g81
g62
NtRp825
(dp826
g65
(dp827
sg74
g812
sg67
(lp828
g60
(g61
g62
NtRp829
(dp830
g65
(dp831
g73
I4
ssg74
g825
sg67
(lp832
g60
(g69
g62
NtRp833
(dp834
g65
(dp835
g73
I3
ssg74
Nsg67
(lp836
sbasbasbasbag60
(g76
g62
NtRp837
(dp838
g65
(dp839
sg74
g764
sg67
(lp840
g60
(g81
g62
NtRp841
(dp842
g65
(dp843
g85
g86
ssg74
g837
sg67
(lp844
S'cmd_options'
p845
asbag60
(g81
g62
NtRp846
(dp847
g65
(dp848
g92
g93
ssg74
g837
sg67
(lp849
S':'
asbag60
(g81
g62
NtRp850
(dp851
g65
(dp852
sg74
g837
sg67
(lp853
g60
(g61
g62
NtRp854
(dp855
g65
(dp856
g73
I4
ssg74
g850
sg67
(lp857
S"<Values at 0x2665fa8: {'verbose': False, 'ip': '127.0.0.1', 'shutdown_timeout': 5, 'taskbar': False, 'nocron': False, 'pid_filename': 'httpserver.pid', 'maxthreads': None, 'softcron': False, 'server_name': 'hector-vaio', 'bpython': False, 'nogui': False, 'port': 8000, 'extcron': False, 'debuglevel': 30, 'test': None, 'folder': 'C:\\\\Python32\\\\web2py_win\\\\web2py', 'config': '', 'import_models': False, 'winservice': '', 'shell': None, 'run': '', 'log_filename': 'httpserver.log', 'args': [''], 'ssl_ca_certificate': None, 'scheduler': None, 'profiler_filename': None, 'ssl_private_key': '', 'password': '<ask>', 'request_queue_size': 5, 'ssl_certificate': '', 'cronjob': False, 'plain': False, 'quiet': False, 'interfaces': None, 'minthreads': None, 'timeout': 10, 'numthreads': None, 'nobanner': False}>"
p858
asbasbasbag60
(g76
g62
NtRp859
(dp860
g65
(dp861
sg74
g764
sg67
(lp862
g60
(g81
g62
NtRp863
(dp864
g65
(dp865
g85
g86
ssg74
g859
sg67
(lp866
S'db_sessions'
p867
asbag60
(g81
g62
NtRp868
(dp869
g65
(dp870
g92
g93
ssg74
g859
sg67
(lp871
S':'
asbag60
(g81
g62
NtRp872
(dp873
g65
(dp874
sg74
g859
sg67
(lp875
g60
(g61
g62
NtRp876
(dp877
g65
(dp878
g73
I4
ssg74
g872
sg67
(lp879
S'set([])'
p880
asbasbasbag60
(g76
g62
NtRp881
(dp882
g65
(dp883
sg74
g764
sg67
(lp884
g60
(g81
g62
NtRp885
(dp886
g65
(dp887
g85
g86
ssg74
g881
sg67
(lp888
S'debugging'
p889
asbag60
(g81
g62
NtRp890
(dp891
g65
(dp892
g92
g93
ssg74
g881
sg67
(lp893
S':'
asbag60
(g81
g62
NtRp894
(dp895
g65
(dp896
sg74
g881
sg67
(lp897
g60
(g61
g62
NtRp898
(dp899
g65
(dp900
g73
I4
ssg74
g894
sg67
(lp901
g103
asbasbasbag60
(g76
g62
NtRp902
(dp903
g65
(dp904
sg74
g764
sg67
(lp905
g60
(g81
g62
NtRp906
(dp907
g65
(dp908
g85
g86
ssg74
g902
sg67
(lp909
S'gluon_parent'
p910
asbag60
(g81
g62
NtRp911
(dp912
g65
(dp913
g92
g93
ssg74
g902
sg67
(lp914
S':'
asbag60
(g81
g62
NtRp915
(dp916
g65
(dp917
sg74
g902
sg67
(lp918
g60
(g61
g62
NtRp919
(dp920
g65
(dp921
g73
I4
ssg74
g915
sg67
(lp922
S'C:\\Python32\\web2py_win\\web2py'
p923
asbasbasbag60
(g76
g62
NtRp924
(dp925
g65
(dp926
sg74
g764
sg67
(lp927
g60
(g81
g62
NtRp928
(dp929
g65
(dp930
g85
g86
ssg74
g924
sg67
(lp931
S'http_accept'
p932
asbag60
(g81
g62
NtRp933
(dp934
g65
(dp935
g92
g93
ssg74
g924
sg67
(lp936
S':'
asbag60
(g81
g62
NtRp937
(dp938
g65
(dp939
sg74
g924
sg67
(lp940
g60
(g61
g62
NtRp941
(dp942
g65
(dp943
g73
I4
ssg74
g937
sg67
(lp944
S'text/html,application/xhtml+xml,application/xml;q=0.9,*/*;q=0.8'
p945
asbasbasbag60
(g76
g62
NtRp946
(dp947
g65
(dp948
sg74
g764
sg67
(lp949
g60
(g81
g62
NtRp950
(dp951
g65
(dp952
g85
g86
ssg74
g946
sg67
(lp953
S'http_accept_charset'
p954
asbag60
(g81
g62
NtRp955
(dp956
g65
(dp957
g92
g93
ssg74
g946
sg67
(lp958
S':'
asbag60
(g81
g62
NtRp959
(dp960
g65
(dp961
sg74
g946
sg67
(lp962
g60
(g61
g62
NtRp963
(dp964
g65
(dp965
g73
I4
ssg74
g959
sg67
(lp966
S'ISO-8859-1,utf-8;q=0.7,*;q=0.3'
p967
asbasbasbag60
(g76
g62
NtRp968
(dp969
g65
(dp970
sg74
g764
sg67
(lp971
g60
(g81
g62
NtRp972
(dp973
g65
(dp974
g85
g86
ssg74
g968
sg67
(lp975
S'http_accept_encoding'
p976
asbag60
(g81
g62
NtRp977
(dp978
g65
(dp979
g92
g93
ssg74
g968
sg67
(lp980
S':'
asbag60
(g81
g62
NtRp981
(dp982
g65
(dp983
sg74
g968
sg67
(lp984
g60
(g61
g62
NtRp985
(dp986
g65
(dp987
g73
I4
ssg74
g981
sg67
(lp988
S'gzip,deflate,sdch'
p989
asbasbasbag60
(g76
g62
NtRp990
(dp991
g65
(dp992
sg74
g764
sg67
(lp993
g60
(g81
g62
NtRp994
(dp995
g65
(dp996
g85
g86
ssg74
g990
sg67
(lp997
S'http_accept_language'
p998
asbag60
(g81
g62
NtRp999
(dp1000
g65
(dp1001
g92
g93
ssg74
g990
sg67
(lp1002
S':'
asbag60
(g81
g62
NtRp1003
(dp1004
g65
(dp1005
sg74
g990
sg67
(lp1006
g60
(g61
g62
NtRp1007
(dp1008
g65
(dp1009
g73
I4
ssg74
g1003
sg67
(lp1010
S'en-US,en;q=0.8'
p1011
asbasbasbag60
(g76
g62
NtRp1012
(dp1013
g65
(dp1014
sg74
g764
sg67
(lp1015
g60
(g81
g62
NtRp1016
(dp1017
g65
(dp1018
g85
g86
ssg74
g1012
sg67
(lp1019
S'http_cache_control'
p1020
asbag60
(g81
g62
NtRp1021
(dp1022
g65
(dp1023
g92
g93
ssg74
g1012
sg67
(lp1024
S':'
asbag60
(g81
g62
NtRp1025
(dp1026
g65
(dp1027
sg74
g1012
sg67
(lp1028
g60
(g61
g62
NtRp1029
(dp1030
g65
(dp1031
g73
I4
ssg74
g1025
sg67
(lp1032
S'max-age=0'
p1033
asbasbasbag60
(g76
g62
NtRp1034
(dp1035
g65
(dp1036
sg74
g764
sg67
(lp1037
g60
(g81
g62
NtRp1038
(dp1039
g65
(dp1040
g85
g86
ssg74
g1034
sg67
(lp1041
S'http_connection'
p1042
asbag60
(g81
g62
NtRp1043
(dp1044
g65
(dp1045
g92
g93
ssg74
g1034
sg67
(lp1046
S':'
asbag60
(g81
g62
NtRp1047
(dp1048
g65
(dp1049
sg74
g1034
sg67
(lp1050
g60
(g61
g62
NtRp1051
(dp1052
g65
(dp1053
g73
I4
ssg74
g1047
sg67
(lp1054
S'keep-alive'
p1055
asbasbasbag60
(g76
g62
NtRp1056
(dp1057
g65
(dp1058
sg74
g764
sg67
(lp1059
g60
(g81
g62
NtRp1060
(dp1061
g65
(dp1062
g85
g86
ssg74
g1056
sg67
(lp1063
S'http_cookie'
p1064
asbag60
(g81
g62
NtRp1065
(dp1066
g65
(dp1067
g92
g93
ssg74
g1056
sg67
(lp1068
S':'
asbag60
(g81
g62
NtRp1069
(dp1070
g65
(dp1071
sg74
g1056
sg67
(lp1072
g60
(g61
g62
NtRp1073
(dp1074
g65
(dp1075
g73
I4
ssg74
g1069
sg67
(lp1076
S'session_id_welcome=127.0.0.1-84b09f99-598b-4fb9-85b4-32c79cf5eac7; session_id_casa_de_apuestas=127.0.0.1-e6356fb0-adec-49e7-b0a9-949176dd84ed; session_id_admin=127.0.0.1-c09011cb-eb7d-4a4e-9965-ec1c2397d382'
p1077
asbasbasbag60
(g76
g62
NtRp1078
(dp1079
g65
(dp1080
sg74
g764
sg67
(lp1081
g60
(g81
g62
NtRp1082
(dp1083
g65
(dp1084
g85
g86
ssg74
g1078
sg67
(lp1085
S'http_host'
p1086
asbag60
(g81
g62
NtRp1087
(dp1088
g65
(dp1089
g92
g93
ssg74
g1078
sg67
(lp1090
S':'
asbag60
(g81
g62
NtRp1091
(dp1092
g65
(dp1093
sg74
g1078
sg67
(lp1094
g60
(g61
g62
NtRp1095
(dp1096
g65
(dp1097
g73
I4
ssg74
g1091
sg67
(lp1098
S'127.0.0.1:8000'
p1099
asbasbasbag60
(g76
g62
NtRp1100
(dp1101
g65
(dp1102
sg74
g764
sg67
(lp1103
g60
(g81
g62
NtRp1104
(dp1105
g65
(dp1106
g85
g86
ssg74
g1100
sg67
(lp1107
S'http_user_agent'
p1108
asbag60
(g81
g62
NtRp1109
(dp1110
g65
(dp1111
g92
g93
ssg74
g1100
sg67
(lp1112
S':'
asbag60
(g81
g62
NtRp1113
(dp1114
g65
(dp1115
sg74
g1100
sg67
(lp1116
g60
(g61
g62
NtRp1117
(dp1118
g65
(dp1119
g73
I4
ssg74
g1113
sg67
(lp1120
S'Mozilla/5.0 (Windows NT 6.1) AppleWebKit/535.2 (KHTML, like Gecko) Chrome/15.0.874.106 Safari/535.2'
p1121
asbasbasbag60
(g76
g62
NtRp1122
(dp1123
g65
(dp1124
sg74
g764
sg67
(lp1125
g60
(g81
g62
NtRp1126
(dp1127
g65
(dp1128
g85
g86
ssg74
g1122
sg67
(lp1129
S'is_jython'
p1130
asbag60
(g81
g62
NtRp1131
(dp1132
g65
(dp1133
g92
g93
ssg74
g1122
sg67
(lp1134
S':'
asbag60
(g81
g62
NtRp1135
(dp1136
g65
(dp1137
sg74
g1122
sg67
(lp1138
g60
(g61
g62
NtRp1139
(dp1140
g65
(dp1141
g73
I4
ssg74
g1135
sg67
(lp1142
g103
asbasbasbag60
(g76
g62
NtRp1143
(dp1144
g65
(dp1145
sg74
g764
sg67
(lp1146
g60
(g81
g62
NtRp1147
(dp1148
g65
(dp1149
g85
g86
ssg74
g1143
sg67
(lp1150
S'path_info'
p1151
asbag60
(g81
g62
NtRp1152
(dp1153
g65
(dp1154
g92
g93
ssg74
g1143
sg67
(lp1155
S':'
asbag60
(g81
g62
NtRp1156
(dp1157
g65
(dp1158
sg74
g1143
sg67
(lp1159
g60
(g61
g62
NtRp1160
(dp1161
g65
(dp1162
g73
I4
ssg74
g1156
sg67
(lp1163
S'/Casa_de_Apuestas/default/crearCategoria'
p1164
asbasbasbag60
(g76
g62
NtRp1165
(dp1166
g65
(dp1167
sg74
g764
sg67
(lp1168
g60
(g81
g62
NtRp1169
(dp1170
g65
(dp1171
g85
g86
ssg74
g1165
sg67
(lp1172
S'query_string'
p1173
asbag60
(g81
g62
NtRp1174
(dp1175
g65
(dp1176
g92
g93
ssg74
g1165
sg67
(lp1177
S':'
asbag60
(g81
g62
NtRp1178
(dp1179
g65
(dp1180
sg74
g1165
sg67
(lp1181
g60
(g61
g62
NtRp1182
(dp1183
g65
(dp1184
g73
I4
ssg74
g1178
sg67
(lp1185
S''
asbasbasbag60
(g76
g62
NtRp1186
(dp1187
g65
(dp1188
sg74
g764
sg67
(lp1189
g60
(g81
g62
NtRp1190
(dp1191
g65
(dp1192
g85
g86
ssg74
g1186
sg67
(lp1193
S'remote_addr'
p1194
asbag60
(g81
g62
NtRp1195
(dp1196
g65
(dp1197
g92
g93
ssg74
g1186
sg67
(lp1198
S':'
asbag60
(g81
g62
NtRp1199
(dp1200
g65
(dp1201
sg74
g1186
sg67
(lp1202
g60
(g61
g62
NtRp1203
(dp1204
g65
(dp1205
g73
I4
ssg74
g1199
sg67
(lp1206
g193
asbasbasbag60
(g76
g62
NtRp1207
(dp1208
g65
(dp1209
sg74
g764
sg67
(lp1210
g60
(g81
g62
NtRp1211
(dp1212
g65
(dp1213
g85
g86
ssg74
g1207
sg67
(lp1214
S'remote_port'
p1215
asbag60
(g81
g62
NtRp1216
(dp1217
g65
(dp1218
g92
g93
ssg74
g1207
sg67
(lp1219
S':'
asbag60
(g81
g62
NtRp1220
(dp1221
g65
(dp1222
sg74
g1207
sg67
(lp1223
g60
(g61
g62
NtRp1224
(dp1225
g65
(dp1226
g73
I4
ssg74
g1220
sg67
(lp1227
S'50529'
p1228
asbasbasbag60
(g76
g62
NtRp1229
(dp1230
g65
(dp1231
sg74
g764
sg67
(lp1232
g60
(g81
g62
NtRp1233
(dp1234
g65
(dp1235
g85
g86
ssg74
g1229
sg67
(lp1236
S'request_method'
p1237
asbag60
(g81
g62
NtRp1238
(dp1239
g65
(dp1240
g92
g93
ssg74
g1229
sg67
(lp1241
S':'
asbag60
(g81
g62
NtRp1242
(dp1243
g65
(dp1244
sg74
g1229
sg67
(lp1245
g60
(g61
g62
NtRp1246
(dp1247
g65
(dp1248
g73
I4
ssg74
g1242
sg67
(lp1249
S'GET'
p1250
asbasbasbag60
(g76
g62
NtRp1251
(dp1252
g65
(dp1253
sg74
g764
sg67
(lp1254
g60
(g81
g62
NtRp1255
(dp1256
g65
(dp1257
g85
g86
ssg74
g1251
sg67
(lp1258
S'script_name'
p1259
asbag60
(g81
g62
NtRp1260
(dp1261
g65
(dp1262
g92
g93
ssg74
g1251
sg67
(lp1263
S':'
asbag60
(g81
g62
NtRp1264
(dp1265
g65
(dp1266
sg74
g1251
sg67
(lp1267
g60
(g61
g62
NtRp1268
(dp1269
g65
(dp1270
g73
I4
ssg74
g1264
sg67
(lp1271
S''
asbasbasbag60
(g76
g62
NtRp1272
(dp1273
g65
(dp1274
sg74
g764
sg67
(lp1275
g60
(g81
g62
NtRp1276
(dp1277
g65
(dp1278
g85
g86
ssg74
g1272
sg67
(lp1279
S'server_name'
p1280
asbag60
(g81
g62
NtRp1281
(dp1282
g65
(dp1283
g92
g93
ssg74
g1272
sg67
(lp1284
S':'
asbag60
(g81
g62
NtRp1285
(dp1286
g65
(dp1287
sg74
g1272
sg67
(lp1288
g60
(g61
g62
NtRp1289
(dp1290
g65
(dp1291
g73
I4
ssg74
g1285
sg67
(lp1292
S'hector-vaio'
p1293
asbasbasbag60
(g76
g62
NtRp1294
(dp1295
g65
(dp1296
sg74
g764
sg67
(lp1297
g60
(g81
g62
NtRp1298
(dp1299
g65
(dp1300
g85
g86
ssg74
g1294
sg67
(lp1301
S'server_port'
p1302
asbag60
(g81
g62
NtRp1303
(dp1304
g65
(dp1305
g92
g93
ssg74
g1294
sg67
(lp1306
S':'
asbag60
(g81
g62
NtRp1307
(dp1308
g65
(dp1309
sg74
g1294
sg67
(lp1310
g60
(g61
g62
NtRp1311
(dp1312
g65
(dp1313
g73
I4
ssg74
g1307
sg67
(lp1314
S'8000'
p1315
asbasbasbag60
(g76
g62
NtRp1316
(dp1317
g65
(dp1318
sg74
g764
sg67
(lp1319
g60
(g81
g62
NtRp1320
(dp1321
g65
(dp1322
g85
g86
ssg74
g1316
sg67
(lp1323
S'server_protocol'
p1324
asbag60
(g81
g62
NtRp1325
(dp1326
g65
(dp1327
g92
g93
ssg74
g1316
sg67
(lp1328
S':'
asbag60
(g81
g62
NtRp1329
(dp1330
g65
(dp1331
sg74
g1316
sg67
(lp1332
g60
(g61
g62
NtRp1333
(dp1334
g65
(dp1335
g73
I4
ssg74
g1329
sg67
(lp1336
S'HTTP/1.1'
p1337
asbasbasbag60
(g76
g62
NtRp1338
(dp1339
g65
(dp1340
sg74
g764
sg67
(lp1341
g60
(g81
g62
NtRp1342
(dp1343
g65
(dp1344
g85
g86
ssg74
g1338
sg67
(lp1345
S'server_software'
p1346
asbag60
(g81
g62
NtRp1347
(dp1348
g65
(dp1349
g92
g93
ssg74
g1338
sg67
(lp1350
S':'
asbag60
(g81
g62
NtRp1351
(dp1352
g65
(dp1353
sg74
g1338
sg67
(lp1354
g60
(g61
g62
NtRp1355
(dp1356
g65
(dp1357
g73
I4
ssg74
g1351
sg67
(lp1358
S'Rocket 1.2.4'
p1359
asbasbasbag60
(g76
g62
NtRp1360
(dp1361
g65
(dp1362
sg74
g764
sg67
(lp1363
g60
(g81
g62
NtRp1364
(dp1365
g65
(dp1366
g85
g86
ssg74
g1360
sg67
(lp1367
S'web2py_crontype'
p1368
asbag60
(g81
g62
NtRp1369
(dp1370
g65
(dp1371
g92
g93
ssg74
g1360
sg67
(lp1372
S':'
asbag60
(g81
g62
NtRp1373
(dp1374
g65
(dp1375
sg74
g1360
sg67
(lp1376
g60
(g61
g62
NtRp1377
(dp1378
g65
(dp1379
g73
I4
ssg74
g1373
sg67
(lp1380
S'hard'
p1381
asbasbasbag60
(g76
g62
NtRp1382
(dp1383
g65
(dp1384
sg74
g764
sg67
(lp1385
g60
(g81
g62
NtRp1386
(dp1387
g65
(dp1388
g85
g86
ssg74
g1382
sg67
(lp1389
S'web2py_path'
p1390
asbag60
(g81
g62
NtRp1391
(dp1392
g65
(dp1393
g92
g93
ssg74
g1382
sg67
(lp1394
S':'
asbag60
(g81
g62
NtRp1395
(dp1396
g65
(dp1397
sg74
g1382
sg67
(lp1398
g60
(g61
g62
NtRp1399
(dp1400
g65
(dp1401
g73
I4
ssg74
g1395
sg67
(lp1402
g811
asbasbasbag60
(g76
g62
NtRp1403
(dp1404
g65
(dp1405
sg74
g764
sg67
(lp1406
g60
(g81
g62
NtRp1407
(dp1408
g65
(dp1409
g85
g86
ssg74
g1403
sg67
(lp1410
S'web2py_version'
p1411
asbag60
(g81
g62
NtRp1412
(dp1413
g65
(dp1414
g92
g93
ssg74
g1403
sg67
(lp1415
S':'
asbag60
(g81
g62
NtRp1416
(dp1417
g65
(dp1418
sg74
g1403
sg67
(lp1419
g60
(g61
g62
NtRp1420
(dp1421
g65
(dp1422
g73
I4
ssg74
g1416
sg67
(lp1423
g60
(g69
g62
NtRp1424
(dp1425
g65
(dp1426
g73
I3
ssg74
Nsg67
(lp1427
g60
(g76
g62
NtRp1428
(dp1429
g65
(dp1430
sg74
g1424
sg67
(lp1431
g60
(g81
g62
NtRp1432
(dp1433
g65
(dp1434
sg74
g1428
sg67
(lp1435
g60
(g61
g62
NtRp1436
(dp1437
g65
(dp1438
g73
I3
ssg74
g1432
sg67
(lp1439
S'1'
asbasbasbag60
(g76
g62
NtRp1440
(dp1441
g65
(dp1442
sg74
g1424
sg67
(lp1443
g60
(g81
g62
NtRp1444
(dp1445
g65
(dp1446
sg74
g1440
sg67
(lp1447
g60
(g61
g62
NtRp1448
(dp1449
g65
(dp1450
g73
I3
ssg74
g1444
sg67
(lp1451
S'99'
p1452
asbasbasbag60
(g76
g62
NtRp1453
(dp1454
g65
(dp1455
sg74
g1424
sg67
(lp1456
g60
(g81
g62
NtRp1457
(dp1458
g65
(dp1459
sg74
g1453
sg67
(lp1460
g60
(g61
g62
NtRp1461
(dp1462
g65
(dp1463
g73
I3
ssg74
g1457
sg67
(lp1464
S'2'
asbasbasbag60
(g76
g62
NtRp1465
(dp1466
g65
(dp1467
sg74
g1424
sg67
(lp1468
g60
(g81
g62
NtRp1469
(dp1470
g65
(dp1471
sg74
g1465
sg67
(lp1472
g60
(g61
g62
NtRp1473
(dp1474
g65
(dp1475
g73
I3
ssg74
g1469
sg67
(lp1476
S'datetime.datetime(2011, 9, 26, 6, 55, 33)'
p1477
asbasbasbag60
(g76
g62
NtRp1478
(dp1479
g65
(dp1480
sg74
g1424
sg67
(lp1481
g60
(g81
g62
NtRp1482
(dp1483
g65
(dp1484
sg74
g1478
sg67
(lp1485
g60
(g61
g62
NtRp1486
(dp1487
g65
(dp1488
g73
I3
ssg74
g1482
sg67
(lp1489
S'stable'
p1490
asbasbasbasbasbasbasbag60
(g76
g62
NtRp1491
(dp1492
g65
(dp1493
sg74
g764
sg67
(lp1494
g60
(g81
g62
NtRp1495
(dp1496
g65
(dp1497
g85
g86
ssg74
g1491
sg67
(lp1498
S'wsgi_errors'
p1499
asbag60
(g81
g62
NtRp1500
(dp1501
g65
(dp1502
g92
g93
ssg74
g1491
sg67
(lp1503
S':'
asbag60
(g81
g62
NtRp1504
(dp1505
g65
(dp1506
sg74
g1491
sg67
(lp1507
g60
(g61
g62
NtRp1508
(dp1509
g65
(dp1510
g73
I4
ssg74
g1504
sg67
(lp1511
S"<open file '<stderr>', mode 'w' at 0x015700B0>"
p1512
asbasbasbag60
(g76
g62
NtRp1513
(dp1514
g65
(dp1515
sg74
g764
sg67
(lp1516
g60
(g81
g62
NtRp1517
(dp1518
g65
(dp1519
g85
g86
ssg74
g1513
sg67
(lp1520
S'wsgi_file_wrapper'
p1521
asbag60
(g81
g62
NtRp1522
(dp1523
g65
(dp1524
g92
g93
ssg74
g1513
sg67
(lp1525
S':'
asbag60
(g81
g62
NtRp1526
(dp1527
g65
(dp1528
sg74
g1513
sg67
(lp1529
g60
(g61
g62
NtRp1530
(dp1531
g65
(dp1532
g73
I4
ssg74
g1526
sg67
(lp1533
S'<class wsgiref.util.FileWrapper at 0x02409AB0>'
p1534
asbasbasbag60
(g76
g62
NtRp1535
(dp1536
g65
(dp1537
sg74
g764
sg67
(lp1538
g60
(g81
g62
NtRp1539
(dp1540
g65
(dp1541
g85
g86
ssg74
g1535
sg67
(lp1542
S'wsgi_input'
p1543
asbag60
(g81
g62
NtRp1544
(dp1545
g65
(dp1546
g92
g93
ssg74
g1535
sg67
(lp1547
S':'
asbag60
(g81
g62
NtRp1548
(dp1549
g65
(dp1550
sg74
g1535
sg67
(lp1551
g60
(g61
g62
NtRp1552
(dp1553
g65
(dp1554
g73
I4
ssg74
g1548
sg67
(lp1555
S'<socket._fileobject object at 0x05CD5230>'
p1556
asbasbasbag60
(g76
g62
NtRp1557
(dp1558
g65
(dp1559
sg74
g764
sg67
(lp1560
g60
(g81
g62
NtRp1561
(dp1562
g65
(dp1563
g85
g86
ssg74
g1557
sg67
(lp1564
S'wsgi_multiprocess'
p1565
asbag60
(g81
g62
NtRp1566
(dp1567
g65
(dp1568
g92
g93
ssg74
g1557
sg67
(lp1569
S':'
asbag60
(g81
g62
NtRp1570
(dp1571
g65
(dp1572
sg74
g1557
sg67
(lp1573
g60
(g61
g62
NtRp1574
(dp1575
g65
(dp1576
g73
I4
ssg74
g1570
sg67
(lp1577
g103
asbasbasbag60
(g76
g62
NtRp1578
(dp1579
g65
(dp1580
sg74
g764
sg67
(lp1581
g60
(g81
g62
NtRp1582
(dp1583
g65
(dp1584
g85
g86
ssg74
g1578
sg67
(lp1585
S'wsgi_multithread'
p1586
asbag60
(g81
g62
NtRp1587
(dp1588
g65
(dp1589
g92
g93
ssg74
g1578
sg67
(lp1590
S':'
asbag60
(g81
g62
NtRp1591
(dp1592
g65
(dp1593
sg74
g1578
sg67
(lp1594
g60
(g61
g62
NtRp1595
(dp1596
g65
(dp1597
g73
I4
ssg74
g1591
sg67
(lp1598
S'True'
p1599
asbasbasbag60
(g76
g62
NtRp1600
(dp1601
g65
(dp1602
sg74
g764
sg67
(lp1603
g60
(g81
g62
NtRp1604
(dp1605
g65
(dp1606
g85
g86
ssg74
g1600
sg67
(lp1607
S'wsgi_run_once'
p1608
asbag60
(g81
g62
NtRp1609
(dp1610
g65
(dp1611
g92
g93
ssg74
g1600
sg67
(lp1612
S':'
asbag60
(g81
g62
NtRp1613
(dp1614
g65
(dp1615
sg74
g1600
sg67
(lp1616
g60
(g61
g62
NtRp1617
(dp1618
g65
(dp1619
g73
I4
ssg74
g1613
sg67
(lp1620
g103
asbasbasbag60
(g76
g62
NtRp1621
(dp1622
g65
(dp1623
sg74
g764
sg67
(lp1624
g60
(g81
g62
NtRp1625
(dp1626
g65
(dp1627
g85
g86
ssg74
g1621
sg67
(lp1628
S'wsgi_url_scheme'
p1629
asbag60
(g81
g62
NtRp1630
(dp1631
g65
(dp1632
g92
g93
ssg74
g1621
sg67
(lp1633
S':'
asbag60
(g81
g62
NtRp1634
(dp1635
g65
(dp1636
sg74
g1621
sg67
(lp1637
g60
(g61
g62
NtRp1638
(dp1639
g65
(dp1640
g73
I4
ssg74
g1634
sg67
(lp1641
S'http'
p1642
asbasbasbag60
(g76
g62
NtRp1643
(dp1644
g65
(dp1645
sg74
g764
sg67
(lp1646
g60
(g81
g62
NtRp1647
(dp1648
g65
(dp1649
g85
g86
ssg74
g1643
sg67
(lp1650
S'wsgi_version'
p1651
asbag60
(g81
g62
NtRp1652
(dp1653
g65
(dp1654
g92
g93
ssg74
g1643
sg67
(lp1655
S':'
asbag60
(g81
g62
NtRp1656
(dp1657
g65
(dp1658
sg74
g1643
sg67
(lp1659
g60
(g61
g62
NtRp1660
(dp1661
g65
(dp1662
g73
I4
ssg74
g1656
sg67
(lp1663
g60
(g69
g62
NtRp1664
(dp1665
g65
(dp1666
g73
I3
ssg74
Nsg67
(lp1667
g60
(g76
g62
NtRp1668
(dp1669
g65
(dp1670
sg74
g1664
sg67
(lp1671
g60
(g81
g62
NtRp1672
(dp1673
g65
(dp1674
sg74
g1668
sg67
(lp1675
g60
(g61
g62
NtRp1676
(dp1677
g65
(dp1678
g73
I3
ssg74
g1672
sg67
(lp1679
S'1'
asbasbasbag60
(g76
g62
NtRp1680
(dp1681
g65
(dp1682
sg74
g1664
sg67
(lp1683
g60
(g81
g62
NtRp1684
(dp1685
g65
(dp1686
sg74
g1680
sg67
(lp1687
g60
(g61
g62
NtRp1688
(dp1689
g65
(dp1690
g73
I3
ssg74
g1684
sg67
(lp1691
S'0'
asbasbasbasbasbasbasbasbasbasbasbag60
(g76
g62
NtRp1692
(dp1693
g65
(dp1694
sg74
g70
sg67
(lp1695
g60
(g81
g62
NtRp1696
(dp1697
g65
(dp1698
g85
g86
ssg74
g1692
sg67
(lp1699
S'extension'
p1700
asbag60
(g81
g62
NtRp1701
(dp1702
g65
(dp1703
g92
g93
ssg74
g1692
sg67
(lp1704
S':'
asbag60
(g81
g62
NtRp1705
(dp1706
g65
(dp1707
sg74
g1692
sg67
(lp1708
g60
(g61
g62
NtRp1709
(dp1710
g65
(dp1711
g73
I5
ssg74
g1705
sg67
(lp1712
S'html'
p1713
asbasbasbag60
(g76
g62
NtRp1714
(dp1715
g65
(dp1716
sg74
g70
sg67
(lp1717
g60
(g81
g62
NtRp1718
(dp1719
g65
(dp1720
g85
g86
ssg74
g1714
sg67
(lp1721
S'folder'
p1722
asbag60
(g81
g62
NtRp1723
(dp1724
g65
(dp1725
g92
g93
ssg74
g1714
sg67
(lp1726
S':'
asbag60
(g81
g62
NtRp1727
(dp1728
g65
(dp1729
sg74
g1714
sg67
(lp1730
g60
(g61
g62
NtRp1731
(dp1732
g65
(dp1733
g73
I5
ssg74
g1727
sg67
(lp1734
S'C:\\Python32\\web2py_win\\web2py\\applications\\Casa_de_Apuestas\\'
p1735
asbasbasbag60
(g76
g62
NtRp1736
(dp1737
g65
(dp1738
sg74
g70
sg67
(lp1739
g60
(g81
g62
NtRp1740
(dp1741
g65
(dp1742
g85
g86
ssg74
g1736
sg67
(lp1743
S'function'
p1744
asbag60
(g81
g62
NtRp1745
(dp1746
g65
(dp1747
g92
g93
ssg74
g1736
sg67
(lp1748
S':'
asbag60
(g81
g62
NtRp1749
(dp1750
g65
(dp1751
sg74
g1736
sg67
(lp1752
g60
(g61
g62
NtRp1753
(dp1754
g65
(dp1755
g73
I5
ssg74
g1749
sg67
(lp1756
S'crearCategoria'
p1757
asbasbasbag60
(g76
g62
NtRp1758
(dp1759
g65
(dp1760
sg74
g70
sg67
(lp1761
g60
(g81
g62
NtRp1762
(dp1763
g65
(dp1764
g85
g86
ssg74
g1758
sg67
(lp1765
S'get_vars'
p1766
asbag60
(g81
g62
NtRp1767
(dp1768
g65
(dp1769
g92
g93
ssg74
g1758
sg67
(lp1770
S':'
asbag60
(g81
g62
NtRp1771
(dp1772
g65
(dp1773
sg74
g1758
sg67
(lp1774
g60
(g61
g62
NtRp1775
(dp1776
g65
(dp1777
g73
I5
ssg74
g1771
sg67
(lp1778
g60
(g69
g62
NtRp1779
(dp1780
g65
(dp1781
g73
I4
ssg74
Nsg67
(lp1782
sbasbasbasbag60
(g76
g62
NtRp1783
(dp1784
g65
(dp1785
sg74
g70
sg67
(lp1786
g60
(g81
g62
NtRp1787
(dp1788
g65
(dp1789
g85
g86
ssg74
g1783
sg67
(lp1790
S'global_settings'
p1791
asbag60
(g81
g62
NtRp1792
(dp1793
g65
(dp1794
g92
g93
ssg74
g1783
sg67
(lp1795
S':'
asbag60
(g81
g62
NtRp1796
(dp1797
g65
(dp1798
sg74
g1783
sg67
(lp1799
g60
(g61
g62
NtRp1800
(dp1801
g65
(dp1802
g73
I5
ssg74
g1796
sg67
(lp1803
g60
(g69
g62
NtRp1804
(dp1805
g65
(dp1806
g73
I4
ssg74
Nsg67
(lp1807
g60
(g76
g62
NtRp1808
(dp1809
g65
(dp1810
sg74
g1804
sg67
(lp1811
g60
(g81
g62
NtRp1812
(dp1813
g65
(dp1814
g85
g86
ssg74
g1808
sg67
(lp1815
g776
asbag60
(g81
g62
NtRp1816
(dp1817
g65
(dp1818
g92
g93
ssg74
g1808
sg67
(lp1819
S':'
asbag60
(g81
g62
NtRp1820
(dp1821
g65
(dp1822
sg74
g1808
sg67
(lp1823
g60
(g61
g62
NtRp1824
(dp1825
g65
(dp1826
g73
I4
ssg74
g1820
sg67
(lp1827
S"set(['C:\\\\Python32\\\\web2py_win\\\\web2py\\\\applications\\\\admin\\\\', 'C:\\\\Python32\\\\web2py_win\\\\web2py\\\\applications\\\\welcome\\\\', 'C:\\\\Python32\\\\web2py_win\\\\web2py\\\\applications\\\\Casa_de_Apuestas\\\\'])"
p1828
asbasbasbag60
(g76
g62
NtRp1829
(dp1830
g65
(dp1831
sg74
g1804
sg67
(lp1832
g60
(g81
g62
NtRp1833
(dp1834
g65
(dp1835
g85
g86
ssg74
g1829
sg67
(lp1836
g798
asbag60
(g81
g62
NtRp1837
(dp1838
g65
(dp1839
g92
g93
ssg74
g1829
sg67
(lp1840
S':'
asbag60
(g81
g62
NtRp1841
(dp1842
g65
(dp1843
sg74
g1829
sg67
(lp1844
g60
(g61
g62
NtRp1845
(dp1846
g65
(dp1847
g73
I4
ssg74
g1841
sg67
(lp1848
g811
asbasbasbag60
(g76
g62
NtRp1849
(dp1850
g65
(dp1851
sg74
g1804
sg67
(lp1852
g60
(g81
g62
NtRp1853
(dp1854
g65
(dp1855
g85
g86
ssg74
g1849
sg67
(lp1856
g820
asbag60
(g81
g62
NtRp1857
(dp1858
g65
(dp1859
g92
g93
ssg74
g1849
sg67
(lp1860
S':'
asbag60
(g81
g62
NtRp1861
(dp1862
g65
(dp1863
sg74
g1849
sg67
(lp1864
g60
(g61
g62
NtRp1865
(dp1866
g65
(dp1867
g73
I4
ssg74
g1861
sg67
(lp1868
g60
(g69
g62
NtRp1869
(dp1870
g65
(dp1871
g73
I3
ssg74
Nsg67
(lp1872
sbasbasbasbag60
(g76
g62
NtRp1873
(dp1874
g65
(dp1875
sg74
g1804
sg67
(lp1876
g60
(g81
g62
NtRp1877
(dp1878
g65
(dp1879
g85
g86
ssg74
g1873
sg67
(lp1880
g845
asbag60
(g81
g62
NtRp1881
(dp1882
g65
(dp1883
g92
g93
ssg74
g1873
sg67
(lp1884
S':'
asbag60
(g81
g62
NtRp1885
(dp1886
g65
(dp1887
sg74
g1873
sg67
(lp1888
g60
(g61
g62
NtRp1889
(dp1890
g65
(dp1891
g73
I4
ssg74
g1885
sg67
(lp1892
S"<Values at 0x2665fa8: {'verbose': False, 'ip': '127.0.0.1', 'shutdown_timeout': 5, 'taskbar': False, 'nocron': False, 'pid_filename': 'httpserver.pid', 'maxthreads': None, 'softcron': False, 'server_name': 'hector-vaio', 'bpython': False, 'nogui': False, 'port': 8000, 'extcron': False, 'debuglevel': 30, 'test': None, 'folder': 'C:\\\\Python32\\\\web2py_win\\\\web2py', 'config': '', 'import_models': False, 'winservice': '', 'shell': None, 'run': '', 'log_filename': 'httpserver.log', 'args': [''], 'ssl_ca_certificate': None, 'scheduler': None, 'profiler_filename': None, 'ssl_private_key': '', 'password': '<ask>', 'request_queue_size': 5, 'ssl_certificate': '', 'cronjob': False, 'plain': False, 'quiet': False, 'interfaces': None, 'minthreads': None, 'timeout': 10, 'numthreads': None, 'nobanner': False}>"
p1893
asbasbasbag60
(g76
g62
NtRp1894
(dp1895
g65
(dp1896
sg74
g1804
sg67
(lp1897
g60
(g81
g62
NtRp1898
(dp1899
g65
(dp1900
g85
g86
ssg74
g1894
sg67
(lp1901
g867
asbag60
(g81
g62
NtRp1902
(dp1903
g65
(dp1904
g92
g93
ssg74
g1894
sg67
(lp1905
S':'
asbag60
(g81
g62
NtRp1906
(dp1907
g65
(dp1908
sg74
g1894
sg67
(lp1909
g60
(g61
g62
NtRp1910
(dp1911
g65
(dp1912
g73
I4
ssg74
g1906
sg67
(lp1913
S'set([])'
p1914
asbasbasbag60
(g76
g62
NtRp1915
(dp1916
g65
(dp1917
sg74
g1804
sg67
(lp1918
g60
(g81
g62
NtRp1919
(dp1920
g65
(dp1921
g85
g86
ssg74
g1915
sg67
(lp1922
g889
asbag60
(g81
g62
NtRp1923
(dp1924
g65
(dp1925
g92
g93
ssg74
g1915
sg67
(lp1926
S':'
asbag60
(g81
g62
NtRp1927
(dp1928
g65
(dp1929
sg74
g1915
sg67
(lp1930
g60
(g61
g62
NtRp1931
(dp1932
g65
(dp1933
g73
I4
ssg74
g1927
sg67
(lp1934
g103
asbasbasbag60
(g76
g62
NtRp1935
(dp1936
g65
(dp1937
sg74
g1804
sg67
(lp1938
g60
(g81
g62
NtRp1939
(dp1940
g65
(dp1941
g85
g86
ssg74
g1935
sg67
(lp1942
g910
asbag60
(g81
g62
NtRp1943
(dp1944
g65
(dp1945
g92
g93
ssg74
g1935
sg67
(lp1946
S':'
asbag60
(g81
g62
NtRp1947
(dp1948
g65
(dp1949
sg74
g1935
sg67
(lp1950
g60
(g61
g62
NtRp1951
(dp1952
g65
(dp1953
g73
I4
ssg74
g1947
sg67
(lp1954
g923
asbasbasbag60
(g76
g62
NtRp1955
(dp1956
g65
(dp1957
sg74
g1804
sg67
(lp1958
g60
(g81
g62
NtRp1959
(dp1960
g65
(dp1961
g85
g86
ssg74
g1955
sg67
(lp1962
g1130
asbag60
(g81
g62
NtRp1963
(dp1964
g65
(dp1965
g92
g93
ssg74
g1955
sg67
(lp1966
S':'
asbag60
(g81
g62
NtRp1967
(dp1968
g65
(dp1969
sg74
g1955
sg67
(lp1970
g60
(g61
g62
NtRp1971
(dp1972
g65
(dp1973
g73
I4
ssg74
g1967
sg67
(lp1974
g103
asbasbasbag60
(g76
g62
NtRp1975
(dp1976
g65
(dp1977
sg74
g1804
sg67
(lp1978
g60
(g81
g62
NtRp1979
(dp1980
g65
(dp1981
g85
g86
ssg74
g1975
sg67
(lp1982
g1368
asbag60
(g81
g62
NtRp1983
(dp1984
g65
(dp1985
g92
g93
ssg74
g1975
sg67
(lp1986
S':'
asbag60
(g81
g62
NtRp1987
(dp1988
g65
(dp1989
sg74
g1975
sg67
(lp1990
g60
(g61
g62
NtRp1991
(dp1992
g65
(dp1993
g73
I4
ssg74
g1987
sg67
(lp1994
g1381
asbasbasbag60
(g76
g62
NtRp1995
(dp1996
g65
(dp1997
sg74
g1804
sg67
(lp1998
g60
(g81
g62
NtRp1999
(dp2000
g65
(dp2001
g85
g86
ssg74
g1995
sg67
(lp2002
g1411
asbag60
(g81
g62
NtRp2003
(dp2004
g65
(dp2005
g92
g93
ssg74
g1995
sg67
(lp2006
S':'
asbag60
(g81
g62
NtRp2007
(dp2008
g65
(dp2009
sg74
g1995
sg67
(lp2010
g60
(g61
g62
NtRp2011
(dp2012
g65
(dp2013
g73
I4
ssg74
g2007
sg67
(lp2014
g60
(g69
g62
NtRp2015
(dp2016
g65
(dp2017
g73
I3
ssg74
Nsg67
(lp2018
g60
(g76
g62
NtRp2019
(dp2020
g65
(dp2021
sg74
g2015
sg67
(lp2022
g60
(g81
g62
NtRp2023
(dp2024
g65
(dp2025
sg74
g2019
sg67
(lp2026
g60
(g61
g62
NtRp2027
(dp2028
g65
(dp2029
g73
I3
ssg74
g2023
sg67
(lp2030
S'1'
asbasbasbag60
(g76
g62
NtRp2031
(dp2032
g65
(dp2033
sg74
g2015
sg67
(lp2034
g60
(g81
g62
NtRp2035
(dp2036
g65
(dp2037
sg74
g2031
sg67
(lp2038
g60
(g61
g62
NtRp2039
(dp2040
g65
(dp2041
g73
I3
ssg74
g2035
sg67
(lp2042
S'99'
p2043
asbasbasbag60
(g76
g62
NtRp2044
(dp2045
g65
(dp2046
sg74
g2015
sg67
(lp2047
g60
(g81
g62
NtRp2048
(dp2049
g65
(dp2050
sg74
g2044
sg67
(lp2051
g60
(g61
g62
NtRp2052
(dp2053
g65
(dp2054
g73
I3
ssg74
g2048
sg67
(lp2055
S'2'
asbasbasbag60
(g76
g62
NtRp2056
(dp2057
g65
(dp2058
sg74
g2015
sg67
(lp2059
g60
(g81
g62
NtRp2060
(dp2061
g65
(dp2062
sg74
g2056
sg67
(lp2063
g60
(g61
g62
NtRp2064
(dp2065
g65
(dp2066
g73
I3
ssg74
g2060
sg67
(lp2067
S'datetime.datetime(2011, 9, 26, 6, 55, 33)'
p2068
asbasbasbag60
(g76
g62
NtRp2069
(dp2070
g65
(dp2071
sg74
g2015
sg67
(lp2072
g60
(g81
g62
NtRp2073
(dp2074
g65
(dp2075
sg74
g2069
sg67
(lp2076
g60
(g61
g62
NtRp2077
(dp2078
g65
(dp2079
g73
I3
ssg74
g2073
sg67
(lp2080
g1490
asbasbasbasbasbasbasbasbasbasbasbag60
(g76
g62
NtRp2081
(dp2082
g65
(dp2083
sg74
g70
sg67
(lp2084
g60
(g81
g62
NtRp2085
(dp2086
g65
(dp2087
g85
g86
ssg74
g2081
sg67
(lp2088
S'is_https'
p2089
asbag60
(g81
g62
NtRp2090
(dp2091
g65
(dp2092
g92
g93
ssg74
g2081
sg67
(lp2093
S':'
asbag60
(g81
g62
NtRp2094
(dp2095
g65
(dp2096
sg74
g2081
sg67
(lp2097
g60
(g61
g62
NtRp2098
(dp2099
g65
(dp2100
g73
I5
ssg74
g2094
sg67
(lp2101
g103
asbasbasbag60
(g76
g62
NtRp2102
(dp2103
g65
(dp2104
sg74
g70
sg67
(lp2105
g60
(g81
g62
NtRp2106
(dp2107
g65
(dp2108
g85
g86
ssg74
g2102
sg67
(lp2109
S'is_local'
p2110
asbag60
(g81
g62
NtRp2111
(dp2112
g65
(dp2113
g92
g93
ssg74
g2102
sg67
(lp2114
S':'
asbag60
(g81
g62
NtRp2115
(dp2116
g65
(dp2117
sg74
g2102
sg67
(lp2118
g60
(g61
g62
NtRp2119
(dp2120
g65
(dp2121
g73
I5
ssg74
g2115
sg67
(lp2122
g1599
asbasbasbag60
(g76
g62
NtRp2123
(dp2124
g65
(dp2125
sg74
g70
sg67
(lp2126
g60
(g81
g62
NtRp2127
(dp2128
g65
(dp2129
g85
g86
ssg74
g2123
sg67
(lp2130
S'is_restful'
p2131
asbag60
(g81
g62
NtRp2132
(dp2133
g65
(dp2134
g92
g93
ssg74
g2123
sg67
(lp2135
S':'
asbag60
(g81
g62
NtRp2136
(dp2137
g65
(dp2138
sg74
g2123
sg67
(lp2139
g60
(g61
g62
NtRp2140
(dp2141
g65
(dp2142
g73
I5
ssg74
g2136
sg67
(lp2143
g103
asbasbasbag60
(g76
g62
NtRp2144
(dp2145
g65
(dp2146
sg74
g70
sg67
(lp2147
g60
(g81
g62
NtRp2148
(dp2149
g65
(dp2150
g85
g86
ssg74
g2144
sg67
(lp2151
S'now'
p2152
asbag60
(g81
g62
NtRp2153
(dp2154
g65
(dp2155
g92
g93
ssg74
g2144
sg67
(lp2156
S':'
asbag60
(g81
g62
NtRp2157
(dp2158
g65
(dp2159
sg74
g2144
sg67
(lp2160
g60
(g61
g62
NtRp2161
(dp2162
g65
(dp2163
g73
I5
ssg74
g2157
sg67
(lp2164
S'datetime.datetime(2011, 11, 12, 17, 18, 51, 352000)'
p2165
asbasbasbag60
(g76
g62
NtRp2166
(dp2167
g65
(dp2168
sg74
g70
sg67
(lp2169
g60
(g81
g62
NtRp2170
(dp2171
g65
(dp2172
g85
g86
ssg74
g2166
sg67
(lp2173
S'post_vars'
p2174
asbag60
(g81
g62
NtRp2175
(dp2176
g65
(dp2177
g92
g93
ssg74
g2166
sg67
(lp2178
S':'
asbag60
(g81
g62
NtRp2179
(dp2180
g65
(dp2181
sg74
g2166
sg67
(lp2182
g60
(g61
g62
NtRp2183
(dp2184
g65
(dp2185
g73
I5
ssg74
g2179
sg67
(lp2186
g60
(g69
g62
NtRp2187
(dp2188
g65
(dp2189
g73
I4
ssg74
Nsg67
(lp2190
sbasbasbasbag60
(g76
g62
NtRp2191
(dp2192
g65
(dp2193
sg74
g70
sg67
(lp2194
g60
(g81
g62
NtRp2195
(dp2196
g65
(dp2197
g85
g86
ssg74
g2191
sg67
(lp2198
S'url'
p2199
asbag60
(g81
g62
NtRp2200
(dp2201
g65
(dp2202
g92
g93
ssg74
g2191
sg67
(lp2203
S':'
asbag60
(g81
g62
NtRp2204
(dp2205
g65
(dp2206
sg74
g2191
sg67
(lp2207
g60
(g61
g62
NtRp2208
(dp2209
g65
(dp2210
g73
I5
ssg74
g2204
sg67
(lp2211
S'/Casa_de_Apuestas/default/crearCategoria'
p2212
asbasbasbag60
(g76
g62
NtRp2213
(dp2214
g65
(dp2215
sg74
g70
sg67
(lp2216
g60
(g81
g62
NtRp2217
(dp2218
g65
(dp2219
g85
g86
ssg74
g2213
sg67
(lp2220
S'utcnow'
p2221
asbag60
(g81
g62
NtRp2222
(dp2223
g65
(dp2224
g92
g93
ssg74
g2213
sg67
(lp2225
S':'
asbag60
(g81
g62
NtRp2226
(dp2227
g65
(dp2228
sg74
g2213
sg67
(lp2229
g60
(g61
g62
NtRp2230
(dp2231
g65
(dp2232
g73
I5
ssg74
g2226
sg67
(lp2233
S'datetime.datetime(2011, 11, 12, 21, 48, 51, 352000)'
p2234
asbasbasbag60
(g76
g62
NtRp2235
(dp2236
g65
(dp2237
sg74
g70
sg67
(lp2238
g60
(g81
g62
NtRp2239
(dp2240
g65
(dp2241
g85
g86
ssg74
g2235
sg67
(lp2242
S'uuid'
p2243
asbag60
(g81
g62
NtRp2244
(dp2245
g65
(dp2246
g92
g93
ssg74
g2235
sg67
(lp2247
S':'
asbag60
(g81
g62
NtRp2248
(dp2249
g65
(dp2250
sg74
g2235
sg67
(lp2251
g60
(g61
g62
NtRp2252
(dp2253
g65
(dp2254
g73
I5
ssg74
g2248
sg67
(lp2255
S'Casa_de_Apuestas/127.0.0.1.2011-11-12.17-18-51.e41db6e8-0b6d-438b-8202-1e74be9e790f'
p2256
asbasbasbag60
(g76
g62
NtRp2257
(dp2258
g65
(dp2259
sg74
g70
sg67
(lp2260
g60
(g81
g62
NtRp2261
(dp2262
g65
(dp2263
g85
g86
ssg74
g2257
sg67
(lp2264
S'vars'
p2265
asbag60
(g81
g62
NtRp2266
(dp2267
g65
(dp2268
g92
g93
ssg74
g2257
sg67
(lp2269
S':'
asbag60
(g81
g62
NtRp2270
(dp2271
g65
(dp2272
sg74
g2257
sg67
(lp2273
g60
(g61
g62
NtRp2274
(dp2275
g65
(dp2276
g73
I5
ssg74
g2270
sg67
(lp2277
g60
(g69
g62
NtRp2278
(dp2279
g65
(dp2280
g73
I4
ssg74
Nsg67
(lp2281
sbasbasbasbag60
(g76
g62
NtRp2282
(dp2283
g65
(dp2284
sg74
g70
sg67
(lp2285
g60
(g81
g62
NtRp2286
(dp2287
g65
(dp2288
g85
g86
ssg74
g2282
sg67
(lp2289
S'wsgi'
p2290
asbag60
(g81
g62
NtRp2291
(dp2292
g65
(dp2293
g92
g93
ssg74
g2282
sg67
(lp2294
S':'
asbag60
(g81
g62
NtRp2295
(dp2296
g65
(dp2297
sg74
g2282
sg67
(lp2298
g60
(g61
g62
NtRp2299
(dp2300
g65
(dp2301
g73
I5
ssg74
g2295
sg67
(lp2302
g60
(g69
g62
NtRp2303
(dp2304
g65
(dp2305
g73
I4
ssg74
Nsg67
(lp2306
g60
(g76
g62
NtRp2307
(dp2308
g65
(dp2309
sg74
g2303
sg67
(lp2310
g60
(g81
g62
NtRp2311
(dp2312
g65
(dp2313
g85
g86
ssg74
g2307
sg67
(lp2314
S'environ'
p2315
asbag60
(g81
g62
NtRp2316
(dp2317
g65
(dp2318
g92
g93
ssg74
g2307
sg67
(lp2319
S':'
asbag60
(g81
g62
NtRp2320
(dp2321
g65
(dp2322
sg74
g2307
sg67
(lp2323
g60
(g61
g62
NtRp2324
(dp2325
g65
(dp2326
g73
I4
ssg74
g2320
sg67
(lp2327
g60
(g69
g62
NtRp2328
(dp2329
g65
(dp2330
g73
I3
ssg74
Nsg67
(lp2331
g60
(g76
g62
NtRp2332
(dp2333
g65
(dp2334
sg74
g2328
sg67
(lp2335
g60
(g81
g62
NtRp2336
(dp2337
g65
(dp2338
g85
g86
ssg74
g2332
sg67
(lp2339
S'HTTP_ACCEPT'
p2340
asbag60
(g81
g62
NtRp2341
(dp2342
g65
(dp2343
g92
g93
ssg74
g2332
sg67
(lp2344
S':'
asbag60
(g81
g62
NtRp2345
(dp2346
g65
(dp2347
sg74
g2332
sg67
(lp2348
g60
(g61
g62
NtRp2349
(dp2350
g65
(dp2351
g73
I3
ssg74
g2345
sg67
(lp2352
g945
asbasbasbag60
(g76
g62
NtRp2353
(dp2354
g65
(dp2355
sg74
g2328
sg67
(lp2356
g60
(g81
g62
NtRp2357
(dp2358
g65
(dp2359
g85
g86
ssg74
g2353
sg67
(lp2360
S'HTTP_ACCEPT_CHARSET'
p2361
asbag60
(g81
g62
NtRp2362
(dp2363
g65
(dp2364
g92
g93
ssg74
g2353
sg67
(lp2365
S':'
asbag60
(g81
g62
NtRp2366
(dp2367
g65
(dp2368
sg74
g2353
sg67
(lp2369
g60
(g61
g62
NtRp2370
(dp2371
g65
(dp2372
g73
I3
ssg74
g2366
sg67
(lp2373
g967
asbasbasbag60
(g76
g62
NtRp2374
(dp2375
g65
(dp2376
sg74
g2328
sg67
(lp2377
g60
(g81
g62
NtRp2378
(dp2379
g65
(dp2380
g85
g86
ssg74
g2374
sg67
(lp2381
S'HTTP_ACCEPT_ENCODING'
p2382
asbag60
(g81
g62
NtRp2383
(dp2384
g65
(dp2385
g92
g93
ssg74
g2374
sg67
(lp2386
S':'
asbag60
(g81
g62
NtRp2387
(dp2388
g65
(dp2389
sg74
g2374
sg67
(lp2390
g60
(g61
g62
NtRp2391
(dp2392
g65
(dp2393
g73
I3
ssg74
g2387
sg67
(lp2394
g989
asbasbasbag60
(g76
g62
NtRp2395
(dp2396
g65
(dp2397
sg74
g2328
sg67
(lp2398
g60
(g81
g62
NtRp2399
(dp2400
g65
(dp2401
g85
g86
ssg74
g2395
sg67
(lp2402
S'HTTP_ACCEPT_LANGUAGE'
p2403
asbag60
(g81
g62
NtRp2404
(dp2405
g65
(dp2406
g92
g93
ssg74
g2395
sg67
(lp2407
S':'
asbag60
(g81
g62
NtRp2408
(dp2409
g65
(dp2410
sg74
g2395
sg67
(lp2411
g60
(g61
g62
NtRp2412
(dp2413
g65
(dp2414
g73
I3
ssg74
g2408
sg67
(lp2415
g1011
asbasbasbag60
(g76
g62
NtRp2416
(dp2417
g65
(dp2418
sg74
g2328
sg67
(lp2419
g60
(g81
g62
NtRp2420
(dp2421
g65
(dp2422
g85
g86
ssg74
g2416
sg67
(lp2423
S'HTTP_CACHE_CONTROL'
p2424
asbag60
(g81
g62
NtRp2425
(dp2426
g65
(dp2427
g92
g93
ssg74
g2416
sg67
(lp2428
S':'
asbag60
(g81
g62
NtRp2429
(dp2430
g65
(dp2431
sg74
g2416
sg67
(lp2432
g60
(g61
g62
NtRp2433
(dp2434
g65
(dp2435
g73
I3
ssg74
g2429
sg67
(lp2436
g1033
asbasbasbag60
(g76
g62
NtRp2437
(dp2438
g65
(dp2439
sg74
g2328
sg67
(lp2440
g60
(g81
g62
NtRp2441
(dp2442
g65
(dp2443
g85
g86
ssg74
g2437
sg67
(lp2444
S'HTTP_CONNECTION'
p2445
asbag60
(g81
g62
NtRp2446
(dp2447
g65
(dp2448
g92
g93
ssg74
g2437
sg67
(lp2449
S':'
asbag60
(g81
g62
NtRp2450
(dp2451
g65
(dp2452
sg74
g2437
sg67
(lp2453
g60
(g61
g62
NtRp2454
(dp2455
g65
(dp2456
g73
I3
ssg74
g2450
sg67
(lp2457
g1055
asbasbasbag60
(g76
g62
NtRp2458
(dp2459
g65
(dp2460
sg74
g2328
sg67
(lp2461
g60
(g81
g62
NtRp2462
(dp2463
g65
(dp2464
g85
g86
ssg74
g2458
sg67
(lp2465
S'HTTP_COOKIE'
p2466
asbag60
(g81
g62
NtRp2467
(dp2468
g65
(dp2469
g92
g93
ssg74
g2458
sg67
(lp2470
S':'
asbag60
(g81
g62
NtRp2471
(dp2472
g65
(dp2473
sg74
g2458
sg67
(lp2474
g60
(g61
g62
NtRp2475
(dp2476
g65
(dp2477
g73
I3
ssg74
g2471
sg67
(lp2478
g1077
asbasbasbag60
(g76
g62
NtRp2479
(dp2480
g65
(dp2481
sg74
g2328
sg67
(lp2482
g60
(g81
g62
NtRp2483
(dp2484
g65
(dp2485
g85
g86
ssg74
g2479
sg67
(lp2486
S'HTTP_HOST'
p2487
asbag60
(g81
g62
NtRp2488
(dp2489
g65
(dp2490
g92
g93
ssg74
g2479
sg67
(lp2491
S':'
asbag60
(g81
g62
NtRp2492
(dp2493
g65
(dp2494
sg74
g2479
sg67
(lp2495
g60
(g61
g62
NtRp2496
(dp2497
g65
(dp2498
g73
I3
ssg74
g2492
sg67
(lp2499
g1099
asbasbasbag60
(g76
g62
NtRp2500
(dp2501
g65
(dp2502
sg74
g2328
sg67
(lp2503
g60
(g81
g62
NtRp2504
(dp2505
g65
(dp2506
g85
g86
ssg74
g2500
sg67
(lp2507
S'HTTP_USER_AGENT'
p2508
asbag60
(g81
g62
NtRp2509
(dp2510
g65
(dp2511
g92
g93
ssg74
g2500
sg67
(lp2512
S':'
asbag60
(g81
g62
NtRp2513
(dp2514
g65
(dp2515
sg74
g2500
sg67
(lp2516
g60
(g61
g62
NtRp2517
(dp2518
g65
(dp2519
g73
I3
ssg74
g2513
sg67
(lp2520
g1121
asbasbasbag60
(g76
g62
NtRp2521
(dp2522
g65
(dp2523
sg74
g2328
sg67
(lp2524
g60
(g81
g62
NtRp2525
(dp2526
g65
(dp2527
g85
g86
ssg74
g2521
sg67
(lp2528
S'PATH_INFO'
p2529
asbag60
(g81
g62
NtRp2530
(dp2531
g65
(dp2532
g92
g93
ssg74
g2521
sg67
(lp2533
S':'
asbag60
(g81
g62
NtRp2534
(dp2535
g65
(dp2536
sg74
g2521
sg67
(lp2537
g60
(g61
g62
NtRp2538
(dp2539
g65
(dp2540
g73
I3
ssg74
g2534
sg67
(lp2541
g1164
asbasbasbag60
(g76
g62
NtRp2542
(dp2543
g65
(dp2544
sg74
g2328
sg67
(lp2545
g60
(g81
g62
NtRp2546
(dp2547
g65
(dp2548
g85
g86
ssg74
g2542
sg67
(lp2549
S'QUERY_STRING'
p2550
asbag60
(g81
g62
NtRp2551
(dp2552
g65
(dp2553
g92
g93
ssg74
g2542
sg67
(lp2554
S':'
asbag60
(g81
g62
NtRp2555
(dp2556
g65
(dp2557
sg74
g2542
sg67
(lp2558
g60
(g61
g62
NtRp2559
(dp2560
g65
(dp2561
g73
I3
ssg74
g2555
sg67
(lp2562
S''
asbasbasbag60
(g76
g62
NtRp2563
(dp2564
g65
(dp2565
sg74
g2328
sg67
(lp2566
g60
(g81
g62
NtRp2567
(dp2568
g65
(dp2569
g85
g86
ssg74
g2563
sg67
(lp2570
S'REMOTE_ADDR'
p2571
asbag60
(g81
g62
NtRp2572
(dp2573
g65
(dp2574
g92
g93
ssg74
g2563
sg67
(lp2575
S':'
asbag60
(g81
g62
NtRp2576
(dp2577
g65
(dp2578
sg74
g2563
sg67
(lp2579
g60
(g61
g62
NtRp2580
(dp2581
g65
(dp2582
g73
I3
ssg74
g2576
sg67
(lp2583
g193
asbasbasbag60
(g76
g62
NtRp2584
(dp2585
g65
(dp2586
sg74
g2328
sg67
(lp2587
g60
(g81
g62
NtRp2588
(dp2589
g65
(dp2590
g85
g86
ssg74
g2584
sg67
(lp2591
S'REMOTE_PORT'
p2592
asbag60
(g81
g62
NtRp2593
(dp2594
g65
(dp2595
g92
g93
ssg74
g2584
sg67
(lp2596
S':'
asbag60
(g81
g62
NtRp2597
(dp2598
g65
(dp2599
sg74
g2584
sg67
(lp2600
g60
(g61
g62
NtRp2601
(dp2602
g65
(dp2603
g73
I3
ssg74
g2597
sg67
(lp2604
g1228
asbasbasbag60
(g76
g62
NtRp2605
(dp2606
g65
(dp2607
sg74
g2328
sg67
(lp2608
g60
(g81
g62
NtRp2609
(dp2610
g65
(dp2611
g85
g86
ssg74
g2605
sg67
(lp2612
S'REQUEST_METHOD'
p2613
asbag60
(g81
g62
NtRp2614
(dp2615
g65
(dp2616
g92
g93
ssg74
g2605
sg67
(lp2617
S':'
asbag60
(g81
g62
NtRp2618
(dp2619
g65
(dp2620
sg74
g2605
sg67
(lp2621
g60
(g61
g62
NtRp2622
(dp2623
g65
(dp2624
g73
I3
ssg74
g2618
sg67
(lp2625
g1250
asbasbasbag60
(g76
g62
NtRp2626
(dp2627
g65
(dp2628
sg74
g2328
sg67
(lp2629
g60
(g81
g62
NtRp2630
(dp2631
g65
(dp2632
g85
g86
ssg74
g2626
sg67
(lp2633
S'SCRIPT_NAME'
p2634
asbag60
(g81
g62
NtRp2635
(dp2636
g65
(dp2637
g92
g93
ssg74
g2626
sg67
(lp2638
S':'
asbag60
(g81
g62
NtRp2639
(dp2640
g65
(dp2641
sg74
g2626
sg67
(lp2642
g60
(g61
g62
NtRp2643
(dp2644
g65
(dp2645
g73
I3
ssg74
g2639
sg67
(lp2646
S''
asbasbasbag60
(g76
g62
NtRp2647
(dp2648
g65
(dp2649
sg74
g2328
sg67
(lp2650
g60
(g81
g62
NtRp2651
(dp2652
g65
(dp2653
g85
g86
ssg74
g2647
sg67
(lp2654
S'SERVER_NAME'
p2655
asbag60
(g81
g62
NtRp2656
(dp2657
g65
(dp2658
g92
g93
ssg74
g2647
sg67
(lp2659
S':'
asbag60
(g81
g62
NtRp2660
(dp2661
g65
(dp2662
sg74
g2647
sg67
(lp2663
g60
(g61
g62
NtRp2664
(dp2665
g65
(dp2666
g73
I3
ssg74
g2660
sg67
(lp2667
g1293
asbasbasbag60
(g76
g62
NtRp2668
(dp2669
g65
(dp2670
sg74
g2328
sg67
(lp2671
g60
(g81
g62
NtRp2672
(dp2673
g65
(dp2674
g85
g86
ssg74
g2668
sg67
(lp2675
S'SERVER_PORT'
p2676
asbag60
(g81
g62
NtRp2677
(dp2678
g65
(dp2679
g92
g93
ssg74
g2668
sg67
(lp2680
S':'
asbag60
(g81
g62
NtRp2681
(dp2682
g65
(dp2683
sg74
g2668
sg67
(lp2684
g60
(g61
g62
NtRp2685
(dp2686
g65
(dp2687
g73
I3
ssg74
g2681
sg67
(lp2688
g1315
asbasbasbag60
(g76
g62
NtRp2689
(dp2690
g65
(dp2691
sg74
g2328
sg67
(lp2692
g60
(g81
g62
NtRp2693
(dp2694
g65
(dp2695
g85
g86
ssg74
g2689
sg67
(lp2696
S'SERVER_PROTOCOL'
p2697
asbag60
(g81
g62
NtRp2698
(dp2699
g65
(dp2700
g92
g93
ssg74
g2689
sg67
(lp2701
S':'
asbag60
(g81
g62
NtRp2702
(dp2703
g65
(dp2704
sg74
g2689
sg67
(lp2705
g60
(g61
g62
NtRp2706
(dp2707
g65
(dp2708
g73
I3
ssg74
g2702
sg67
(lp2709
g1337
asbasbasbag60
(g76
g62
NtRp2710
(dp2711
g65
(dp2712
sg74
g2328
sg67
(lp2713
g60
(g81
g62
NtRp2714
(dp2715
g65
(dp2716
g85
g86
ssg74
g2710
sg67
(lp2717
S'SERVER_SOFTWARE'
p2718
asbag60
(g81
g62
NtRp2719
(dp2720
g65
(dp2721
g92
g93
ssg74
g2710
sg67
(lp2722
S':'
asbag60
(g81
g62
NtRp2723
(dp2724
g65
(dp2725
sg74
g2710
sg67
(lp2726
g60
(g61
g62
NtRp2727
(dp2728
g65
(dp2729
g73
I3
ssg74
g2723
sg67
(lp2730
g1359
asbasbasbag60
(g76
g62
NtRp2731
(dp2732
g65
(dp2733
sg74
g2328
sg67
(lp2734
g60
(g81
g62
NtRp2735
(dp2736
g65
(dp2737
g85
g86
ssg74
g2731
sg67
(lp2738
S'wsgi.errors'
p2739
asbag60
(g81
g62
NtRp2740
(dp2741
g65
(dp2742
g92
g93
ssg74
g2731
sg67
(lp2743
S':'
asbag60
(g81
g62
NtRp2744
(dp2745
g65
(dp2746
sg74
g2731
sg67
(lp2747
g60
(g61
g62
NtRp2748
(dp2749
g65
(dp2750
g73
I3
ssg74
g2744
sg67
(lp2751
S"<open file '<stderr>', mode 'w' at 0x015700B0>"
p2752
asbasbasbag60
(g76
g62
NtRp2753
(dp2754
g65
(dp2755
sg74
g2328
sg67
(lp2756
g60
(g81
g62
NtRp2757
(dp2758
g65
(dp2759
g85
g86
ssg74
g2753
sg67
(lp2760
S'wsgi.file_wrapper'
p2761
asbag60
(g81
g62
NtRp2762
(dp2763
g65
(dp2764
g92
g93
ssg74
g2753
sg67
(lp2765
S':'
asbag60
(g81
g62
NtRp2766
(dp2767
g65
(dp2768
sg74
g2753
sg67
(lp2769
g60
(g61
g62
NtRp2770
(dp2771
g65
(dp2772
g73
I3
ssg74
g2766
sg67
(lp2773
S'<class wsgiref.util.FileWrapper at 0x02409AB0>'
p2774
asbasbasbag60
(g76
g62
NtRp2775
(dp2776
g65
(dp2777
sg74
g2328
sg67
(lp2778
g60
(g81
g62
NtRp2779
(dp2780
g65
(dp2781
g85
g86
ssg74
g2775
sg67
(lp2782
S'wsgi.input'
p2783
asbag60
(g81
g62
NtRp2784
(dp2785
g65
(dp2786
g92
g93
ssg74
g2775
sg67
(lp2787
S':'
asbag60
(g81
g62
NtRp2788
(dp2789
g65
(dp2790
sg74
g2775
sg67
(lp2791
g60
(g61
g62
NtRp2792
(dp2793
g65
(dp2794
g73
I3
ssg74
g2788
sg67
(lp2795
S'<cStringIO.StringO object at 0x064286A0>'
p2796
asbasbasbag60
(g76
g62
NtRp2797
(dp2798
g65
(dp2799
sg74
g2328
sg67
(lp2800
g60
(g81
g62
NtRp2801
(dp2802
g65
(dp2803
g85
g86
ssg74
g2797
sg67
(lp2804
S'wsgi.multiprocess'
p2805
asbag60
(g81
g62
NtRp2806
(dp2807
g65
(dp2808
g92
g93
ssg74
g2797
sg67
(lp2809
S':'
asbag60
(g81
g62
NtRp2810
(dp2811
g65
(dp2812
sg74
g2797
sg67
(lp2813
g60
(g61
g62
NtRp2814
(dp2815
g65
(dp2816
g73
I3
ssg74
g2810
sg67
(lp2817
g103
asbasbasbag60
(g76
g62
NtRp2818
(dp2819
g65
(dp2820
sg74
g2328
sg67
(lp2821
g60
(g81
g62
NtRp2822
(dp2823
g65
(dp2824
g85
g86
ssg74
g2818
sg67
(lp2825
S'wsgi.multithread'
p2826
asbag60
(g81
g62
NtRp2827
(dp2828
g65
(dp2829
g92
g93
ssg74
g2818
sg67
(lp2830
S':'
asbag60
(g81
g62
NtRp2831
(dp2832
g65
(dp2833
sg74
g2818
sg67
(lp2834
g60
(g61
g62
NtRp2835
(dp2836
g65
(dp2837
g73
I3
ssg74
g2831
sg67
(lp2838
g1599
asbasbasbag60
(g76
g62
NtRp2839
(dp2840
g65
(dp2841
sg74
g2328
sg67
(lp2842
g60
(g81
g62
NtRp2843
(dp2844
g65
(dp2845
g85
g86
ssg74
g2839
sg67
(lp2846
S'wsgi.run_once'
p2847
asbag60
(g81
g62
NtRp2848
(dp2849
g65
(dp2850
g92
g93
ssg74
g2839
sg67
(lp2851
S':'
asbag60
(g81
g62
NtRp2852
(dp2853
g65
(dp2854
sg74
g2839
sg67
(lp2855
g60
(g61
g62
NtRp2856
(dp2857
g65
(dp2858
g73
I3
ssg74
g2852
sg67
(lp2859
g103
asbasbasbag60
(g76
g62
NtRp2860
(dp2861
g65
(dp2862
sg74
g2328
sg67
(lp2863
g60
(g81
g62
NtRp2864
(dp2865
g65
(dp2866
g85
g86
ssg74
g2860
sg67
(lp2867
S'wsgi.url_scheme'
p2868
asbag60
(g81
g62
NtRp2869
(dp2870
g65
(dp2871
g92
g93
ssg74
g2860
sg67
(lp2872
S':'
asbag60
(g81
g62
NtRp2873
(dp2874
g65
(dp2875
sg74
g2860
sg67
(lp2876
g60
(g61
g62
NtRp2877
(dp2878
g65
(dp2879
g73
I3
ssg74
g2873
sg67
(lp2880
g1642
asbasbasbag60
(g76
g62
NtRp2881
(dp2882
g65
(dp2883
sg74
g2328
sg67
(lp2884
g60
(g81
g62
NtRp2885
(dp2886
g65
(dp2887
g85
g86
ssg74
g2881
sg67
(lp2888
S'wsgi.version'
p2889
asbag60
(g81
g62
NtRp2890
(dp2891
g65
(dp2892
g92
g93
ssg74
g2881
sg67
(lp2893
S':'
asbag60
(g81
g62
NtRp2894
(dp2895
g65
(dp2896
sg74
g2881
sg67
(lp2897
g60
(g61
g62
NtRp2898
(dp2899
g65
(dp2900
g73
I3
ssg74
g2894
sg67
(lp2901
S'1'
asbasbasbasbasbasbasbasbasbasbasbasbasbsS'frames'
p2902
(lp2903
(dp2904
S'file'
p2905
S'C:\\Python32\\web2py_win\\web2py\\gluon\\restricted.py'
p2906
sS'dump'
p2907
(dp2908
sS'lnum'
p2909
I193
sS'lines'
p2910
(dp2911
sS'call'
p2912
S'(code=\'response.write(\\\'<!DOCTYPE html PUBLIC "-//W3C//D...</div>\\\\r\\\\n </body>\\\\r\\\\n</html>\\\\r\\\\n\\\', escape=False)\', environment={\'A\': <class \'gluon.html.A\'>, \'Auth\': <class \'gluon.tools.Auth\'>, \'B\': <class \'gluon.html.B\'>, \'BEAUTIFY\': <class \'gluon.html.BEAUTIFY\'>, \'BODY\': <class \'gluon.html.BODY\'>, \'BR\': <class \'gluon.html.BR\'>, \'BUTTON\': <class \'gluon.html.BUTTON\'>, \'CAT\': <class \'gluon.html.CAT\'>, \'CENTER\': <class \'gluon.html.CENTER\'>, \'CLEANUP\': <class \'gluon.validators.CLEANUP\'>, ...}, layer=r\'C:\\Python32\\web2py_win\\web2py\\applications\\Casa_de_Apuestas\\views\\default/crearCategoria.html\')'
p2913
sS'func'
p2914
S'restricted'
p2915
sa(dp2916
g2905
S'C:\\Python32\\web2py_win\\web2py\\gluon\\restricted.py'
p2917
sg2907
(dp2918
sg2909
I179
sg2910
(dp2919
sg2912
S'(code=\'response.write(\\\'<!DOCTYPE html PUBLIC "-//W3C//D...</div>\\\\r\\\\n </body>\\\\r\\\\n</html>\\\\r\\\\n\\\', escape=False)\', layer=r\'C:\\Python32\\web2py_win\\web2py\\applications\\Casa_de_Apuestas\\views\\default/crearCategoria.html\')'
p2920
sg2914
S'compile2'
p2921
sasS'pyver'
p2922
S'Python 2.5.4: C:\\Python32\\web2py_win\\web2py\\web2py.exe'
p2923
sS'session'
p2924
g60
(g61
g62
NtRp2925
(dp2926
g65
(dp2927
sg67
(lp2928
g60
(g69
g62
NtRp2929
(dp2930
g65
(dp2931
g73
I5
ssg74
Nsg67
(lp2932
sbasbsS'etype'
p2933
S"<type 'exceptions.SyntaxError'>"
p2934
sS'date'
p2935
S'Sat Nov 12 17:18:51 2011'
p2936
sS'response'
p2937
g60
(g61
g62
NtRp2938
(dp2939
g65
(dp2940
sg67
(lp2941
g60
(g69
g62
NtRp2942
(dp2943
g65
(dp2944
g73
I5
ssg74
Nsg67
(lp2945
g60
(g76
g62
NtRp2946
(dp2947
g65
(dp2948
sg74
g2942
sg67
(lp2949
g60
(g81
g62
NtRp2950
(dp2951
g65
(dp2952
g85
g86
ssg74
g2946
sg67
(lp2953
g158
asbag60
(g81
g62
NtRp2954
(dp2955
g65
(dp2956
g92
g93
ssg74
g2946
sg67
(lp2957
S':'
asbag60
(g81
g62
NtRp2958
(dp2959
g65
(dp2960
sg74
g2946
sg67
(lp2961
g60
(g61
g62
NtRp2962
(dp2963
g65
(dp2964
g73
I5
ssg74
g2958
sg67
(lp2965
S'<cStringIO.StringO object at 0x064285A0>'
p2966
asbasbasbag60
(g76
g62
NtRp2967
(dp2968
g65
(dp2969
sg74
g2942
sg67
(lp2970
g60
(g81
g62
NtRp2971
(dp2972
g65
(dp2973
g85
g86
ssg74
g2967
sg67
(lp2974
g224
asbag60
(g81
g62
NtRp2975
(dp2976
g65
(dp2977
g92
g93
ssg74
g2967
sg67
(lp2978
S':'
asbag60
(g81
g62
NtRp2979
(dp2980
g65
(dp2981
sg74
g2967
sg67
(lp2982
g60
(g61
g62
NtRp2983
(dp2984
g65
(dp2985
g73
I5
ssg74
g2979
sg67
(lp2986
g60
(g69
g62
NtRp2987
(dp2988
g65
(dp2989
g73
I4
ssg74
Nsg67
(lp2990
g60
(g76
g62
NtRp2991
(dp2992
g65
(dp2993
sg74
g2987
sg67
(lp2994
g60
(g81
g62
NtRp2995
(dp2996
g65
(dp2997
g85
g86
ssg74
g2991
sg67
(lp2998
S'session_id_casa_de_apuestas'
p2999
asbag60
(g81
g62
NtRp3000
(dp3001
g65
(dp3002
g92
g93
ssg74
g2991
sg67
(lp3003
S':'
asbag60
(g81
g62
NtRp3004
(dp3005
g65
(dp3006
sg74
g2991
sg67
(lp3007
g60
(g61
g62
NtRp3008
(dp3009
g65
(dp3010
g73
I4
ssg74
g3004
sg67
(lp3011
g60
(g69
g62
NtRp3012
(dp3013
g65
(dp3014
g73
I3
ssg74
Nsg67
(lp3015
g60
(g76
g62
NtRp3016
(dp3017
g65
(dp3018
sg74
g3012
sg67
(lp3019
g60
(g81
g62
NtRp3020
(dp3021
g65
(dp3022
g85
g86
ssg74
g3016
sg67
(lp3023
g274
asbag60
(g81
g62
NtRp3024
(dp3025
g65
(dp3026
g92
g93
ssg74
g3016
sg67
(lp3027
S':'
asbag60
(g81
g62
NtRp3028
(dp3029
g65
(dp3030
sg74
g3016
sg67
(lp3031
g60
(g61
g62
NtRp3032
(dp3033
g65
(dp3034
g73
I3
ssg74
g3028
sg67
(lp3035
S''
asbasbasbag60
(g76
g62
NtRp3036
(dp3037
g65
(dp3038
sg74
g3012
sg67
(lp3039
g60
(g81
g62
NtRp3040
(dp3041
g65
(dp3042
g85
g86
ssg74
g3036
sg67
(lp3043
g295
asbag60
(g81
g62
NtRp3044
(dp3045
g65
(dp3046
g92
g93
ssg74
g3036
sg67
(lp3047
S':'
asbag60
(g81
g62
NtRp3048
(dp3049
g65
(dp3050
sg74
g3036
sg67
(lp3051
g60
(g61
g62
NtRp3052
(dp3053
g65
(dp3054
g73
I3
ssg74
g3048
sg67
(lp3055
S''
asbasbasbag60
(g76
g62
NtRp3056
(dp3057
g65
(dp3058
sg74
g3012
sg67
(lp3059
g60
(g81
g62
NtRp3060
(dp3061
g65
(dp3062
g85
g86
ssg74
g3056
sg67
(lp3063
g316
asbag60
(g81
g62
NtRp3064
(dp3065
g65
(dp3066
g92
g93
ssg74
g3056
sg67
(lp3067
S':'
asbag60
(g81
g62
NtRp3068
(dp3069
g65
(dp3070
sg74
g3056
sg67
(lp3071
g60
(g61
g62
NtRp3072
(dp3073
g65
(dp3074
g73
I3
ssg74
g3068
sg67
(lp3075
S''
asbasbasbag60
(g76
g62
NtRp3076
(dp3077
g65
(dp3078
sg74
g3012
sg67
(lp3079
g60
(g81
g62
NtRp3080
(dp3081
g65
(dp3082
g85
g86
ssg74
g3076
sg67
(lp3083
g337
asbag60
(g81
g62
NtRp3084
(dp3085
g65
(dp3086
g92
g93
ssg74
g3076
sg67
(lp3087
S':'
asbag60
(g81
g62
NtRp3088
(dp3089
g65
(dp3090
sg74
g3076
sg67
(lp3091
g60
(g61
g62
NtRp3092
(dp3093
g65
(dp3094
g73
I3
ssg74
g3088
sg67
(lp3095
S''
asbasbasbag60
(g76
g62
NtRp3096
(dp3097
g65
(dp3098
sg74
g3012
sg67
(lp3099
g60
(g81
g62
NtRp3100
(dp3101
g65
(dp3102
g85
g86
ssg74
g3096
sg67
(lp3103
g358
asbag60
(g81
g62
NtRp3104
(dp3105
g65
(dp3106
g92
g93
ssg74
g3096
sg67
(lp3107
S':'
asbag60
(g81
g62
NtRp3108
(dp3109
g65
(dp3110
sg74
g3096
sg67
(lp3111
g60
(g61
g62
NtRp3112
(dp3113
g65
(dp3114
g73
I3
ssg74
g3108
sg67
(lp3115
S'/'
asbasbasbag60
(g76
g62
NtRp3116
(dp3117
g65
(dp3118
sg74
g3012
sg67
(lp3119
g60
(g81
g62
NtRp3120
(dp3121
g65
(dp3122
g85
g86
ssg74
g3116
sg67
(lp3123
g379
asbag60
(g81
g62
NtRp3124
(dp3125
g65
(dp3126
g92
g93
ssg74
g3116
sg67
(lp3127
S':'
asbag60
(g81
g62
NtRp3128
(dp3129
g65
(dp3130
sg74
g3116
sg67
(lp3131
g60
(g61
g62
NtRp3132
(dp3133
g65
(dp3134
g73
I3
ssg74
g3128
sg67
(lp3135
S''
asbasbasbag60
(g76
g62
NtRp3136
(dp3137
g65
(dp3138
sg74
g3012
sg67
(lp3139
g60
(g81
g62
NtRp3140
(dp3141
g65
(dp3142
g85
g86
ssg74
g3136
sg67
(lp3143
g400
asbag60
(g81
g62
NtRp3144
(dp3145
g65
(dp3146
g92
g93
ssg74
g3136
sg67
(lp3147
S':'
asbag60
(g81
g62
NtRp3148
(dp3149
g65
(dp3150
sg74
g3136
sg67
(lp3151
g60
(g61
g62
NtRp3152
(dp3153
g65
(dp3154
g73
I3
ssg74
g3148
sg67
(lp3155
S''
asbasbasbasbasbasbasbasbasbasbasbag60
(g76
g62
NtRp3156
(dp3157
g65
(dp3158
sg74
g2942
sg67
(lp3159
g60
(g81
g62
NtRp3160
(dp3161
g65
(dp3162
g85
g86
ssg74
g3156
sg67
(lp3163
S'files'
p3164
asbag60
(g81
g62
NtRp3165
(dp3166
g65
(dp3167
g92
g93
ssg74
g3156
sg67
(lp3168
S':'
asbag60
(g81
g62
NtRp3169
(dp3170
g65
(dp3171
sg74
g3156
sg67
(lp3172
g60
(g61
g62
NtRp3173
(dp3174
g65
(dp3175
g73
I5
ssg74
g3169
sg67
(lp3176
g60
(g69
g62
NtRp3177
(dp3178
g65
(dp3179
g73
I4
ssg74
Nsg67
(lp3180
sbasbasbasbag60
(g76
g62
NtRp3181
(dp3182
g65
(dp3183
sg74
g2942
sg67
(lp3184
g60
(g81
g62
NtRp3185
(dp3186
g65
(dp3187
g85
g86
ssg74
g3181
sg67
(lp3188
S'flash'
p3189
asbag60
(g81
g62
NtRp3190
(dp3191
g65
(dp3192
g92
g93
ssg74
g3181
sg67
(lp3193
S':'
asbag60
(g81
g62
NtRp3194
(dp3195
g65
(dp3196
sg74
g3181
sg67
(lp3197
g60
(g61
g62
NtRp3198
(dp3199
g65
(dp3200
g73
I5
ssg74
g3194
sg67
(lp3201
S''
asbasbasbag60
(g76
g62
NtRp3202
(dp3203
g65
(dp3204
sg74
g2942
sg67
(lp3205
g60
(g81
g62
NtRp3206
(dp3207
g65
(dp3208
g85
g86
ssg74
g3202
sg67
(lp3209
S'generic_patterns'
p3210
asbag60
(g81
g62
NtRp3211
(dp3212
g65
(dp3213
g92
g93
ssg74
g3202
sg67
(lp3214
S':'
asbag60
(g81
g62
NtRp3215
(dp3216
g65
(dp3217
sg74
g3202
sg67
(lp3218
g60
(g61
g62
NtRp3219
(dp3220
g65
(dp3221
g73
I5
ssg74
g3215
sg67
(lp3222
g60
(g69
g62
NtRp3223
(dp3224
g65
(dp3225
g73
I4
ssg74
Nsg67
(lp3226
g60
(g76
g62
NtRp3227
(dp3228
g65
(dp3229
sg74
g3223
sg67
(lp3230
g60
(g81
g62
NtRp3231
(dp3232
g65
(dp3233
sg74
g3227
sg67
(lp3234
g60
(g61
g62
NtRp3235
(dp3236
g65
(dp3237
g73
I4
ssg74
g3231
sg67
(lp3238
S'*'
asbasbasbasbasbasbasbag60
(g76
g62
NtRp3239
(dp3240
g65
(dp3241
sg74
g2942
sg67
(lp3242
g60
(g81
g62
NtRp3243
(dp3244
g65
(dp3245
g85
g86
ssg74
g3239
sg67
(lp3246
S'headers'
p3247
asbag60
(g81
g62
NtRp3248
(dp3249
g65
(dp3250
g92
g93
ssg74
g3239
sg67
(lp3251
S':'
asbag60
(g81
g62
NtRp3252
(dp3253
g65
(dp3254
sg74
g3239
sg67
(lp3255
g60
(g61
g62
NtRp3256
(dp3257
g65
(dp3258
g73
I5
ssg74
g3252
sg67
(lp3259
g60
(g69
g62
NtRp3260
(dp3261
g65
(dp3262
g73
I4
ssg74
Nsg67
(lp3263
g60
(g76
g62
NtRp3264
(dp3265
g65
(dp3266
sg74
g3260
sg67
(lp3267
g60
(g81
g62
NtRp3268
(dp3269
g65
(dp3270
g85
g86
ssg74
g3264
sg67
(lp3271
S'Cache-Control'
p3272
asbag60
(g81
g62
NtRp3273
(dp3274
g65
(dp3275
g92
g93
ssg74
g3264
sg67
(lp3276
S':'
asbag60
(g81
g62
NtRp3277
(dp3278
g65
(dp3279
sg74
g3264
sg67
(lp3280
g60
(g61
g62
NtRp3281
(dp3282
g65
(dp3283
g73
I4
ssg74
g3277
sg67
(lp3284
S'no-store, no-cache, must-revalidate, post-check=0, pre-check=0'
p3285
asbasbasbag60
(g76
g62
NtRp3286
(dp3287
g65
(dp3288
sg74
g3260
sg67
(lp3289
g60
(g81
g62
NtRp3290
(dp3291
g65
(dp3292
g85
g86
ssg74
g3286
sg67
(lp3293
S'Content-Type'
p3294
asbag60
(g81
g62
NtRp3295
(dp3296
g65
(dp3297
g92
g93
ssg74
g3286
sg67
(lp3298
S':'
asbag60
(g81
g62
NtRp3299
(dp3300
g65
(dp3301
sg74
g3286
sg67
(lp3302
g60
(g61
g62
NtRp3303
(dp3304
g65
(dp3305
g73
I4
ssg74
g3299
sg67
(lp3306
S'text/html; charset=utf-8'
p3307
asbasbasbag60
(g76
g62
NtRp3308
(dp3309
g65
(dp3310
sg74
g3260
sg67
(lp3311
g60
(g81
g62
NtRp3312
(dp3313
g65
(dp3314
g85
g86
ssg74
g3308
sg67
(lp3315
S'Expires'
p3316
asbag60
(g81
g62
NtRp3317
(dp3318
g65
(dp3319
g92
g93
ssg74
g3308
sg67
(lp3320
S':'
asbag60
(g81
g62
NtRp3321
(dp3322
g65
(dp3323
sg74
g3308
sg67
(lp3324
g60
(g61
g62
NtRp3325
(dp3326
g65
(dp3327
g73
I4
ssg74
g3321
sg67
(lp3328
S'Sat, 12 Nov 2011 21:48:51 GMT'
p3329
asbasbasbag60
(g76
g62
NtRp3330
(dp3331
g65
(dp3332
sg74
g3260
sg67
(lp3333
g60
(g81
g62
NtRp3334
(dp3335
g65
(dp3336
g85
g86
ssg74
g3330
sg67
(lp3337
S'Pragma'
p3338
asbag60
(g81
g62
NtRp3339
(dp3340
g65
(dp3341
g92
g93
ssg74
g3330
sg67
(lp3342
S':'
asbag60
(g81
g62
NtRp3343
(dp3344
g65
(dp3345
sg74
g3330
sg67
(lp3346
g60
(g61
g62
NtRp3347
(dp3348
g65
(dp3349
g73
I4
ssg74
g3343
sg67
(lp3350
S'no-cache'
p3351
asbasbasbag60
(g76
g62
NtRp3352
(dp3353
g65
(dp3354
sg74
g3260
sg67
(lp3355
g60
(g81
g62
NtRp3356
(dp3357
g65
(dp3358
g85
g86
ssg74
g3352
sg67
(lp3359
S'X-Powered-By'
p3360
asbag60
(g81
g62
NtRp3361
(dp3362
g65
(dp3363
g92
g93
ssg74
g3352
sg67
(lp3364
S':'
asbag60
(g81
g62
NtRp3365
(dp3366
g65
(dp3367
sg74
g3352
sg67
(lp3368
g60
(g61
g62
NtRp3369
(dp3370
g65
(dp3371
g73
I4
ssg74
g3365
sg67
(lp3372
S'web2py'
p3373
asbasbasbasbasbasbasbag60
(g76
g62
NtRp3374
(dp3375
g65
(dp3376
sg74
g2942
sg67
(lp3377
g60
(g81
g62
NtRp3378
(dp3379
g65
(dp3380
g85
g86
ssg74
g3374
sg67
(lp3381
S'menu'
p3382
asbag60
(g81
g62
NtRp3383
(dp3384
g65
(dp3385
g92
g93
ssg74
g3374
sg67
(lp3386
S':'
asbag60
(g81
g62
NtRp3387
(dp3388
g65
(dp3389
sg74
g3374
sg67
(lp3390
g60
(g61
g62
NtRp3391
(dp3392
g65
(dp3393
g73
I5
ssg74
g3387
sg67
(lp3394
g60
(g69
g62
NtRp3395
(dp3396
g65
(dp3397
g73
I4
ssg74
Nsg67
(lp3398
g60
(g76
g62
NtRp3399
(dp3400
g65
(dp3401
sg74
g3395
sg67
(lp3402
g60
(g81
g62
NtRp3403
(dp3404
g65
(dp3405
sg74
g3399
sg67
(lp3406
g60
(g61
g62
NtRp3407
(dp3408
g65
(dp3409
g73
I4
ssg74
g3403
sg67
(lp3410
g60
(g69
g62
NtRp3411
(dp3412
g65
(dp3413
g73
I3
ssg74
Nsg67
(lp3414
g60
(g76
g62
NtRp3415
(dp3416
g65
(dp3417
sg74
g3411
sg67
(lp3418
g60
(g81
g62
NtRp3419
(dp3420
g65
(dp3421
sg74
g3415
sg67
(lp3422
g60
(g61
g62
NtRp3423
(dp3424
g65
(dp3425
g73
I3
ssg74
g3419
sg67
(lp3426
cgluon.languages
lazyT_unpickle
p3427
(S's\x05\x00\x00\x00Index'
tRp3428
asbasbasbag60
(g76
g62
NtRp3429
(dp3430
g65
(dp3431
sg74
g3411
sg67
(lp3432
g60
(g81
g62
NtRp3433
(dp3434
g65
(dp3435
sg74
g3429
sg67
(lp3436
g60
(g61
g62
NtRp3437
(dp3438
g65
(dp3439
g73
I3
ssg74
g3433
sg67
(lp3440
g103
asbasbasbag60
(g76
g62
NtRp3441
(dp3442
g65
(dp3443
sg74
g3411
sg67
(lp3444
g60
(g81
g62
NtRp3445
(dp3446
g65
(dp3447
sg74
g3441
sg67
(lp3448
g60
(g61
g62
NtRp3449
(dp3450
g65
(dp3451
g73
I3
ssg74
g3445
sg67
(lp3452
S'/Casa_de_Apuestas/default/index'
p3453
asbasbasbag60
(g76
g62
NtRp3454
(dp3455
g65
(dp3456
sg74
g3411
sg67
(lp3457
g60
(g81
g62
NtRp3458
(dp3459
g65
(dp3460
sg74
g3454
sg67
(lp3461
g60
(g61
g62
NtRp3462
(dp3463
g65
(dp3464
g73
I3
ssg74
g3458
sg67
(lp3465
g60
(g69
g62
NtRp3466
(dp3467
g65
(dp3468
g73
I2
ssg74
Nsg67
(lp3469
sbasbasbasbasbasbasbasbasbasbasbasbag60
(g76
g62
NtRp3470
(dp3471
g65
(dp3472
sg74
g2942
sg67
(lp3473
g60
(g81
g62
NtRp3474
(dp3475
g65
(dp3476
g85
g86
ssg74
g3470
sg67
(lp3477
S'meta'
p3478
asbag60
(g81
g62
NtRp3479
(dp3480
g65
(dp3481
g92
g93
ssg74
g3470
sg67
(lp3482
S':'
asbag60
(g81
g62
NtRp3483
(dp3484
g65
(dp3485
sg74
g3470
sg67
(lp3486
g60
(g61
g62
NtRp3487
(dp3488
g65
(dp3489
g73
I5
ssg74
g3483
sg67
(lp3490
g60
(g69
g62
NtRp3491
(dp3492
g65
(dp3493
g73
I4
ssg74
Nsg67
(lp3494
g60
(g76
g62
NtRp3495
(dp3496
g65
(dp3497
sg74
g3491
sg67
(lp3498
g60
(g81
g62
NtRp3499
(dp3500
g65
(dp3501
g85
g86
ssg74
g3495
sg67
(lp3502
S'author'
p3503
asbag60
(g81
g62
NtRp3504
(dp3505
g65
(dp3506
g92
g93
ssg74
g3495
sg67
(lp3507
S':'
asbag60
(g81
g62
NtRp3508
(dp3509
g65
(dp3510
sg74
g3495
sg67
(lp3511
g60
(g61
g62
NtRp3512
(dp3513
g65
(dp3514
g73
I4
ssg74
g3508
sg67
(lp3515
S'JSG Systems <jsg@example.com>'
p3516
asbasbasbag60
(g76
g62
NtRp3517
(dp3518
g65
(dp3519
sg74
g3491
sg67
(lp3520
g60
(g81
g62
NtRp3521
(dp3522
g65
(dp3523
g85
g86
ssg74
g3517
sg67
(lp3524
S'description'
p3525
asbag60
(g81
g62
NtRp3526
(dp3527
g65
(dp3528
g92
g93
ssg74
g3517
sg67
(lp3529
S':'
asbag60
(g81
g62
NtRp3530
(dp3531
g65
(dp3532
sg74
g3517
sg67
(lp3533
g60
(g61
g62
NtRp3534
(dp3535
g65
(dp3536
g73
I4
ssg74
g3530
sg67
(lp3537
S''
asbasbasbag60
(g76
g62
NtRp3538
(dp3539
g65
(dp3540
sg74
g3491
sg67
(lp3541
g60
(g81
g62
NtRp3542
(dp3543
g65
(dp3544
g85
g86
ssg74
g3538
sg67
(lp3545
S'keywords'
p3546
asbag60
(g81
g62
NtRp3547
(dp3548
g65
(dp3549
g92
g93
ssg74
g3538
sg67
(lp3550
S':'
asbag60
(g81
g62
NtRp3551
(dp3552
g65
(dp3553
sg74
g3538
sg67
(lp3554
g60
(g61
g62
NtRp3555
(dp3556
g65
(dp3557
g73
I4
ssg74
g3551
sg67
(lp3558
S'casa, apuestas'
p3559
asbasbasbasbasbasbasbag60
(g76
g62
NtRp3560
(dp3561
g65
(dp3562
sg74
g2942
sg67
(lp3563
g60
(g81
g62
NtRp3564
(dp3565
g65
(dp3566
g85
g86
ssg74
g3560
sg67
(lp3567
S'postprocessing'
p3568
asbag60
(g81
g62
NtRp3569
(dp3570
g65
(dp3571
g92
g93
ssg74
g3560
sg67
(lp3572
S':'
asbag60
(g81
g62
NtRp3573
(dp3574
g65
(dp3575
sg74
g3560
sg67
(lp3576
g60
(g61
g62
NtRp3577
(dp3578
g65
(dp3579
g73
I5
ssg74
g3573
sg67
(lp3580
g60
(g69
g62
NtRp3581
(dp3582
g65
(dp3583
g73
I4
ssg74
Nsg67
(lp3584
sbasbasbasbag60
(g76
g62
NtRp3585
(dp3586
g65
(dp3587
sg74
g2942
sg67
(lp3588
g60
(g81
g62
NtRp3589
(dp3590
g65
(dp3591
g85
g86
ssg74
g3585
sg67
(lp3592
S'session_file'
p3593
asbag60
(g81
g62
NtRp3594
(dp3595
g65
(dp3596
g92
g93
ssg74
g3585
sg67
(lp3597
S':'
asbag60
(g81
g62
NtRp3598
(dp3599
g65
(dp3600
sg74
g3585
sg67
(lp3601
g60
(g61
g62
NtRp3602
(dp3603
g65
(dp3604
g73
I5
ssg74
g3598
sg67
(lp3605
S"<open file 'C:\\Python32\\web2py_win\\web2py\\applications\\Casa_de_Apuestas\\sessions\\127.0.0.1-e6356fb0-adec-49e7-b0a9-949176dd84ed', mode 'rb+' at 0x0614F2F0>"
p3606
asbasbasbag60
(g76
g62
NtRp3607
(dp3608
g65
(dp3609
sg74
g2942
sg67
(lp3610
g60
(g81
g62
NtRp3611
(dp3612
g65
(dp3613
g85
g86
ssg74
g3607
sg67
(lp3614
S'session_filename'
p3615
asbag60
(g81
g62
NtRp3616
(dp3617
g65
(dp3618
g92
g93
ssg74
g3607
sg67
(lp3619
S':'
asbag60
(g81
g62
NtRp3620
(dp3621
g65
(dp3622
sg74
g3607
sg67
(lp3623
g60
(g61
g62
NtRp3624
(dp3625
g65
(dp3626
g73
I5
ssg74
g3620
sg67
(lp3627
S'C:\\Python32\\web2py_win\\web2py\\applications\\Casa_de_Apuestas\\sessions\\127.0.0.1-e6356fb0-adec-49e7-b0a9-949176dd84ed'
p3628
asbasbasbag60
(g76
g62
NtRp3629
(dp3630
g65
(dp3631
sg74
g2942
sg67
(lp3632
g60
(g81
g62
NtRp3633
(dp3634
g65
(dp3635
g85
g86
ssg74
g3629
sg67
(lp3636
S'session_id'
p3637
asbag60
(g81
g62
NtRp3638
(dp3639
g65
(dp3640
g92
g93
ssg74
g3629
sg67
(lp3641
S':'
asbag60
(g81
g62
NtRp3642
(dp3643
g65
(dp3644
sg74
g3629
sg67
(lp3645
g60
(g61
g62
NtRp3646
(dp3647
g65
(dp3648
g73
I5
ssg74
g3642
sg67
(lp3649
S'127.0.0.1-e6356fb0-adec-49e7-b0a9-949176dd84ed'
p3650
asbasbasbag60
(g76
g62
NtRp3651
(dp3652
g65
(dp3653
sg74
g2942
sg67
(lp3654
g60
(g81
g62
NtRp3655
(dp3656
g65
(dp3657
g85
g86
ssg74
g3651
sg67
(lp3658
S'session_id_name'
p3659
asbag60
(g81
g62
NtRp3660
(dp3661
g65
(dp3662
g92
g93
ssg74
g3651
sg67
(lp3663
S':'
asbag60
(g81
g62
NtRp3664
(dp3665
g65
(dp3666
sg74
g3651
sg67
(lp3667
g60
(g61
g62
NtRp3668
(dp3669
g65
(dp3670
g73
I5
ssg74
g3664
sg67
(lp3671
g2999
asbasbasbag60
(g76
g62
NtRp3672
(dp3673
g65
(dp3674
sg74
g2942
sg67
(lp3675
g60
(g81
g62
NtRp3676
(dp3677
g65
(dp3678
g85
g86
ssg74
g3672
sg67
(lp3679
S'session_locked'
p3680
asbag60
(g81
g62
NtRp3681
(dp3682
g65
(dp3683
g92
g93
ssg74
g3672
sg67
(lp3684
S':'
asbag60
(g81
g62
NtRp3685
(dp3686
g65
(dp3687
sg74
g3672
sg67
(lp3688
g60
(g61
g62
NtRp3689
(dp3690
g65
(dp3691
g73
I5
ssg74
g3685
sg67
(lp3692
g1599
asbasbasbag60
(g76
g62
NtRp3693
(dp3694
g65
(dp3695
sg74
g2942
sg67
(lp3696
g60
(g81
g62
NtRp3697
(dp3698
g65
(dp3699
g85
g86
ssg74
g3693
sg67
(lp3700
S'session_new'
p3701
asbag60
(g81
g62
NtRp3702
(dp3703
g65
(dp3704
g92
g93
ssg74
g3693
sg67
(lp3705
S':'
asbag60
(g81
g62
NtRp3706
(dp3707
g65
(dp3708
sg74
g3693
sg67
(lp3709
g60
(g61
g62
NtRp3710
(dp3711
g65
(dp3712
g73
I5
ssg74
g3706
sg67
(lp3713
g103
asbasbasbag60
(g76
g62
NtRp3714
(dp3715
g65
(dp3716
sg74
g2942
sg67
(lp3717
g60
(g81
g62
NtRp3718
(dp3719
g65
(dp3720
g85
g86
ssg74
g3714
sg67
(lp3721
S'status'
p3722
asbag60
(g81
g62
NtRp3723
(dp3724
g65
(dp3725
g92
g93
ssg74
g3714
sg67
(lp3726
S':'
asbag60
(g81
g62
NtRp3727
(dp3728
g65
(dp3729
sg74
g3714
sg67
(lp3730
g60
(g61
g62
NtRp3731
(dp3732
g65
(dp3733
g73
I5
ssg74
g3727
sg67
(lp3734
S'200'
p3735
asbasbasbag60
(g76
g62
NtRp3736
(dp3737
g65
(dp3738
sg74
g2942
sg67
(lp3739
g60
(g81
g62
NtRp3740
(dp3741
g65
(dp3742
g85
g86
ssg74
g3736
sg67
(lp3743
S'subtitle'
p3744
asbag60
(g81
g62
NtRp3745
(dp3746
g65
(dp3747
g92
g93
ssg74
g3736
sg67
(lp3748
S':'
asbag60
(g81
g62
NtRp3749
(dp3750
g65
(dp3751
sg74
g3736
sg67
(lp3752
g60
(g61
g62
NtRp3753
(dp3754
g65
(dp3755
g73
I5
ssg74
g3749
sg67
(lp3756
S''
asbasbasbag60
(g76
g62
NtRp3757
(dp3758
g65
(dp3759
sg74
g2942
sg67
(lp3760
g60
(g81
g62
NtRp3761
(dp3762
g65
(dp3763
g85
g86
ssg74
g3757
sg67
(lp3764
S'title'
p3765
asbag60
(g81
g62
NtRp3766
(dp3767
g65
(dp3768
g92
g93
ssg74
g3757
sg67
(lp3769
S':'
asbag60
(g81
g62
NtRp3770
(dp3771
g65
(dp3772
sg74
g3757
sg67
(lp3773
g60
(g61
g62
NtRp3774
(dp3775
g65
(dp3776
g73
I5
ssg74
g3770
sg67
(lp3777
S'Casa de Apuestas'
p3778
asbasbasbag60
(g76
g62
NtRp3779
(dp3780
g65
(dp3781
sg74
g2942
sg67
(lp3782
g60
(g81
g62
NtRp3783
(dp3784
g65
(dp3785
g85
g86
ssg74
g3779
sg67
(lp3786
g2243
asbag60
(g81
g62
NtRp3787
(dp3788
g65
(dp3789
g92
g93
ssg74
g3779
sg67
(lp3790
S':'
asbag60
(g81
g62
NtRp3791
(dp3792
g65
(dp3793
sg74
g3779
sg67
(lp3794
g60
(g61
g62
NtRp3795
(dp3796
g65
(dp3797
g73
I5
ssg74
g3791
sg67
(lp3798
g2256
asbasbasbag60
(g76
g62
NtRp3799
(dp3800
g65
(dp3801
sg74
g2942
sg67
(lp3802
g60
(g81
g62
NtRp3803
(dp3804
g65
(dp3805
g85
g86
ssg74
g3799
sg67
(lp3806
S'view'
p3807
asbag60
(g81
g62
NtRp3808
(dp3809
g65
(dp3810
g92
g93
ssg74
g3799
sg67
(lp3811
S':'
asbag60
(g81
g62
NtRp3812
(dp3813
g65
(dp3814
sg74
g3799
sg67
(lp3815
g60
(g61
g62
NtRp3816
(dp3817
g65
(dp3818
g73
I5
ssg74
g3812
sg67
(lp3819
S'default/crearCategoria.html'
p3820
asbasbasbasbasbsS'locals'
p3821
(dp3822
g3
S"r'C:\\Python32\\web2py_win\\web2py\\applications\\Casa_de_Apuestas\\views\\default/crearCategoria.html'"
p3823
sg5
S'\'response.write(\\\'<!DOCTYPE html PUBLIC "-//W3C//D...</div>\\\\r\\\\n </body>\\\\r\\\\n</html>\\\\r\\\\n\\\', escape=False)\''
p3824
sssS'traceback'
p3825
S'Traceback (most recent call last):\n  File "gluon/restricted.py", line 193, in restricted\n  File "gluon/restricted.py", line 179, in compile2\n  File "C:\\Python32\\web2py_win\\web2py\\applications\\Casa_de_Apuestas\\views\\default/crearCategoria.html", line 32\n    response.write(T(cat.nombre<"br">))\n                                     ^\nSyntaxError: invalid syntax\n'
p3826
s.