(dp1
S'output'
p2
S''
sS'layer'
p3
S'C:\\Python32\\web2py_win\\web2py\\applications\\Casa_de_Apuestas\\controllers/default.py'
p4
sS'code'
p5
S'# -*- coding: utf-8 -*-\n### required - do no delete\n"""\nEste Modulo corresponde al de controladores segun MVC, los metodos aqui contenidos\nson los encargados de invocar a las vistas, eso esta configurado en el framework\n"""\nfrom Servicio import *\nservice = Servicio(db, crud)\nfrom log import *\nlog = log()\n\ndef user(): return dict(form=auth())\ndef download(): return response.download(request,db)\ndef call(): return service()\n\n### end requires\n\n@auth.requires_login()\ndef index():\n    return dict()\n\ndef error():\n    return dict()\n\ndef maquinas():\n    form = crud.update(db.maquinas, request.args(0),next=URL(\'maquinas\'))\n    maquinas = db().select(db.maquinas.ALL)\n    coordenadas = False\n    if (request.args(0)):\n        for i, maquina in enumerate(maquinas):\n            if (i == request.args(0)):\n                break\n        coordenadas = dict(lon=maquina.longitud,lat=maquina.latitud)                    \n    return dict(form=form, maquinas=maquinas, coordenadas=coordenadas)\n\ndef crearCategoria():\n        categorias = db().select(db.categorias.ALL)\n        form = crud.create(db.categorias)\n        #if form.accepts(request.vars, formname=None):\n        if form.process().accepted:\n            db.commit()        \n            from log import *\n            log = log()\n            log.logear("Categoria creada: "+form.vars.nombre)\n        return response.render(dict(form=form, categorias=categorias))\n\ndef crearEvento():\n        eventos = db().select(db.eventos.ALL)\n        form = crud.create(db.eventos)\n        #if form.accepts(request.vars, formname=None):\n        if form.process().accepted:\n            db.commit()        \n            from log import *\n            log = log()\n            log.logear("Evento creado: "+form.vars.nombre)\n        return response.render(dict(form=form,eventos=eventos))\n\ndef crearParticipante():\n        participantes = db().select(db.participantes.ALL)\n        form = crud.create(db.participantes)\n        #if form.accepts(request.vars, formname=None):\n        if form.process().accepted:\n            db.commit()        \n            from log import *\n            log = log()\n            log.logear("Participante creado: "+form.vars.nombre)\n        return response.render(dict(form=form,participantes=participantes))\n\ndef crearEventoParticipante():\n        eventosparticipantes = db().select(db.eventosparticipantes.ALL)\n        form = crud.create(db.eventosparticipantes)\n        #if form.accepts(request.vars, formname=None):\n        if form.process().accepted:\n            db.commit()        \n            from log import *\n            log = log()\n            log.logear("EventoParticipante creado: "+form.vars.nombre)\n        return response.render(dict(form=form,eventosparticipantes=eventosparticipantes))\n\ndef crearUsuario():\n        usuarios = db().select(db.auth_user.ALL)\n        form = crud.create(db.auth_user)\n        #if form.accepts(request.vars, formname=None):\n        if form.process().accepted:\n            db.commit()        \n            from log import *\n            log = log()\n            log.logear("Usuario creado: "+form.vars.nombre)\n        return response.render(dict(form=form,usuarios=usuarios))\n    \n\ndef mostrarCategoria():\n        categorias = db().select(db.categorias.ALL, orderby = db.categorias.id)\n        return response.render(dict(categorias = categorias))\n\ndef mostrarEvento():\n        eventos = db().select(db.eventos.ALL, orderby = db.eventos.id)\n        return response.render(dict(eventos = eventos))\n\ndef mostrarParticipante():\n        participantes = db().select(db.participantes.ALL, orderby = db.participantes.id)\n        return response.render(dict(participantes = participantes))\n\ndef mostrarEventosParticipantes():\n        eventosparticipantes = db().select(db.eventosparticipantes.ALL,orderby = db.eventosparticipantes.id)\n        return response.render(dict(eventosparticipantes= eventosparticipantes))\n    \ndef mostrarUsuario():\n        usuarios = db().select(db.auth_user.ALL, orderby = db.auth_user.id)\n        return response.render(dict(usuarios = usuarios))\n    \n    \n    \ndef showEvento():\n        form = crud.update(db.eventos, request.args(0),next = URL(\'mostrarEvento\'))\n        #if form.accepts(request.vars, formname=None):\n        if form.process().accepted:\n            db.commit()        \n            from log import *\n            log = log()\n            log.logear("Evento modificado: "+form.vars.nombre)           \n        return response.render(dict(form = form))\n\ndef showCategoria():\n        form =crud.update(db.categorias, request.args(0), next = URL(\'mostrarCategoria\'))\n        #if form.accepts(request.vars, formname=None):\n        if form.process().accepted:\n            db.commit()        \n            from log import *\n            log = log()\n            log.logear("Categoria modificada: "+form.vars.nombre)          \n        return response.render(dict(form = form))\n\ndef showParticipante():\n        form = crud.update(db.participantes, request.args(0),next = URL(\'mostrarParticipante\'))\n        #if form.accepts(request.vars, formname=None):\n        if form.process().accepted:\n            db.commit()        \n            from log import *\n            log = log()\n            log.logear("Participante modificado: "+form.vars.nombre)            \n        return response.render(dict(form = form)) \n\ndef showEventosParticipantes():\n    return service.showEventoParticipante(request)\n    \ndef showUsuario():\n        form = crud.update(db.auth_user, request.args(0), next = URL(\'mostrarUsuario\'))\n        #if form.accepts(request.vars, formname=None):\n        if form.process().accepted:\n            db.commit()        \n            from log import *\n            log = log()\n            log.logear("Usuario modificado: "+form.vars.nombre)           \n        return response.render(dict(form = form))\n\n\ndef verResultado1():\n    import datetime\n    fechaActual=datetime.datetime.now()\n    eventos =db(db.eventos.fecha <fechaActual).select()\n    return dict(eventos=eventos)\n        \ndef verResultado2():\n    resultados= db((db.resultados.eventos_id==request.args(0))& (db.resultados.participantes_id==db.participantes.id)).select()\n    evento=db(db.eventos.id==request.args(0)).select()\n    return dict(resultados=resultados,evento=evento)\n    \ndef mostrar():\n    from DAOCasadeApuestas import *\n    dao = DAOCasadeApuestas()\n    dao2 = DAOCasadeApuestas()\n    dao3 = DAOCasadeApuestas()\n    dao4 = DAOCasadeApuestas()\n    dao5 = DAOCasadeApuestas()\n    q = dao.generarArchivoActualizacionMD5(dao.generarMensajeMD5(db().select(db.eventos.ALL)), dao2.generarMensajeMD5(db().select(db.categorias.ALL)), dao3.generarMensajeMD5(db().select(db.participantes.ALL)), dao4.generarMensajeMD5(db().select(db.eventosparticipantes.ALL)), dao5.generarMensajeMD5(db().select(db.auth_user.ALL)))\n    s = dao.generarArchivoActualizacionXML(dao.generarFormatoXml(db().select(db.eventos.ALL)), dao2.generarFormatoXml(db().select(db.categorias.ALL)), dao3.generarFormatoXml(db().select(db.participantes.ALL)), dao4.generarFormatoXml(db().select(db.eventosparticipantes.ALL)), dao5.generarFormatoXml(db().select(db.auth_user.ALL)))\n    return response.render(dict(q = q, s = s))   \n    \ndef verProximosEventos1():\n    import datetime\n    fechaActual=datetime.datetime.now()\n    eventos =db(db.eventos.fecha>fechaActual).select()\n    return dict(eventos=eventos)\n    \ndef verProximosEventos2():\n    evento_participante= db((db.eventosparticipantes.eventos_id==request.args(0))& (db.participantes.id==db.eventosparticipantes.participantes_id)).select()\n    evento = db(db.eventos.id==request.args(0)).select()\n    categoria = db((db.categorias.id==db.eventos.categoria_id)& (db.eventos.id==request.args(0))).select()\n    return dict(evento_participante=evento_participante,evento=evento,categoria=categoria)\n    \ndef indexPublico():\n    return dict()\n\nresponse._vars=response._caller(crearEventoParticipante)\n'
p6
sS'snapshot'
p7
(dp8
S'exception'
p9
(dp10
S'__hash__'
p11
S"<method-wrapper '__hash__' of exceptions.TypeError object at 0x067C2418>"
p12
sS'__setattr__'
p13
S"<method-wrapper '__setattr__' of exceptions.TypeError object at 0x067C2418>"
p14
sS'__reduce_ex__'
p15
S'<built-in method __reduce_ex__ of exceptions.TypeError object at 0x067C2418>'
p16
sS'__getslice__'
p17
S"<method-wrapper '__getslice__' of exceptions.TypeError object at 0x067C2418>"
p18
sS'__getitem__'
p19
S"<method-wrapper '__getitem__' of exceptions.TypeError object at 0x067C2418>"
p20
sS'__setstate__'
p21
S'<built-in method __setstate__ of exceptions.TypeError object at 0x067C2418>'
p22
sS'__reduce__'
p23
S'<built-in method __reduce__ of exceptions.TypeError object at 0x067C2418>'
p24
sS'__str__'
p25
S"<method-wrapper '__str__' of exceptions.TypeError object at 0x067C2418>"
p26
sS'args'
p27
S'("cannot concatenate \'str\' and \'NoneType\' objects",)'
p28
sS'__getattribute__'
p29
S"<method-wrapper '__getattribute__' of exceptions.TypeError object at 0x067C2418>"
p30
sS'__class__'
p31
S"<type 'exceptions.TypeError'>"
p32
sS'__delattr__'
p33
S"<method-wrapper '__delattr__' of exceptions.TypeError object at 0x067C2418>"
p34
sS'__repr__'
p35
S"<method-wrapper '__repr__' of exceptions.TypeError object at 0x067C2418>"
p36
sS'__dict__'
p37
S'{}'
p38
sS'__doc__'
p39
S"'Inappropriate argument type.'"
p40
sS'__init__'
p41
S"<method-wrapper '__init__' of exceptions.TypeError object at 0x067C2418>"
p42
sS'__new__'
p43
S'<built-in method __new__ of type object at 0x1E1CCD78>'
p44
ssS'evalue'
p45
S"cannot concatenate 'str' and 'NoneType' objects"
p46
sS'request'
p47
ccopy_reg
_reconstructor
p48
(cgluon.html
BEAUTIFY
p49
c__builtin__
object
p50
NtRp51
(dp52
S'attributes'
p53
(dp54
sS'components'
p55
(lp56
g48
(cgluon.html
TABLE
p57
g50
NtRp58
(dp59
g53
(dp60
S'level'
p61
I5
ssS'parent'
p62
Nsg55
(lp63
g48
(cgluon.html
TR
p64
g50
NtRp65
(dp66
g53
(dp67
sg62
g58
sg55
(lp68
g48
(cgluon.html
TD
p69
g50
NtRp70
(dp71
g53
(dp72
S'_style'
p73
S'font-weight:bold;'
p74
ssg62
g65
sg55
(lp75
S'ajax'
p76
asbag48
(g69
g50
NtRp77
(dp78
g53
(dp79
S'_valign'
p80
S'top'
p81
ssg62
g65
sg55
(lp82
S':'
asbag48
(g69
g50
NtRp83
(dp84
g53
(dp85
sg62
g65
sg55
(lp86
g48
(g49
g50
NtRp87
(dp88
g53
(dp89
g61
I5
ssg62
g83
sg55
(lp90
S'False'
p91
asbasbasbag48
(g64
g50
NtRp92
(dp93
g53
(dp94
sg62
g58
sg55
(lp95
g48
(g69
g50
NtRp96
(dp97
g53
(dp98
g73
g74
ssg62
g92
sg55
(lp99
S'application'
p100
asbag48
(g69
g50
NtRp101
(dp102
g53
(dp103
g80
g81
ssg62
g92
sg55
(lp104
S':'
asbag48
(g69
g50
NtRp105
(dp106
g53
(dp107
sg62
g92
sg55
(lp108
g48
(g49
g50
NtRp109
(dp110
g53
(dp111
g61
I5
ssg62
g105
sg55
(lp112
S'Casa_de_Apuestas'
p113
asbasbasbag48
(g64
g50
NtRp114
(dp115
g53
(dp116
sg62
g58
sg55
(lp117
g48
(g69
g50
NtRp118
(dp119
g53
(dp120
g73
g74
ssg62
g114
sg55
(lp121
g27
asbag48
(g69
g50
NtRp122
(dp123
g53
(dp124
g80
g81
ssg62
g114
sg55
(lp125
S':'
asbag48
(g69
g50
NtRp126
(dp127
g53
(dp128
sg62
g114
sg55
(lp129
g48
(g49
g50
NtRp130
(dp131
g53
(dp132
g61
I5
ssg62
g126
sg55
(lp133
g48
(g57
g50
NtRp134
(dp135
g53
(dp136
g61
I4
ssg62
Nsg55
(lp137
sbasbasbasbag48
(g64
g50
NtRp138
(dp139
g53
(dp140
sg62
g58
sg55
(lp141
g48
(g69
g50
NtRp142
(dp143
g53
(dp144
g73
g74
ssg62
g138
sg55
(lp145
S'body'
p146
asbag48
(g69
g50
NtRp147
(dp148
g53
(dp149
g80
g81
ssg62
g138
sg55
(lp150
S':'
asbag48
(g69
g50
NtRp151
(dp152
g53
(dp153
sg62
g138
sg55
(lp154
g48
(g49
g50
NtRp155
(dp156
g53
(dp157
g61
I5
ssg62
g151
sg55
(lp158
S"<open file '<fdopen>', mode 'w+b' at 0x05FDB2F0>"
p159
asbasbasbag48
(g64
g50
NtRp160
(dp161
g53
(dp162
sg62
g58
sg55
(lp163
g48
(g69
g50
NtRp164
(dp165
g53
(dp166
g73
g74
ssg62
g160
sg55
(lp167
S'client'
p168
asbag48
(g69
g50
NtRp169
(dp170
g53
(dp171
g80
g81
ssg62
g160
sg55
(lp172
S':'
asbag48
(g69
g50
NtRp173
(dp174
g53
(dp175
sg62
g160
sg55
(lp176
g48
(g49
g50
NtRp177
(dp178
g53
(dp179
g61
I5
ssg62
g173
sg55
(lp180
S'127.0.0.1'
p181
asbasbasbag48
(g64
g50
NtRp182
(dp183
g53
(dp184
sg62
g58
sg55
(lp185
g48
(g69
g50
NtRp186
(dp187
g53
(dp188
g73
g74
ssg62
g182
sg55
(lp189
S'controller'
p190
asbag48
(g69
g50
NtRp191
(dp192
g53
(dp193
g80
g81
ssg62
g182
sg55
(lp194
S':'
asbag48
(g69
g50
NtRp195
(dp196
g53
(dp197
sg62
g182
sg55
(lp198
g48
(g49
g50
NtRp199
(dp200
g53
(dp201
g61
I5
ssg62
g195
sg55
(lp202
S'default'
p203
asbasbasbag48
(g64
g50
NtRp204
(dp205
g53
(dp206
sg62
g58
sg55
(lp207
g48
(g69
g50
NtRp208
(dp209
g53
(dp210
g73
g74
ssg62
g204
sg55
(lp211
S'cookies'
p212
asbag48
(g69
g50
NtRp213
(dp214
g53
(dp215
g80
g81
ssg62
g204
sg55
(lp216
S':'
asbag48
(g69
g50
NtRp217
(dp218
g53
(dp219
sg62
g204
sg55
(lp220
g48
(g49
g50
NtRp221
(dp222
g53
(dp223
g61
I5
ssg62
g217
sg55
(lp224
g48
(g57
g50
NtRp225
(dp226
g53
(dp227
g61
I4
ssg62
Nsg55
(lp228
g48
(g64
g50
NtRp229
(dp230
g53
(dp231
sg62
g225
sg55
(lp232
g48
(g69
g50
NtRp233
(dp234
g53
(dp235
g73
g74
ssg62
g229
sg55
(lp236
S'session_id_admin'
p237
asbag48
(g69
g50
NtRp238
(dp239
g53
(dp240
g80
g81
ssg62
g229
sg55
(lp241
S':'
asbag48
(g69
g50
NtRp242
(dp243
g53
(dp244
sg62
g229
sg55
(lp245
g48
(g49
g50
NtRp246
(dp247
g53
(dp248
g61
I4
ssg62
g242
sg55
(lp249
g48
(g57
g50
NtRp250
(dp251
g53
(dp252
g61
I3
ssg62
Nsg55
(lp253
g48
(g64
g50
NtRp254
(dp255
g53
(dp256
sg62
g250
sg55
(lp257
g48
(g69
g50
NtRp258
(dp259
g53
(dp260
g73
g74
ssg62
g254
sg55
(lp261
S'comment'
p262
asbag48
(g69
g50
NtRp263
(dp264
g53
(dp265
g80
g81
ssg62
g254
sg55
(lp266
S':'
asbag48
(g69
g50
NtRp267
(dp268
g53
(dp269
sg62
g254
sg55
(lp270
g48
(g49
g50
NtRp271
(dp272
g53
(dp273
g61
I3
ssg62
g267
sg55
(lp274
S''
asbasbasbag48
(g64
g50
NtRp275
(dp276
g53
(dp277
sg62
g250
sg55
(lp278
g48
(g69
g50
NtRp279
(dp280
g53
(dp281
g73
g74
ssg62
g275
sg55
(lp282
S'domain'
p283
asbag48
(g69
g50
NtRp284
(dp285
g53
(dp286
g80
g81
ssg62
g275
sg55
(lp287
S':'
asbag48
(g69
g50
NtRp288
(dp289
g53
(dp290
sg62
g275
sg55
(lp291
g48
(g49
g50
NtRp292
(dp293
g53
(dp294
g61
I3
ssg62
g288
sg55
(lp295
S''
asbasbasbag48
(g64
g50
NtRp296
(dp297
g53
(dp298
sg62
g250
sg55
(lp299
g48
(g69
g50
NtRp300
(dp301
g53
(dp302
g73
g74
ssg62
g296
sg55
(lp303
S'expires'
p304
asbag48
(g69
g50
NtRp305
(dp306
g53
(dp307
g80
g81
ssg62
g296
sg55
(lp308
S':'
asbag48
(g69
g50
NtRp309
(dp310
g53
(dp311
sg62
g296
sg55
(lp312
g48
(g49
g50
NtRp313
(dp314
g53
(dp315
g61
I3
ssg62
g309
sg55
(lp316
S''
asbasbasbag48
(g64
g50
NtRp317
(dp318
g53
(dp319
sg62
g250
sg55
(lp320
g48
(g69
g50
NtRp321
(dp322
g53
(dp323
g73
g74
ssg62
g317
sg55
(lp324
S'max-age'
p325
asbag48
(g69
g50
NtRp326
(dp327
g53
(dp328
g80
g81
ssg62
g317
sg55
(lp329
S':'
asbag48
(g69
g50
NtRp330
(dp331
g53
(dp332
sg62
g317
sg55
(lp333
g48
(g49
g50
NtRp334
(dp335
g53
(dp336
g61
I3
ssg62
g330
sg55
(lp337
S''
asbasbasbag48
(g64
g50
NtRp338
(dp339
g53
(dp340
sg62
g250
sg55
(lp341
g48
(g69
g50
NtRp342
(dp343
g53
(dp344
g73
g74
ssg62
g338
sg55
(lp345
S'path'
p346
asbag48
(g69
g50
NtRp347
(dp348
g53
(dp349
g80
g81
ssg62
g338
sg55
(lp350
S':'
asbag48
(g69
g50
NtRp351
(dp352
g53
(dp353
sg62
g338
sg55
(lp354
g48
(g49
g50
NtRp355
(dp356
g53
(dp357
g61
I3
ssg62
g351
sg55
(lp358
S''
asbasbasbag48
(g64
g50
NtRp359
(dp360
g53
(dp361
sg62
g250
sg55
(lp362
g48
(g69
g50
NtRp363
(dp364
g53
(dp365
g73
g74
ssg62
g359
sg55
(lp366
S'secure'
p367
asbag48
(g69
g50
NtRp368
(dp369
g53
(dp370
g80
g81
ssg62
g359
sg55
(lp371
S':'
asbag48
(g69
g50
NtRp372
(dp373
g53
(dp374
sg62
g359
sg55
(lp375
g48
(g49
g50
NtRp376
(dp377
g53
(dp378
g61
I3
ssg62
g372
sg55
(lp379
S''
asbasbasbag48
(g64
g50
NtRp380
(dp381
g53
(dp382
sg62
g250
sg55
(lp383
g48
(g69
g50
NtRp384
(dp385
g53
(dp386
g73
g74
ssg62
g380
sg55
(lp387
S'version'
p388
asbag48
(g69
g50
NtRp389
(dp390
g53
(dp391
g80
g81
ssg62
g380
sg55
(lp392
S':'
asbag48
(g69
g50
NtRp393
(dp394
g53
(dp395
sg62
g380
sg55
(lp396
g48
(g49
g50
NtRp397
(dp398
g53
(dp399
g61
I3
ssg62
g393
sg55
(lp400
S''
asbasbasbasbasbasbasbag48
(g64
g50
NtRp401
(dp402
g53
(dp403
sg62
g225
sg55
(lp404
g48
(g69
g50
NtRp405
(dp406
g53
(dp407
g73
g74
ssg62
g401
sg55
(lp408
S'session_id_casa_de_apuestas'
p409
asbag48
(g69
g50
NtRp410
(dp411
g53
(dp412
g80
g81
ssg62
g401
sg55
(lp413
S':'
asbag48
(g69
g50
NtRp414
(dp415
g53
(dp416
sg62
g401
sg55
(lp417
g48
(g49
g50
NtRp418
(dp419
g53
(dp420
g61
I4
ssg62
g414
sg55
(lp421
g48
(g57
g50
NtRp422
(dp423
g53
(dp424
g61
I3
ssg62
Nsg55
(lp425
g48
(g64
g50
NtRp426
(dp427
g53
(dp428
sg62
g422
sg55
(lp429
g48
(g69
g50
NtRp430
(dp431
g53
(dp432
g73
g74
ssg62
g426
sg55
(lp433
g262
asbag48
(g69
g50
NtRp434
(dp435
g53
(dp436
g80
g81
ssg62
g426
sg55
(lp437
S':'
asbag48
(g69
g50
NtRp438
(dp439
g53
(dp440
sg62
g426
sg55
(lp441
g48
(g49
g50
NtRp442
(dp443
g53
(dp444
g61
I3
ssg62
g438
sg55
(lp445
S''
asbasbasbag48
(g64
g50
NtRp446
(dp447
g53
(dp448
sg62
g422
sg55
(lp449
g48
(g69
g50
NtRp450
(dp451
g53
(dp452
g73
g74
ssg62
g446
sg55
(lp453
g283
asbag48
(g69
g50
NtRp454
(dp455
g53
(dp456
g80
g81
ssg62
g446
sg55
(lp457
S':'
asbag48
(g69
g50
NtRp458
(dp459
g53
(dp460
sg62
g446
sg55
(lp461
g48
(g49
g50
NtRp462
(dp463
g53
(dp464
g61
I3
ssg62
g458
sg55
(lp465
S''
asbasbasbag48
(g64
g50
NtRp466
(dp467
g53
(dp468
sg62
g422
sg55
(lp469
g48
(g69
g50
NtRp470
(dp471
g53
(dp472
g73
g74
ssg62
g466
sg55
(lp473
g304
asbag48
(g69
g50
NtRp474
(dp475
g53
(dp476
g80
g81
ssg62
g466
sg55
(lp477
S':'
asbag48
(g69
g50
NtRp478
(dp479
g53
(dp480
sg62
g466
sg55
(lp481
g48
(g49
g50
NtRp482
(dp483
g53
(dp484
g61
I3
ssg62
g478
sg55
(lp485
S''
asbasbasbag48
(g64
g50
NtRp486
(dp487
g53
(dp488
sg62
g422
sg55
(lp489
g48
(g69
g50
NtRp490
(dp491
g53
(dp492
g73
g74
ssg62
g486
sg55
(lp493
g325
asbag48
(g69
g50
NtRp494
(dp495
g53
(dp496
g80
g81
ssg62
g486
sg55
(lp497
S':'
asbag48
(g69
g50
NtRp498
(dp499
g53
(dp500
sg62
g486
sg55
(lp501
g48
(g49
g50
NtRp502
(dp503
g53
(dp504
g61
I3
ssg62
g498
sg55
(lp505
S''
asbasbasbag48
(g64
g50
NtRp506
(dp507
g53
(dp508
sg62
g422
sg55
(lp509
g48
(g69
g50
NtRp510
(dp511
g53
(dp512
g73
g74
ssg62
g506
sg55
(lp513
g346
asbag48
(g69
g50
NtRp514
(dp515
g53
(dp516
g80
g81
ssg62
g506
sg55
(lp517
S':'
asbag48
(g69
g50
NtRp518
(dp519
g53
(dp520
sg62
g506
sg55
(lp521
g48
(g49
g50
NtRp522
(dp523
g53
(dp524
g61
I3
ssg62
g518
sg55
(lp525
S''
asbasbasbag48
(g64
g50
NtRp526
(dp527
g53
(dp528
sg62
g422
sg55
(lp529
g48
(g69
g50
NtRp530
(dp531
g53
(dp532
g73
g74
ssg62
g526
sg55
(lp533
g367
asbag48
(g69
g50
NtRp534
(dp535
g53
(dp536
g80
g81
ssg62
g526
sg55
(lp537
S':'
asbag48
(g69
g50
NtRp538
(dp539
g53
(dp540
sg62
g526
sg55
(lp541
g48
(g49
g50
NtRp542
(dp543
g53
(dp544
g61
I3
ssg62
g538
sg55
(lp545
S''
asbasbasbag48
(g64
g50
NtRp546
(dp547
g53
(dp548
sg62
g422
sg55
(lp549
g48
(g69
g50
NtRp550
(dp551
g53
(dp552
g73
g74
ssg62
g546
sg55
(lp553
g388
asbag48
(g69
g50
NtRp554
(dp555
g53
(dp556
g80
g81
ssg62
g546
sg55
(lp557
S':'
asbag48
(g69
g50
NtRp558
(dp559
g53
(dp560
sg62
g546
sg55
(lp561
g48
(g49
g50
NtRp562
(dp563
g53
(dp564
g61
I3
ssg62
g558
sg55
(lp565
S''
asbasbasbasbasbasbasbag48
(g64
g50
NtRp566
(dp567
g53
(dp568
sg62
g225
sg55
(lp569
g48
(g69
g50
NtRp570
(dp571
g53
(dp572
g73
g74
ssg62
g566
sg55
(lp573
S'session_id_welcome'
p574
asbag48
(g69
g50
NtRp575
(dp576
g53
(dp577
g80
g81
ssg62
g566
sg55
(lp578
S':'
asbag48
(g69
g50
NtRp579
(dp580
g53
(dp581
sg62
g566
sg55
(lp582
g48
(g49
g50
NtRp583
(dp584
g53
(dp585
g61
I4
ssg62
g579
sg55
(lp586
g48
(g57
g50
NtRp587
(dp588
g53
(dp589
g61
I3
ssg62
Nsg55
(lp590
g48
(g64
g50
NtRp591
(dp592
g53
(dp593
sg62
g587
sg55
(lp594
g48
(g69
g50
NtRp595
(dp596
g53
(dp597
g73
g74
ssg62
g591
sg55
(lp598
g262
asbag48
(g69
g50
NtRp599
(dp600
g53
(dp601
g80
g81
ssg62
g591
sg55
(lp602
S':'
asbag48
(g69
g50
NtRp603
(dp604
g53
(dp605
sg62
g591
sg55
(lp606
g48
(g49
g50
NtRp607
(dp608
g53
(dp609
g61
I3
ssg62
g603
sg55
(lp610
S''
asbasbasbag48
(g64
g50
NtRp611
(dp612
g53
(dp613
sg62
g587
sg55
(lp614
g48
(g69
g50
NtRp615
(dp616
g53
(dp617
g73
g74
ssg62
g611
sg55
(lp618
g283
asbag48
(g69
g50
NtRp619
(dp620
g53
(dp621
g80
g81
ssg62
g611
sg55
(lp622
S':'
asbag48
(g69
g50
NtRp623
(dp624
g53
(dp625
sg62
g611
sg55
(lp626
g48
(g49
g50
NtRp627
(dp628
g53
(dp629
g61
I3
ssg62
g623
sg55
(lp630
S''
asbasbasbag48
(g64
g50
NtRp631
(dp632
g53
(dp633
sg62
g587
sg55
(lp634
g48
(g69
g50
NtRp635
(dp636
g53
(dp637
g73
g74
ssg62
g631
sg55
(lp638
g304
asbag48
(g69
g50
NtRp639
(dp640
g53
(dp641
g80
g81
ssg62
g631
sg55
(lp642
S':'
asbag48
(g69
g50
NtRp643
(dp644
g53
(dp645
sg62
g631
sg55
(lp646
g48
(g49
g50
NtRp647
(dp648
g53
(dp649
g61
I3
ssg62
g643
sg55
(lp650
S''
asbasbasbag48
(g64
g50
NtRp651
(dp652
g53
(dp653
sg62
g587
sg55
(lp654
g48
(g69
g50
NtRp655
(dp656
g53
(dp657
g73
g74
ssg62
g651
sg55
(lp658
g325
asbag48
(g69
g50
NtRp659
(dp660
g53
(dp661
g80
g81
ssg62
g651
sg55
(lp662
S':'
asbag48
(g69
g50
NtRp663
(dp664
g53
(dp665
sg62
g651
sg55
(lp666
g48
(g49
g50
NtRp667
(dp668
g53
(dp669
g61
I3
ssg62
g663
sg55
(lp670
S''
asbasbasbag48
(g64
g50
NtRp671
(dp672
g53
(dp673
sg62
g587
sg55
(lp674
g48
(g69
g50
NtRp675
(dp676
g53
(dp677
g73
g74
ssg62
g671
sg55
(lp678
g346
asbag48
(g69
g50
NtRp679
(dp680
g53
(dp681
g80
g81
ssg62
g671
sg55
(lp682
S':'
asbag48
(g69
g50
NtRp683
(dp684
g53
(dp685
sg62
g671
sg55
(lp686
g48
(g49
g50
NtRp687
(dp688
g53
(dp689
g61
I3
ssg62
g683
sg55
(lp690
S''
asbasbasbag48
(g64
g50
NtRp691
(dp692
g53
(dp693
sg62
g587
sg55
(lp694
g48
(g69
g50
NtRp695
(dp696
g53
(dp697
g73
g74
ssg62
g691
sg55
(lp698
g367
asbag48
(g69
g50
NtRp699
(dp700
g53
(dp701
g80
g81
ssg62
g691
sg55
(lp702
S':'
asbag48
(g69
g50
NtRp703
(dp704
g53
(dp705
sg62
g691
sg55
(lp706
g48
(g49
g50
NtRp707
(dp708
g53
(dp709
g61
I3
ssg62
g703
sg55
(lp710
S''
asbasbasbag48
(g64
g50
NtRp711
(dp712
g53
(dp713
sg62
g587
sg55
(lp714
g48
(g69
g50
NtRp715
(dp716
g53
(dp717
g73
g74
ssg62
g711
sg55
(lp718
g388
asbag48
(g69
g50
NtRp719
(dp720
g53
(dp721
g80
g81
ssg62
g711
sg55
(lp722
S':'
asbag48
(g69
g50
NtRp723
(dp724
g53
(dp725
sg62
g711
sg55
(lp726
g48
(g49
g50
NtRp727
(dp728
g53
(dp729
g61
I3
ssg62
g723
sg55
(lp730
S''
asbasbasbasbasbasbasbasbasbasbasbag48
(g64
g50
NtRp731
(dp732
g53
(dp733
sg62
g58
sg55
(lp734
g48
(g69
g50
NtRp735
(dp736
g53
(dp737
g73
g74
ssg62
g731
sg55
(lp738
S'env'
p739
asbag48
(g69
g50
NtRp740
(dp741
g53
(dp742
g80
g81
ssg62
g731
sg55
(lp743
S':'
asbag48
(g69
g50
NtRp744
(dp745
g53
(dp746
sg62
g731
sg55
(lp747
g48
(g49
g50
NtRp748
(dp749
g53
(dp750
g61
I5
ssg62
g744
sg55
(lp751
g48
(g57
g50
NtRp752
(dp753
g53
(dp754
g61
I4
ssg62
Nsg55
(lp755
g48
(g64
g50
NtRp756
(dp757
g53
(dp758
sg62
g752
sg55
(lp759
g48
(g69
g50
NtRp760
(dp761
g53
(dp762
g73
g74
ssg62
g756
sg55
(lp763
S'app_folders'
p764
asbag48
(g69
g50
NtRp765
(dp766
g53
(dp767
g80
g81
ssg62
g756
sg55
(lp768
S':'
asbag48
(g69
g50
NtRp769
(dp770
g53
(dp771
sg62
g756
sg55
(lp772
g48
(g49
g50
NtRp773
(dp774
g53
(dp775
g61
I4
ssg62
g769
sg55
(lp776
S"set(['C:\\\\Python32\\\\web2py_win\\\\web2py\\\\applications\\\\admin\\\\', 'C:\\\\Python32\\\\web2py_win\\\\web2py\\\\applications\\\\welcome\\\\', 'C:\\\\Python32\\\\web2py_win\\\\web2py\\\\applications\\\\Casa_de_Apuestas\\\\'])"
p777
asbasbasbag48
(g64
g50
NtRp778
(dp779
g53
(dp780
sg62
g752
sg55
(lp781
g48
(g69
g50
NtRp782
(dp783
g53
(dp784
g73
g74
ssg62
g778
sg55
(lp785
S'applications_parent'
p786
asbag48
(g69
g50
NtRp787
(dp788
g53
(dp789
g80
g81
ssg62
g778
sg55
(lp790
S':'
asbag48
(g69
g50
NtRp791
(dp792
g53
(dp793
sg62
g778
sg55
(lp794
g48
(g49
g50
NtRp795
(dp796
g53
(dp797
g61
I4
ssg62
g791
sg55
(lp798
S'C:\\Python32\\web2py_win\\web2py'
p799
asbasbasbag48
(g64
g50
NtRp800
(dp801
g53
(dp802
sg62
g752
sg55
(lp803
g48
(g69
g50
NtRp804
(dp805
g53
(dp806
g73
g74
ssg62
g800
sg55
(lp807
S'cmd_args'
p808
asbag48
(g69
g50
NtRp809
(dp810
g53
(dp811
g80
g81
ssg62
g800
sg55
(lp812
S':'
asbag48
(g69
g50
NtRp813
(dp814
g53
(dp815
sg62
g800
sg55
(lp816
g48
(g49
g50
NtRp817
(dp818
g53
(dp819
g61
I4
ssg62
g813
sg55
(lp820
g48
(g57
g50
NtRp821
(dp822
g53
(dp823
g61
I3
ssg62
Nsg55
(lp824
sbasbasbasbag48
(g64
g50
NtRp825
(dp826
g53
(dp827
sg62
g752
sg55
(lp828
g48
(g69
g50
NtRp829
(dp830
g53
(dp831
g73
g74
ssg62
g825
sg55
(lp832
S'cmd_options'
p833
asbag48
(g69
g50
NtRp834
(dp835
g53
(dp836
g80
g81
ssg62
g825
sg55
(lp837
S':'
asbag48
(g69
g50
NtRp838
(dp839
g53
(dp840
sg62
g825
sg55
(lp841
g48
(g49
g50
NtRp842
(dp843
g53
(dp844
g61
I4
ssg62
g838
sg55
(lp845
S"<Values at 0x2675fa8: {'verbose': False, 'ip': '127.0.0.1', 'shutdown_timeout': 5, 'taskbar': False, 'nocron': False, 'pid_filename': 'httpserver.pid', 'maxthreads': None, 'softcron': False, 'server_name': 'hector-vaio', 'bpython': False, 'nogui': False, 'port': 8000, 'extcron': False, 'debuglevel': 30, 'test': None, 'folder': 'C:\\\\Python32\\\\web2py_win\\\\web2py', 'config': '', 'import_models': False, 'winservice': '', 'shell': None, 'run': '', 'log_filename': 'httpserver.log', 'args': [''], 'ssl_ca_certificate': None, 'scheduler': None, 'profiler_filename': None, 'ssl_private_key': '', 'password': '<ask>', 'request_queue_size': 5, 'ssl_certificate': '', 'cronjob': False, 'plain': False, 'quiet': False, 'interfaces': None, 'minthreads': None, 'timeout': 10, 'numthreads': None, 'nobanner': False}>"
p846
asbasbasbag48
(g64
g50
NtRp847
(dp848
g53
(dp849
sg62
g752
sg55
(lp850
g48
(g69
g50
NtRp851
(dp852
g53
(dp853
g73
g74
ssg62
g847
sg55
(lp854
S'content_length'
p855
asbag48
(g69
g50
NtRp856
(dp857
g53
(dp858
g80
g81
ssg62
g847
sg55
(lp859
S':'
asbag48
(g69
g50
NtRp860
(dp861
g53
(dp862
sg62
g847
sg55
(lp863
g48
(g49
g50
NtRp864
(dp865
g53
(dp866
g61
I4
ssg62
g860
sg55
(lp867
S'804'
p868
asbasbasbag48
(g64
g50
NtRp869
(dp870
g53
(dp871
sg62
g752
sg55
(lp872
g48
(g69
g50
NtRp873
(dp874
g53
(dp875
g73
g74
ssg62
g869
sg55
(lp876
S'content_type'
p877
asbag48
(g69
g50
NtRp878
(dp879
g53
(dp880
g80
g81
ssg62
g869
sg55
(lp881
S':'
asbag48
(g69
g50
NtRp882
(dp883
g53
(dp884
sg62
g869
sg55
(lp885
g48
(g49
g50
NtRp886
(dp887
g53
(dp888
g61
I4
ssg62
g882
sg55
(lp889
S'multipart/form-data; boundary=----WebKitFormBoundaryzWkRI4JSzYA33fXp'
p890
asbasbasbag48
(g64
g50
NtRp891
(dp892
g53
(dp893
sg62
g752
sg55
(lp894
g48
(g69
g50
NtRp895
(dp896
g53
(dp897
g73
g74
ssg62
g891
sg55
(lp898
S'db_sessions'
p899
asbag48
(g69
g50
NtRp900
(dp901
g53
(dp902
g80
g81
ssg62
g891
sg55
(lp903
S':'
asbag48
(g69
g50
NtRp904
(dp905
g53
(dp906
sg62
g891
sg55
(lp907
g48
(g49
g50
NtRp908
(dp909
g53
(dp910
g61
I4
ssg62
g904
sg55
(lp911
S'set([])'
p912
asbasbasbag48
(g64
g50
NtRp913
(dp914
g53
(dp915
sg62
g752
sg55
(lp916
g48
(g69
g50
NtRp917
(dp918
g53
(dp919
g73
g74
ssg62
g913
sg55
(lp920
S'debugging'
p921
asbag48
(g69
g50
NtRp922
(dp923
g53
(dp924
g80
g81
ssg62
g913
sg55
(lp925
S':'
asbag48
(g69
g50
NtRp926
(dp927
g53
(dp928
sg62
g913
sg55
(lp929
g48
(g49
g50
NtRp930
(dp931
g53
(dp932
g61
I4
ssg62
g926
sg55
(lp933
g91
asbasbasbag48
(g64
g50
NtRp934
(dp935
g53
(dp936
sg62
g752
sg55
(lp937
g48
(g69
g50
NtRp938
(dp939
g53
(dp940
g73
g74
ssg62
g934
sg55
(lp941
S'gluon_parent'
p942
asbag48
(g69
g50
NtRp943
(dp944
g53
(dp945
g80
g81
ssg62
g934
sg55
(lp946
S':'
asbag48
(g69
g50
NtRp947
(dp948
g53
(dp949
sg62
g934
sg55
(lp950
g48
(g49
g50
NtRp951
(dp952
g53
(dp953
g61
I4
ssg62
g947
sg55
(lp954
S'C:\\Python32\\web2py_win\\web2py'
p955
asbasbasbag48
(g64
g50
NtRp956
(dp957
g53
(dp958
sg62
g752
sg55
(lp959
g48
(g69
g50
NtRp960
(dp961
g53
(dp962
g73
g74
ssg62
g956
sg55
(lp963
S'http_accept'
p964
asbag48
(g69
g50
NtRp965
(dp966
g53
(dp967
g80
g81
ssg62
g956
sg55
(lp968
S':'
asbag48
(g69
g50
NtRp969
(dp970
g53
(dp971
sg62
g956
sg55
(lp972
g48
(g49
g50
NtRp973
(dp974
g53
(dp975
g61
I4
ssg62
g969
sg55
(lp976
S'text/html,application/xhtml+xml,application/xml;q=0.9,*/*;q=0.8'
p977
asbasbasbag48
(g64
g50
NtRp978
(dp979
g53
(dp980
sg62
g752
sg55
(lp981
g48
(g69
g50
NtRp982
(dp983
g53
(dp984
g73
g74
ssg62
g978
sg55
(lp985
S'http_accept_charset'
p986
asbag48
(g69
g50
NtRp987
(dp988
g53
(dp989
g80
g81
ssg62
g978
sg55
(lp990
S':'
asbag48
(g69
g50
NtRp991
(dp992
g53
(dp993
sg62
g978
sg55
(lp994
g48
(g49
g50
NtRp995
(dp996
g53
(dp997
g61
I4
ssg62
g991
sg55
(lp998
S'ISO-8859-1,utf-8;q=0.7,*;q=0.3'
p999
asbasbasbag48
(g64
g50
NtRp1000
(dp1001
g53
(dp1002
sg62
g752
sg55
(lp1003
g48
(g69
g50
NtRp1004
(dp1005
g53
(dp1006
g73
g74
ssg62
g1000
sg55
(lp1007
S'http_accept_encoding'
p1008
asbag48
(g69
g50
NtRp1009
(dp1010
g53
(dp1011
g80
g81
ssg62
g1000
sg55
(lp1012
S':'
asbag48
(g69
g50
NtRp1013
(dp1014
g53
(dp1015
sg62
g1000
sg55
(lp1016
g48
(g49
g50
NtRp1017
(dp1018
g53
(dp1019
g61
I4
ssg62
g1013
sg55
(lp1020
S'gzip,deflate,sdch'
p1021
asbasbasbag48
(g64
g50
NtRp1022
(dp1023
g53
(dp1024
sg62
g752
sg55
(lp1025
g48
(g69
g50
NtRp1026
(dp1027
g53
(dp1028
g73
g74
ssg62
g1022
sg55
(lp1029
S'http_accept_language'
p1030
asbag48
(g69
g50
NtRp1031
(dp1032
g53
(dp1033
g80
g81
ssg62
g1022
sg55
(lp1034
S':'
asbag48
(g69
g50
NtRp1035
(dp1036
g53
(dp1037
sg62
g1022
sg55
(lp1038
g48
(g49
g50
NtRp1039
(dp1040
g53
(dp1041
g61
I4
ssg62
g1035
sg55
(lp1042
S'en-US,en;q=0.8'
p1043
asbasbasbag48
(g64
g50
NtRp1044
(dp1045
g53
(dp1046
sg62
g752
sg55
(lp1047
g48
(g69
g50
NtRp1048
(dp1049
g53
(dp1050
g73
g74
ssg62
g1044
sg55
(lp1051
S'http_cache_control'
p1052
asbag48
(g69
g50
NtRp1053
(dp1054
g53
(dp1055
g80
g81
ssg62
g1044
sg55
(lp1056
S':'
asbag48
(g69
g50
NtRp1057
(dp1058
g53
(dp1059
sg62
g1044
sg55
(lp1060
g48
(g49
g50
NtRp1061
(dp1062
g53
(dp1063
g61
I4
ssg62
g1057
sg55
(lp1064
S'max-age=0'
p1065
asbasbasbag48
(g64
g50
NtRp1066
(dp1067
g53
(dp1068
sg62
g752
sg55
(lp1069
g48
(g69
g50
NtRp1070
(dp1071
g53
(dp1072
g73
g74
ssg62
g1066
sg55
(lp1073
S'http_connection'
p1074
asbag48
(g69
g50
NtRp1075
(dp1076
g53
(dp1077
g80
g81
ssg62
g1066
sg55
(lp1078
S':'
asbag48
(g69
g50
NtRp1079
(dp1080
g53
(dp1081
sg62
g1066
sg55
(lp1082
g48
(g49
g50
NtRp1083
(dp1084
g53
(dp1085
g61
I4
ssg62
g1079
sg55
(lp1086
S'keep-alive'
p1087
asbasbasbag48
(g64
g50
NtRp1088
(dp1089
g53
(dp1090
sg62
g752
sg55
(lp1091
g48
(g69
g50
NtRp1092
(dp1093
g53
(dp1094
g73
g74
ssg62
g1088
sg55
(lp1095
S'http_content_length'
p1096
asbag48
(g69
g50
NtRp1097
(dp1098
g53
(dp1099
g80
g81
ssg62
g1088
sg55
(lp1100
S':'
asbag48
(g69
g50
NtRp1101
(dp1102
g53
(dp1103
sg62
g1088
sg55
(lp1104
g48
(g49
g50
NtRp1105
(dp1106
g53
(dp1107
g61
I4
ssg62
g1101
sg55
(lp1108
g868
asbasbasbag48
(g64
g50
NtRp1109
(dp1110
g53
(dp1111
sg62
g752
sg55
(lp1112
g48
(g69
g50
NtRp1113
(dp1114
g53
(dp1115
g73
g74
ssg62
g1109
sg55
(lp1116
S'http_content_type'
p1117
asbag48
(g69
g50
NtRp1118
(dp1119
g53
(dp1120
g80
g81
ssg62
g1109
sg55
(lp1121
S':'
asbag48
(g69
g50
NtRp1122
(dp1123
g53
(dp1124
sg62
g1109
sg55
(lp1125
g48
(g49
g50
NtRp1126
(dp1127
g53
(dp1128
g61
I4
ssg62
g1122
sg55
(lp1129
g890
asbasbasbag48
(g64
g50
NtRp1130
(dp1131
g53
(dp1132
sg62
g752
sg55
(lp1133
g48
(g69
g50
NtRp1134
(dp1135
g53
(dp1136
g73
g74
ssg62
g1130
sg55
(lp1137
S'http_cookie'
p1138
asbag48
(g69
g50
NtRp1139
(dp1140
g53
(dp1141
g80
g81
ssg62
g1130
sg55
(lp1142
S':'
asbag48
(g69
g50
NtRp1143
(dp1144
g53
(dp1145
sg62
g1130
sg55
(lp1146
g48
(g49
g50
NtRp1147
(dp1148
g53
(dp1149
g61
I4
ssg62
g1143
sg55
(lp1150
S'session_id_welcome=127.0.0.1-4f1b2e87-ebc5-4d43-807c-65a0bc27f39e; session_id_admin=127.0.0.1-d1f5eda9-77c4-4060-88b6-a988920a215d; session_id_casa_de_apuestas=127.0.0.1-6f6a3265-23f6-4fca-8f6e-58838d5a1960'
p1151
asbasbasbag48
(g64
g50
NtRp1152
(dp1153
g53
(dp1154
sg62
g752
sg55
(lp1155
g48
(g69
g50
NtRp1156
(dp1157
g53
(dp1158
g73
g74
ssg62
g1152
sg55
(lp1159
S'http_host'
p1160
asbag48
(g69
g50
NtRp1161
(dp1162
g53
(dp1163
g80
g81
ssg62
g1152
sg55
(lp1164
S':'
asbag48
(g69
g50
NtRp1165
(dp1166
g53
(dp1167
sg62
g1152
sg55
(lp1168
g48
(g49
g50
NtRp1169
(dp1170
g53
(dp1171
g61
I4
ssg62
g1165
sg55
(lp1172
S'127.0.0.1:8000'
p1173
asbasbasbag48
(g64
g50
NtRp1174
(dp1175
g53
(dp1176
sg62
g752
sg55
(lp1177
g48
(g69
g50
NtRp1178
(dp1179
g53
(dp1180
g73
g74
ssg62
g1174
sg55
(lp1181
S'http_origin'
p1182
asbag48
(g69
g50
NtRp1183
(dp1184
g53
(dp1185
g80
g81
ssg62
g1174
sg55
(lp1186
S':'
asbag48
(g69
g50
NtRp1187
(dp1188
g53
(dp1189
sg62
g1174
sg55
(lp1190
g48
(g49
g50
NtRp1191
(dp1192
g53
(dp1193
g61
I4
ssg62
g1187
sg55
(lp1194
S'http://127.0.0.1:8000'
p1195
asbasbasbag48
(g64
g50
NtRp1196
(dp1197
g53
(dp1198
sg62
g752
sg55
(lp1199
g48
(g69
g50
NtRp1200
(dp1201
g53
(dp1202
g73
g74
ssg62
g1196
sg55
(lp1203
S'http_referer'
p1204
asbag48
(g69
g50
NtRp1205
(dp1206
g53
(dp1207
g80
g81
ssg62
g1196
sg55
(lp1208
S':'
asbag48
(g69
g50
NtRp1209
(dp1210
g53
(dp1211
sg62
g1196
sg55
(lp1212
g48
(g49
g50
NtRp1213
(dp1214
g53
(dp1215
g61
I4
ssg62
g1209
sg55
(lp1216
S'http://127.0.0.1:8000/Casa_de_Apuestas/default/crearEventoParticipante'
p1217
asbasbasbag48
(g64
g50
NtRp1218
(dp1219
g53
(dp1220
sg62
g752
sg55
(lp1221
g48
(g69
g50
NtRp1222
(dp1223
g53
(dp1224
g73
g74
ssg62
g1218
sg55
(lp1225
S'http_user_agent'
p1226
asbag48
(g69
g50
NtRp1227
(dp1228
g53
(dp1229
g80
g81
ssg62
g1218
sg55
(lp1230
S':'
asbag48
(g69
g50
NtRp1231
(dp1232
g53
(dp1233
sg62
g1218
sg55
(lp1234
g48
(g49
g50
NtRp1235
(dp1236
g53
(dp1237
g61
I4
ssg62
g1231
sg55
(lp1238
S'Mozilla/5.0 (Windows NT 6.1) AppleWebKit/535.2 (KHTML, like Gecko) Chrome/15.0.874.121 Safari/535.2'
p1239
asbasbasbag48
(g64
g50
NtRp1240
(dp1241
g53
(dp1242
sg62
g752
sg55
(lp1243
g48
(g69
g50
NtRp1244
(dp1245
g53
(dp1246
g73
g74
ssg62
g1240
sg55
(lp1247
S'is_jython'
p1248
asbag48
(g69
g50
NtRp1249
(dp1250
g53
(dp1251
g80
g81
ssg62
g1240
sg55
(lp1252
S':'
asbag48
(g69
g50
NtRp1253
(dp1254
g53
(dp1255
sg62
g1240
sg55
(lp1256
g48
(g49
g50
NtRp1257
(dp1258
g53
(dp1259
g61
I4
ssg62
g1253
sg55
(lp1260
g91
asbasbasbag48
(g64
g50
NtRp1261
(dp1262
g53
(dp1263
sg62
g752
sg55
(lp1264
g48
(g69
g50
NtRp1265
(dp1266
g53
(dp1267
g73
g74
ssg62
g1261
sg55
(lp1268
S'path_info'
p1269
asbag48
(g69
g50
NtRp1270
(dp1271
g53
(dp1272
g80
g81
ssg62
g1261
sg55
(lp1273
S':'
asbag48
(g69
g50
NtRp1274
(dp1275
g53
(dp1276
sg62
g1261
sg55
(lp1277
g48
(g49
g50
NtRp1278
(dp1279
g53
(dp1280
g61
I4
ssg62
g1274
sg55
(lp1281
S'/Casa_de_Apuestas/default/crearEventoParticipante'
p1282
asbasbasbag48
(g64
g50
NtRp1283
(dp1284
g53
(dp1285
sg62
g752
sg55
(lp1286
g48
(g69
g50
NtRp1287
(dp1288
g53
(dp1289
g73
g74
ssg62
g1283
sg55
(lp1290
S'query_string'
p1291
asbag48
(g69
g50
NtRp1292
(dp1293
g53
(dp1294
g80
g81
ssg62
g1283
sg55
(lp1295
S':'
asbag48
(g69
g50
NtRp1296
(dp1297
g53
(dp1298
sg62
g1283
sg55
(lp1299
g48
(g49
g50
NtRp1300
(dp1301
g53
(dp1302
g61
I4
ssg62
g1296
sg55
(lp1303
S''
asbasbasbag48
(g64
g50
NtRp1304
(dp1305
g53
(dp1306
sg62
g752
sg55
(lp1307
g48
(g69
g50
NtRp1308
(dp1309
g53
(dp1310
g73
g74
ssg62
g1304
sg55
(lp1311
S'remote_addr'
p1312
asbag48
(g69
g50
NtRp1313
(dp1314
g53
(dp1315
g80
g81
ssg62
g1304
sg55
(lp1316
S':'
asbag48
(g69
g50
NtRp1317
(dp1318
g53
(dp1319
sg62
g1304
sg55
(lp1320
g48
(g49
g50
NtRp1321
(dp1322
g53
(dp1323
g61
I4
ssg62
g1317
sg55
(lp1324
g181
asbasbasbag48
(g64
g50
NtRp1325
(dp1326
g53
(dp1327
sg62
g752
sg55
(lp1328
g48
(g69
g50
NtRp1329
(dp1330
g53
(dp1331
g73
g74
ssg62
g1325
sg55
(lp1332
S'remote_port'
p1333
asbag48
(g69
g50
NtRp1334
(dp1335
g53
(dp1336
g80
g81
ssg62
g1325
sg55
(lp1337
S':'
asbag48
(g69
g50
NtRp1338
(dp1339
g53
(dp1340
sg62
g1325
sg55
(lp1341
g48
(g49
g50
NtRp1342
(dp1343
g53
(dp1344
g61
I4
ssg62
g1338
sg55
(lp1345
S'64028'
p1346
asbasbasbag48
(g64
g50
NtRp1347
(dp1348
g53
(dp1349
sg62
g752
sg55
(lp1350
g48
(g69
g50
NtRp1351
(dp1352
g53
(dp1353
g73
g74
ssg62
g1347
sg55
(lp1354
S'request_method'
p1355
asbag48
(g69
g50
NtRp1356
(dp1357
g53
(dp1358
g80
g81
ssg62
g1347
sg55
(lp1359
S':'
asbag48
(g69
g50
NtRp1360
(dp1361
g53
(dp1362
sg62
g1347
sg55
(lp1363
g48
(g49
g50
NtRp1364
(dp1365
g53
(dp1366
g61
I4
ssg62
g1360
sg55
(lp1367
S'POST'
p1368
asbasbasbag48
(g64
g50
NtRp1369
(dp1370
g53
(dp1371
sg62
g752
sg55
(lp1372
g48
(g69
g50
NtRp1373
(dp1374
g53
(dp1375
g73
g74
ssg62
g1369
sg55
(lp1376
S'script_name'
p1377
asbag48
(g69
g50
NtRp1378
(dp1379
g53
(dp1380
g80
g81
ssg62
g1369
sg55
(lp1381
S':'
asbag48
(g69
g50
NtRp1382
(dp1383
g53
(dp1384
sg62
g1369
sg55
(lp1385
g48
(g49
g50
NtRp1386
(dp1387
g53
(dp1388
g61
I4
ssg62
g1382
sg55
(lp1389
S''
asbasbasbag48
(g64
g50
NtRp1390
(dp1391
g53
(dp1392
sg62
g752
sg55
(lp1393
g48
(g69
g50
NtRp1394
(dp1395
g53
(dp1396
g73
g74
ssg62
g1390
sg55
(lp1397
S'server_name'
p1398
asbag48
(g69
g50
NtRp1399
(dp1400
g53
(dp1401
g80
g81
ssg62
g1390
sg55
(lp1402
S':'
asbag48
(g69
g50
NtRp1403
(dp1404
g53
(dp1405
sg62
g1390
sg55
(lp1406
g48
(g49
g50
NtRp1407
(dp1408
g53
(dp1409
g61
I4
ssg62
g1403
sg55
(lp1410
S'hector-vaio'
p1411
asbasbasbag48
(g64
g50
NtRp1412
(dp1413
g53
(dp1414
sg62
g752
sg55
(lp1415
g48
(g69
g50
NtRp1416
(dp1417
g53
(dp1418
g73
g74
ssg62
g1412
sg55
(lp1419
S'server_port'
p1420
asbag48
(g69
g50
NtRp1421
(dp1422
g53
(dp1423
g80
g81
ssg62
g1412
sg55
(lp1424
S':'
asbag48
(g69
g50
NtRp1425
(dp1426
g53
(dp1427
sg62
g1412
sg55
(lp1428
g48
(g49
g50
NtRp1429
(dp1430
g53
(dp1431
g61
I4
ssg62
g1425
sg55
(lp1432
S'8000'
p1433
asbasbasbag48
(g64
g50
NtRp1434
(dp1435
g53
(dp1436
sg62
g752
sg55
(lp1437
g48
(g69
g50
NtRp1438
(dp1439
g53
(dp1440
g73
g74
ssg62
g1434
sg55
(lp1441
S'server_protocol'
p1442
asbag48
(g69
g50
NtRp1443
(dp1444
g53
(dp1445
g80
g81
ssg62
g1434
sg55
(lp1446
S':'
asbag48
(g69
g50
NtRp1447
(dp1448
g53
(dp1449
sg62
g1434
sg55
(lp1450
g48
(g49
g50
NtRp1451
(dp1452
g53
(dp1453
g61
I4
ssg62
g1447
sg55
(lp1454
S'HTTP/1.1'
p1455
asbasbasbag48
(g64
g50
NtRp1456
(dp1457
g53
(dp1458
sg62
g752
sg55
(lp1459
g48
(g69
g50
NtRp1460
(dp1461
g53
(dp1462
g73
g74
ssg62
g1456
sg55
(lp1463
S'server_software'
p1464
asbag48
(g69
g50
NtRp1465
(dp1466
g53
(dp1467
g80
g81
ssg62
g1456
sg55
(lp1468
S':'
asbag48
(g69
g50
NtRp1469
(dp1470
g53
(dp1471
sg62
g1456
sg55
(lp1472
g48
(g49
g50
NtRp1473
(dp1474
g53
(dp1475
g61
I4
ssg62
g1469
sg55
(lp1476
S'Rocket 1.2.4'
p1477
asbasbasbag48
(g64
g50
NtRp1478
(dp1479
g53
(dp1480
sg62
g752
sg55
(lp1481
g48
(g69
g50
NtRp1482
(dp1483
g53
(dp1484
g73
g74
ssg62
g1478
sg55
(lp1485
S'web2py_crontype'
p1486
asbag48
(g69
g50
NtRp1487
(dp1488
g53
(dp1489
g80
g81
ssg62
g1478
sg55
(lp1490
S':'
asbag48
(g69
g50
NtRp1491
(dp1492
g53
(dp1493
sg62
g1478
sg55
(lp1494
g48
(g49
g50
NtRp1495
(dp1496
g53
(dp1497
g61
I4
ssg62
g1491
sg55
(lp1498
S'hard'
p1499
asbasbasbag48
(g64
g50
NtRp1500
(dp1501
g53
(dp1502
sg62
g752
sg55
(lp1503
g48
(g69
g50
NtRp1504
(dp1505
g53
(dp1506
g73
g74
ssg62
g1500
sg55
(lp1507
S'web2py_path'
p1508
asbag48
(g69
g50
NtRp1509
(dp1510
g53
(dp1511
g80
g81
ssg62
g1500
sg55
(lp1512
S':'
asbag48
(g69
g50
NtRp1513
(dp1514
g53
(dp1515
sg62
g1500
sg55
(lp1516
g48
(g49
g50
NtRp1517
(dp1518
g53
(dp1519
g61
I4
ssg62
g1513
sg55
(lp1520
g799
asbasbasbag48
(g64
g50
NtRp1521
(dp1522
g53
(dp1523
sg62
g752
sg55
(lp1524
g48
(g69
g50
NtRp1525
(dp1526
g53
(dp1527
g73
g74
ssg62
g1521
sg55
(lp1528
S'web2py_version'
p1529
asbag48
(g69
g50
NtRp1530
(dp1531
g53
(dp1532
g80
g81
ssg62
g1521
sg55
(lp1533
S':'
asbag48
(g69
g50
NtRp1534
(dp1535
g53
(dp1536
sg62
g1521
sg55
(lp1537
g48
(g49
g50
NtRp1538
(dp1539
g53
(dp1540
g61
I4
ssg62
g1534
sg55
(lp1541
g48
(g57
g50
NtRp1542
(dp1543
g53
(dp1544
g61
I3
ssg62
Nsg55
(lp1545
g48
(g64
g50
NtRp1546
(dp1547
g53
(dp1548
sg62
g1542
sg55
(lp1549
g48
(g69
g50
NtRp1550
(dp1551
g53
(dp1552
sg62
g1546
sg55
(lp1553
g48
(g49
g50
NtRp1554
(dp1555
g53
(dp1556
g61
I3
ssg62
g1550
sg55
(lp1557
S'1'
asbasbasbag48
(g64
g50
NtRp1558
(dp1559
g53
(dp1560
sg62
g1542
sg55
(lp1561
g48
(g69
g50
NtRp1562
(dp1563
g53
(dp1564
sg62
g1558
sg55
(lp1565
g48
(g49
g50
NtRp1566
(dp1567
g53
(dp1568
g61
I3
ssg62
g1562
sg55
(lp1569
S'99'
p1570
asbasbasbag48
(g64
g50
NtRp1571
(dp1572
g53
(dp1573
sg62
g1542
sg55
(lp1574
g48
(g69
g50
NtRp1575
(dp1576
g53
(dp1577
sg62
g1571
sg55
(lp1578
g48
(g49
g50
NtRp1579
(dp1580
g53
(dp1581
g61
I3
ssg62
g1575
sg55
(lp1582
S'2'
asbasbasbag48
(g64
g50
NtRp1583
(dp1584
g53
(dp1585
sg62
g1542
sg55
(lp1586
g48
(g69
g50
NtRp1587
(dp1588
g53
(dp1589
sg62
g1583
sg55
(lp1590
g48
(g49
g50
NtRp1591
(dp1592
g53
(dp1593
g61
I3
ssg62
g1587
sg55
(lp1594
S'datetime.datetime(2011, 9, 26, 6, 55, 33)'
p1595
asbasbasbag48
(g64
g50
NtRp1596
(dp1597
g53
(dp1598
sg62
g1542
sg55
(lp1599
g48
(g69
g50
NtRp1600
(dp1601
g53
(dp1602
sg62
g1596
sg55
(lp1603
g48
(g49
g50
NtRp1604
(dp1605
g53
(dp1606
g61
I3
ssg62
g1600
sg55
(lp1607
S'stable'
p1608
asbasbasbasbasbasbasbag48
(g64
g50
NtRp1609
(dp1610
g53
(dp1611
sg62
g752
sg55
(lp1612
g48
(g69
g50
NtRp1613
(dp1614
g53
(dp1615
g73
g74
ssg62
g1609
sg55
(lp1616
S'wsgi_errors'
p1617
asbag48
(g69
g50
NtRp1618
(dp1619
g53
(dp1620
g80
g81
ssg62
g1609
sg55
(lp1621
S':'
asbag48
(g69
g50
NtRp1622
(dp1623
g53
(dp1624
sg62
g1609
sg55
(lp1625
g48
(g49
g50
NtRp1626
(dp1627
g53
(dp1628
g61
I4
ssg62
g1622
sg55
(lp1629
S"<open file '<stderr>', mode 'w' at 0x015800B0>"
p1630
asbasbasbag48
(g64
g50
NtRp1631
(dp1632
g53
(dp1633
sg62
g752
sg55
(lp1634
g48
(g69
g50
NtRp1635
(dp1636
g53
(dp1637
g73
g74
ssg62
g1631
sg55
(lp1638
S'wsgi_file_wrapper'
p1639
asbag48
(g69
g50
NtRp1640
(dp1641
g53
(dp1642
g80
g81
ssg62
g1631
sg55
(lp1643
S':'
asbag48
(g69
g50
NtRp1644
(dp1645
g53
(dp1646
sg62
g1631
sg55
(lp1647
g48
(g49
g50
NtRp1648
(dp1649
g53
(dp1650
g61
I4
ssg62
g1644
sg55
(lp1651
S'<class wsgiref.util.FileWrapper at 0x02419AB0>'
p1652
asbasbasbag48
(g64
g50
NtRp1653
(dp1654
g53
(dp1655
sg62
g752
sg55
(lp1656
g48
(g69
g50
NtRp1657
(dp1658
g53
(dp1659
g73
g74
ssg62
g1653
sg55
(lp1660
S'wsgi_input'
p1661
asbag48
(g69
g50
NtRp1662
(dp1663
g53
(dp1664
g80
g81
ssg62
g1653
sg55
(lp1665
S':'
asbag48
(g69
g50
NtRp1666
(dp1667
g53
(dp1668
sg62
g1653
sg55
(lp1669
g48
(g49
g50
NtRp1670
(dp1671
g53
(dp1672
g61
I4
ssg62
g1666
sg55
(lp1673
S'<socket._fileobject object at 0x069432B0>'
p1674
asbasbasbag48
(g64
g50
NtRp1675
(dp1676
g53
(dp1677
sg62
g752
sg55
(lp1678
g48
(g69
g50
NtRp1679
(dp1680
g53
(dp1681
g73
g74
ssg62
g1675
sg55
(lp1682
S'wsgi_multiprocess'
p1683
asbag48
(g69
g50
NtRp1684
(dp1685
g53
(dp1686
g80
g81
ssg62
g1675
sg55
(lp1687
S':'
asbag48
(g69
g50
NtRp1688
(dp1689
g53
(dp1690
sg62
g1675
sg55
(lp1691
g48
(g49
g50
NtRp1692
(dp1693
g53
(dp1694
g61
I4
ssg62
g1688
sg55
(lp1695
g91
asbasbasbag48
(g64
g50
NtRp1696
(dp1697
g53
(dp1698
sg62
g752
sg55
(lp1699
g48
(g69
g50
NtRp1700
(dp1701
g53
(dp1702
g73
g74
ssg62
g1696
sg55
(lp1703
S'wsgi_multithread'
p1704
asbag48
(g69
g50
NtRp1705
(dp1706
g53
(dp1707
g80
g81
ssg62
g1696
sg55
(lp1708
S':'
asbag48
(g69
g50
NtRp1709
(dp1710
g53
(dp1711
sg62
g1696
sg55
(lp1712
g48
(g49
g50
NtRp1713
(dp1714
g53
(dp1715
g61
I4
ssg62
g1709
sg55
(lp1716
S'True'
p1717
asbasbasbag48
(g64
g50
NtRp1718
(dp1719
g53
(dp1720
sg62
g752
sg55
(lp1721
g48
(g69
g50
NtRp1722
(dp1723
g53
(dp1724
g73
g74
ssg62
g1718
sg55
(lp1725
S'wsgi_run_once'
p1726
asbag48
(g69
g50
NtRp1727
(dp1728
g53
(dp1729
g80
g81
ssg62
g1718
sg55
(lp1730
S':'
asbag48
(g69
g50
NtRp1731
(dp1732
g53
(dp1733
sg62
g1718
sg55
(lp1734
g48
(g49
g50
NtRp1735
(dp1736
g53
(dp1737
g61
I4
ssg62
g1731
sg55
(lp1738
g91
asbasbasbag48
(g64
g50
NtRp1739
(dp1740
g53
(dp1741
sg62
g752
sg55
(lp1742
g48
(g69
g50
NtRp1743
(dp1744
g53
(dp1745
g73
g74
ssg62
g1739
sg55
(lp1746
S'wsgi_url_scheme'
p1747
asbag48
(g69
g50
NtRp1748
(dp1749
g53
(dp1750
g80
g81
ssg62
g1739
sg55
(lp1751
S':'
asbag48
(g69
g50
NtRp1752
(dp1753
g53
(dp1754
sg62
g1739
sg55
(lp1755
g48
(g49
g50
NtRp1756
(dp1757
g53
(dp1758
g61
I4
ssg62
g1752
sg55
(lp1759
S'http'
p1760
asbasbasbag48
(g64
g50
NtRp1761
(dp1762
g53
(dp1763
sg62
g752
sg55
(lp1764
g48
(g69
g50
NtRp1765
(dp1766
g53
(dp1767
g73
g74
ssg62
g1761
sg55
(lp1768
S'wsgi_version'
p1769
asbag48
(g69
g50
NtRp1770
(dp1771
g53
(dp1772
g80
g81
ssg62
g1761
sg55
(lp1773
S':'
asbag48
(g69
g50
NtRp1774
(dp1775
g53
(dp1776
sg62
g1761
sg55
(lp1777
g48
(g49
g50
NtRp1778
(dp1779
g53
(dp1780
g61
I4
ssg62
g1774
sg55
(lp1781
g48
(g57
g50
NtRp1782
(dp1783
g53
(dp1784
g61
I3
ssg62
Nsg55
(lp1785
g48
(g64
g50
NtRp1786
(dp1787
g53
(dp1788
sg62
g1782
sg55
(lp1789
g48
(g69
g50
NtRp1790
(dp1791
g53
(dp1792
sg62
g1786
sg55
(lp1793
g48
(g49
g50
NtRp1794
(dp1795
g53
(dp1796
g61
I3
ssg62
g1790
sg55
(lp1797
S'1'
asbasbasbag48
(g64
g50
NtRp1798
(dp1799
g53
(dp1800
sg62
g1782
sg55
(lp1801
g48
(g69
g50
NtRp1802
(dp1803
g53
(dp1804
sg62
g1798
sg55
(lp1805
g48
(g49
g50
NtRp1806
(dp1807
g53
(dp1808
g61
I3
ssg62
g1802
sg55
(lp1809
S'0'
asbasbasbasbasbasbasbasbasbasbasbag48
(g64
g50
NtRp1810
(dp1811
g53
(dp1812
sg62
g58
sg55
(lp1813
g48
(g69
g50
NtRp1814
(dp1815
g53
(dp1816
g73
g74
ssg62
g1810
sg55
(lp1817
S'extension'
p1818
asbag48
(g69
g50
NtRp1819
(dp1820
g53
(dp1821
g80
g81
ssg62
g1810
sg55
(lp1822
S':'
asbag48
(g69
g50
NtRp1823
(dp1824
g53
(dp1825
sg62
g1810
sg55
(lp1826
g48
(g49
g50
NtRp1827
(dp1828
g53
(dp1829
g61
I5
ssg62
g1823
sg55
(lp1830
S'html'
p1831
asbasbasbag48
(g64
g50
NtRp1832
(dp1833
g53
(dp1834
sg62
g58
sg55
(lp1835
g48
(g69
g50
NtRp1836
(dp1837
g53
(dp1838
g73
g74
ssg62
g1832
sg55
(lp1839
S'folder'
p1840
asbag48
(g69
g50
NtRp1841
(dp1842
g53
(dp1843
g80
g81
ssg62
g1832
sg55
(lp1844
S':'
asbag48
(g69
g50
NtRp1845
(dp1846
g53
(dp1847
sg62
g1832
sg55
(lp1848
g48
(g49
g50
NtRp1849
(dp1850
g53
(dp1851
g61
I5
ssg62
g1845
sg55
(lp1852
S'C:\\Python32\\web2py_win\\web2py\\applications\\Casa_de_Apuestas\\'
p1853
asbasbasbag48
(g64
g50
NtRp1854
(dp1855
g53
(dp1856
sg62
g58
sg55
(lp1857
g48
(g69
g50
NtRp1858
(dp1859
g53
(dp1860
g73
g74
ssg62
g1854
sg55
(lp1861
S'function'
p1862
asbag48
(g69
g50
NtRp1863
(dp1864
g53
(dp1865
g80
g81
ssg62
g1854
sg55
(lp1866
S':'
asbag48
(g69
g50
NtRp1867
(dp1868
g53
(dp1869
sg62
g1854
sg55
(lp1870
g48
(g49
g50
NtRp1871
(dp1872
g53
(dp1873
g61
I5
ssg62
g1867
sg55
(lp1874
S'crearEventoParticipante'
p1875
asbasbasbag48
(g64
g50
NtRp1876
(dp1877
g53
(dp1878
sg62
g58
sg55
(lp1879
g48
(g69
g50
NtRp1880
(dp1881
g53
(dp1882
g73
g74
ssg62
g1876
sg55
(lp1883
S'get_vars'
p1884
asbag48
(g69
g50
NtRp1885
(dp1886
g53
(dp1887
g80
g81
ssg62
g1876
sg55
(lp1888
S':'
asbag48
(g69
g50
NtRp1889
(dp1890
g53
(dp1891
sg62
g1876
sg55
(lp1892
g48
(g49
g50
NtRp1893
(dp1894
g53
(dp1895
g61
I5
ssg62
g1889
sg55
(lp1896
g48
(g57
g50
NtRp1897
(dp1898
g53
(dp1899
g61
I4
ssg62
Nsg55
(lp1900
sbasbasbasbag48
(g64
g50
NtRp1901
(dp1902
g53
(dp1903
sg62
g58
sg55
(lp1904
g48
(g69
g50
NtRp1905
(dp1906
g53
(dp1907
g73
g74
ssg62
g1901
sg55
(lp1908
S'global_settings'
p1909
asbag48
(g69
g50
NtRp1910
(dp1911
g53
(dp1912
g80
g81
ssg62
g1901
sg55
(lp1913
S':'
asbag48
(g69
g50
NtRp1914
(dp1915
g53
(dp1916
sg62
g1901
sg55
(lp1917
g48
(g49
g50
NtRp1918
(dp1919
g53
(dp1920
g61
I5
ssg62
g1914
sg55
(lp1921
g48
(g57
g50
NtRp1922
(dp1923
g53
(dp1924
g61
I4
ssg62
Nsg55
(lp1925
g48
(g64
g50
NtRp1926
(dp1927
g53
(dp1928
sg62
g1922
sg55
(lp1929
g48
(g69
g50
NtRp1930
(dp1931
g53
(dp1932
g73
g74
ssg62
g1926
sg55
(lp1933
g764
asbag48
(g69
g50
NtRp1934
(dp1935
g53
(dp1936
g80
g81
ssg62
g1926
sg55
(lp1937
S':'
asbag48
(g69
g50
NtRp1938
(dp1939
g53
(dp1940
sg62
g1926
sg55
(lp1941
g48
(g49
g50
NtRp1942
(dp1943
g53
(dp1944
g61
I4
ssg62
g1938
sg55
(lp1945
S"set(['C:\\\\Python32\\\\web2py_win\\\\web2py\\\\applications\\\\admin\\\\', 'C:\\\\Python32\\\\web2py_win\\\\web2py\\\\applications\\\\welcome\\\\', 'C:\\\\Python32\\\\web2py_win\\\\web2py\\\\applications\\\\Casa_de_Apuestas\\\\'])"
p1946
asbasbasbag48
(g64
g50
NtRp1947
(dp1948
g53
(dp1949
sg62
g1922
sg55
(lp1950
g48
(g69
g50
NtRp1951
(dp1952
g53
(dp1953
g73
g74
ssg62
g1947
sg55
(lp1954
g786
asbag48
(g69
g50
NtRp1955
(dp1956
g53
(dp1957
g80
g81
ssg62
g1947
sg55
(lp1958
S':'
asbag48
(g69
g50
NtRp1959
(dp1960
g53
(dp1961
sg62
g1947
sg55
(lp1962
g48
(g49
g50
NtRp1963
(dp1964
g53
(dp1965
g61
I4
ssg62
g1959
sg55
(lp1966
g799
asbasbasbag48
(g64
g50
NtRp1967
(dp1968
g53
(dp1969
sg62
g1922
sg55
(lp1970
g48
(g69
g50
NtRp1971
(dp1972
g53
(dp1973
g73
g74
ssg62
g1967
sg55
(lp1974
g808
asbag48
(g69
g50
NtRp1975
(dp1976
g53
(dp1977
g80
g81
ssg62
g1967
sg55
(lp1978
S':'
asbag48
(g69
g50
NtRp1979
(dp1980
g53
(dp1981
sg62
g1967
sg55
(lp1982
g48
(g49
g50
NtRp1983
(dp1984
g53
(dp1985
g61
I4
ssg62
g1979
sg55
(lp1986
g48
(g57
g50
NtRp1987
(dp1988
g53
(dp1989
g61
I3
ssg62
Nsg55
(lp1990
sbasbasbasbag48
(g64
g50
NtRp1991
(dp1992
g53
(dp1993
sg62
g1922
sg55
(lp1994
g48
(g69
g50
NtRp1995
(dp1996
g53
(dp1997
g73
g74
ssg62
g1991
sg55
(lp1998
g833
asbag48
(g69
g50
NtRp1999
(dp2000
g53
(dp2001
g80
g81
ssg62
g1991
sg55
(lp2002
S':'
asbag48
(g69
g50
NtRp2003
(dp2004
g53
(dp2005
sg62
g1991
sg55
(lp2006
g48
(g49
g50
NtRp2007
(dp2008
g53
(dp2009
g61
I4
ssg62
g2003
sg55
(lp2010
S"<Values at 0x2675fa8: {'verbose': False, 'ip': '127.0.0.1', 'shutdown_timeout': 5, 'taskbar': False, 'nocron': False, 'pid_filename': 'httpserver.pid', 'maxthreads': None, 'softcron': False, 'server_name': 'hector-vaio', 'bpython': False, 'nogui': False, 'port': 8000, 'extcron': False, 'debuglevel': 30, 'test': None, 'folder': 'C:\\\\Python32\\\\web2py_win\\\\web2py', 'config': '', 'import_models': False, 'winservice': '', 'shell': None, 'run': '', 'log_filename': 'httpserver.log', 'args': [''], 'ssl_ca_certificate': None, 'scheduler': None, 'profiler_filename': None, 'ssl_private_key': '', 'password': '<ask>', 'request_queue_size': 5, 'ssl_certificate': '', 'cronjob': False, 'plain': False, 'quiet': False, 'interfaces': None, 'minthreads': None, 'timeout': 10, 'numthreads': None, 'nobanner': False}>"
p2011
asbasbasbag48
(g64
g50
NtRp2012
(dp2013
g53
(dp2014
sg62
g1922
sg55
(lp2015
g48
(g69
g50
NtRp2016
(dp2017
g53
(dp2018
g73
g74
ssg62
g2012
sg55
(lp2019
g899
asbag48
(g69
g50
NtRp2020
(dp2021
g53
(dp2022
g80
g81
ssg62
g2012
sg55
(lp2023
S':'
asbag48
(g69
g50
NtRp2024
(dp2025
g53
(dp2026
sg62
g2012
sg55
(lp2027
g48
(g49
g50
NtRp2028
(dp2029
g53
(dp2030
g61
I4
ssg62
g2024
sg55
(lp2031
S'set([])'
p2032
asbasbasbag48
(g64
g50
NtRp2033
(dp2034
g53
(dp2035
sg62
g1922
sg55
(lp2036
g48
(g69
g50
NtRp2037
(dp2038
g53
(dp2039
g73
g74
ssg62
g2033
sg55
(lp2040
g921
asbag48
(g69
g50
NtRp2041
(dp2042
g53
(dp2043
g80
g81
ssg62
g2033
sg55
(lp2044
S':'
asbag48
(g69
g50
NtRp2045
(dp2046
g53
(dp2047
sg62
g2033
sg55
(lp2048
g48
(g49
g50
NtRp2049
(dp2050
g53
(dp2051
g61
I4
ssg62
g2045
sg55
(lp2052
g91
asbasbasbag48
(g64
g50
NtRp2053
(dp2054
g53
(dp2055
sg62
g1922
sg55
(lp2056
g48
(g69
g50
NtRp2057
(dp2058
g53
(dp2059
g73
g74
ssg62
g2053
sg55
(lp2060
g942
asbag48
(g69
g50
NtRp2061
(dp2062
g53
(dp2063
g80
g81
ssg62
g2053
sg55
(lp2064
S':'
asbag48
(g69
g50
NtRp2065
(dp2066
g53
(dp2067
sg62
g2053
sg55
(lp2068
g48
(g49
g50
NtRp2069
(dp2070
g53
(dp2071
g61
I4
ssg62
g2065
sg55
(lp2072
g955
asbasbasbag48
(g64
g50
NtRp2073
(dp2074
g53
(dp2075
sg62
g1922
sg55
(lp2076
g48
(g69
g50
NtRp2077
(dp2078
g53
(dp2079
g73
g74
ssg62
g2073
sg55
(lp2080
g1248
asbag48
(g69
g50
NtRp2081
(dp2082
g53
(dp2083
g80
g81
ssg62
g2073
sg55
(lp2084
S':'
asbag48
(g69
g50
NtRp2085
(dp2086
g53
(dp2087
sg62
g2073
sg55
(lp2088
g48
(g49
g50
NtRp2089
(dp2090
g53
(dp2091
g61
I4
ssg62
g2085
sg55
(lp2092
g91
asbasbasbag48
(g64
g50
NtRp2093
(dp2094
g53
(dp2095
sg62
g1922
sg55
(lp2096
g48
(g69
g50
NtRp2097
(dp2098
g53
(dp2099
g73
g74
ssg62
g2093
sg55
(lp2100
g1486
asbag48
(g69
g50
NtRp2101
(dp2102
g53
(dp2103
g80
g81
ssg62
g2093
sg55
(lp2104
S':'
asbag48
(g69
g50
NtRp2105
(dp2106
g53
(dp2107
sg62
g2093
sg55
(lp2108
g48
(g49
g50
NtRp2109
(dp2110
g53
(dp2111
g61
I4
ssg62
g2105
sg55
(lp2112
g1499
asbasbasbag48
(g64
g50
NtRp2113
(dp2114
g53
(dp2115
sg62
g1922
sg55
(lp2116
g48
(g69
g50
NtRp2117
(dp2118
g53
(dp2119
g73
g74
ssg62
g2113
sg55
(lp2120
g1529
asbag48
(g69
g50
NtRp2121
(dp2122
g53
(dp2123
g80
g81
ssg62
g2113
sg55
(lp2124
S':'
asbag48
(g69
g50
NtRp2125
(dp2126
g53
(dp2127
sg62
g2113
sg55
(lp2128
g48
(g49
g50
NtRp2129
(dp2130
g53
(dp2131
g61
I4
ssg62
g2125
sg55
(lp2132
g48
(g57
g50
NtRp2133
(dp2134
g53
(dp2135
g61
I3
ssg62
Nsg55
(lp2136
g48
(g64
g50
NtRp2137
(dp2138
g53
(dp2139
sg62
g2133
sg55
(lp2140
g48
(g69
g50
NtRp2141
(dp2142
g53
(dp2143
sg62
g2137
sg55
(lp2144
g48
(g49
g50
NtRp2145
(dp2146
g53
(dp2147
g61
I3
ssg62
g2141
sg55
(lp2148
S'1'
asbasbasbag48
(g64
g50
NtRp2149
(dp2150
g53
(dp2151
sg62
g2133
sg55
(lp2152
g48
(g69
g50
NtRp2153
(dp2154
g53
(dp2155
sg62
g2149
sg55
(lp2156
g48
(g49
g50
NtRp2157
(dp2158
g53
(dp2159
g61
I3
ssg62
g2153
sg55
(lp2160
S'99'
p2161
asbasbasbag48
(g64
g50
NtRp2162
(dp2163
g53
(dp2164
sg62
g2133
sg55
(lp2165
g48
(g69
g50
NtRp2166
(dp2167
g53
(dp2168
sg62
g2162
sg55
(lp2169
g48
(g49
g50
NtRp2170
(dp2171
g53
(dp2172
g61
I3
ssg62
g2166
sg55
(lp2173
S'2'
asbasbasbag48
(g64
g50
NtRp2174
(dp2175
g53
(dp2176
sg62
g2133
sg55
(lp2177
g48
(g69
g50
NtRp2178
(dp2179
g53
(dp2180
sg62
g2174
sg55
(lp2181
g48
(g49
g50
NtRp2182
(dp2183
g53
(dp2184
g61
I3
ssg62
g2178
sg55
(lp2185
S'datetime.datetime(2011, 9, 26, 6, 55, 33)'
p2186
asbasbasbag48
(g64
g50
NtRp2187
(dp2188
g53
(dp2189
sg62
g2133
sg55
(lp2190
g48
(g69
g50
NtRp2191
(dp2192
g53
(dp2193
sg62
g2187
sg55
(lp2194
g48
(g49
g50
NtRp2195
(dp2196
g53
(dp2197
g61
I3
ssg62
g2191
sg55
(lp2198
g1608
asbasbasbasbasbasbasbasbasbasbasbag48
(g64
g50
NtRp2199
(dp2200
g53
(dp2201
sg62
g58
sg55
(lp2202
g48
(g69
g50
NtRp2203
(dp2204
g53
(dp2205
g73
g74
ssg62
g2199
sg55
(lp2206
S'is_https'
p2207
asbag48
(g69
g50
NtRp2208
(dp2209
g53
(dp2210
g80
g81
ssg62
g2199
sg55
(lp2211
S':'
asbag48
(g69
g50
NtRp2212
(dp2213
g53
(dp2214
sg62
g2199
sg55
(lp2215
g48
(g49
g50
NtRp2216
(dp2217
g53
(dp2218
g61
I5
ssg62
g2212
sg55
(lp2219
g91
asbasbasbag48
(g64
g50
NtRp2220
(dp2221
g53
(dp2222
sg62
g58
sg55
(lp2223
g48
(g69
g50
NtRp2224
(dp2225
g53
(dp2226
g73
g74
ssg62
g2220
sg55
(lp2227
S'is_local'
p2228
asbag48
(g69
g50
NtRp2229
(dp2230
g53
(dp2231
g80
g81
ssg62
g2220
sg55
(lp2232
S':'
asbag48
(g69
g50
NtRp2233
(dp2234
g53
(dp2235
sg62
g2220
sg55
(lp2236
g48
(g49
g50
NtRp2237
(dp2238
g53
(dp2239
g61
I5
ssg62
g2233
sg55
(lp2240
g1717
asbasbasbag48
(g64
g50
NtRp2241
(dp2242
g53
(dp2243
sg62
g58
sg55
(lp2244
g48
(g69
g50
NtRp2245
(dp2246
g53
(dp2247
g73
g74
ssg62
g2241
sg55
(lp2248
S'is_restful'
p2249
asbag48
(g69
g50
NtRp2250
(dp2251
g53
(dp2252
g80
g81
ssg62
g2241
sg55
(lp2253
S':'
asbag48
(g69
g50
NtRp2254
(dp2255
g53
(dp2256
sg62
g2241
sg55
(lp2257
g48
(g49
g50
NtRp2258
(dp2259
g53
(dp2260
g61
I5
ssg62
g2254
sg55
(lp2261
g91
asbasbasbag48
(g64
g50
NtRp2262
(dp2263
g53
(dp2264
sg62
g58
sg55
(lp2265
g48
(g69
g50
NtRp2266
(dp2267
g53
(dp2268
g73
g74
ssg62
g2262
sg55
(lp2269
S'now'
p2270
asbag48
(g69
g50
NtRp2271
(dp2272
g53
(dp2273
g80
g81
ssg62
g2262
sg55
(lp2274
S':'
asbag48
(g69
g50
NtRp2275
(dp2276
g53
(dp2277
sg62
g2262
sg55
(lp2278
g48
(g49
g50
NtRp2279
(dp2280
g53
(dp2281
g61
I5
ssg62
g2275
sg55
(lp2282
S'datetime.datetime(2011, 12, 2, 4, 8, 12, 410000)'
p2283
asbasbasbag48
(g64
g50
NtRp2284
(dp2285
g53
(dp2286
sg62
g58
sg55
(lp2287
g48
(g69
g50
NtRp2288
(dp2289
g53
(dp2290
g73
g74
ssg62
g2284
sg55
(lp2291
S'post_vars'
p2292
asbag48
(g69
g50
NtRp2293
(dp2294
g53
(dp2295
g80
g81
ssg62
g2284
sg55
(lp2296
S':'
asbag48
(g69
g50
NtRp2297
(dp2298
g53
(dp2299
sg62
g2284
sg55
(lp2300
g48
(g49
g50
NtRp2301
(dp2302
g53
(dp2303
g61
I5
ssg62
g2297
sg55
(lp2304
g48
(g57
g50
NtRp2305
(dp2306
g53
(dp2307
g61
I4
ssg62
Nsg55
(lp2308
g48
(g64
g50
NtRp2309
(dp2310
g53
(dp2311
sg62
g2305
sg55
(lp2312
g48
(g69
g50
NtRp2313
(dp2314
g53
(dp2315
g73
g74
ssg62
g2309
sg55
(lp2316
S'eventos_id'
p2317
asbag48
(g69
g50
NtRp2318
(dp2319
g53
(dp2320
g80
g81
ssg62
g2309
sg55
(lp2321
S':'
asbag48
(g69
g50
NtRp2322
(dp2323
g53
(dp2324
sg62
g2309
sg55
(lp2325
g48
(g49
g50
NtRp2326
(dp2327
g53
(dp2328
g61
I4
ssg62
g2322
sg55
(lp2329
S'11'
p2330
asbasbasbag48
(g64
g50
NtRp2331
(dp2332
g53
(dp2333
sg62
g2305
sg55
(lp2334
g48
(g69
g50
NtRp2335
(dp2336
g53
(dp2337
g73
g74
ssg62
g2331
sg55
(lp2338
S'limite_apuesta'
p2339
asbag48
(g69
g50
NtRp2340
(dp2341
g53
(dp2342
g80
g81
ssg62
g2331
sg55
(lp2343
S':'
asbag48
(g69
g50
NtRp2344
(dp2345
g53
(dp2346
sg62
g2331
sg55
(lp2347
g48
(g49
g50
NtRp2348
(dp2349
g53
(dp2350
g61
I4
ssg62
g2344
sg55
(lp2351
S'1000'
p2352
asbasbasbag48
(g64
g50
NtRp2353
(dp2354
g53
(dp2355
sg62
g2305
sg55
(lp2356
g48
(g69
g50
NtRp2357
(dp2358
g53
(dp2359
g73
g74
ssg62
g2353
sg55
(lp2360
S'participantes_id'
p2361
asbag48
(g69
g50
NtRp2362
(dp2363
g53
(dp2364
g80
g81
ssg62
g2353
sg55
(lp2365
S':'
asbag48
(g69
g50
NtRp2366
(dp2367
g53
(dp2368
sg62
g2353
sg55
(lp2369
g48
(g49
g50
NtRp2370
(dp2371
g53
(dp2372
g61
I4
ssg62
g2366
sg55
(lp2373
S'11'
p2374
asbasbasbag48
(g64
g50
NtRp2375
(dp2376
g53
(dp2377
sg62
g2305
sg55
(lp2378
g48
(g69
g50
NtRp2379
(dp2380
g53
(dp2381
g73
g74
ssg62
g2375
sg55
(lp2382
S'relacionpago'
p2383
asbag48
(g69
g50
NtRp2384
(dp2385
g53
(dp2386
g80
g81
ssg62
g2375
sg55
(lp2387
S':'
asbag48
(g69
g50
NtRp2388
(dp2389
g53
(dp2390
sg62
g2375
sg55
(lp2391
g48
(g49
g50
NtRp2392
(dp2393
g53
(dp2394
g61
I4
ssg62
g2388
sg55
(lp2395
S' 3 a 1'
p2396
asbasbasbasbasbasbasbag48
(g64
g50
NtRp2397
(dp2398
g53
(dp2399
sg62
g58
sg55
(lp2400
g48
(g69
g50
NtRp2401
(dp2402
g53
(dp2403
g73
g74
ssg62
g2397
sg55
(lp2404
S'url'
p2405
asbag48
(g69
g50
NtRp2406
(dp2407
g53
(dp2408
g80
g81
ssg62
g2397
sg55
(lp2409
S':'
asbag48
(g69
g50
NtRp2410
(dp2411
g53
(dp2412
sg62
g2397
sg55
(lp2413
g48
(g49
g50
NtRp2414
(dp2415
g53
(dp2416
g61
I5
ssg62
g2410
sg55
(lp2417
S'/Casa_de_Apuestas/default/crearEventoParticipante'
p2418
asbasbasbag48
(g64
g50
NtRp2419
(dp2420
g53
(dp2421
sg62
g58
sg55
(lp2422
g48
(g69
g50
NtRp2423
(dp2424
g53
(dp2425
g73
g74
ssg62
g2419
sg55
(lp2426
S'utcnow'
p2427
asbag48
(g69
g50
NtRp2428
(dp2429
g53
(dp2430
g80
g81
ssg62
g2419
sg55
(lp2431
S':'
asbag48
(g69
g50
NtRp2432
(dp2433
g53
(dp2434
sg62
g2419
sg55
(lp2435
g48
(g49
g50
NtRp2436
(dp2437
g53
(dp2438
g61
I5
ssg62
g2432
sg55
(lp2439
S'datetime.datetime(2011, 12, 2, 8, 38, 12, 410000)'
p2440
asbasbasbag48
(g64
g50
NtRp2441
(dp2442
g53
(dp2443
sg62
g58
sg55
(lp2444
g48
(g69
g50
NtRp2445
(dp2446
g53
(dp2447
g73
g74
ssg62
g2441
sg55
(lp2448
S'uuid'
p2449
asbag48
(g69
g50
NtRp2450
(dp2451
g53
(dp2452
g80
g81
ssg62
g2441
sg55
(lp2453
S':'
asbag48
(g69
g50
NtRp2454
(dp2455
g53
(dp2456
sg62
g2441
sg55
(lp2457
g48
(g49
g50
NtRp2458
(dp2459
g53
(dp2460
g61
I5
ssg62
g2454
sg55
(lp2461
S'Casa_de_Apuestas/127.0.0.1.2011-12-02.04-08-12.465b2fee-0da0-4a01-98de-8881f1fd406b'
p2462
asbasbasbag48
(g64
g50
NtRp2463
(dp2464
g53
(dp2465
sg62
g58
sg55
(lp2466
g48
(g69
g50
NtRp2467
(dp2468
g53
(dp2469
g73
g74
ssg62
g2463
sg55
(lp2470
S'vars'
p2471
asbag48
(g69
g50
NtRp2472
(dp2473
g53
(dp2474
g80
g81
ssg62
g2463
sg55
(lp2475
S':'
asbag48
(g69
g50
NtRp2476
(dp2477
g53
(dp2478
sg62
g2463
sg55
(lp2479
g48
(g49
g50
NtRp2480
(dp2481
g53
(dp2482
g61
I5
ssg62
g2476
sg55
(lp2483
g48
(g57
g50
NtRp2484
(dp2485
g53
(dp2486
g61
I4
ssg62
Nsg55
(lp2487
g48
(g64
g50
NtRp2488
(dp2489
g53
(dp2490
sg62
g2484
sg55
(lp2491
g48
(g69
g50
NtRp2492
(dp2493
g53
(dp2494
g73
g74
ssg62
g2488
sg55
(lp2495
g2317
asbag48
(g69
g50
NtRp2496
(dp2497
g53
(dp2498
g80
g81
ssg62
g2488
sg55
(lp2499
S':'
asbag48
(g69
g50
NtRp2500
(dp2501
g53
(dp2502
sg62
g2488
sg55
(lp2503
g48
(g49
g50
NtRp2504
(dp2505
g53
(dp2506
g61
I4
ssg62
g2500
sg55
(lp2507
g2330
asbasbasbag48
(g64
g50
NtRp2508
(dp2509
g53
(dp2510
sg62
g2484
sg55
(lp2511
g48
(g69
g50
NtRp2512
(dp2513
g53
(dp2514
g73
g74
ssg62
g2508
sg55
(lp2515
g2339
asbag48
(g69
g50
NtRp2516
(dp2517
g53
(dp2518
g80
g81
ssg62
g2508
sg55
(lp2519
S':'
asbag48
(g69
g50
NtRp2520
(dp2521
g53
(dp2522
sg62
g2508
sg55
(lp2523
g48
(g49
g50
NtRp2524
(dp2525
g53
(dp2526
g61
I4
ssg62
g2520
sg55
(lp2527
g2352
asbasbasbag48
(g64
g50
NtRp2528
(dp2529
g53
(dp2530
sg62
g2484
sg55
(lp2531
g48
(g69
g50
NtRp2532
(dp2533
g53
(dp2534
g73
g74
ssg62
g2528
sg55
(lp2535
g2361
asbag48
(g69
g50
NtRp2536
(dp2537
g53
(dp2538
g80
g81
ssg62
g2528
sg55
(lp2539
S':'
asbag48
(g69
g50
NtRp2540
(dp2541
g53
(dp2542
sg62
g2528
sg55
(lp2543
g48
(g49
g50
NtRp2544
(dp2545
g53
(dp2546
g61
I4
ssg62
g2540
sg55
(lp2547
g2374
asbasbasbag48
(g64
g50
NtRp2548
(dp2549
g53
(dp2550
sg62
g2484
sg55
(lp2551
g48
(g69
g50
NtRp2552
(dp2553
g53
(dp2554
g73
g74
ssg62
g2548
sg55
(lp2555
g2383
asbag48
(g69
g50
NtRp2556
(dp2557
g53
(dp2558
g80
g81
ssg62
g2548
sg55
(lp2559
S':'
asbag48
(g69
g50
NtRp2560
(dp2561
g53
(dp2562
sg62
g2548
sg55
(lp2563
g48
(g49
g50
NtRp2564
(dp2565
g53
(dp2566
g61
I4
ssg62
g2560
sg55
(lp2567
g2396
asbasbasbasbasbasbasbag48
(g64
g50
NtRp2568
(dp2569
g53
(dp2570
sg62
g58
sg55
(lp2571
g48
(g69
g50
NtRp2572
(dp2573
g53
(dp2574
g73
g74
ssg62
g2568
sg55
(lp2575
S'wsgi'
p2576
asbag48
(g69
g50
NtRp2577
(dp2578
g53
(dp2579
g80
g81
ssg62
g2568
sg55
(lp2580
S':'
asbag48
(g69
g50
NtRp2581
(dp2582
g53
(dp2583
sg62
g2568
sg55
(lp2584
g48
(g49
g50
NtRp2585
(dp2586
g53
(dp2587
g61
I5
ssg62
g2581
sg55
(lp2588
g48
(g57
g50
NtRp2589
(dp2590
g53
(dp2591
g61
I4
ssg62
Nsg55
(lp2592
g48
(g64
g50
NtRp2593
(dp2594
g53
(dp2595
sg62
g2589
sg55
(lp2596
g48
(g69
g50
NtRp2597
(dp2598
g53
(dp2599
g73
g74
ssg62
g2593
sg55
(lp2600
S'environ'
p2601
asbag48
(g69
g50
NtRp2602
(dp2603
g53
(dp2604
g80
g81
ssg62
g2593
sg55
(lp2605
S':'
asbag48
(g69
g50
NtRp2606
(dp2607
g53
(dp2608
sg62
g2593
sg55
(lp2609
g48
(g49
g50
NtRp2610
(dp2611
g53
(dp2612
g61
I4
ssg62
g2606
sg55
(lp2613
g48
(g57
g50
NtRp2614
(dp2615
g53
(dp2616
g61
I3
ssg62
Nsg55
(lp2617
g48
(g64
g50
NtRp2618
(dp2619
g53
(dp2620
sg62
g2614
sg55
(lp2621
g48
(g69
g50
NtRp2622
(dp2623
g53
(dp2624
g73
g74
ssg62
g2618
sg55
(lp2625
S'CONTENT_LENGTH'
p2626
asbag48
(g69
g50
NtRp2627
(dp2628
g53
(dp2629
g80
g81
ssg62
g2618
sg55
(lp2630
S':'
asbag48
(g69
g50
NtRp2631
(dp2632
g53
(dp2633
sg62
g2618
sg55
(lp2634
g48
(g49
g50
NtRp2635
(dp2636
g53
(dp2637
g61
I3
ssg62
g2631
sg55
(lp2638
g868
asbasbasbag48
(g64
g50
NtRp2639
(dp2640
g53
(dp2641
sg62
g2614
sg55
(lp2642
g48
(g69
g50
NtRp2643
(dp2644
g53
(dp2645
g73
g74
ssg62
g2639
sg55
(lp2646
S'CONTENT_TYPE'
p2647
asbag48
(g69
g50
NtRp2648
(dp2649
g53
(dp2650
g80
g81
ssg62
g2639
sg55
(lp2651
S':'
asbag48
(g69
g50
NtRp2652
(dp2653
g53
(dp2654
sg62
g2639
sg55
(lp2655
g48
(g49
g50
NtRp2656
(dp2657
g53
(dp2658
g61
I3
ssg62
g2652
sg55
(lp2659
g890
asbasbasbag48
(g64
g50
NtRp2660
(dp2661
g53
(dp2662
sg62
g2614
sg55
(lp2663
g48
(g69
g50
NtRp2664
(dp2665
g53
(dp2666
g73
g74
ssg62
g2660
sg55
(lp2667
S'HTTP_ACCEPT'
p2668
asbag48
(g69
g50
NtRp2669
(dp2670
g53
(dp2671
g80
g81
ssg62
g2660
sg55
(lp2672
S':'
asbag48
(g69
g50
NtRp2673
(dp2674
g53
(dp2675
sg62
g2660
sg55
(lp2676
g48
(g49
g50
NtRp2677
(dp2678
g53
(dp2679
g61
I3
ssg62
g2673
sg55
(lp2680
g977
asbasbasbag48
(g64
g50
NtRp2681
(dp2682
g53
(dp2683
sg62
g2614
sg55
(lp2684
g48
(g69
g50
NtRp2685
(dp2686
g53
(dp2687
g73
g74
ssg62
g2681
sg55
(lp2688
S'HTTP_ACCEPT_CHARSET'
p2689
asbag48
(g69
g50
NtRp2690
(dp2691
g53
(dp2692
g80
g81
ssg62
g2681
sg55
(lp2693
S':'
asbag48
(g69
g50
NtRp2694
(dp2695
g53
(dp2696
sg62
g2681
sg55
(lp2697
g48
(g49
g50
NtRp2698
(dp2699
g53
(dp2700
g61
I3
ssg62
g2694
sg55
(lp2701
g999
asbasbasbag48
(g64
g50
NtRp2702
(dp2703
g53
(dp2704
sg62
g2614
sg55
(lp2705
g48
(g69
g50
NtRp2706
(dp2707
g53
(dp2708
g73
g74
ssg62
g2702
sg55
(lp2709
S'HTTP_ACCEPT_ENCODING'
p2710
asbag48
(g69
g50
NtRp2711
(dp2712
g53
(dp2713
g80
g81
ssg62
g2702
sg55
(lp2714
S':'
asbag48
(g69
g50
NtRp2715
(dp2716
g53
(dp2717
sg62
g2702
sg55
(lp2718
g48
(g49
g50
NtRp2719
(dp2720
g53
(dp2721
g61
I3
ssg62
g2715
sg55
(lp2722
g1021
asbasbasbag48
(g64
g50
NtRp2723
(dp2724
g53
(dp2725
sg62
g2614
sg55
(lp2726
g48
(g69
g50
NtRp2727
(dp2728
g53
(dp2729
g73
g74
ssg62
g2723
sg55
(lp2730
S'HTTP_ACCEPT_LANGUAGE'
p2731
asbag48
(g69
g50
NtRp2732
(dp2733
g53
(dp2734
g80
g81
ssg62
g2723
sg55
(lp2735
S':'
asbag48
(g69
g50
NtRp2736
(dp2737
g53
(dp2738
sg62
g2723
sg55
(lp2739
g48
(g49
g50
NtRp2740
(dp2741
g53
(dp2742
g61
I3
ssg62
g2736
sg55
(lp2743
g1043
asbasbasbag48
(g64
g50
NtRp2744
(dp2745
g53
(dp2746
sg62
g2614
sg55
(lp2747
g48
(g69
g50
NtRp2748
(dp2749
g53
(dp2750
g73
g74
ssg62
g2744
sg55
(lp2751
S'HTTP_CACHE_CONTROL'
p2752
asbag48
(g69
g50
NtRp2753
(dp2754
g53
(dp2755
g80
g81
ssg62
g2744
sg55
(lp2756
S':'
asbag48
(g69
g50
NtRp2757
(dp2758
g53
(dp2759
sg62
g2744
sg55
(lp2760
g48
(g49
g50
NtRp2761
(dp2762
g53
(dp2763
g61
I3
ssg62
g2757
sg55
(lp2764
g1065
asbasbasbag48
(g64
g50
NtRp2765
(dp2766
g53
(dp2767
sg62
g2614
sg55
(lp2768
g48
(g69
g50
NtRp2769
(dp2770
g53
(dp2771
g73
g74
ssg62
g2765
sg55
(lp2772
S'HTTP_CONNECTION'
p2773
asbag48
(g69
g50
NtRp2774
(dp2775
g53
(dp2776
g80
g81
ssg62
g2765
sg55
(lp2777
S':'
asbag48
(g69
g50
NtRp2778
(dp2779
g53
(dp2780
sg62
g2765
sg55
(lp2781
g48
(g49
g50
NtRp2782
(dp2783
g53
(dp2784
g61
I3
ssg62
g2778
sg55
(lp2785
g1087
asbasbasbag48
(g64
g50
NtRp2786
(dp2787
g53
(dp2788
sg62
g2614
sg55
(lp2789
g48
(g69
g50
NtRp2790
(dp2791
g53
(dp2792
g73
g74
ssg62
g2786
sg55
(lp2793
S'HTTP_CONTENT_LENGTH'
p2794
asbag48
(g69
g50
NtRp2795
(dp2796
g53
(dp2797
g80
g81
ssg62
g2786
sg55
(lp2798
S':'
asbag48
(g69
g50
NtRp2799
(dp2800
g53
(dp2801
sg62
g2786
sg55
(lp2802
g48
(g49
g50
NtRp2803
(dp2804
g53
(dp2805
g61
I3
ssg62
g2799
sg55
(lp2806
g868
asbasbasbag48
(g64
g50
NtRp2807
(dp2808
g53
(dp2809
sg62
g2614
sg55
(lp2810
g48
(g69
g50
NtRp2811
(dp2812
g53
(dp2813
g73
g74
ssg62
g2807
sg55
(lp2814
S'HTTP_CONTENT_TYPE'
p2815
asbag48
(g69
g50
NtRp2816
(dp2817
g53
(dp2818
g80
g81
ssg62
g2807
sg55
(lp2819
S':'
asbag48
(g69
g50
NtRp2820
(dp2821
g53
(dp2822
sg62
g2807
sg55
(lp2823
g48
(g49
g50
NtRp2824
(dp2825
g53
(dp2826
g61
I3
ssg62
g2820
sg55
(lp2827
g890
asbasbasbag48
(g64
g50
NtRp2828
(dp2829
g53
(dp2830
sg62
g2614
sg55
(lp2831
g48
(g69
g50
NtRp2832
(dp2833
g53
(dp2834
g73
g74
ssg62
g2828
sg55
(lp2835
S'HTTP_COOKIE'
p2836
asbag48
(g69
g50
NtRp2837
(dp2838
g53
(dp2839
g80
g81
ssg62
g2828
sg55
(lp2840
S':'
asbag48
(g69
g50
NtRp2841
(dp2842
g53
(dp2843
sg62
g2828
sg55
(lp2844
g48
(g49
g50
NtRp2845
(dp2846
g53
(dp2847
g61
I3
ssg62
g2841
sg55
(lp2848
g1151
asbasbasbag48
(g64
g50
NtRp2849
(dp2850
g53
(dp2851
sg62
g2614
sg55
(lp2852
g48
(g69
g50
NtRp2853
(dp2854
g53
(dp2855
g73
g74
ssg62
g2849
sg55
(lp2856
S'HTTP_HOST'
p2857
asbag48
(g69
g50
NtRp2858
(dp2859
g53
(dp2860
g80
g81
ssg62
g2849
sg55
(lp2861
S':'
asbag48
(g69
g50
NtRp2862
(dp2863
g53
(dp2864
sg62
g2849
sg55
(lp2865
g48
(g49
g50
NtRp2866
(dp2867
g53
(dp2868
g61
I3
ssg62
g2862
sg55
(lp2869
g1173
asbasbasbag48
(g64
g50
NtRp2870
(dp2871
g53
(dp2872
sg62
g2614
sg55
(lp2873
g48
(g69
g50
NtRp2874
(dp2875
g53
(dp2876
g73
g74
ssg62
g2870
sg55
(lp2877
S'HTTP_ORIGIN'
p2878
asbag48
(g69
g50
NtRp2879
(dp2880
g53
(dp2881
g80
g81
ssg62
g2870
sg55
(lp2882
S':'
asbag48
(g69
g50
NtRp2883
(dp2884
g53
(dp2885
sg62
g2870
sg55
(lp2886
g48
(g49
g50
NtRp2887
(dp2888
g53
(dp2889
g61
I3
ssg62
g2883
sg55
(lp2890
g1195
asbasbasbag48
(g64
g50
NtRp2891
(dp2892
g53
(dp2893
sg62
g2614
sg55
(lp2894
g48
(g69
g50
NtRp2895
(dp2896
g53
(dp2897
g73
g74
ssg62
g2891
sg55
(lp2898
S'HTTP_REFERER'
p2899
asbag48
(g69
g50
NtRp2900
(dp2901
g53
(dp2902
g80
g81
ssg62
g2891
sg55
(lp2903
S':'
asbag48
(g69
g50
NtRp2904
(dp2905
g53
(dp2906
sg62
g2891
sg55
(lp2907
g48
(g49
g50
NtRp2908
(dp2909
g53
(dp2910
g61
I3
ssg62
g2904
sg55
(lp2911
g1217
asbasbasbag48
(g64
g50
NtRp2912
(dp2913
g53
(dp2914
sg62
g2614
sg55
(lp2915
g48
(g69
g50
NtRp2916
(dp2917
g53
(dp2918
g73
g74
ssg62
g2912
sg55
(lp2919
S'HTTP_USER_AGENT'
p2920
asbag48
(g69
g50
NtRp2921
(dp2922
g53
(dp2923
g80
g81
ssg62
g2912
sg55
(lp2924
S':'
asbag48
(g69
g50
NtRp2925
(dp2926
g53
(dp2927
sg62
g2912
sg55
(lp2928
g48
(g49
g50
NtRp2929
(dp2930
g53
(dp2931
g61
I3
ssg62
g2925
sg55
(lp2932
g1239
asbasbasbag48
(g64
g50
NtRp2933
(dp2934
g53
(dp2935
sg62
g2614
sg55
(lp2936
g48
(g69
g50
NtRp2937
(dp2938
g53
(dp2939
g73
g74
ssg62
g2933
sg55
(lp2940
S'PATH_INFO'
p2941
asbag48
(g69
g50
NtRp2942
(dp2943
g53
(dp2944
g80
g81
ssg62
g2933
sg55
(lp2945
S':'
asbag48
(g69
g50
NtRp2946
(dp2947
g53
(dp2948
sg62
g2933
sg55
(lp2949
g48
(g49
g50
NtRp2950
(dp2951
g53
(dp2952
g61
I3
ssg62
g2946
sg55
(lp2953
g1282
asbasbasbag48
(g64
g50
NtRp2954
(dp2955
g53
(dp2956
sg62
g2614
sg55
(lp2957
g48
(g69
g50
NtRp2958
(dp2959
g53
(dp2960
g73
g74
ssg62
g2954
sg55
(lp2961
S'QUERY_STRING'
p2962
asbag48
(g69
g50
NtRp2963
(dp2964
g53
(dp2965
g80
g81
ssg62
g2954
sg55
(lp2966
S':'
asbag48
(g69
g50
NtRp2967
(dp2968
g53
(dp2969
sg62
g2954
sg55
(lp2970
g48
(g49
g50
NtRp2971
(dp2972
g53
(dp2973
g61
I3
ssg62
g2967
sg55
(lp2974
S''
asbasbasbag48
(g64
g50
NtRp2975
(dp2976
g53
(dp2977
sg62
g2614
sg55
(lp2978
g48
(g69
g50
NtRp2979
(dp2980
g53
(dp2981
g73
g74
ssg62
g2975
sg55
(lp2982
S'REMOTE_ADDR'
p2983
asbag48
(g69
g50
NtRp2984
(dp2985
g53
(dp2986
g80
g81
ssg62
g2975
sg55
(lp2987
S':'
asbag48
(g69
g50
NtRp2988
(dp2989
g53
(dp2990
sg62
g2975
sg55
(lp2991
g48
(g49
g50
NtRp2992
(dp2993
g53
(dp2994
g61
I3
ssg62
g2988
sg55
(lp2995
g181
asbasbasbag48
(g64
g50
NtRp2996
(dp2997
g53
(dp2998
sg62
g2614
sg55
(lp2999
g48
(g69
g50
NtRp3000
(dp3001
g53
(dp3002
g73
g74
ssg62
g2996
sg55
(lp3003
S'REMOTE_PORT'
p3004
asbag48
(g69
g50
NtRp3005
(dp3006
g53
(dp3007
g80
g81
ssg62
g2996
sg55
(lp3008
S':'
asbag48
(g69
g50
NtRp3009
(dp3010
g53
(dp3011
sg62
g2996
sg55
(lp3012
g48
(g49
g50
NtRp3013
(dp3014
g53
(dp3015
g61
I3
ssg62
g3009
sg55
(lp3016
g1346
asbasbasbag48
(g64
g50
NtRp3017
(dp3018
g53
(dp3019
sg62
g2614
sg55
(lp3020
g48
(g69
g50
NtRp3021
(dp3022
g53
(dp3023
g73
g74
ssg62
g3017
sg55
(lp3024
S'REQUEST_METHOD'
p3025
asbag48
(g69
g50
NtRp3026
(dp3027
g53
(dp3028
g80
g81
ssg62
g3017
sg55
(lp3029
S':'
asbag48
(g69
g50
NtRp3030
(dp3031
g53
(dp3032
sg62
g3017
sg55
(lp3033
g48
(g49
g50
NtRp3034
(dp3035
g53
(dp3036
g61
I3
ssg62
g3030
sg55
(lp3037
g1368
asbasbasbag48
(g64
g50
NtRp3038
(dp3039
g53
(dp3040
sg62
g2614
sg55
(lp3041
g48
(g69
g50
NtRp3042
(dp3043
g53
(dp3044
g73
g74
ssg62
g3038
sg55
(lp3045
S'SCRIPT_NAME'
p3046
asbag48
(g69
g50
NtRp3047
(dp3048
g53
(dp3049
g80
g81
ssg62
g3038
sg55
(lp3050
S':'
asbag48
(g69
g50
NtRp3051
(dp3052
g53
(dp3053
sg62
g3038
sg55
(lp3054
g48
(g49
g50
NtRp3055
(dp3056
g53
(dp3057
g61
I3
ssg62
g3051
sg55
(lp3058
S''
asbasbasbag48
(g64
g50
NtRp3059
(dp3060
g53
(dp3061
sg62
g2614
sg55
(lp3062
g48
(g69
g50
NtRp3063
(dp3064
g53
(dp3065
g73
g74
ssg62
g3059
sg55
(lp3066
S'SERVER_NAME'
p3067
asbag48
(g69
g50
NtRp3068
(dp3069
g53
(dp3070
g80
g81
ssg62
g3059
sg55
(lp3071
S':'
asbag48
(g69
g50
NtRp3072
(dp3073
g53
(dp3074
sg62
g3059
sg55
(lp3075
g48
(g49
g50
NtRp3076
(dp3077
g53
(dp3078
g61
I3
ssg62
g3072
sg55
(lp3079
g1411
asbasbasbag48
(g64
g50
NtRp3080
(dp3081
g53
(dp3082
sg62
g2614
sg55
(lp3083
g48
(g69
g50
NtRp3084
(dp3085
g53
(dp3086
g73
g74
ssg62
g3080
sg55
(lp3087
S'SERVER_PORT'
p3088
asbag48
(g69
g50
NtRp3089
(dp3090
g53
(dp3091
g80
g81
ssg62
g3080
sg55
(lp3092
S':'
asbag48
(g69
g50
NtRp3093
(dp3094
g53
(dp3095
sg62
g3080
sg55
(lp3096
g48
(g49
g50
NtRp3097
(dp3098
g53
(dp3099
g61
I3
ssg62
g3093
sg55
(lp3100
g1433
asbasbasbag48
(g64
g50
NtRp3101
(dp3102
g53
(dp3103
sg62
g2614
sg55
(lp3104
g48
(g69
g50
NtRp3105
(dp3106
g53
(dp3107
g73
g74
ssg62
g3101
sg55
(lp3108
S'SERVER_PROTOCOL'
p3109
asbag48
(g69
g50
NtRp3110
(dp3111
g53
(dp3112
g80
g81
ssg62
g3101
sg55
(lp3113
S':'
asbag48
(g69
g50
NtRp3114
(dp3115
g53
(dp3116
sg62
g3101
sg55
(lp3117
g48
(g49
g50
NtRp3118
(dp3119
g53
(dp3120
g61
I3
ssg62
g3114
sg55
(lp3121
g1455
asbasbasbag48
(g64
g50
NtRp3122
(dp3123
g53
(dp3124
sg62
g2614
sg55
(lp3125
g48
(g69
g50
NtRp3126
(dp3127
g53
(dp3128
g73
g74
ssg62
g3122
sg55
(lp3129
S'SERVER_SOFTWARE'
p3130
asbag48
(g69
g50
NtRp3131
(dp3132
g53
(dp3133
g80
g81
ssg62
g3122
sg55
(lp3134
S':'
asbag48
(g69
g50
NtRp3135
(dp3136
g53
(dp3137
sg62
g3122
sg55
(lp3138
g48
(g49
g50
NtRp3139
(dp3140
g53
(dp3141
g61
I3
ssg62
g3135
sg55
(lp3142
g1477
asbasbasbag48
(g64
g50
NtRp3143
(dp3144
g53
(dp3145
sg62
g2614
sg55
(lp3146
g48
(g69
g50
NtRp3147
(dp3148
g53
(dp3149
g73
g74
ssg62
g3143
sg55
(lp3150
S'wsgi.errors'
p3151
asbag48
(g69
g50
NtRp3152
(dp3153
g53
(dp3154
g80
g81
ssg62
g3143
sg55
(lp3155
S':'
asbag48
(g69
g50
NtRp3156
(dp3157
g53
(dp3158
sg62
g3143
sg55
(lp3159
g48
(g49
g50
NtRp3160
(dp3161
g53
(dp3162
g61
I3
ssg62
g3156
sg55
(lp3163
S"<open file '<stderr>', mode 'w' at 0x015800B0>"
p3164
asbasbasbag48
(g64
g50
NtRp3165
(dp3166
g53
(dp3167
sg62
g2614
sg55
(lp3168
g48
(g69
g50
NtRp3169
(dp3170
g53
(dp3171
g73
g74
ssg62
g3165
sg55
(lp3172
S'wsgi.file_wrapper'
p3173
asbag48
(g69
g50
NtRp3174
(dp3175
g53
(dp3176
g80
g81
ssg62
g3165
sg55
(lp3177
S':'
asbag48
(g69
g50
NtRp3178
(dp3179
g53
(dp3180
sg62
g3165
sg55
(lp3181
g48
(g49
g50
NtRp3182
(dp3183
g53
(dp3184
g61
I3
ssg62
g3178
sg55
(lp3185
S'<class wsgiref.util.FileWrapper at 0x02419AB0>'
p3186
asbasbasbag48
(g64
g50
NtRp3187
(dp3188
g53
(dp3189
sg62
g2614
sg55
(lp3190
g48
(g69
g50
NtRp3191
(dp3192
g53
(dp3193
g73
g74
ssg62
g3187
sg55
(lp3194
S'wsgi.input'
p3195
asbag48
(g69
g50
NtRp3196
(dp3197
g53
(dp3198
g80
g81
ssg62
g3187
sg55
(lp3199
S':'
asbag48
(g69
g50
NtRp3200
(dp3201
g53
(dp3202
sg62
g3187
sg55
(lp3203
g48
(g49
g50
NtRp3204
(dp3205
g53
(dp3206
g61
I3
ssg62
g3200
sg55
(lp3207
S"<open file '<fdopen>', mode 'w+b' at 0x05FDB2F0>"
p3208
asbasbasbag48
(g64
g50
NtRp3209
(dp3210
g53
(dp3211
sg62
g2614
sg55
(lp3212
g48
(g69
g50
NtRp3213
(dp3214
g53
(dp3215
g73
g74
ssg62
g3209
sg55
(lp3216
S'wsgi.multiprocess'
p3217
asbag48
(g69
g50
NtRp3218
(dp3219
g53
(dp3220
g80
g81
ssg62
g3209
sg55
(lp3221
S':'
asbag48
(g69
g50
NtRp3222
(dp3223
g53
(dp3224
sg62
g3209
sg55
(lp3225
g48
(g49
g50
NtRp3226
(dp3227
g53
(dp3228
g61
I3
ssg62
g3222
sg55
(lp3229
g91
asbasbasbag48
(g64
g50
NtRp3230
(dp3231
g53
(dp3232
sg62
g2614
sg55
(lp3233
g48
(g69
g50
NtRp3234
(dp3235
g53
(dp3236
g73
g74
ssg62
g3230
sg55
(lp3237
S'wsgi.multithread'
p3238
asbag48
(g69
g50
NtRp3239
(dp3240
g53
(dp3241
g80
g81
ssg62
g3230
sg55
(lp3242
S':'
asbag48
(g69
g50
NtRp3243
(dp3244
g53
(dp3245
sg62
g3230
sg55
(lp3246
g48
(g49
g50
NtRp3247
(dp3248
g53
(dp3249
g61
I3
ssg62
g3243
sg55
(lp3250
g1717
asbasbasbag48
(g64
g50
NtRp3251
(dp3252
g53
(dp3253
sg62
g2614
sg55
(lp3254
g48
(g69
g50
NtRp3255
(dp3256
g53
(dp3257
g73
g74
ssg62
g3251
sg55
(lp3258
S'wsgi.run_once'
p3259
asbag48
(g69
g50
NtRp3260
(dp3261
g53
(dp3262
g80
g81
ssg62
g3251
sg55
(lp3263
S':'
asbag48
(g69
g50
NtRp3264
(dp3265
g53
(dp3266
sg62
g3251
sg55
(lp3267
g48
(g49
g50
NtRp3268
(dp3269
g53
(dp3270
g61
I3
ssg62
g3264
sg55
(lp3271
g91
asbasbasbag48
(g64
g50
NtRp3272
(dp3273
g53
(dp3274
sg62
g2614
sg55
(lp3275
g48
(g69
g50
NtRp3276
(dp3277
g53
(dp3278
g73
g74
ssg62
g3272
sg55
(lp3279
S'wsgi.url_scheme'
p3280
asbag48
(g69
g50
NtRp3281
(dp3282
g53
(dp3283
g80
g81
ssg62
g3272
sg55
(lp3284
S':'
asbag48
(g69
g50
NtRp3285
(dp3286
g53
(dp3287
sg62
g3272
sg55
(lp3288
g48
(g49
g50
NtRp3289
(dp3290
g53
(dp3291
g61
I3
ssg62
g3285
sg55
(lp3292
g1760
asbasbasbag48
(g64
g50
NtRp3293
(dp3294
g53
(dp3295
sg62
g2614
sg55
(lp3296
g48
(g69
g50
NtRp3297
(dp3298
g53
(dp3299
g73
g74
ssg62
g3293
sg55
(lp3300
S'wsgi.version'
p3301
asbag48
(g69
g50
NtRp3302
(dp3303
g53
(dp3304
g80
g81
ssg62
g3293
sg55
(lp3305
S':'
asbag48
(g69
g50
NtRp3306
(dp3307
g53
(dp3308
sg62
g3293
sg55
(lp3309
g48
(g49
g50
NtRp3310
(dp3311
g53
(dp3312
g61
I3
ssg62
g3306
sg55
(lp3313
S'1'
asbasbasbasbasbasbasbasbasbasbasbasbasbsS'frames'
p3314
(lp3315
(dp3316
S'file'
p3317
S'C:\\Python32\\web2py_win\\web2py\\gluon\\restricted.py'
p3318
sS'dump'
p3319
(dp3320
sS'lnum'
p3321
I194
sS'lines'
p3322
(dp3323
sS'call'
p3324
S"(code='# -*- coding: utf-8 -*-\\n### required - do no del...._vars=response._caller(crearEventoParticipante)\\n', environment={'A': <class 'gluon.html.A'>, 'Auth': <class 'gluon.tools.Auth'>, 'B': <class 'gluon.html.B'>, 'BEAUTIFY': <class 'gluon.html.BEAUTIFY'>, 'BODY': <class 'gluon.html.BODY'>, 'BR': <class 'gluon.html.BR'>, 'BUTTON': <class 'gluon.html.BUTTON'>, 'CAT': <class 'gluon.html.CAT'>, 'CENTER': <class 'gluon.html.CENTER'>, 'CLEANUP': <class 'gluon.validators.CLEANUP'>, ...}, layer=r'C:\\Python32\\web2py_win\\web2py\\applications\\Casa_de_Apuestas\\controllers/default.py')"
p3325
sS'func'
p3326
S'restricted'
p3327
sa(dp3328
g3317
S'C:\\Python32\\web2py_win\\web2py\\applications\\Casa_de_Apuestas\\controllers\\default.py'
p3329
sg3319
(dp3330
sg3321
I195
sg3322
(dp3331
I192
S'def indexPublico():'
p3332
sI193
S'    return dict()'
p3333
sI184
S'    return dict(eventos=eventos)'
p3334
sI185
S''
sI186
S'def verProximosEventos2():'
p3335
sI187
S'    evento_participante= db((db.eventosparticipantes.eventos_id==request.args(0))& (db.participantes.id==db.eventosparticipantes.participantes_id)).select()'
p3336
sI188
S'    evento = db(db.eventos.id==request.args(0)).select()'
p3337
sI189
S'    categoria = db((db.categorias.id==db.eventos.categoria_id)& (db.eventos.id==request.args(0))).select()'
p3338
sI190
S'    return dict(evento_participante=evento_participante,evento=evento,categoria=categoria)'
p3339
sI191
S''
ssg3324
S'()'
p3340
sg3326
S'<module>'
p3341
sa(dp3342
g3317
S'C:\\Python32\\web2py_win\\web2py\\gluon\\globals.py'
p3343
sg3319
(dp3344
sg3321
I149
sg3322
(dp3345
sg3324
S'(f=<function crearEventoParticipante at 0x05DD54F0>)'
p3346
sg3326
S'<lambda>'
p3347
sa(dp3348
g3317
S'C:\\Python32\\web2py_win\\web2py\\applications\\Casa_de_Apuestas\\controllers\\default.py'
p3349
sg3319
(dp3350
sg3321
I77
sg3322
(dp3351
I72
S'        #if form.accepts(request.vars, formname=None):'
p3352
sI73
S'        if form.process().accepted:'
p3353
sI74
S'            db.commit()'
p3354
sI75
S'            from log import *'
p3355
sI76
S'            log = log()'
p3356
sI77
S'            log.logear("EventoParticipante creado: "+form.vars.nombre)'
p3357
sI78
S'        return response.render(dict(form=form,eventosparticipantes=eventosparticipantes))'
p3358
sI79
S''
sI80
S'def crearUsuario():'
p3359
sI81
S'        usuarios = db().select(db.auth_user.ALL)'
p3360
ssg3324
S'()'
p3361
sg3326
S'crearEventoParticipante'
p3362
sasS'pyver'
p3363
S'Python 2.5.4: C:\\Python32\\web2py_win\\web2py\\web2py.exe'
p3364
sS'session'
p3365
g48
(g49
g50
NtRp3366
(dp3367
g53
(dp3368
sg55
(lp3369
g48
(g57
g50
NtRp3370
(dp3371
g53
(dp3372
g61
I5
ssg62
Nsg55
(lp3373
g48
(g64
g50
NtRp3374
(dp3375
g53
(dp3376
sg62
g3370
sg55
(lp3377
g48
(g69
g50
NtRp3378
(dp3379
g53
(dp3380
g73
g74
ssg62
g3374
sg55
(lp3381
S'auth'
p3382
asbag48
(g69
g50
NtRp3383
(dp3384
g53
(dp3385
g80
g81
ssg62
g3374
sg55
(lp3386
S':'
asbag48
(g69
g50
NtRp3387
(dp3388
g53
(dp3389
sg62
g3374
sg55
(lp3390
g48
(g49
g50
NtRp3391
(dp3392
g53
(dp3393
g61
I5
ssg62
g3387
sg55
(lp3394
g48
(g57
g50
NtRp3395
(dp3396
g53
(dp3397
g61
I4
ssg62
Nsg55
(lp3398
g48
(g64
g50
NtRp3399
(dp3400
g53
(dp3401
sg62
g3395
sg55
(lp3402
g48
(g69
g50
NtRp3403
(dp3404
g53
(dp3405
g73
g74
ssg62
g3399
sg55
(lp3406
S'expiration'
p3407
asbag48
(g69
g50
NtRp3408
(dp3409
g53
(dp3410
g80
g81
ssg62
g3399
sg55
(lp3411
S':'
asbag48
(g69
g50
NtRp3412
(dp3413
g53
(dp3414
sg62
g3399
sg55
(lp3415
g48
(g49
g50
NtRp3416
(dp3417
g53
(dp3418
g61
I4
ssg62
g3412
sg55
(lp3419
S'2592000'
p3420
asbasbasbag48
(g64
g50
NtRp3421
(dp3422
g53
(dp3423
sg62
g3395
sg55
(lp3424
g48
(g69
g50
NtRp3425
(dp3426
g53
(dp3427
g73
g74
ssg62
g3421
sg55
(lp3428
S'hmac_key'
p3429
asbag48
(g69
g50
NtRp3430
(dp3431
g53
(dp3432
g80
g81
ssg62
g3421
sg55
(lp3433
S':'
asbag48
(g69
g50
NtRp3434
(dp3435
g53
(dp3436
sg62
g3421
sg55
(lp3437
g48
(g49
g50
NtRp3438
(dp3439
g53
(dp3440
g61
I4
ssg62
g3434
sg55
(lp3441
S'71cc90be-a050-496c-8537-699e80789094'
p3442
asbasbasbag48
(g64
g50
NtRp3443
(dp3444
g53
(dp3445
sg62
g3395
sg55
(lp3446
g48
(g69
g50
NtRp3447
(dp3448
g53
(dp3449
g73
g74
ssg62
g3443
sg55
(lp3450
S'last_visit'
p3451
asbag48
(g69
g50
NtRp3452
(dp3453
g53
(dp3454
g80
g81
ssg62
g3443
sg55
(lp3455
S':'
asbag48
(g69
g50
NtRp3456
(dp3457
g53
(dp3458
sg62
g3443
sg55
(lp3459
g48
(g49
g50
NtRp3460
(dp3461
g53
(dp3462
g61
I4
ssg62
g3456
sg55
(lp3463
S'datetime.datetime(2011, 12, 2, 3, 12, 32, 418000)'
p3464
asbasbasbag48
(g64
g50
NtRp3465
(dp3466
g53
(dp3467
sg62
g3395
sg55
(lp3468
g48
(g69
g50
NtRp3469
(dp3470
g53
(dp3471
g73
g74
ssg62
g3465
sg55
(lp3472
S'remember'
p3473
asbag48
(g69
g50
NtRp3474
(dp3475
g53
(dp3476
g80
g81
ssg62
g3465
sg55
(lp3477
S':'
asbag48
(g69
g50
NtRp3478
(dp3479
g53
(dp3480
sg62
g3465
sg55
(lp3481
g48
(g49
g50
NtRp3482
(dp3483
g53
(dp3484
g61
I4
ssg62
g3478
sg55
(lp3485
g91
asbasbasbag48
(g64
g50
NtRp3486
(dp3487
g53
(dp3488
sg62
g3395
sg55
(lp3489
g48
(g69
g50
NtRp3490
(dp3491
g53
(dp3492
g73
g74
ssg62
g3486
sg55
(lp3493
S'user'
p3494
asbag48
(g69
g50
NtRp3495
(dp3496
g53
(dp3497
g80
g81
ssg62
g3486
sg55
(lp3498
S':'
asbag48
(g69
g50
NtRp3499
(dp3500
g53
(dp3501
sg62
g3486
sg55
(lp3502
g48
(g49
g50
NtRp3503
(dp3504
g53
(dp3505
g61
I4
ssg62
g3499
sg55
(lp3506
g48
(g57
g50
NtRp3507
(dp3508
g53
(dp3509
g61
I3
ssg62
Nsg55
(lp3510
g48
(g64
g50
NtRp3511
(dp3512
g53
(dp3513
sg62
g3507
sg55
(lp3514
g48
(g69
g50
NtRp3515
(dp3516
g53
(dp3517
g73
g74
ssg62
g3511
sg55
(lp3518
S'apellido'
p3519
asbag48
(g69
g50
NtRp3520
(dp3521
g53
(dp3522
g80
g81
ssg62
g3511
sg55
(lp3523
S':'
asbag48
(g69
g50
NtRp3524
(dp3525
g53
(dp3526
sg62
g3511
sg55
(lp3527
g48
(g49
g50
NtRp3528
(dp3529
g53
(dp3530
g61
I3
ssg62
g3524
sg55
(lp3531
S'AdminPrueba'
p3532
asbasbasbag48
(g64
g50
NtRp3533
(dp3534
g53
(dp3535
sg62
g3507
sg55
(lp3536
g48
(g69
g50
NtRp3537
(dp3538
g53
(dp3539
g73
g74
ssg62
g3533
sg55
(lp3540
S'created_on'
p3541
asbag48
(g69
g50
NtRp3542
(dp3543
g53
(dp3544
g80
g81
ssg62
g3533
sg55
(lp3545
S':'
asbag48
(g69
g50
NtRp3546
(dp3547
g53
(dp3548
sg62
g3533
sg55
(lp3549
g48
(g49
g50
NtRp3550
(dp3551
g53
(dp3552
g61
I3
ssg62
g3546
sg55
(lp3553
S'datetime.datetime(2011, 12, 1, 15, 56, 58)'
p3554
asbasbasbag48
(g64
g50
NtRp3555
(dp3556
g53
(dp3557
sg62
g3507
sg55
(lp3558
g48
(g69
g50
NtRp3559
(dp3560
g53
(dp3561
g73
g74
ssg62
g3555
sg55
(lp3562
S'email'
p3563
asbag48
(g69
g50
NtRp3564
(dp3565
g53
(dp3566
g80
g81
ssg62
g3555
sg55
(lp3567
S':'
asbag48
(g69
g50
NtRp3568
(dp3569
g53
(dp3570
sg62
g3555
sg55
(lp3571
g48
(g49
g50
NtRp3572
(dp3573
g53
(dp3574
g61
I3
ssg62
g3568
sg55
(lp3575
S'admin@ucab.edu.ve'
p3576
asbasbasbag48
(g64
g50
NtRp3577
(dp3578
g53
(dp3579
sg62
g3507
sg55
(lp3580
g48
(g69
g50
NtRp3581
(dp3582
g53
(dp3583
g73
g74
ssg62
g3577
sg55
(lp3584
S'id'
p3585
asbag48
(g69
g50
NtRp3586
(dp3587
g53
(dp3588
g80
g81
ssg62
g3577
sg55
(lp3589
S':'
asbag48
(g69
g50
NtRp3590
(dp3591
g53
(dp3592
sg62
g3577
sg55
(lp3593
g48
(g49
g50
NtRp3594
(dp3595
g53
(dp3596
g61
I3
ssg62
g3590
sg55
(lp3597
S'14'
p3598
asbasbasbag48
(g64
g50
NtRp3599
(dp3600
g53
(dp3601
sg62
g3507
sg55
(lp3602
g48
(g69
g50
NtRp3603
(dp3604
g53
(dp3605
g73
g74
ssg62
g3599
sg55
(lp3606
S'modified_on'
p3607
asbag48
(g69
g50
NtRp3608
(dp3609
g53
(dp3610
g80
g81
ssg62
g3599
sg55
(lp3611
S':'
asbag48
(g69
g50
NtRp3612
(dp3613
g53
(dp3614
sg62
g3599
sg55
(lp3615
g48
(g49
g50
NtRp3616
(dp3617
g53
(dp3618
g61
I3
ssg62
g3612
sg55
(lp3619
S'datetime.datetime(2011, 12, 1, 15, 56, 58)'
p3620
asbasbasbag48
(g64
g50
NtRp3621
(dp3622
g53
(dp3623
sg62
g3507
sg55
(lp3624
g48
(g69
g50
NtRp3625
(dp3626
g53
(dp3627
g73
g74
ssg62
g3621
sg55
(lp3628
S'nick'
p3629
asbag48
(g69
g50
NtRp3630
(dp3631
g53
(dp3632
g80
g81
ssg62
g3621
sg55
(lp3633
S':'
asbag48
(g69
g50
NtRp3634
(dp3635
g53
(dp3636
sg62
g3621
sg55
(lp3637
g48
(g49
g50
NtRp3638
(dp3639
g53
(dp3640
g61
I3
ssg62
g3634
sg55
(lp3641
S'Admin2'
p3642
asbasbasbag48
(g64
g50
NtRp3643
(dp3644
g53
(dp3645
sg62
g3507
sg55
(lp3646
g48
(g69
g50
NtRp3647
(dp3648
g53
(dp3649
g73
g74
ssg62
g3643
sg55
(lp3650
S'nombre'
p3651
asbag48
(g69
g50
NtRp3652
(dp3653
g53
(dp3654
g80
g81
ssg62
g3643
sg55
(lp3655
S':'
asbag48
(g69
g50
NtRp3656
(dp3657
g53
(dp3658
sg62
g3643
sg55
(lp3659
g48
(g49
g50
NtRp3660
(dp3661
g53
(dp3662
g61
I3
ssg62
g3656
sg55
(lp3663
S'AdminPrueba'
p3664
asbasbasbag48
(g64
g50
NtRp3665
(dp3666
g53
(dp3667
sg62
g3507
sg55
(lp3668
g48
(g69
g50
NtRp3669
(dp3670
g53
(dp3671
g73
g74
ssg62
g3665
sg55
(lp3672
S'password'
p3673
asbag48
(g69
g50
NtRp3674
(dp3675
g53
(dp3676
g80
g81
ssg62
g3665
sg55
(lp3677
S':'
asbag48
(g69
g50
NtRp3678
(dp3679
g53
(dp3680
sg62
g3665
sg55
(lp3681
g48
(g49
g50
NtRp3682
(dp3683
g53
(dp3684
g61
I3
ssg62
g3678
sg55
(lp3685
S'd9112a75303bdd71a94bf896ec050b70'
p3686
asbasbasbag48
(g64
g50
NtRp3687
(dp3688
g53
(dp3689
sg62
g3507
sg55
(lp3690
g48
(g69
g50
NtRp3691
(dp3692
g53
(dp3693
g73
g74
ssg62
g3687
sg55
(lp3694
S'registration_id'
p3695
asbag48
(g69
g50
NtRp3696
(dp3697
g53
(dp3698
g80
g81
ssg62
g3687
sg55
(lp3699
S':'
asbag48
(g69
g50
NtRp3700
(dp3701
g53
(dp3702
sg62
g3687
sg55
(lp3703
g48
(g49
g50
NtRp3704
(dp3705
g53
(dp3706
g61
I3
ssg62
g3700
sg55
(lp3707
S'222'
p3708
asbasbasbag48
(g64
g50
NtRp3709
(dp3710
g53
(dp3711
sg62
g3507
sg55
(lp3712
g48
(g69
g50
NtRp3713
(dp3714
g53
(dp3715
g73
g74
ssg62
g3709
sg55
(lp3716
S'registration_key'
p3717
asbag48
(g69
g50
NtRp3718
(dp3719
g53
(dp3720
g80
g81
ssg62
g3709
sg55
(lp3721
S':'
asbag48
(g69
g50
NtRp3722
(dp3723
g53
(dp3724
sg62
g3709
sg55
(lp3725
g48
(g49
g50
NtRp3726
(dp3727
g53
(dp3728
g61
I3
ssg62
g3722
sg55
(lp3729
S''
asbasbasbag48
(g64
g50
NtRp3730
(dp3731
g53
(dp3732
sg62
g3507
sg55
(lp3733
g48
(g69
g50
NtRp3734
(dp3735
g53
(dp3736
g73
g74
ssg62
g3730
sg55
(lp3737
S'reset_password_key'
p3738
asbag48
(g69
g50
NtRp3739
(dp3740
g53
(dp3741
g80
g81
ssg62
g3730
sg55
(lp3742
S':'
asbag48
(g69
g50
NtRp3743
(dp3744
g53
(dp3745
sg62
g3730
sg55
(lp3746
g48
(g49
g50
NtRp3747
(dp3748
g53
(dp3749
g61
I3
ssg62
g3743
sg55
(lp3750
S''
asbasbasbasbasbasbasbasbasbasbasbasbasbsS'etype'
p3751
S"<type 'exceptions.TypeError'>"
p3752
sS'date'
p3753
S'Fri Dec 02 04:08:12 2011'
p3754
sS'response'
p3755
g48
(g49
g50
NtRp3756
(dp3757
g53
(dp3758
sg55
(lp3759
g48
(g57
g50
NtRp3760
(dp3761
g53
(dp3762
g61
I5
ssg62
Nsg55
(lp3763
g48
(g64
g50
NtRp3764
(dp3765
g53
(dp3766
sg62
g3760
sg55
(lp3767
g48
(g69
g50
NtRp3768
(dp3769
g53
(dp3770
g73
g74
ssg62
g3764
sg55
(lp3771
g146
asbag48
(g69
g50
NtRp3772
(dp3773
g53
(dp3774
g80
g81
ssg62
g3764
sg55
(lp3775
S':'
asbag48
(g69
g50
NtRp3776
(dp3777
g53
(dp3778
sg62
g3764
sg55
(lp3779
g48
(g49
g50
NtRp3780
(dp3781
g53
(dp3782
g61
I5
ssg62
g3776
sg55
(lp3783
S'<cStringIO.StringO object at 0x072FEEC0>'
p3784
asbasbasbag48
(g64
g50
NtRp3785
(dp3786
g53
(dp3787
sg62
g3760
sg55
(lp3788
g48
(g69
g50
NtRp3789
(dp3790
g53
(dp3791
g73
g74
ssg62
g3785
sg55
(lp3792
g212
asbag48
(g69
g50
NtRp3793
(dp3794
g53
(dp3795
g80
g81
ssg62
g3785
sg55
(lp3796
S':'
asbag48
(g69
g50
NtRp3797
(dp3798
g53
(dp3799
sg62
g3785
sg55
(lp3800
g48
(g49
g50
NtRp3801
(dp3802
g53
(dp3803
g61
I5
ssg62
g3797
sg55
(lp3804
g48
(g57
g50
NtRp3805
(dp3806
g53
(dp3807
g61
I4
ssg62
Nsg55
(lp3808
g48
(g64
g50
NtRp3809
(dp3810
g53
(dp3811
sg62
g3805
sg55
(lp3812
g48
(g69
g50
NtRp3813
(dp3814
g53
(dp3815
g73
g74
ssg62
g3809
sg55
(lp3816
S'session_id_casa_de_apuestas'
p3817
asbag48
(g69
g50
NtRp3818
(dp3819
g53
(dp3820
g80
g81
ssg62
g3809
sg55
(lp3821
S':'
asbag48
(g69
g50
NtRp3822
(dp3823
g53
(dp3824
sg62
g3809
sg55
(lp3825
g48
(g49
g50
NtRp3826
(dp3827
g53
(dp3828
g61
I4
ssg62
g3822
sg55
(lp3829
g48
(g57
g50
NtRp3830
(dp3831
g53
(dp3832
g61
I3
ssg62
Nsg55
(lp3833
g48
(g64
g50
NtRp3834
(dp3835
g53
(dp3836
sg62
g3830
sg55
(lp3837
g48
(g69
g50
NtRp3838
(dp3839
g53
(dp3840
g73
g74
ssg62
g3834
sg55
(lp3841
g262
asbag48
(g69
g50
NtRp3842
(dp3843
g53
(dp3844
g80
g81
ssg62
g3834
sg55
(lp3845
S':'
asbag48
(g69
g50
NtRp3846
(dp3847
g53
(dp3848
sg62
g3834
sg55
(lp3849
g48
(g49
g50
NtRp3850
(dp3851
g53
(dp3852
g61
I3
ssg62
g3846
sg55
(lp3853
S''
asbasbasbag48
(g64
g50
NtRp3854
(dp3855
g53
(dp3856
sg62
g3830
sg55
(lp3857
g48
(g69
g50
NtRp3858
(dp3859
g53
(dp3860
g73
g74
ssg62
g3854
sg55
(lp3861
g283
asbag48
(g69
g50
NtRp3862
(dp3863
g53
(dp3864
g80
g81
ssg62
g3854
sg55
(lp3865
S':'
asbag48
(g69
g50
NtRp3866
(dp3867
g53
(dp3868
sg62
g3854
sg55
(lp3869
g48
(g49
g50
NtRp3870
(dp3871
g53
(dp3872
g61
I3
ssg62
g3866
sg55
(lp3873
S''
asbasbasbag48
(g64
g50
NtRp3874
(dp3875
g53
(dp3876
sg62
g3830
sg55
(lp3877
g48
(g69
g50
NtRp3878
(dp3879
g53
(dp3880
g73
g74
ssg62
g3874
sg55
(lp3881
g304
asbag48
(g69
g50
NtRp3882
(dp3883
g53
(dp3884
g80
g81
ssg62
g3874
sg55
(lp3885
S':'
asbag48
(g69
g50
NtRp3886
(dp3887
g53
(dp3888
sg62
g3874
sg55
(lp3889
g48
(g49
g50
NtRp3890
(dp3891
g53
(dp3892
g61
I3
ssg62
g3886
sg55
(lp3893
S''
asbasbasbag48
(g64
g50
NtRp3894
(dp3895
g53
(dp3896
sg62
g3830
sg55
(lp3897
g48
(g69
g50
NtRp3898
(dp3899
g53
(dp3900
g73
g74
ssg62
g3894
sg55
(lp3901
g325
asbag48
(g69
g50
NtRp3902
(dp3903
g53
(dp3904
g80
g81
ssg62
g3894
sg55
(lp3905
S':'
asbag48
(g69
g50
NtRp3906
(dp3907
g53
(dp3908
sg62
g3894
sg55
(lp3909
g48
(g49
g50
NtRp3910
(dp3911
g53
(dp3912
g61
I3
ssg62
g3906
sg55
(lp3913
S''
asbasbasbag48
(g64
g50
NtRp3914
(dp3915
g53
(dp3916
sg62
g3830
sg55
(lp3917
g48
(g69
g50
NtRp3918
(dp3919
g53
(dp3920
g73
g74
ssg62
g3914
sg55
(lp3921
g346
asbag48
(g69
g50
NtRp3922
(dp3923
g53
(dp3924
g80
g81
ssg62
g3914
sg55
(lp3925
S':'
asbag48
(g69
g50
NtRp3926
(dp3927
g53
(dp3928
sg62
g3914
sg55
(lp3929
g48
(g49
g50
NtRp3930
(dp3931
g53
(dp3932
g61
I3
ssg62
g3926
sg55
(lp3933
S'/'
asbasbasbag48
(g64
g50
NtRp3934
(dp3935
g53
(dp3936
sg62
g3830
sg55
(lp3937
g48
(g69
g50
NtRp3938
(dp3939
g53
(dp3940
g73
g74
ssg62
g3934
sg55
(lp3941
g367
asbag48
(g69
g50
NtRp3942
(dp3943
g53
(dp3944
g80
g81
ssg62
g3934
sg55
(lp3945
S':'
asbag48
(g69
g50
NtRp3946
(dp3947
g53
(dp3948
sg62
g3934
sg55
(lp3949
g48
(g49
g50
NtRp3950
(dp3951
g53
(dp3952
g61
I3
ssg62
g3946
sg55
(lp3953
S''
asbasbasbag48
(g64
g50
NtRp3954
(dp3955
g53
(dp3956
sg62
g3830
sg55
(lp3957
g48
(g69
g50
NtRp3958
(dp3959
g53
(dp3960
g73
g74
ssg62
g3954
sg55
(lp3961
g388
asbag48
(g69
g50
NtRp3962
(dp3963
g53
(dp3964
g80
g81
ssg62
g3954
sg55
(lp3965
S':'
asbag48
(g69
g50
NtRp3966
(dp3967
g53
(dp3968
sg62
g3954
sg55
(lp3969
g48
(g49
g50
NtRp3970
(dp3971
g53
(dp3972
g61
I3
ssg62
g3966
sg55
(lp3973
S''
asbasbasbasbasbasbasbasbasbasbasbag48
(g64
g50
NtRp3974
(dp3975
g53
(dp3976
sg62
g3760
sg55
(lp3977
g48
(g69
g50
NtRp3978
(dp3979
g53
(dp3980
g73
g74
ssg62
g3974
sg55
(lp3981
S'files'
p3982
asbag48
(g69
g50
NtRp3983
(dp3984
g53
(dp3985
g80
g81
ssg62
g3974
sg55
(lp3986
S':'
asbag48
(g69
g50
NtRp3987
(dp3988
g53
(dp3989
sg62
g3974
sg55
(lp3990
g48
(g49
g50
NtRp3991
(dp3992
g53
(dp3993
g61
I5
ssg62
g3987
sg55
(lp3994
g48
(g57
g50
NtRp3995
(dp3996
g53
(dp3997
g61
I4
ssg62
Nsg55
(lp3998
sbasbasbasbag48
(g64
g50
NtRp3999
(dp4000
g53
(dp4001
sg62
g3760
sg55
(lp4002
g48
(g69
g50
NtRp4003
(dp4004
g53
(dp4005
g73
g74
ssg62
g3999
sg55
(lp4006
S'flash'
p4007
asbag48
(g69
g50
NtRp4008
(dp4009
g53
(dp4010
g80
g81
ssg62
g3999
sg55
(lp4011
S':'
asbag48
(g69
g50
NtRp4012
(dp4013
g53
(dp4014
sg62
g3999
sg55
(lp4015
g48
(g49
g50
NtRp4016
(dp4017
g53
(dp4018
g61
I5
ssg62
g4012
sg55
(lp4019
cgluon.languages
lazyT_unpickle
p4020
(S's\x08\x00\x00\x00Success!'
tRp4021
asbasbasbag48
(g64
g50
NtRp4022
(dp4023
g53
(dp4024
sg62
g3760
sg55
(lp4025
g48
(g69
g50
NtRp4026
(dp4027
g53
(dp4028
g73
g74
ssg62
g4022
sg55
(lp4029
S'generic_patterns'
p4030
asbag48
(g69
g50
NtRp4031
(dp4032
g53
(dp4033
g80
g81
ssg62
g4022
sg55
(lp4034
S':'
asbag48
(g69
g50
NtRp4035
(dp4036
g53
(dp4037
sg62
g4022
sg55
(lp4038
g48
(g49
g50
NtRp4039
(dp4040
g53
(dp4041
g61
I5
ssg62
g4035
sg55
(lp4042
g48
(g57
g50
NtRp4043
(dp4044
g53
(dp4045
g61
I4
ssg62
Nsg55
(lp4046
g48
(g64
g50
NtRp4047
(dp4048
g53
(dp4049
sg62
g4043
sg55
(lp4050
g48
(g69
g50
NtRp4051
(dp4052
g53
(dp4053
sg62
g4047
sg55
(lp4054
g48
(g49
g50
NtRp4055
(dp4056
g53
(dp4057
g61
I4
ssg62
g4051
sg55
(lp4058
S'*'
asbasbasbasbasbasbasbag48
(g64
g50
NtRp4059
(dp4060
g53
(dp4061
sg62
g3760
sg55
(lp4062
g48
(g69
g50
NtRp4063
(dp4064
g53
(dp4065
g73
g74
ssg62
g4059
sg55
(lp4066
S'headers'
p4067
asbag48
(g69
g50
NtRp4068
(dp4069
g53
(dp4070
g80
g81
ssg62
g4059
sg55
(lp4071
S':'
asbag48
(g69
g50
NtRp4072
(dp4073
g53
(dp4074
sg62
g4059
sg55
(lp4075
g48
(g49
g50
NtRp4076
(dp4077
g53
(dp4078
g61
I5
ssg62
g4072
sg55
(lp4079
g48
(g57
g50
NtRp4080
(dp4081
g53
(dp4082
g61
I4
ssg62
Nsg55
(lp4083
g48
(g64
g50
NtRp4084
(dp4085
g53
(dp4086
sg62
g4080
sg55
(lp4087
g48
(g69
g50
NtRp4088
(dp4089
g53
(dp4090
g73
g74
ssg62
g4084
sg55
(lp4091
S'Cache-Control'
p4092
asbag48
(g69
g50
NtRp4093
(dp4094
g53
(dp4095
g80
g81
ssg62
g4084
sg55
(lp4096
S':'
asbag48
(g69
g50
NtRp4097
(dp4098
g53
(dp4099
sg62
g4084
sg55
(lp4100
g48
(g49
g50
NtRp4101
(dp4102
g53
(dp4103
g61
I4
ssg62
g4097
sg55
(lp4104
S'no-store, no-cache, must-revalidate, post-check=0, pre-check=0'
p4105
asbasbasbag48
(g64
g50
NtRp4106
(dp4107
g53
(dp4108
sg62
g4080
sg55
(lp4109
g48
(g69
g50
NtRp4110
(dp4111
g53
(dp4112
g73
g74
ssg62
g4106
sg55
(lp4113
S'Content-Type'
p4114
asbag48
(g69
g50
NtRp4115
(dp4116
g53
(dp4117
g80
g81
ssg62
g4106
sg55
(lp4118
S':'
asbag48
(g69
g50
NtRp4119
(dp4120
g53
(dp4121
sg62
g4106
sg55
(lp4122
g48
(g49
g50
NtRp4123
(dp4124
g53
(dp4125
g61
I4
ssg62
g4119
sg55
(lp4126
S'text/html; charset=utf-8'
p4127
asbasbasbag48
(g64
g50
NtRp4128
(dp4129
g53
(dp4130
sg62
g4080
sg55
(lp4131
g48
(g69
g50
NtRp4132
(dp4133
g53
(dp4134
g73
g74
ssg62
g4128
sg55
(lp4135
S'Expires'
p4136
asbag48
(g69
g50
NtRp4137
(dp4138
g53
(dp4139
g80
g81
ssg62
g4128
sg55
(lp4140
S':'
asbag48
(g69
g50
NtRp4141
(dp4142
g53
(dp4143
sg62
g4128
sg55
(lp4144
g48
(g49
g50
NtRp4145
(dp4146
g53
(dp4147
g61
I4
ssg62
g4141
sg55
(lp4148
S'Fri, 02 Dec 2011 08:38:12 GMT'
p4149
asbasbasbag48
(g64
g50
NtRp4150
(dp4151
g53
(dp4152
sg62
g4080
sg55
(lp4153
g48
(g69
g50
NtRp4154
(dp4155
g53
(dp4156
g73
g74
ssg62
g4150
sg55
(lp4157
S'Pragma'
p4158
asbag48
(g69
g50
NtRp4159
(dp4160
g53
(dp4161
g80
g81
ssg62
g4150
sg55
(lp4162
S':'
asbag48
(g69
g50
NtRp4163
(dp4164
g53
(dp4165
sg62
g4150
sg55
(lp4166
g48
(g49
g50
NtRp4167
(dp4168
g53
(dp4169
g61
I4
ssg62
g4163
sg55
(lp4170
S'no-cache'
p4171
asbasbasbag48
(g64
g50
NtRp4172
(dp4173
g53
(dp4174
sg62
g4080
sg55
(lp4175
g48
(g69
g50
NtRp4176
(dp4177
g53
(dp4178
g73
g74
ssg62
g4172
sg55
(lp4179
S'X-Powered-By'
p4180
asbag48
(g69
g50
NtRp4181
(dp4182
g53
(dp4183
g80
g81
ssg62
g4172
sg55
(lp4184
S':'
asbag48
(g69
g50
NtRp4185
(dp4186
g53
(dp4187
sg62
g4172
sg55
(lp4188
g48
(g49
g50
NtRp4189
(dp4190
g53
(dp4191
g61
I4
ssg62
g4185
sg55
(lp4192
S'web2py'
p4193
asbasbasbasbasbasbasbag48
(g64
g50
NtRp4194
(dp4195
g53
(dp4196
sg62
g3760
sg55
(lp4197
g48
(g69
g50
NtRp4198
(dp4199
g53
(dp4200
g73
g74
ssg62
g4194
sg55
(lp4201
S'menu'
p4202
asbag48
(g69
g50
NtRp4203
(dp4204
g53
(dp4205
g80
g81
ssg62
g4194
sg55
(lp4206
S':'
asbag48
(g69
g50
NtRp4207
(dp4208
g53
(dp4209
sg62
g4194
sg55
(lp4210
g48
(g49
g50
NtRp4211
(dp4212
g53
(dp4213
g61
I5
ssg62
g4207
sg55
(lp4214
g48
(g57
g50
NtRp4215
(dp4216
g53
(dp4217
g61
I4
ssg62
Nsg55
(lp4218
g48
(g64
g50
NtRp4219
(dp4220
g53
(dp4221
sg62
g4215
sg55
(lp4222
g48
(g69
g50
NtRp4223
(dp4224
g53
(dp4225
sg62
g4219
sg55
(lp4226
g48
(g49
g50
NtRp4227
(dp4228
g53
(dp4229
g61
I4
ssg62
g4223
sg55
(lp4230
g48
(g57
g50
NtRp4231
(dp4232
g53
(dp4233
g61
I3
ssg62
Nsg55
(lp4234
g48
(g64
g50
NtRp4235
(dp4236
g53
(dp4237
sg62
g4231
sg55
(lp4238
g48
(g69
g50
NtRp4239
(dp4240
g53
(dp4241
sg62
g4235
sg55
(lp4242
g48
(g49
g50
NtRp4243
(dp4244
g53
(dp4245
g61
I3
ssg62
g4239
sg55
(lp4246
g4020
(S's\x05\x00\x00\x00Index'
tRp4247
asbasbasbag48
(g64
g50
NtRp4248
(dp4249
g53
(dp4250
sg62
g4231
sg55
(lp4251
g48
(g69
g50
NtRp4252
(dp4253
g53
(dp4254
sg62
g4248
sg55
(lp4255
g48
(g49
g50
NtRp4256
(dp4257
g53
(dp4258
g61
I3
ssg62
g4252
sg55
(lp4259
g91
asbasbasbag48
(g64
g50
NtRp4260
(dp4261
g53
(dp4262
sg62
g4231
sg55
(lp4263
g48
(g69
g50
NtRp4264
(dp4265
g53
(dp4266
sg62
g4260
sg55
(lp4267
g48
(g49
g50
NtRp4268
(dp4269
g53
(dp4270
g61
I3
ssg62
g4264
sg55
(lp4271
S'/Casa_de_Apuestas/default/index'
p4272
asbasbasbag48
(g64
g50
NtRp4273
(dp4274
g53
(dp4275
sg62
g4231
sg55
(lp4276
g48
(g69
g50
NtRp4277
(dp4278
g53
(dp4279
sg62
g4273
sg55
(lp4280
g48
(g49
g50
NtRp4281
(dp4282
g53
(dp4283
g61
I3
ssg62
g4277
sg55
(lp4284
g48
(g57
g50
NtRp4285
(dp4286
g53
(dp4287
g61
I2
ssg62
Nsg55
(lp4288
sbasbasbasbasbasbasbasbasbasbasbasbag48
(g64
g50
NtRp4289
(dp4290
g53
(dp4291
sg62
g3760
sg55
(lp4292
g48
(g69
g50
NtRp4293
(dp4294
g53
(dp4295
g73
g74
ssg62
g4289
sg55
(lp4296
S'meta'
p4297
asbag48
(g69
g50
NtRp4298
(dp4299
g53
(dp4300
g80
g81
ssg62
g4289
sg55
(lp4301
S':'
asbag48
(g69
g50
NtRp4302
(dp4303
g53
(dp4304
sg62
g4289
sg55
(lp4305
g48
(g49
g50
NtRp4306
(dp4307
g53
(dp4308
g61
I5
ssg62
g4302
sg55
(lp4309
g48
(g57
g50
NtRp4310
(dp4311
g53
(dp4312
g61
I4
ssg62
Nsg55
(lp4313
g48
(g64
g50
NtRp4314
(dp4315
g53
(dp4316
sg62
g4310
sg55
(lp4317
g48
(g69
g50
NtRp4318
(dp4319
g53
(dp4320
g73
g74
ssg62
g4314
sg55
(lp4321
S'author'
p4322
asbag48
(g69
g50
NtRp4323
(dp4324
g53
(dp4325
g80
g81
ssg62
g4314
sg55
(lp4326
S':'
asbag48
(g69
g50
NtRp4327
(dp4328
g53
(dp4329
sg62
g4314
sg55
(lp4330
g48
(g49
g50
NtRp4331
(dp4332
g53
(dp4333
g61
I4
ssg62
g4327
sg55
(lp4334
S'JSG Systems <jsg@example.com>'
p4335
asbasbasbag48
(g64
g50
NtRp4336
(dp4337
g53
(dp4338
sg62
g4310
sg55
(lp4339
g48
(g69
g50
NtRp4340
(dp4341
g53
(dp4342
g73
g74
ssg62
g4336
sg55
(lp4343
S'description'
p4344
asbag48
(g69
g50
NtRp4345
(dp4346
g53
(dp4347
g80
g81
ssg62
g4336
sg55
(lp4348
S':'
asbag48
(g69
g50
NtRp4349
(dp4350
g53
(dp4351
sg62
g4336
sg55
(lp4352
g48
(g49
g50
NtRp4353
(dp4354
g53
(dp4355
g61
I4
ssg62
g4349
sg55
(lp4356
S''
asbasbasbag48
(g64
g50
NtRp4357
(dp4358
g53
(dp4359
sg62
g4310
sg55
(lp4360
g48
(g69
g50
NtRp4361
(dp4362
g53
(dp4363
g73
g74
ssg62
g4357
sg55
(lp4364
S'keywords'
p4365
asbag48
(g69
g50
NtRp4366
(dp4367
g53
(dp4368
g80
g81
ssg62
g4357
sg55
(lp4369
S':'
asbag48
(g69
g50
NtRp4370
(dp4371
g53
(dp4372
sg62
g4357
sg55
(lp4373
g48
(g49
g50
NtRp4374
(dp4375
g53
(dp4376
g61
I4
ssg62
g4370
sg55
(lp4377
S'casa, apuestas'
p4378
asbasbasbasbasbasbasbag48
(g64
g50
NtRp4379
(dp4380
g53
(dp4381
sg62
g3760
sg55
(lp4382
g48
(g69
g50
NtRp4383
(dp4384
g53
(dp4385
g73
g74
ssg62
g4379
sg55
(lp4386
S'postprocessing'
p4387
asbag48
(g69
g50
NtRp4388
(dp4389
g53
(dp4390
g80
g81
ssg62
g4379
sg55
(lp4391
S':'
asbag48
(g69
g50
NtRp4392
(dp4393
g53
(dp4394
sg62
g4379
sg55
(lp4395
g48
(g49
g50
NtRp4396
(dp4397
g53
(dp4398
g61
I5
ssg62
g4392
sg55
(lp4399
g48
(g57
g50
NtRp4400
(dp4401
g53
(dp4402
g61
I4
ssg62
Nsg55
(lp4403
sbasbasbasbag48
(g64
g50
NtRp4404
(dp4405
g53
(dp4406
sg62
g3760
sg55
(lp4407
g48
(g69
g50
NtRp4408
(dp4409
g53
(dp4410
g73
g74
ssg62
g4404
sg55
(lp4411
S'session_file'
p4412
asbag48
(g69
g50
NtRp4413
(dp4414
g53
(dp4415
g80
g81
ssg62
g4404
sg55
(lp4416
S':'
asbag48
(g69
g50
NtRp4417
(dp4418
g53
(dp4419
sg62
g4404
sg55
(lp4420
g48
(g49
g50
NtRp4421
(dp4422
g53
(dp4423
g61
I5
ssg62
g4417
sg55
(lp4424
S"<open file 'C:\\Python32\\web2py_win\\web2py\\applications\\Casa_de_Apuestas\\sessions\\127.0.0.1-6f6a3265-23f6-4fca-8f6e-58838d5a1960', mode 'rb+' at 0x06002968>"
p4425
asbasbasbag48
(g64
g50
NtRp4426
(dp4427
g53
(dp4428
sg62
g3760
sg55
(lp4429
g48
(g69
g50
NtRp4430
(dp4431
g53
(dp4432
g73
g74
ssg62
g4426
sg55
(lp4433
S'session_filename'
p4434
asbag48
(g69
g50
NtRp4435
(dp4436
g53
(dp4437
g80
g81
ssg62
g4426
sg55
(lp4438
S':'
asbag48
(g69
g50
NtRp4439
(dp4440
g53
(dp4441
sg62
g4426
sg55
(lp4442
g48
(g49
g50
NtRp4443
(dp4444
g53
(dp4445
g61
I5
ssg62
g4439
sg55
(lp4446
S'C:\\Python32\\web2py_win\\web2py\\applications\\Casa_de_Apuestas\\sessions\\127.0.0.1-6f6a3265-23f6-4fca-8f6e-58838d5a1960'
p4447
asbasbasbag48
(g64
g50
NtRp4448
(dp4449
g53
(dp4450
sg62
g3760
sg55
(lp4451
g48
(g69
g50
NtRp4452
(dp4453
g53
(dp4454
g73
g74
ssg62
g4448
sg55
(lp4455
S'session_id'
p4456
asbag48
(g69
g50
NtRp4457
(dp4458
g53
(dp4459
g80
g81
ssg62
g4448
sg55
(lp4460
S':'
asbag48
(g69
g50
NtRp4461
(dp4462
g53
(dp4463
sg62
g4448
sg55
(lp4464
g48
(g49
g50
NtRp4465
(dp4466
g53
(dp4467
g61
I5
ssg62
g4461
sg55
(lp4468
S'127.0.0.1-6f6a3265-23f6-4fca-8f6e-58838d5a1960'
p4469
asbasbasbag48
(g64
g50
NtRp4470
(dp4471
g53
(dp4472
sg62
g3760
sg55
(lp4473
g48
(g69
g50
NtRp4474
(dp4475
g53
(dp4476
g73
g74
ssg62
g4470
sg55
(lp4477
S'session_id_name'
p4478
asbag48
(g69
g50
NtRp4479
(dp4480
g53
(dp4481
g80
g81
ssg62
g4470
sg55
(lp4482
S':'
asbag48
(g69
g50
NtRp4483
(dp4484
g53
(dp4485
sg62
g4470
sg55
(lp4486
g48
(g49
g50
NtRp4487
(dp4488
g53
(dp4489
g61
I5
ssg62
g4483
sg55
(lp4490
g3817
asbasbasbag48
(g64
g50
NtRp4491
(dp4492
g53
(dp4493
sg62
g3760
sg55
(lp4494
g48
(g69
g50
NtRp4495
(dp4496
g53
(dp4497
g73
g74
ssg62
g4491
sg55
(lp4498
S'session_locked'
p4499
asbag48
(g69
g50
NtRp4500
(dp4501
g53
(dp4502
g80
g81
ssg62
g4491
sg55
(lp4503
S':'
asbag48
(g69
g50
NtRp4504
(dp4505
g53
(dp4506
sg62
g4491
sg55
(lp4507
g48
(g49
g50
NtRp4508
(dp4509
g53
(dp4510
g61
I5
ssg62
g4504
sg55
(lp4511
g1717
asbasbasbag48
(g64
g50
NtRp4512
(dp4513
g53
(dp4514
sg62
g3760
sg55
(lp4515
g48
(g69
g50
NtRp4516
(dp4517
g53
(dp4518
g73
g74
ssg62
g4512
sg55
(lp4519
S'session_new'
p4520
asbag48
(g69
g50
NtRp4521
(dp4522
g53
(dp4523
g80
g81
ssg62
g4512
sg55
(lp4524
S':'
asbag48
(g69
g50
NtRp4525
(dp4526
g53
(dp4527
sg62
g4512
sg55
(lp4528
g48
(g49
g50
NtRp4529
(dp4530
g53
(dp4531
g61
I5
ssg62
g4525
sg55
(lp4532
g91
asbasbasbag48
(g64
g50
NtRp4533
(dp4534
g53
(dp4535
sg62
g3760
sg55
(lp4536
g48
(g69
g50
NtRp4537
(dp4538
g53
(dp4539
g73
g74
ssg62
g4533
sg55
(lp4540
S'status'
p4541
asbag48
(g69
g50
NtRp4542
(dp4543
g53
(dp4544
g80
g81
ssg62
g4533
sg55
(lp4545
S':'
asbag48
(g69
g50
NtRp4546
(dp4547
g53
(dp4548
sg62
g4533
sg55
(lp4549
g48
(g49
g50
NtRp4550
(dp4551
g53
(dp4552
g61
I5
ssg62
g4546
sg55
(lp4553
S'200'
p4554
asbasbasbag48
(g64
g50
NtRp4555
(dp4556
g53
(dp4557
sg62
g3760
sg55
(lp4558
g48
(g69
g50
NtRp4559
(dp4560
g53
(dp4561
g73
g74
ssg62
g4555
sg55
(lp4562
S'subtitle'
p4563
asbag48
(g69
g50
NtRp4564
(dp4565
g53
(dp4566
g80
g81
ssg62
g4555
sg55
(lp4567
S':'
asbag48
(g69
g50
NtRp4568
(dp4569
g53
(dp4570
sg62
g4555
sg55
(lp4571
g48
(g49
g50
NtRp4572
(dp4573
g53
(dp4574
g61
I5
ssg62
g4568
sg55
(lp4575
S''
asbasbasbag48
(g64
g50
NtRp4576
(dp4577
g53
(dp4578
sg62
g3760
sg55
(lp4579
g48
(g69
g50
NtRp4580
(dp4581
g53
(dp4582
g73
g74
ssg62
g4576
sg55
(lp4583
S'title'
p4584
asbag48
(g69
g50
NtRp4585
(dp4586
g53
(dp4587
g80
g81
ssg62
g4576
sg55
(lp4588
S':'
asbag48
(g69
g50
NtRp4589
(dp4590
g53
(dp4591
sg62
g4576
sg55
(lp4592
g48
(g49
g50
NtRp4593
(dp4594
g53
(dp4595
g61
I5
ssg62
g4589
sg55
(lp4596
S'Casa de Apuestas'
p4597
asbasbasbag48
(g64
g50
NtRp4598
(dp4599
g53
(dp4600
sg62
g3760
sg55
(lp4601
g48
(g69
g50
NtRp4602
(dp4603
g53
(dp4604
g73
g74
ssg62
g4598
sg55
(lp4605
g2449
asbag48
(g69
g50
NtRp4606
(dp4607
g53
(dp4608
g80
g81
ssg62
g4598
sg55
(lp4609
S':'
asbag48
(g69
g50
NtRp4610
(dp4611
g53
(dp4612
sg62
g4598
sg55
(lp4613
g48
(g49
g50
NtRp4614
(dp4615
g53
(dp4616
g61
I5
ssg62
g4610
sg55
(lp4617
g2462
asbasbasbag48
(g64
g50
NtRp4618
(dp4619
g53
(dp4620
sg62
g3760
sg55
(lp4621
g48
(g69
g50
NtRp4622
(dp4623
g53
(dp4624
g73
g74
ssg62
g4618
sg55
(lp4625
S'view'
p4626
asbag48
(g69
g50
NtRp4627
(dp4628
g53
(dp4629
g80
g81
ssg62
g4618
sg55
(lp4630
S':'
asbag48
(g69
g50
NtRp4631
(dp4632
g53
(dp4633
sg62
g4618
sg55
(lp4634
g48
(g49
g50
NtRp4635
(dp4636
g53
(dp4637
g61
I5
ssg62
g4631
sg55
(lp4638
S'default/crearEventoParticipante.html'
p4639
asbasbasbasbasbsS'locals'
p4640
(dp4641
S'altzone'
p4642
S'12600'
p4643
sS'OBJECT'
p4644
S"<class 'gluon.html.OBJECT'>"
p4645
sS'datetime'
p4646
S"<type 'datetime.datetime'>"
p4647
sS'LINK'
p4648
S"<class 'gluon.html.LINK'>"
p4649
sS'BR'
p4650
S"<class 'gluon.html.BR'>"
p4651
sS'OPTGROUP'
p4652
S"<class 'gluon.html.OPTGROUP'>"
p4653
sS'PRE'
p4654
S"<class 'gluon.html.PRE'>"
p4655
sS'IS_INT_IN_RANGE'
p4656
S"<class 'gluon.validators.IS_INT_IN_RANGE'>"
p4657
sS'IS_LOWER'
p4658
S"<class 'gluon.validators.IS_LOWER'>"
p4659
sS'IS_STRONG'
p4660
S"<class 'gluon.validators.IS_STRONG'>"
p4661
sS'strptime'
p4662
S'<built-in function strptime>'
p4663
sS'IS_IN_DB'
p4664
S"<class 'gluon.validators.IS_IN_DB'>"
p4665
sS'mktime'
p4666
S'<built-in function mktime>'
p4667
sS'TAG'
p4668
S'<gluon.html.__TAG__ object at 0x01C31770>'
p4669
sS'tzinfo'
p4670
S"<type 'datetime.tzinfo'>"
p4671
sS'localtime'
p4672
S'<built-in function localtime>'
p4673
sS'BODY'
p4674
S"<class 'gluon.html.BODY'>"
p4675
sS'IS_DATE_IN_RANGE'
p4676
S"<class 'gluon.validators.IS_DATE_IN_RANGE'>"
p4677
sS'TH'
p4678
S"<class 'gluon.html.TH'>"
p4679
sS'URL'
p4680
S'<function URL at 0x01C854B0>'
p4681
sS'P'
S"<class 'gluon.html.P'>"
p4682
sS'TFOOT'
p4683
S"<class 'gluon.html.TFOOT'>"
p4684
sS'timedelta'
p4685
S"<type 'datetime.timedelta'>"
p4686
sS'XHTML'
p4687
S"<class 'gluon.html.XHTML'>"
p4688
sS'ON'
p4689
g1717
sS'OL'
p4690
S"<class 'gluon.html.OL'>"
p4691
sS'ctime'
p4692
S'<built-in function ctime>'
p4693
sS'TEXTAREA'
p4694
S"<class 'gluon.html.TEXTAREA'>"
p4695
sS'MENU'
p4696
S"<class 'gluon.html.MENU'>"
p4697
sS'datetime_CAPI'
p4698
S'<PyCObject object at 0x0157A710>'
p4699
sS'sleep'
p4700
S'<built-in function sleep>'
p4701
sS'CODE'
p4702
S"<class 'gluon.html.CODE'>"
p4703
sS'HTTP'
p4704
S"<class 'gluon.http.HTTP'>"
p4705
sS'HR'
p4706
S"<class 'gluon.html.HR'>"
p4707
sS'IS_DATETIME'
p4708
S"<class 'gluon.validators.IS_DATETIME'>"
p4709
sS'HEAD'
p4710
S"<class 'gluon.html.HEAD'>"
p4711
sS'LABEL'
p4712
S"<class 'gluon.html.LABEL'>"
p4713
sS'daylight'
p4714
S'0'
sS'CLEANUP'
p4715
S"<class 'gluon.validators.CLEANUP'>"
p4716
sS'accept2dyear'
p4717
S'1'
sS'SELECT'
p4718
S"<class 'gluon.html.SELECT'>"
p4719
sS'CENTER'
p4720
S"<class 'gluon.html.CENTER'>"
p4721
sS'clock'
p4722
S'<built-in function clock>'
p4723
sS'current'
p4724
S'<thread._local object at 0x0157A278>'
p4725
sS'HTML'
p4726
S"<class 'gluon.html.HTML'>"
p4727
sS'asctime'
p4728
S'<built-in function asctime>'
p4729
sS'SQLFORM'
p4730
S"<class 'gluon.sqlhtml.SQLFORM'>"
p4731
sS'EM'
p4732
S"<class 'gluon.html.EM'>"
p4733
sS'redirect'
p4734
S'<function redirect at 0x01AFA170>'
p4735
sS'FIELDSET'
p4736
S"<class 'gluon.html.FIELDSET'>"
p4737
sS'IS_EQUAL_TO'
p4738
S"<class 'gluon.validators.IS_EQUAL_TO'>"
p4739
sS'gmtime'
p4740
S'<built-in function gmtime>'
p4741
sS'embed64'
p4742
S'<function embed64 at 0x01C85FB0>'
p4743
sS'IS_LIST_OF'
p4744
S"<class 'gluon.validators.IS_LIST_OF'>"
p4745
sS'INPUT'
p4746
S"<class 'gluon.html.INPUT'>"
p4747
sS'EMBED'
p4748
S"<class 'gluon.html.EMBED'>"
p4749
sS'FORM'
p4750
S"<class 'gluon.html.FORM'>"
p4751
sS'H2'
p4752
S"<class 'gluon.html.H2'>"
p4753
sS'H3'
p4754
S"<class 'gluon.html.H3'>"
p4755
sS'struct_time'
p4756
S"<type 'time.struct_time'>"
p4757
sS'H1'
p4758
S"<class 'gluon.html.H1'>"
p4759
sS'H6'
p4760
S"<class 'gluon.html.H6'>"
p4761
sS'H4'
p4762
S"<class 'gluon.html.H4'>"
p4763
sS'H5'
p4764
S"<class 'gluon.html.H5'>"
p4765
sS'UL'
p4766
S"<class 'gluon.html.UL'>"
p4767
sS'IS_UPPER'
p4768
S"<class 'gluon.validators.IS_UPPER'>"
p4769
sS'IS_TIME'
p4770
S"<class 'gluon.validators.IS_TIME'>"
p4771
sS'strftime'
p4772
S'<built-in function strftime>'
p4773
sS'OPTION'
p4774
S"<class 'gluon.html.OPTION'>"
p4775
sS'TITLE'
p4776
S"<class 'gluon.html.TITLE'>"
p4777
sS'CRYPT'
p4778
S"<class 'gluon.validators.CRYPT'>"
p4779
sS'IS_EMPTY_OR'
p4780
S"<class 'gluon.validators.IS_EMPTY_OR'>"
p4781
sS'MARKMIN'
p4782
S"<class 'gluon.html.MARKMIN'>"
p4783
sS'log'
p4784
S'<applications.Casa_de_Apuestas.modules.log.log instance at 0x067C28C8>'
p4785
sS'SCRIPT'
p4786
S"<class 'gluon.html.SCRIPT'>"
p4787
sS'TABLE'
p4788
S"<class 'gluon.html.TABLE'>"
p4789
sS'IS_IPV4'
p4790
S"<class 'gluon.validators.IS_IPV4'>"
p4791
sS'IS_LENGTH'
p4792
S"<class 'gluon.validators.IS_LENGTH'>"
p4793
sS'XML'
p4794
S"<class 'gluon.html.XML'>"
p4795
sS'B'
S"<class 'gluon.html.B'>"
p4796
sS'form'
p4797
S'<gluon.sqlhtml.SQLFORM object at 0x06A3ADD0>'
p4798
sS'SQLTABLE'
p4799
S"<class 'gluon.sqlhtml.SQLTABLE'>"
p4800
sS'IS_MATCH'
p4801
S"<class 'gluon.validators.IS_MATCH'>"
p4802
sS'IS_ALPHANUMERIC'
p4803
S"<class 'gluon.validators.IS_ALPHANUMERIC'>"
p4804
sS'eventosparticipantes'
p4805
S'<gluon.dal.Rows object at 0x06A3A150>'
p4806
sS'SPAN'
p4807
S"<class 'gluon.html.SPAN'>"
p4808
sS'IS_SLUG'
p4809
S"<class 'gluon.validators.IS_SLUG'>"
p4810
sS'BEAUTIFY'
p4811
S"<class 'gluon.html.BEAUTIFY'>"
p4812
sS'META'
p4813
S"<class 'gluon.html.META'>"
p4814
sS'tzname'
p4815
S"('Hora est\\xe1ndar de Venezuela', 'Hora de verano de Venezuela')"
p4816
sS'IS_DATE'
p4817
S"<class 'gluon.validators.IS_DATE'>"
p4818
sS'IS_EMAIL'
p4819
S"<class 'gluon.validators.IS_EMAIL'>"
p4820
sS'IS_NOT_EMPTY'
p4821
S"<class 'gluon.validators.IS_NOT_EMPTY'>"
p4822
sS'TBODY'
p4823
S"<class 'gluon.html.TBODY'>"
p4824
sS'CAT'
p4825
S"<class 'gluon.html.CAT'>"
p4826
sS'Field'
p4827
S"<class 'gluon.dal.Field'>"
p4828
sS'MINYEAR'
p4829
S'1'
sS'timezone'
p4830
S'16200'
p4831
sS'DIV'
p4832
S"<class 'gluon.html.DIV'>"
p4833
sS'LEGEND'
p4834
S"<class 'gluon.html.LEGEND'>"
p4835
sS'IMG'
p4836
S"<class 'gluon.html.IMG'>"
p4837
sS'DAL'
p4838
S"<class 'gluon.dal.DAL'>"
p4839
sS'TT'
p4840
S"<class 'gluon.html.TT'>"
p4841
sS'TR'
p4842
S"<class 'gluon.html.TR'>"
p4843
sS'LI'
p4844
S"<class 'gluon.html.LI'>"
p4845
sS'IFRAME'
p4846
S"<class 'gluon.html.IFRAME'>"
p4847
sS'TD'
p4848
S"<class 'gluon.html.TD'>"
p4849
sS'IS_URL'
p4850
S"<class 'gluon.validators.IS_URL'>"
p4851
sS'A'
S"<class 'gluon.html.A'>"
p4852
sS'STYLE'
p4853
S"<class 'gluon.html.STYLE'>"
p4854
sS'IS_DATETIME_IN_RANGE'
p4855
S"<class 'gluon.validators.IS_DATETIME_IN_RANGE'>"
p4856
sS'IS_IMAGE'
p4857
S"<class 'gluon.validators.IS_IMAGE'>"
p4858
sS'I'
S"<class 'gluon.html.I'>"
p4859
sS'IS_NOT_IN_DB'
p4860
S"<class 'gluon.validators.IS_NOT_IN_DB'>"
p4861
sg3753
S"<type 'datetime.date'>"
p4862
sS'THEAD'
p4863
S"<class 'gluon.html.THEAD'>"
p4864
sS'IS_NULL_OR'
p4865
S"<class 'gluon.validators.IS_EMPTY_OR'>"
p4866
sS'MAXYEAR'
p4867
S'9999'
p4868
sS'IS_FLOAT_IN_RANGE'
p4869
S"<class 'gluon.validators.IS_FLOAT_IN_RANGE'>"
p4870
sS'IS_EXPR'
p4871
S"<class 'gluon.validators.IS_EXPR'>"
p4872
sS'IS_IN_SET'
p4873
S"<class 'gluon.validators.IS_IN_SET'>"
p4874
sS'IS_UPLOAD_FILENAME'
p4875
S"<class 'gluon.validators.IS_UPLOAD_FILENAME'>"
p4876
sS'time'
p4877
S'<built-in function time>'
p4878
sS'IS_DECIMAL_IN_RANGE'
p4879
S"<class 'gluon.validators.IS_DECIMAL_IN_RANGE'>"
p4880
sssS'traceback'
p4881
S'Traceback (most recent call last):\n  File "gluon/restricted.py", line 194, in restricted\n  File "C:\\Python32\\web2py_win\\web2py\\applications\\Casa_de_Apuestas\\controllers/default.py", line 195, in <module>\n  File "gluon/globals.py", line 149, in <lambda>\n  File "C:\\Python32\\web2py_win\\web2py\\applications\\Casa_de_Apuestas\\controllers/default.py", line 77, in crearEventoParticipante\nTypeError: cannot concatenate \'str\' and \'NoneType\' objects\n'
p4882
s.