(dp1
S'output'
p2
S''
sS'layer'
p3
S'C:\\Python32\\web2py_win\\web2py\\applications\\Casa_de_Apuestas\\controllers/default.py'
p4
sS'code'
p5
S'# -*- coding: utf-8 -*-\n### required - do no delete\n"""\nEste Modulo corresponde al de controladores segun MVC, los metodos aqui contenidos\nson los encargados de invocar a las vistas, eso esta configurado en el framework\n"""\nfrom Servicio import *\nservice = Servicio(db, crud)\nfrom log import *\nlog = log()\n\ndef user(): return dict(form=auth())\ndef download(): return response.download(request,db)\ndef call(): return service()\n\n### end requires\n\n@auth.requires_login()\ndef index():\n    return dict()\n\ndef error():\n    return dict()\n\ndef maquinas():\n    form = crud.update(db.maquinas, request.args(0),next=URL(\'maquinas\'))\n    maquinas = db().select(db.maquinas.ALL)\n    coordenadas = False\n    if (request.args(0)):\n        for i, maquina in enumerate(maquinas):\n            if (i == request.args(0)):\n                break\n        coordenadas = dict(lon=maquina.longitud,lat=maquina.latitud)                    \n    return dict(form=form, maquinas=maquinas, coordenadas=coordenadas)\n\ndef crearCategoria():\n        categorias = db().select(db.categorias.ALL)\n        form = crud.create(db.categorias)\n        #if form.accepts(request.vars, formname=None):\n        if form.process().accepted:\n            db.commit()        \n            from log import *\n            log = log()\n            log.logear("Categoria creada: "+form.vars.nombre)\n        return response.render(dict(form=form, categorias=categorias))\n\ndef obtenerCategoria():\n        if not request.vars.categorias:\n            return \'\'\n        patron = request.vars.categorias.capitalize() + \'%\'\n        seleccionado = [row.name for row in db(db.categorias.nombre.like(patron)).select()]\n        return \'\'.join([DIV(k,\n                     _onclick="jQuery(\'#categorias\').val(\'%s\')" % k,\n                     _onmouseover="this.style.backgroundColor=\'green\'",\n                     _onmouseout="this.style.backgroundColor=\'white\'"\n                     ).xml() for k in selected])\n\ndef crearEvento():\n        eventos = db().select(db.eventos.ALL)\n        form = crud.create(db.eventos)\n        #if form.accepts(request.vars, formname=None):\n        if form.process().accepted:\n            db.commit()        \n            from log import *\n            log = log()\n            log.logear("Evento creado: "+form.vars.nombre)\n        return response.render(dict(form=form,eventos=eventos))\n\ndef crearParticipante():\n        participantes = db().select(db.participantes.ALL)\n        form = crud.create(db.participantes)\n        #if form.accepts(request.vars, formname=None):\n        if form.process().accepted:\n            db.commit()        \n            from log import *\n            log = log()\n            log.logear("Participante creado: "+form.vars.nombre)\n        return response.render(dict(form=form,participantes=participantes))\n\ndef crearEventoParticipante():\n        eventosparticipantes = db().select(db.eventosparticipantes.ALL)\n        form = crud.create(db.eventosparticipantes)\n        #if form.accepts(request.vars, formname=None):\n        if form.process().accepted:\n            db.commit()        \n            from log import *\n            log = log()\n            log.logear("EventoParticipante creado: "+form.vars.nombre)\n        return response.render(dict(form=form,eventosparticipantes=eventosparticipantes))\n\ndef crearUsuario():\n        usuarios = db().select(db.auth_user.ALL)\n        form = crud.create(db.auth_user)\n        #if form.accepts(request.vars, formname=None):\n        if form.process().accepted:\n            db.commit()        \n            from log import *\n            log = log()\n            log.logear("Usuario creado: "+form.vars.nombre)\n        return response.render(dict(form=form,usuarios=usuarios))\n    \n\ndef mostrarCategoria():\n        categorias = db().select(db.categorias.ALL, orderby = db.categorias.id)\n        return response.render(dict(categorias = categorias))\n\ndef mostrarEvento():\n        eventos = db().select(db.eventos.ALL, orderby = db.eventos.id)\n        return response.render(dict(eventos = eventos))\n\ndef mostrarParticipante():\n        participantes = db().select(db.participantes.ALL, orderby = db.participantes.id)\n        return response.render(dict(participantes = participantes))\n\ndef mostrarEventosParticipantes():\n        eventosparticipantes = db().select(db.eventosparticipantes.ALL,orderby = db.eventosparticipantes.id)\n        return response.render(dict(eventosparticipantes= eventosparticipantes))\n    \ndef mostrarUsuario():\n        usuarios = db().select(db.auth_user.ALL, orderby = db.auth_user.id)\n        return response.render(dict(usuarios = usuarios))\n    \n    \n    \ndef showEvento():\n        form = crud.update(db.eventos, request.args(0),next = URL(\'mostrarEvento\'))\n        #if form.accepts(request.vars, formname=None):\n        if form.process().accepted:\n            db.commit()        \n            from log import *\n            log = log()\n            log.logear("Evento modificado: "+form.vars.nombre)           \n        return response.render(dict(form = form))\n\ndef showCategoria():\n        form =crud.update(db.categorias, request.args(0), next = URL(\'mostrarCategoria\'))\n        #if form.accepts(request.vars, formname=None):\n        if form.process().accepted:\n            db.commit()        \n            from log import *\n            log = log()\n            log.logear("Categoria modificada: "+form.vars.nombre)          \n        return response.render(dict(form = form))\n\ndef showParticipante():\n        form = crud.update(db.participantes, request.args(0),next = URL(\'mostrarParticipante\'))\n        #if form.accepts(request.vars, formname=None):\n        if form.process().accepted:\n            db.commit()        \n            from log import *\n            log = log()\n            log.logear("Participante modificado: "+form.vars.nombre)            \n        return response.render(dict(form = form)) \n\ndef showEventosParticipantes():\n    return service.showEventoParticipante(request)\n    \ndef showUsuario():\n        form = crud.update(db.auth_user, request.args(0), next = URL(\'mostrarUsuario\'))\n        #if form.accepts(request.vars, formname=None):\n        if form.process().accepted:\n            db.commit()        \n            from log import *\n            log = log()\n            log.logear("Usuario modificado: "+form.vars.nombre)           \n        return response.render(dict(form = form))\n\n\ndef verResultado1():\n    import datetime\n    fechaActual=datetime.datetime.now()\n    eventos =db(db.eventos.fecha <fechaActual).select()\n    return dict(eventos=eventos)\n        \ndef verResultado2():\n    resultados= db((db.resultados.eventos_id==request.args(0))& (db.resultados.participantes_id==db.participantes.id)).select()\n    evento=db(db.eventos.id==request.args(0)).select()\n    return dict(resultados=resultados,evento=evento)\n    \ndef mostrar():\n    from DAOCasadeApuestas import *\n    dao = DAOCasadeApuestas()\n    dao2 = DAOCasadeApuestas()\n    dao3 = DAOCasadeApuestas()\n    dao4 = DAOCasadeApuestas()\n    dao5 = DAOCasadeApuestas()\n    q = dao.generarArchivoActualizacionMD5(dao.generarMensajeMD5(db().select(db.eventos.ALL)), dao2.generarMensajeMD5(db().select(db.categorias.ALL)), dao3.generarMensajeMD5(db().select(db.participantes.ALL)), dao4.generarMensajeMD5(db().select(db.eventosparticipantes.ALL)), dao5.generarMensajeMD5(db().select(db.auth_user.ALL)))\n    s = dao.generarArchivoActualizacionXML(dao.generarFormatoXml(db().select(db.eventos.ALL)), dao2.generarFormatoXml(db().select(db.categorias.ALL)), dao3.generarFormatoXml(db().select(db.participantes.ALL)), dao4.generarFormatoXml(db().select(db.eventosparticipantes.ALL)), dao5.generarFormatoXml(db().select(db.auth_user.ALL)))\n    return response.render(dict(q = q, s = s))   \n    \ndef verProximosEventos1():\n    import datetime\n    fechaActual=datetime.datetime.now()\n    eventos =db(db.eventos.fecha>fechaActual).select()\n    return dict(eventos=eventos)\n    \ndef verProximosEventos2():\n    evento_participante= db((db.eventosparticipantes.eventos_id==request.args(0))& (db.participantes.id==db.eventosparticipantes.participantes_id)).select()\n    evento = db(db.eventos.id==request.args(0)).select()\n    categoria = db((db.categorias.id==db.eventos.categoria_id)& (db.eventos.id==request.args(0))).select()\n    return dict(evento_participante=evento_participante,evento=evento,categoria=categoria)\n    \ndef indexPublico():\n    return dict()\n\nresponse._vars=response._caller(obtenerCategoria)\n'
p6
sS'snapshot'
p7
(dp8
S'exception'
p9
(dp10
S'__hash__'
p11
S"<method-wrapper '__hash__' of exceptions.KeyError object at 0x059FFF30>"
p12
sS'__setattr__'
p13
S"<method-wrapper '__setattr__' of exceptions.KeyError object at 0x059FFF30>"
p14
sS'__reduce_ex__'
p15
S'<built-in method __reduce_ex__ of exceptions.KeyError object at 0x059FFF30>'
p16
sS'__getslice__'
p17
S"<method-wrapper '__getslice__' of exceptions.KeyError object at 0x059FFF30>"
p18
sS'__getitem__'
p19
S"<method-wrapper '__getitem__' of exceptions.KeyError object at 0x059FFF30>"
p20
sS'__setstate__'
p21
S'<built-in method __setstate__ of exceptions.KeyError object at 0x059FFF30>'
p22
sS'__reduce__'
p23
S'<built-in method __reduce__ of exceptions.KeyError object at 0x059FFF30>'
p24
sS'__str__'
p25
S"<method-wrapper '__str__' of exceptions.KeyError object at 0x059FFF30>"
p26
sS'args'
p27
S"('name',)"
p28
sS'__getattribute__'
p29
S"<method-wrapper '__getattribute__' of exceptions.KeyError object at 0x059FFF30>"
p30
sS'__class__'
p31
S"<type 'exceptions.KeyError'>"
p32
sS'__delattr__'
p33
S"<method-wrapper '__delattr__' of exceptions.KeyError object at 0x059FFF30>"
p34
sS'__repr__'
p35
S"<method-wrapper '__repr__' of exceptions.KeyError object at 0x059FFF30>"
p36
sS'__dict__'
p37
S'{}'
p38
sS'__doc__'
p39
S"'Mapping key not found.'"
p40
sS'__init__'
p41
S"<method-wrapper '__init__' of exceptions.KeyError object at 0x059FFF30>"
p42
sS'__new__'
p43
S'<built-in method __new__ of type object at 0x1E1CDFB8>'
p44
ssS'evalue'
p45
S"'name'"
p46
sS'request'
p47
ccopy_reg
_reconstructor
p48
(cgluon.html
BEAUTIFY
p49
c__builtin__
object
p50
NtRp51
(dp52
S'attributes'
p53
(dp54
sS'components'
p55
(lp56
g48
(cgluon.html
TABLE
p57
g50
NtRp58
(dp59
g53
(dp60
S'level'
p61
I5
ssS'parent'
p62
Nsg55
(lp63
g48
(cgluon.html
TR
p64
g50
NtRp65
(dp66
g53
(dp67
sg62
g58
sg55
(lp68
g48
(cgluon.html
TD
p69
g50
NtRp70
(dp71
g53
(dp72
S'_style'
p73
S'font-weight:bold;'
p74
ssg62
g65
sg55
(lp75
S'ajax'
p76
asbag48
(g69
g50
NtRp77
(dp78
g53
(dp79
S'_valign'
p80
S'top'
p81
ssg62
g65
sg55
(lp82
S':'
asbag48
(g69
g50
NtRp83
(dp84
g53
(dp85
sg62
g65
sg55
(lp86
g48
(g49
g50
NtRp87
(dp88
g53
(dp89
g61
I5
ssg62
g83
sg55
(lp90
S'True'
p91
asbasbasbag48
(g64
g50
NtRp92
(dp93
g53
(dp94
sg62
g58
sg55
(lp95
g48
(g69
g50
NtRp96
(dp97
g53
(dp98
g73
g74
ssg62
g92
sg55
(lp99
S'application'
p100
asbag48
(g69
g50
NtRp101
(dp102
g53
(dp103
g80
g81
ssg62
g92
sg55
(lp104
S':'
asbag48
(g69
g50
NtRp105
(dp106
g53
(dp107
sg62
g92
sg55
(lp108
g48
(g49
g50
NtRp109
(dp110
g53
(dp111
g61
I5
ssg62
g105
sg55
(lp112
S'Casa_de_Apuestas'
p113
asbasbasbag48
(g64
g50
NtRp114
(dp115
g53
(dp116
sg62
g58
sg55
(lp117
g48
(g69
g50
NtRp118
(dp119
g53
(dp120
g73
g74
ssg62
g114
sg55
(lp121
g27
asbag48
(g69
g50
NtRp122
(dp123
g53
(dp124
g80
g81
ssg62
g114
sg55
(lp125
S':'
asbag48
(g69
g50
NtRp126
(dp127
g53
(dp128
sg62
g114
sg55
(lp129
g48
(g49
g50
NtRp130
(dp131
g53
(dp132
g61
I5
ssg62
g126
sg55
(lp133
g48
(g57
g50
NtRp134
(dp135
g53
(dp136
g61
I4
ssg62
Nsg55
(lp137
sbasbasbasbag48
(g64
g50
NtRp138
(dp139
g53
(dp140
sg62
g58
sg55
(lp141
g48
(g69
g50
NtRp142
(dp143
g53
(dp144
g73
g74
ssg62
g138
sg55
(lp145
S'body'
p146
asbag48
(g69
g50
NtRp147
(dp148
g53
(dp149
g80
g81
ssg62
g138
sg55
(lp150
S':'
asbag48
(g69
g50
NtRp151
(dp152
g53
(dp153
sg62
g138
sg55
(lp154
g48
(g49
g50
NtRp155
(dp156
g53
(dp157
g61
I5
ssg62
g151
sg55
(lp158
S"<open file '<fdopen>', mode 'w+b' at 0x057BCD10>"
p159
asbasbasbag48
(g64
g50
NtRp160
(dp161
g53
(dp162
sg62
g58
sg55
(lp163
g48
(g69
g50
NtRp164
(dp165
g53
(dp166
g73
g74
ssg62
g160
sg55
(lp167
S'client'
p168
asbag48
(g69
g50
NtRp169
(dp170
g53
(dp171
g80
g81
ssg62
g160
sg55
(lp172
S':'
asbag48
(g69
g50
NtRp173
(dp174
g53
(dp175
sg62
g160
sg55
(lp176
g48
(g49
g50
NtRp177
(dp178
g53
(dp179
g61
I5
ssg62
g173
sg55
(lp180
S'127.0.0.1'
p181
asbasbasbag48
(g64
g50
NtRp182
(dp183
g53
(dp184
sg62
g58
sg55
(lp185
g48
(g69
g50
NtRp186
(dp187
g53
(dp188
g73
g74
ssg62
g182
sg55
(lp189
S'controller'
p190
asbag48
(g69
g50
NtRp191
(dp192
g53
(dp193
g80
g81
ssg62
g182
sg55
(lp194
S':'
asbag48
(g69
g50
NtRp195
(dp196
g53
(dp197
sg62
g182
sg55
(lp198
g48
(g49
g50
NtRp199
(dp200
g53
(dp201
g61
I5
ssg62
g195
sg55
(lp202
S'default'
p203
asbasbasbag48
(g64
g50
NtRp204
(dp205
g53
(dp206
sg62
g58
sg55
(lp207
g48
(g69
g50
NtRp208
(dp209
g53
(dp210
g73
g74
ssg62
g204
sg55
(lp211
S'cookies'
p212
asbag48
(g69
g50
NtRp213
(dp214
g53
(dp215
g80
g81
ssg62
g204
sg55
(lp216
S':'
asbag48
(g69
g50
NtRp217
(dp218
g53
(dp219
sg62
g204
sg55
(lp220
g48
(g49
g50
NtRp221
(dp222
g53
(dp223
g61
I5
ssg62
g217
sg55
(lp224
g48
(g57
g50
NtRp225
(dp226
g53
(dp227
g61
I4
ssg62
Nsg55
(lp228
g48
(g64
g50
NtRp229
(dp230
g53
(dp231
sg62
g225
sg55
(lp232
g48
(g69
g50
NtRp233
(dp234
g53
(dp235
g73
g74
ssg62
g229
sg55
(lp236
S'session_id_admin'
p237
asbag48
(g69
g50
NtRp238
(dp239
g53
(dp240
g80
g81
ssg62
g229
sg55
(lp241
S':'
asbag48
(g69
g50
NtRp242
(dp243
g53
(dp244
sg62
g229
sg55
(lp245
g48
(g49
g50
NtRp246
(dp247
g53
(dp248
g61
I4
ssg62
g242
sg55
(lp249
g48
(g57
g50
NtRp250
(dp251
g53
(dp252
g61
I3
ssg62
Nsg55
(lp253
g48
(g64
g50
NtRp254
(dp255
g53
(dp256
sg62
g250
sg55
(lp257
g48
(g69
g50
NtRp258
(dp259
g53
(dp260
g73
g74
ssg62
g254
sg55
(lp261
S'comment'
p262
asbag48
(g69
g50
NtRp263
(dp264
g53
(dp265
g80
g81
ssg62
g254
sg55
(lp266
S':'
asbag48
(g69
g50
NtRp267
(dp268
g53
(dp269
sg62
g254
sg55
(lp270
g48
(g49
g50
NtRp271
(dp272
g53
(dp273
g61
I3
ssg62
g267
sg55
(lp274
S''
asbasbasbag48
(g64
g50
NtRp275
(dp276
g53
(dp277
sg62
g250
sg55
(lp278
g48
(g69
g50
NtRp279
(dp280
g53
(dp281
g73
g74
ssg62
g275
sg55
(lp282
S'domain'
p283
asbag48
(g69
g50
NtRp284
(dp285
g53
(dp286
g80
g81
ssg62
g275
sg55
(lp287
S':'
asbag48
(g69
g50
NtRp288
(dp289
g53
(dp290
sg62
g275
sg55
(lp291
g48
(g49
g50
NtRp292
(dp293
g53
(dp294
g61
I3
ssg62
g288
sg55
(lp295
S''
asbasbasbag48
(g64
g50
NtRp296
(dp297
g53
(dp298
sg62
g250
sg55
(lp299
g48
(g69
g50
NtRp300
(dp301
g53
(dp302
g73
g74
ssg62
g296
sg55
(lp303
S'expires'
p304
asbag48
(g69
g50
NtRp305
(dp306
g53
(dp307
g80
g81
ssg62
g296
sg55
(lp308
S':'
asbag48
(g69
g50
NtRp309
(dp310
g53
(dp311
sg62
g296
sg55
(lp312
g48
(g49
g50
NtRp313
(dp314
g53
(dp315
g61
I3
ssg62
g309
sg55
(lp316
S''
asbasbasbag48
(g64
g50
NtRp317
(dp318
g53
(dp319
sg62
g250
sg55
(lp320
g48
(g69
g50
NtRp321
(dp322
g53
(dp323
g73
g74
ssg62
g317
sg55
(lp324
S'max-age'
p325
asbag48
(g69
g50
NtRp326
(dp327
g53
(dp328
g80
g81
ssg62
g317
sg55
(lp329
S':'
asbag48
(g69
g50
NtRp330
(dp331
g53
(dp332
sg62
g317
sg55
(lp333
g48
(g49
g50
NtRp334
(dp335
g53
(dp336
g61
I3
ssg62
g330
sg55
(lp337
S''
asbasbasbag48
(g64
g50
NtRp338
(dp339
g53
(dp340
sg62
g250
sg55
(lp341
g48
(g69
g50
NtRp342
(dp343
g53
(dp344
g73
g74
ssg62
g338
sg55
(lp345
S'path'
p346
asbag48
(g69
g50
NtRp347
(dp348
g53
(dp349
g80
g81
ssg62
g338
sg55
(lp350
S':'
asbag48
(g69
g50
NtRp351
(dp352
g53
(dp353
sg62
g338
sg55
(lp354
g48
(g49
g50
NtRp355
(dp356
g53
(dp357
g61
I3
ssg62
g351
sg55
(lp358
S''
asbasbasbag48
(g64
g50
NtRp359
(dp360
g53
(dp361
sg62
g250
sg55
(lp362
g48
(g69
g50
NtRp363
(dp364
g53
(dp365
g73
g74
ssg62
g359
sg55
(lp366
S'secure'
p367
asbag48
(g69
g50
NtRp368
(dp369
g53
(dp370
g80
g81
ssg62
g359
sg55
(lp371
S':'
asbag48
(g69
g50
NtRp372
(dp373
g53
(dp374
sg62
g359
sg55
(lp375
g48
(g49
g50
NtRp376
(dp377
g53
(dp378
g61
I3
ssg62
g372
sg55
(lp379
S''
asbasbasbag48
(g64
g50
NtRp380
(dp381
g53
(dp382
sg62
g250
sg55
(lp383
g48
(g69
g50
NtRp384
(dp385
g53
(dp386
g73
g74
ssg62
g380
sg55
(lp387
S'version'
p388
asbag48
(g69
g50
NtRp389
(dp390
g53
(dp391
g80
g81
ssg62
g380
sg55
(lp392
S':'
asbag48
(g69
g50
NtRp393
(dp394
g53
(dp395
sg62
g380
sg55
(lp396
g48
(g49
g50
NtRp397
(dp398
g53
(dp399
g61
I3
ssg62
g393
sg55
(lp400
S''
asbasbasbasbasbasbasbag48
(g64
g50
NtRp401
(dp402
g53
(dp403
sg62
g225
sg55
(lp404
g48
(g69
g50
NtRp405
(dp406
g53
(dp407
g73
g74
ssg62
g401
sg55
(lp408
S'session_id_casa_de_apuestas'
p409
asbag48
(g69
g50
NtRp410
(dp411
g53
(dp412
g80
g81
ssg62
g401
sg55
(lp413
S':'
asbag48
(g69
g50
NtRp414
(dp415
g53
(dp416
sg62
g401
sg55
(lp417
g48
(g49
g50
NtRp418
(dp419
g53
(dp420
g61
I4
ssg62
g414
sg55
(lp421
g48
(g57
g50
NtRp422
(dp423
g53
(dp424
g61
I3
ssg62
Nsg55
(lp425
g48
(g64
g50
NtRp426
(dp427
g53
(dp428
sg62
g422
sg55
(lp429
g48
(g69
g50
NtRp430
(dp431
g53
(dp432
g73
g74
ssg62
g426
sg55
(lp433
g262
asbag48
(g69
g50
NtRp434
(dp435
g53
(dp436
g80
g81
ssg62
g426
sg55
(lp437
S':'
asbag48
(g69
g50
NtRp438
(dp439
g53
(dp440
sg62
g426
sg55
(lp441
g48
(g49
g50
NtRp442
(dp443
g53
(dp444
g61
I3
ssg62
g438
sg55
(lp445
S''
asbasbasbag48
(g64
g50
NtRp446
(dp447
g53
(dp448
sg62
g422
sg55
(lp449
g48
(g69
g50
NtRp450
(dp451
g53
(dp452
g73
g74
ssg62
g446
sg55
(lp453
g283
asbag48
(g69
g50
NtRp454
(dp455
g53
(dp456
g80
g81
ssg62
g446
sg55
(lp457
S':'
asbag48
(g69
g50
NtRp458
(dp459
g53
(dp460
sg62
g446
sg55
(lp461
g48
(g49
g50
NtRp462
(dp463
g53
(dp464
g61
I3
ssg62
g458
sg55
(lp465
S''
asbasbasbag48
(g64
g50
NtRp466
(dp467
g53
(dp468
sg62
g422
sg55
(lp469
g48
(g69
g50
NtRp470
(dp471
g53
(dp472
g73
g74
ssg62
g466
sg55
(lp473
g304
asbag48
(g69
g50
NtRp474
(dp475
g53
(dp476
g80
g81
ssg62
g466
sg55
(lp477
S':'
asbag48
(g69
g50
NtRp478
(dp479
g53
(dp480
sg62
g466
sg55
(lp481
g48
(g49
g50
NtRp482
(dp483
g53
(dp484
g61
I3
ssg62
g478
sg55
(lp485
S''
asbasbasbag48
(g64
g50
NtRp486
(dp487
g53
(dp488
sg62
g422
sg55
(lp489
g48
(g69
g50
NtRp490
(dp491
g53
(dp492
g73
g74
ssg62
g486
sg55
(lp493
g325
asbag48
(g69
g50
NtRp494
(dp495
g53
(dp496
g80
g81
ssg62
g486
sg55
(lp497
S':'
asbag48
(g69
g50
NtRp498
(dp499
g53
(dp500
sg62
g486
sg55
(lp501
g48
(g49
g50
NtRp502
(dp503
g53
(dp504
g61
I3
ssg62
g498
sg55
(lp505
S''
asbasbasbag48
(g64
g50
NtRp506
(dp507
g53
(dp508
sg62
g422
sg55
(lp509
g48
(g69
g50
NtRp510
(dp511
g53
(dp512
g73
g74
ssg62
g506
sg55
(lp513
g346
asbag48
(g69
g50
NtRp514
(dp515
g53
(dp516
g80
g81
ssg62
g506
sg55
(lp517
S':'
asbag48
(g69
g50
NtRp518
(dp519
g53
(dp520
sg62
g506
sg55
(lp521
g48
(g49
g50
NtRp522
(dp523
g53
(dp524
g61
I3
ssg62
g518
sg55
(lp525
S''
asbasbasbag48
(g64
g50
NtRp526
(dp527
g53
(dp528
sg62
g422
sg55
(lp529
g48
(g69
g50
NtRp530
(dp531
g53
(dp532
g73
g74
ssg62
g526
sg55
(lp533
g367
asbag48
(g69
g50
NtRp534
(dp535
g53
(dp536
g80
g81
ssg62
g526
sg55
(lp537
S':'
asbag48
(g69
g50
NtRp538
(dp539
g53
(dp540
sg62
g526
sg55
(lp541
g48
(g49
g50
NtRp542
(dp543
g53
(dp544
g61
I3
ssg62
g538
sg55
(lp545
S''
asbasbasbag48
(g64
g50
NtRp546
(dp547
g53
(dp548
sg62
g422
sg55
(lp549
g48
(g69
g50
NtRp550
(dp551
g53
(dp552
g73
g74
ssg62
g546
sg55
(lp553
g388
asbag48
(g69
g50
NtRp554
(dp555
g53
(dp556
g80
g81
ssg62
g546
sg55
(lp557
S':'
asbag48
(g69
g50
NtRp558
(dp559
g53
(dp560
sg62
g546
sg55
(lp561
g48
(g49
g50
NtRp562
(dp563
g53
(dp564
g61
I3
ssg62
g558
sg55
(lp565
S''
asbasbasbasbasbasbasbag48
(g64
g50
NtRp566
(dp567
g53
(dp568
sg62
g225
sg55
(lp569
g48
(g69
g50
NtRp570
(dp571
g53
(dp572
g73
g74
ssg62
g566
sg55
(lp573
S'session_id_images'
p574
asbag48
(g69
g50
NtRp575
(dp576
g53
(dp577
g80
g81
ssg62
g566
sg55
(lp578
S':'
asbag48
(g69
g50
NtRp579
(dp580
g53
(dp581
sg62
g566
sg55
(lp582
g48
(g49
g50
NtRp583
(dp584
g53
(dp585
g61
I4
ssg62
g579
sg55
(lp586
g48
(g57
g50
NtRp587
(dp588
g53
(dp589
g61
I3
ssg62
Nsg55
(lp590
g48
(g64
g50
NtRp591
(dp592
g53
(dp593
sg62
g587
sg55
(lp594
g48
(g69
g50
NtRp595
(dp596
g53
(dp597
g73
g74
ssg62
g591
sg55
(lp598
g262
asbag48
(g69
g50
NtRp599
(dp600
g53
(dp601
g80
g81
ssg62
g591
sg55
(lp602
S':'
asbag48
(g69
g50
NtRp603
(dp604
g53
(dp605
sg62
g591
sg55
(lp606
g48
(g49
g50
NtRp607
(dp608
g53
(dp609
g61
I3
ssg62
g603
sg55
(lp610
S''
asbasbasbag48
(g64
g50
NtRp611
(dp612
g53
(dp613
sg62
g587
sg55
(lp614
g48
(g69
g50
NtRp615
(dp616
g53
(dp617
g73
g74
ssg62
g611
sg55
(lp618
g283
asbag48
(g69
g50
NtRp619
(dp620
g53
(dp621
g80
g81
ssg62
g611
sg55
(lp622
S':'
asbag48
(g69
g50
NtRp623
(dp624
g53
(dp625
sg62
g611
sg55
(lp626
g48
(g49
g50
NtRp627
(dp628
g53
(dp629
g61
I3
ssg62
g623
sg55
(lp630
S''
asbasbasbag48
(g64
g50
NtRp631
(dp632
g53
(dp633
sg62
g587
sg55
(lp634
g48
(g69
g50
NtRp635
(dp636
g53
(dp637
g73
g74
ssg62
g631
sg55
(lp638
g304
asbag48
(g69
g50
NtRp639
(dp640
g53
(dp641
g80
g81
ssg62
g631
sg55
(lp642
S':'
asbag48
(g69
g50
NtRp643
(dp644
g53
(dp645
sg62
g631
sg55
(lp646
g48
(g49
g50
NtRp647
(dp648
g53
(dp649
g61
I3
ssg62
g643
sg55
(lp650
S''
asbasbasbag48
(g64
g50
NtRp651
(dp652
g53
(dp653
sg62
g587
sg55
(lp654
g48
(g69
g50
NtRp655
(dp656
g53
(dp657
g73
g74
ssg62
g651
sg55
(lp658
g325
asbag48
(g69
g50
NtRp659
(dp660
g53
(dp661
g80
g81
ssg62
g651
sg55
(lp662
S':'
asbag48
(g69
g50
NtRp663
(dp664
g53
(dp665
sg62
g651
sg55
(lp666
g48
(g49
g50
NtRp667
(dp668
g53
(dp669
g61
I3
ssg62
g663
sg55
(lp670
S''
asbasbasbag48
(g64
g50
NtRp671
(dp672
g53
(dp673
sg62
g587
sg55
(lp674
g48
(g69
g50
NtRp675
(dp676
g53
(dp677
g73
g74
ssg62
g671
sg55
(lp678
g346
asbag48
(g69
g50
NtRp679
(dp680
g53
(dp681
g80
g81
ssg62
g671
sg55
(lp682
S':'
asbag48
(g69
g50
NtRp683
(dp684
g53
(dp685
sg62
g671
sg55
(lp686
g48
(g49
g50
NtRp687
(dp688
g53
(dp689
g61
I3
ssg62
g683
sg55
(lp690
S''
asbasbasbag48
(g64
g50
NtRp691
(dp692
g53
(dp693
sg62
g587
sg55
(lp694
g48
(g69
g50
NtRp695
(dp696
g53
(dp697
g73
g74
ssg62
g691
sg55
(lp698
g367
asbag48
(g69
g50
NtRp699
(dp700
g53
(dp701
g80
g81
ssg62
g691
sg55
(lp702
S':'
asbag48
(g69
g50
NtRp703
(dp704
g53
(dp705
sg62
g691
sg55
(lp706
g48
(g49
g50
NtRp707
(dp708
g53
(dp709
g61
I3
ssg62
g703
sg55
(lp710
S''
asbasbasbag48
(g64
g50
NtRp711
(dp712
g53
(dp713
sg62
g587
sg55
(lp714
g48
(g69
g50
NtRp715
(dp716
g53
(dp717
g73
g74
ssg62
g711
sg55
(lp718
g388
asbag48
(g69
g50
NtRp719
(dp720
g53
(dp721
g80
g81
ssg62
g711
sg55
(lp722
S':'
asbag48
(g69
g50
NtRp723
(dp724
g53
(dp725
sg62
g711
sg55
(lp726
g48
(g49
g50
NtRp727
(dp728
g53
(dp729
g61
I3
ssg62
g723
sg55
(lp730
S''
asbasbasbasbasbasbasbag48
(g64
g50
NtRp731
(dp732
g53
(dp733
sg62
g225
sg55
(lp734
g48
(g69
g50
NtRp735
(dp736
g53
(dp737
g73
g74
ssg62
g731
sg55
(lp738
S'session_id_welcome'
p739
asbag48
(g69
g50
NtRp740
(dp741
g53
(dp742
g80
g81
ssg62
g731
sg55
(lp743
S':'
asbag48
(g69
g50
NtRp744
(dp745
g53
(dp746
sg62
g731
sg55
(lp747
g48
(g49
g50
NtRp748
(dp749
g53
(dp750
g61
I4
ssg62
g744
sg55
(lp751
g48
(g57
g50
NtRp752
(dp753
g53
(dp754
g61
I3
ssg62
Nsg55
(lp755
g48
(g64
g50
NtRp756
(dp757
g53
(dp758
sg62
g752
sg55
(lp759
g48
(g69
g50
NtRp760
(dp761
g53
(dp762
g73
g74
ssg62
g756
sg55
(lp763
g262
asbag48
(g69
g50
NtRp764
(dp765
g53
(dp766
g80
g81
ssg62
g756
sg55
(lp767
S':'
asbag48
(g69
g50
NtRp768
(dp769
g53
(dp770
sg62
g756
sg55
(lp771
g48
(g49
g50
NtRp772
(dp773
g53
(dp774
g61
I3
ssg62
g768
sg55
(lp775
S''
asbasbasbag48
(g64
g50
NtRp776
(dp777
g53
(dp778
sg62
g752
sg55
(lp779
g48
(g69
g50
NtRp780
(dp781
g53
(dp782
g73
g74
ssg62
g776
sg55
(lp783
g283
asbag48
(g69
g50
NtRp784
(dp785
g53
(dp786
g80
g81
ssg62
g776
sg55
(lp787
S':'
asbag48
(g69
g50
NtRp788
(dp789
g53
(dp790
sg62
g776
sg55
(lp791
g48
(g49
g50
NtRp792
(dp793
g53
(dp794
g61
I3
ssg62
g788
sg55
(lp795
S''
asbasbasbag48
(g64
g50
NtRp796
(dp797
g53
(dp798
sg62
g752
sg55
(lp799
g48
(g69
g50
NtRp800
(dp801
g53
(dp802
g73
g74
ssg62
g796
sg55
(lp803
g304
asbag48
(g69
g50
NtRp804
(dp805
g53
(dp806
g80
g81
ssg62
g796
sg55
(lp807
S':'
asbag48
(g69
g50
NtRp808
(dp809
g53
(dp810
sg62
g796
sg55
(lp811
g48
(g49
g50
NtRp812
(dp813
g53
(dp814
g61
I3
ssg62
g808
sg55
(lp815
S''
asbasbasbag48
(g64
g50
NtRp816
(dp817
g53
(dp818
sg62
g752
sg55
(lp819
g48
(g69
g50
NtRp820
(dp821
g53
(dp822
g73
g74
ssg62
g816
sg55
(lp823
g325
asbag48
(g69
g50
NtRp824
(dp825
g53
(dp826
g80
g81
ssg62
g816
sg55
(lp827
S':'
asbag48
(g69
g50
NtRp828
(dp829
g53
(dp830
sg62
g816
sg55
(lp831
g48
(g49
g50
NtRp832
(dp833
g53
(dp834
g61
I3
ssg62
g828
sg55
(lp835
S''
asbasbasbag48
(g64
g50
NtRp836
(dp837
g53
(dp838
sg62
g752
sg55
(lp839
g48
(g69
g50
NtRp840
(dp841
g53
(dp842
g73
g74
ssg62
g836
sg55
(lp843
g346
asbag48
(g69
g50
NtRp844
(dp845
g53
(dp846
g80
g81
ssg62
g836
sg55
(lp847
S':'
asbag48
(g69
g50
NtRp848
(dp849
g53
(dp850
sg62
g836
sg55
(lp851
g48
(g49
g50
NtRp852
(dp853
g53
(dp854
g61
I3
ssg62
g848
sg55
(lp855
S''
asbasbasbag48
(g64
g50
NtRp856
(dp857
g53
(dp858
sg62
g752
sg55
(lp859
g48
(g69
g50
NtRp860
(dp861
g53
(dp862
g73
g74
ssg62
g856
sg55
(lp863
g367
asbag48
(g69
g50
NtRp864
(dp865
g53
(dp866
g80
g81
ssg62
g856
sg55
(lp867
S':'
asbag48
(g69
g50
NtRp868
(dp869
g53
(dp870
sg62
g856
sg55
(lp871
g48
(g49
g50
NtRp872
(dp873
g53
(dp874
g61
I3
ssg62
g868
sg55
(lp875
S''
asbasbasbag48
(g64
g50
NtRp876
(dp877
g53
(dp878
sg62
g752
sg55
(lp879
g48
(g69
g50
NtRp880
(dp881
g53
(dp882
g73
g74
ssg62
g876
sg55
(lp883
g388
asbag48
(g69
g50
NtRp884
(dp885
g53
(dp886
g80
g81
ssg62
g876
sg55
(lp887
S':'
asbag48
(g69
g50
NtRp888
(dp889
g53
(dp890
sg62
g876
sg55
(lp891
g48
(g49
g50
NtRp892
(dp893
g53
(dp894
g61
I3
ssg62
g888
sg55
(lp895
S''
asbasbasbasbasbasbasbasbasbasbasbag48
(g64
g50
NtRp896
(dp897
g53
(dp898
sg62
g58
sg55
(lp899
g48
(g69
g50
NtRp900
(dp901
g53
(dp902
g73
g74
ssg62
g896
sg55
(lp903
S'env'
p904
asbag48
(g69
g50
NtRp905
(dp906
g53
(dp907
g80
g81
ssg62
g896
sg55
(lp908
S':'
asbag48
(g69
g50
NtRp909
(dp910
g53
(dp911
sg62
g896
sg55
(lp912
g48
(g49
g50
NtRp913
(dp914
g53
(dp915
g61
I5
ssg62
g909
sg55
(lp916
g48
(g57
g50
NtRp917
(dp918
g53
(dp919
g61
I4
ssg62
Nsg55
(lp920
g48
(g64
g50
NtRp921
(dp922
g53
(dp923
sg62
g917
sg55
(lp924
g48
(g69
g50
NtRp925
(dp926
g53
(dp927
g73
g74
ssg62
g921
sg55
(lp928
S'app_folders'
p929
asbag48
(g69
g50
NtRp930
(dp931
g53
(dp932
g80
g81
ssg62
g921
sg55
(lp933
S':'
asbag48
(g69
g50
NtRp934
(dp935
g53
(dp936
sg62
g921
sg55
(lp937
g48
(g49
g50
NtRp938
(dp939
g53
(dp940
g61
I4
ssg62
g934
sg55
(lp941
S"set(['C:\\\\Python32\\\\web2py_win\\\\web2py\\\\applications\\\\admin\\\\', 'C:\\\\Python32\\\\web2py_win\\\\web2py\\\\applications\\\\welcome\\\\', 'C:\\\\Python32\\\\web2py_win\\\\web2py\\\\applications\\\\images\\\\', 'C:\\\\Python32\\\\web2py_win\\\\web2py\\\\applications\\\\Casa_de_Apuestas\\\\'])"
p942
asbasbasbag48
(g64
g50
NtRp943
(dp944
g53
(dp945
sg62
g917
sg55
(lp946
g48
(g69
g50
NtRp947
(dp948
g53
(dp949
g73
g74
ssg62
g943
sg55
(lp950
S'applications_parent'
p951
asbag48
(g69
g50
NtRp952
(dp953
g53
(dp954
g80
g81
ssg62
g943
sg55
(lp955
S':'
asbag48
(g69
g50
NtRp956
(dp957
g53
(dp958
sg62
g943
sg55
(lp959
g48
(g49
g50
NtRp960
(dp961
g53
(dp962
g61
I4
ssg62
g956
sg55
(lp963
S'C:\\Python32\\web2py_win\\web2py'
p964
asbasbasbag48
(g64
g50
NtRp965
(dp966
g53
(dp967
sg62
g917
sg55
(lp968
g48
(g69
g50
NtRp969
(dp970
g53
(dp971
g73
g74
ssg62
g965
sg55
(lp972
S'cmd_args'
p973
asbag48
(g69
g50
NtRp974
(dp975
g53
(dp976
g80
g81
ssg62
g965
sg55
(lp977
S':'
asbag48
(g69
g50
NtRp978
(dp979
g53
(dp980
sg62
g965
sg55
(lp981
g48
(g49
g50
NtRp982
(dp983
g53
(dp984
g61
I4
ssg62
g978
sg55
(lp985
g48
(g57
g50
NtRp986
(dp987
g53
(dp988
g61
I3
ssg62
Nsg55
(lp989
sbasbasbasbag48
(g64
g50
NtRp990
(dp991
g53
(dp992
sg62
g917
sg55
(lp993
g48
(g69
g50
NtRp994
(dp995
g53
(dp996
g73
g74
ssg62
g990
sg55
(lp997
S'cmd_options'
p998
asbag48
(g69
g50
NtRp999
(dp1000
g53
(dp1001
g80
g81
ssg62
g990
sg55
(lp1002
S':'
asbag48
(g69
g50
NtRp1003
(dp1004
g53
(dp1005
sg62
g990
sg55
(lp1006
g48
(g49
g50
NtRp1007
(dp1008
g53
(dp1009
g61
I4
ssg62
g1003
sg55
(lp1010
S"<Values at 0x2705fa8: {'verbose': False, 'ip': '127.0.0.1', 'shutdown_timeout': 5, 'taskbar': False, 'nocron': False, 'pid_filename': 'httpserver.pid', 'maxthreads': None, 'softcron': False, 'server_name': 'hector-vaio', 'bpython': False, 'nogui': False, 'port': 8000, 'extcron': False, 'debuglevel': 30, 'test': None, 'folder': 'C:\\\\Python32\\\\web2py_win\\\\web2py', 'config': '', 'import_models': False, 'winservice': '', 'shell': None, 'run': '', 'log_filename': 'httpserver.log', 'args': [''], 'ssl_ca_certificate': None, 'scheduler': None, 'profiler_filename': None, 'ssl_private_key': '', 'password': '<ask>', 'request_queue_size': 5, 'ssl_certificate': '', 'cronjob': False, 'plain': False, 'quiet': False, 'interfaces': None, 'minthreads': None, 'timeout': 10, 'numthreads': None, 'nobanner': False}>"
p1011
asbasbasbag48
(g64
g50
NtRp1012
(dp1013
g53
(dp1014
sg62
g917
sg55
(lp1015
g48
(g69
g50
NtRp1016
(dp1017
g53
(dp1018
g73
g74
ssg62
g1012
sg55
(lp1019
S'content_length'
p1020
asbag48
(g69
g50
NtRp1021
(dp1022
g53
(dp1023
g80
g81
ssg62
g1012
sg55
(lp1024
S':'
asbag48
(g69
g50
NtRp1025
(dp1026
g53
(dp1027
sg62
g1012
sg55
(lp1028
g48
(g49
g50
NtRp1029
(dp1030
g53
(dp1031
g61
I4
ssg62
g1025
sg55
(lp1032
S'13'
p1033
asbasbasbag48
(g64
g50
NtRp1034
(dp1035
g53
(dp1036
sg62
g917
sg55
(lp1037
g48
(g69
g50
NtRp1038
(dp1039
g53
(dp1040
g73
g74
ssg62
g1034
sg55
(lp1041
S'content_type'
p1042
asbag48
(g69
g50
NtRp1043
(dp1044
g53
(dp1045
g80
g81
ssg62
g1034
sg55
(lp1046
S':'
asbag48
(g69
g50
NtRp1047
(dp1048
g53
(dp1049
sg62
g1034
sg55
(lp1050
g48
(g49
g50
NtRp1051
(dp1052
g53
(dp1053
g61
I4
ssg62
g1047
sg55
(lp1054
S'application/x-www-form-urlencoded'
p1055
asbasbasbag48
(g64
g50
NtRp1056
(dp1057
g53
(dp1058
sg62
g917
sg55
(lp1059
g48
(g69
g50
NtRp1060
(dp1061
g53
(dp1062
g73
g74
ssg62
g1056
sg55
(lp1063
S'db_sessions'
p1064
asbag48
(g69
g50
NtRp1065
(dp1066
g53
(dp1067
g80
g81
ssg62
g1056
sg55
(lp1068
S':'
asbag48
(g69
g50
NtRp1069
(dp1070
g53
(dp1071
sg62
g1056
sg55
(lp1072
g48
(g49
g50
NtRp1073
(dp1074
g53
(dp1075
g61
I4
ssg62
g1069
sg55
(lp1076
S'set([])'
p1077
asbasbasbag48
(g64
g50
NtRp1078
(dp1079
g53
(dp1080
sg62
g917
sg55
(lp1081
g48
(g69
g50
NtRp1082
(dp1083
g53
(dp1084
g73
g74
ssg62
g1078
sg55
(lp1085
S'debugging'
p1086
asbag48
(g69
g50
NtRp1087
(dp1088
g53
(dp1089
g80
g81
ssg62
g1078
sg55
(lp1090
S':'
asbag48
(g69
g50
NtRp1091
(dp1092
g53
(dp1093
sg62
g1078
sg55
(lp1094
g48
(g49
g50
NtRp1095
(dp1096
g53
(dp1097
g61
I4
ssg62
g1091
sg55
(lp1098
S'False'
p1099
asbasbasbag48
(g64
g50
NtRp1100
(dp1101
g53
(dp1102
sg62
g917
sg55
(lp1103
g48
(g69
g50
NtRp1104
(dp1105
g53
(dp1106
g73
g74
ssg62
g1100
sg55
(lp1107
S'gluon_parent'
p1108
asbag48
(g69
g50
NtRp1109
(dp1110
g53
(dp1111
g80
g81
ssg62
g1100
sg55
(lp1112
S':'
asbag48
(g69
g50
NtRp1113
(dp1114
g53
(dp1115
sg62
g1100
sg55
(lp1116
g48
(g49
g50
NtRp1117
(dp1118
g53
(dp1119
g61
I4
ssg62
g1113
sg55
(lp1120
S'C:\\Python32\\web2py_win\\web2py'
p1121
asbasbasbag48
(g64
g50
NtRp1122
(dp1123
g53
(dp1124
sg62
g917
sg55
(lp1125
g48
(g69
g50
NtRp1126
(dp1127
g53
(dp1128
g73
g74
ssg62
g1122
sg55
(lp1129
S'http_accept'
p1130
asbag48
(g69
g50
NtRp1131
(dp1132
g53
(dp1133
g80
g81
ssg62
g1122
sg55
(lp1134
S':'
asbag48
(g69
g50
NtRp1135
(dp1136
g53
(dp1137
sg62
g1122
sg55
(lp1138
g48
(g49
g50
NtRp1139
(dp1140
g53
(dp1141
g61
I4
ssg62
g1135
sg55
(lp1142
S'*/*'
p1143
asbasbasbag48
(g64
g50
NtRp1144
(dp1145
g53
(dp1146
sg62
g917
sg55
(lp1147
g48
(g69
g50
NtRp1148
(dp1149
g53
(dp1150
g73
g74
ssg62
g1144
sg55
(lp1151
S'http_accept_charset'
p1152
asbag48
(g69
g50
NtRp1153
(dp1154
g53
(dp1155
g80
g81
ssg62
g1144
sg55
(lp1156
S':'
asbag48
(g69
g50
NtRp1157
(dp1158
g53
(dp1159
sg62
g1144
sg55
(lp1160
g48
(g49
g50
NtRp1161
(dp1162
g53
(dp1163
g61
I4
ssg62
g1157
sg55
(lp1164
S'ISO-8859-1,utf-8;q=0.7,*;q=0.3'
p1165
asbasbasbag48
(g64
g50
NtRp1166
(dp1167
g53
(dp1168
sg62
g917
sg55
(lp1169
g48
(g69
g50
NtRp1170
(dp1171
g53
(dp1172
g73
g74
ssg62
g1166
sg55
(lp1173
S'http_accept_encoding'
p1174
asbag48
(g69
g50
NtRp1175
(dp1176
g53
(dp1177
g80
g81
ssg62
g1166
sg55
(lp1178
S':'
asbag48
(g69
g50
NtRp1179
(dp1180
g53
(dp1181
sg62
g1166
sg55
(lp1182
g48
(g49
g50
NtRp1183
(dp1184
g53
(dp1185
g61
I4
ssg62
g1179
sg55
(lp1186
S'gzip,deflate,sdch'
p1187
asbasbasbag48
(g64
g50
NtRp1188
(dp1189
g53
(dp1190
sg62
g917
sg55
(lp1191
g48
(g69
g50
NtRp1192
(dp1193
g53
(dp1194
g73
g74
ssg62
g1188
sg55
(lp1195
S'http_accept_language'
p1196
asbag48
(g69
g50
NtRp1197
(dp1198
g53
(dp1199
g80
g81
ssg62
g1188
sg55
(lp1200
S':'
asbag48
(g69
g50
NtRp1201
(dp1202
g53
(dp1203
sg62
g1188
sg55
(lp1204
g48
(g49
g50
NtRp1205
(dp1206
g53
(dp1207
g61
I4
ssg62
g1201
sg55
(lp1208
S'en-US,en;q=0.8'
p1209
asbasbasbag48
(g64
g50
NtRp1210
(dp1211
g53
(dp1212
sg62
g917
sg55
(lp1213
g48
(g69
g50
NtRp1214
(dp1215
g53
(dp1216
g73
g74
ssg62
g1210
sg55
(lp1217
S'http_connection'
p1218
asbag48
(g69
g50
NtRp1219
(dp1220
g53
(dp1221
g80
g81
ssg62
g1210
sg55
(lp1222
S':'
asbag48
(g69
g50
NtRp1223
(dp1224
g53
(dp1225
sg62
g1210
sg55
(lp1226
g48
(g49
g50
NtRp1227
(dp1228
g53
(dp1229
g61
I4
ssg62
g1223
sg55
(lp1230
S'keep-alive'
p1231
asbasbasbag48
(g64
g50
NtRp1232
(dp1233
g53
(dp1234
sg62
g917
sg55
(lp1235
g48
(g69
g50
NtRp1236
(dp1237
g53
(dp1238
g73
g74
ssg62
g1232
sg55
(lp1239
S'http_content_length'
p1240
asbag48
(g69
g50
NtRp1241
(dp1242
g53
(dp1243
g80
g81
ssg62
g1232
sg55
(lp1244
S':'
asbag48
(g69
g50
NtRp1245
(dp1246
g53
(dp1247
sg62
g1232
sg55
(lp1248
g48
(g49
g50
NtRp1249
(dp1250
g53
(dp1251
g61
I4
ssg62
g1245
sg55
(lp1252
g1033
asbasbasbag48
(g64
g50
NtRp1253
(dp1254
g53
(dp1255
sg62
g917
sg55
(lp1256
g48
(g69
g50
NtRp1257
(dp1258
g53
(dp1259
g73
g74
ssg62
g1253
sg55
(lp1260
S'http_content_type'
p1261
asbag48
(g69
g50
NtRp1262
(dp1263
g53
(dp1264
g80
g81
ssg62
g1253
sg55
(lp1265
S':'
asbag48
(g69
g50
NtRp1266
(dp1267
g53
(dp1268
sg62
g1253
sg55
(lp1269
g48
(g49
g50
NtRp1270
(dp1271
g53
(dp1272
g61
I4
ssg62
g1266
sg55
(lp1273
g1055
asbasbasbag48
(g64
g50
NtRp1274
(dp1275
g53
(dp1276
sg62
g917
sg55
(lp1277
g48
(g69
g50
NtRp1278
(dp1279
g53
(dp1280
g73
g74
ssg62
g1274
sg55
(lp1281
S'http_cookie'
p1282
asbag48
(g69
g50
NtRp1283
(dp1284
g53
(dp1285
g80
g81
ssg62
g1274
sg55
(lp1286
S':'
asbag48
(g69
g50
NtRp1287
(dp1288
g53
(dp1289
sg62
g1274
sg55
(lp1290
g48
(g49
g50
NtRp1291
(dp1292
g53
(dp1293
g61
I4
ssg62
g1287
sg55
(lp1294
S'session_id_welcome=127.0.0.1-8fea0ba2-90f2-43ea-9151-fc1a9d6558fb; session_id_admin=127.0.0.1-44212440-7960-43ff-8289-ed0727cee5fd; session_id_images=127.0.0.1-deccc954-353a-4177-9103-f19a56624237; session_id_casa_de_apuestas=127.0.0.1-b28859fb-172e-488d-8e45-f5879b610d08'
p1295
asbasbasbag48
(g64
g50
NtRp1296
(dp1297
g53
(dp1298
sg62
g917
sg55
(lp1299
g48
(g69
g50
NtRp1300
(dp1301
g53
(dp1302
g73
g74
ssg62
g1296
sg55
(lp1303
S'http_host'
p1304
asbag48
(g69
g50
NtRp1305
(dp1306
g53
(dp1307
g80
g81
ssg62
g1296
sg55
(lp1308
S':'
asbag48
(g69
g50
NtRp1309
(dp1310
g53
(dp1311
sg62
g1296
sg55
(lp1312
g48
(g49
g50
NtRp1313
(dp1314
g53
(dp1315
g61
I4
ssg62
g1309
sg55
(lp1316
S'127.0.0.1:8000'
p1317
asbasbasbag48
(g64
g50
NtRp1318
(dp1319
g53
(dp1320
sg62
g917
sg55
(lp1321
g48
(g69
g50
NtRp1322
(dp1323
g53
(dp1324
g73
g74
ssg62
g1318
sg55
(lp1325
S'http_origin'
p1326
asbag48
(g69
g50
NtRp1327
(dp1328
g53
(dp1329
g80
g81
ssg62
g1318
sg55
(lp1330
S':'
asbag48
(g69
g50
NtRp1331
(dp1332
g53
(dp1333
sg62
g1318
sg55
(lp1334
g48
(g49
g50
NtRp1335
(dp1336
g53
(dp1337
g61
I4
ssg62
g1331
sg55
(lp1338
S'http://127.0.0.1:8000'
p1339
asbasbasbag48
(g64
g50
NtRp1340
(dp1341
g53
(dp1342
sg62
g917
sg55
(lp1343
g48
(g69
g50
NtRp1344
(dp1345
g53
(dp1346
g73
g74
ssg62
g1340
sg55
(lp1347
S'http_referer'
p1348
asbag48
(g69
g50
NtRp1349
(dp1350
g53
(dp1351
g80
g81
ssg62
g1340
sg55
(lp1352
S':'
asbag48
(g69
g50
NtRp1353
(dp1354
g53
(dp1355
sg62
g1340
sg55
(lp1356
g48
(g49
g50
NtRp1357
(dp1358
g53
(dp1359
g61
I4
ssg62
g1353
sg55
(lp1360
S'http://127.0.0.1:8000/Casa_de_Apuestas/default/crearEvento'
p1361
asbasbasbag48
(g64
g50
NtRp1362
(dp1363
g53
(dp1364
sg62
g917
sg55
(lp1365
g48
(g69
g50
NtRp1366
(dp1367
g53
(dp1368
g73
g74
ssg62
g1362
sg55
(lp1369
S'http_user_agent'
p1370
asbag48
(g69
g50
NtRp1371
(dp1372
g53
(dp1373
g80
g81
ssg62
g1362
sg55
(lp1374
S':'
asbag48
(g69
g50
NtRp1375
(dp1376
g53
(dp1377
sg62
g1362
sg55
(lp1378
g48
(g49
g50
NtRp1379
(dp1380
g53
(dp1381
g61
I4
ssg62
g1375
sg55
(lp1382
S'Mozilla/5.0 (Windows NT 6.1) AppleWebKit/535.7 (KHTML, like Gecko) Chrome/16.0.912.63 Safari/535.7'
p1383
asbasbasbag48
(g64
g50
NtRp1384
(dp1385
g53
(dp1386
sg62
g917
sg55
(lp1387
g48
(g69
g50
NtRp1388
(dp1389
g53
(dp1390
g73
g74
ssg62
g1384
sg55
(lp1391
S'http_x_requested_with'
p1392
asbag48
(g69
g50
NtRp1393
(dp1394
g53
(dp1395
g80
g81
ssg62
g1384
sg55
(lp1396
S':'
asbag48
(g69
g50
NtRp1397
(dp1398
g53
(dp1399
sg62
g1384
sg55
(lp1400
g48
(g49
g50
NtRp1401
(dp1402
g53
(dp1403
g61
I4
ssg62
g1397
sg55
(lp1404
S'XMLHttpRequest'
p1405
asbasbasbag48
(g64
g50
NtRp1406
(dp1407
g53
(dp1408
sg62
g917
sg55
(lp1409
g48
(g69
g50
NtRp1410
(dp1411
g53
(dp1412
g73
g74
ssg62
g1406
sg55
(lp1413
S'is_jython'
p1414
asbag48
(g69
g50
NtRp1415
(dp1416
g53
(dp1417
g80
g81
ssg62
g1406
sg55
(lp1418
S':'
asbag48
(g69
g50
NtRp1419
(dp1420
g53
(dp1421
sg62
g1406
sg55
(lp1422
g48
(g49
g50
NtRp1423
(dp1424
g53
(dp1425
g61
I4
ssg62
g1419
sg55
(lp1426
g1099
asbasbasbag48
(g64
g50
NtRp1427
(dp1428
g53
(dp1429
sg62
g917
sg55
(lp1430
g48
(g69
g50
NtRp1431
(dp1432
g53
(dp1433
g73
g74
ssg62
g1427
sg55
(lp1434
S'path_info'
p1435
asbag48
(g69
g50
NtRp1436
(dp1437
g53
(dp1438
g80
g81
ssg62
g1427
sg55
(lp1439
S':'
asbag48
(g69
g50
NtRp1440
(dp1441
g53
(dp1442
sg62
g1427
sg55
(lp1443
g48
(g49
g50
NtRp1444
(dp1445
g53
(dp1446
g61
I4
ssg62
g1440
sg55
(lp1447
S'/Casa_de_Apuestas/default/obtenerCategoria'
p1448
asbasbasbag48
(g64
g50
NtRp1449
(dp1450
g53
(dp1451
sg62
g917
sg55
(lp1452
g48
(g69
g50
NtRp1453
(dp1454
g53
(dp1455
g73
g74
ssg62
g1449
sg55
(lp1456
S'query_string'
p1457
asbag48
(g69
g50
NtRp1458
(dp1459
g53
(dp1460
g80
g81
ssg62
g1449
sg55
(lp1461
S':'
asbag48
(g69
g50
NtRp1462
(dp1463
g53
(dp1464
sg62
g1449
sg55
(lp1465
g48
(g49
g50
NtRp1466
(dp1467
g53
(dp1468
g61
I4
ssg62
g1462
sg55
(lp1469
S''
asbasbasbag48
(g64
g50
NtRp1470
(dp1471
g53
(dp1472
sg62
g917
sg55
(lp1473
g48
(g69
g50
NtRp1474
(dp1475
g53
(dp1476
g73
g74
ssg62
g1470
sg55
(lp1477
S'remote_addr'
p1478
asbag48
(g69
g50
NtRp1479
(dp1480
g53
(dp1481
g80
g81
ssg62
g1470
sg55
(lp1482
S':'
asbag48
(g69
g50
NtRp1483
(dp1484
g53
(dp1485
sg62
g1470
sg55
(lp1486
g48
(g49
g50
NtRp1487
(dp1488
g53
(dp1489
g61
I4
ssg62
g1483
sg55
(lp1490
g181
asbasbasbag48
(g64
g50
NtRp1491
(dp1492
g53
(dp1493
sg62
g917
sg55
(lp1494
g48
(g69
g50
NtRp1495
(dp1496
g53
(dp1497
g73
g74
ssg62
g1491
sg55
(lp1498
S'remote_port'
p1499
asbag48
(g69
g50
NtRp1500
(dp1501
g53
(dp1502
g80
g81
ssg62
g1491
sg55
(lp1503
S':'
asbag48
(g69
g50
NtRp1504
(dp1505
g53
(dp1506
sg62
g1491
sg55
(lp1507
g48
(g49
g50
NtRp1508
(dp1509
g53
(dp1510
g61
I4
ssg62
g1504
sg55
(lp1511
S'51915'
p1512
asbasbasbag48
(g64
g50
NtRp1513
(dp1514
g53
(dp1515
sg62
g917
sg55
(lp1516
g48
(g69
g50
NtRp1517
(dp1518
g53
(dp1519
g73
g74
ssg62
g1513
sg55
(lp1520
S'request_method'
p1521
asbag48
(g69
g50
NtRp1522
(dp1523
g53
(dp1524
g80
g81
ssg62
g1513
sg55
(lp1525
S':'
asbag48
(g69
g50
NtRp1526
(dp1527
g53
(dp1528
sg62
g1513
sg55
(lp1529
g48
(g49
g50
NtRp1530
(dp1531
g53
(dp1532
g61
I4
ssg62
g1526
sg55
(lp1533
S'POST'
p1534
asbasbasbag48
(g64
g50
NtRp1535
(dp1536
g53
(dp1537
sg62
g917
sg55
(lp1538
g48
(g69
g50
NtRp1539
(dp1540
g53
(dp1541
g73
g74
ssg62
g1535
sg55
(lp1542
S'script_name'
p1543
asbag48
(g69
g50
NtRp1544
(dp1545
g53
(dp1546
g80
g81
ssg62
g1535
sg55
(lp1547
S':'
asbag48
(g69
g50
NtRp1548
(dp1549
g53
(dp1550
sg62
g1535
sg55
(lp1551
g48
(g49
g50
NtRp1552
(dp1553
g53
(dp1554
g61
I4
ssg62
g1548
sg55
(lp1555
S''
asbasbasbag48
(g64
g50
NtRp1556
(dp1557
g53
(dp1558
sg62
g917
sg55
(lp1559
g48
(g69
g50
NtRp1560
(dp1561
g53
(dp1562
g73
g74
ssg62
g1556
sg55
(lp1563
S'server_name'
p1564
asbag48
(g69
g50
NtRp1565
(dp1566
g53
(dp1567
g80
g81
ssg62
g1556
sg55
(lp1568
S':'
asbag48
(g69
g50
NtRp1569
(dp1570
g53
(dp1571
sg62
g1556
sg55
(lp1572
g48
(g49
g50
NtRp1573
(dp1574
g53
(dp1575
g61
I4
ssg62
g1569
sg55
(lp1576
S'hector-vaio'
p1577
asbasbasbag48
(g64
g50
NtRp1578
(dp1579
g53
(dp1580
sg62
g917
sg55
(lp1581
g48
(g69
g50
NtRp1582
(dp1583
g53
(dp1584
g73
g74
ssg62
g1578
sg55
(lp1585
S'server_port'
p1586
asbag48
(g69
g50
NtRp1587
(dp1588
g53
(dp1589
g80
g81
ssg62
g1578
sg55
(lp1590
S':'
asbag48
(g69
g50
NtRp1591
(dp1592
g53
(dp1593
sg62
g1578
sg55
(lp1594
g48
(g49
g50
NtRp1595
(dp1596
g53
(dp1597
g61
I4
ssg62
g1591
sg55
(lp1598
S'8000'
p1599
asbasbasbag48
(g64
g50
NtRp1600
(dp1601
g53
(dp1602
sg62
g917
sg55
(lp1603
g48
(g69
g50
NtRp1604
(dp1605
g53
(dp1606
g73
g74
ssg62
g1600
sg55
(lp1607
S'server_protocol'
p1608
asbag48
(g69
g50
NtRp1609
(dp1610
g53
(dp1611
g80
g81
ssg62
g1600
sg55
(lp1612
S':'
asbag48
(g69
g50
NtRp1613
(dp1614
g53
(dp1615
sg62
g1600
sg55
(lp1616
g48
(g49
g50
NtRp1617
(dp1618
g53
(dp1619
g61
I4
ssg62
g1613
sg55
(lp1620
S'HTTP/1.1'
p1621
asbasbasbag48
(g64
g50
NtRp1622
(dp1623
g53
(dp1624
sg62
g917
sg55
(lp1625
g48
(g69
g50
NtRp1626
(dp1627
g53
(dp1628
g73
g74
ssg62
g1622
sg55
(lp1629
S'server_software'
p1630
asbag48
(g69
g50
NtRp1631
(dp1632
g53
(dp1633
g80
g81
ssg62
g1622
sg55
(lp1634
S':'
asbag48
(g69
g50
NtRp1635
(dp1636
g53
(dp1637
sg62
g1622
sg55
(lp1638
g48
(g49
g50
NtRp1639
(dp1640
g53
(dp1641
g61
I4
ssg62
g1635
sg55
(lp1642
S'Rocket 1.2.4'
p1643
asbasbasbag48
(g64
g50
NtRp1644
(dp1645
g53
(dp1646
sg62
g917
sg55
(lp1647
g48
(g69
g50
NtRp1648
(dp1649
g53
(dp1650
g73
g74
ssg62
g1644
sg55
(lp1651
S'web2py_crontype'
p1652
asbag48
(g69
g50
NtRp1653
(dp1654
g53
(dp1655
g80
g81
ssg62
g1644
sg55
(lp1656
S':'
asbag48
(g69
g50
NtRp1657
(dp1658
g53
(dp1659
sg62
g1644
sg55
(lp1660
g48
(g49
g50
NtRp1661
(dp1662
g53
(dp1663
g61
I4
ssg62
g1657
sg55
(lp1664
S'hard'
p1665
asbasbasbag48
(g64
g50
NtRp1666
(dp1667
g53
(dp1668
sg62
g917
sg55
(lp1669
g48
(g69
g50
NtRp1670
(dp1671
g53
(dp1672
g73
g74
ssg62
g1666
sg55
(lp1673
S'web2py_path'
p1674
asbag48
(g69
g50
NtRp1675
(dp1676
g53
(dp1677
g80
g81
ssg62
g1666
sg55
(lp1678
S':'
asbag48
(g69
g50
NtRp1679
(dp1680
g53
(dp1681
sg62
g1666
sg55
(lp1682
g48
(g49
g50
NtRp1683
(dp1684
g53
(dp1685
g61
I4
ssg62
g1679
sg55
(lp1686
g964
asbasbasbag48
(g64
g50
NtRp1687
(dp1688
g53
(dp1689
sg62
g917
sg55
(lp1690
g48
(g69
g50
NtRp1691
(dp1692
g53
(dp1693
g73
g74
ssg62
g1687
sg55
(lp1694
S'web2py_version'
p1695
asbag48
(g69
g50
NtRp1696
(dp1697
g53
(dp1698
g80
g81
ssg62
g1687
sg55
(lp1699
S':'
asbag48
(g69
g50
NtRp1700
(dp1701
g53
(dp1702
sg62
g1687
sg55
(lp1703
g48
(g49
g50
NtRp1704
(dp1705
g53
(dp1706
g61
I4
ssg62
g1700
sg55
(lp1707
g48
(g57
g50
NtRp1708
(dp1709
g53
(dp1710
g61
I3
ssg62
Nsg55
(lp1711
g48
(g64
g50
NtRp1712
(dp1713
g53
(dp1714
sg62
g1708
sg55
(lp1715
g48
(g69
g50
NtRp1716
(dp1717
g53
(dp1718
sg62
g1712
sg55
(lp1719
g48
(g49
g50
NtRp1720
(dp1721
g53
(dp1722
g61
I3
ssg62
g1716
sg55
(lp1723
S'1'
asbasbasbag48
(g64
g50
NtRp1724
(dp1725
g53
(dp1726
sg62
g1708
sg55
(lp1727
g48
(g69
g50
NtRp1728
(dp1729
g53
(dp1730
sg62
g1724
sg55
(lp1731
g48
(g49
g50
NtRp1732
(dp1733
g53
(dp1734
g61
I3
ssg62
g1728
sg55
(lp1735
S'99'
p1736
asbasbasbag48
(g64
g50
NtRp1737
(dp1738
g53
(dp1739
sg62
g1708
sg55
(lp1740
g48
(g69
g50
NtRp1741
(dp1742
g53
(dp1743
sg62
g1737
sg55
(lp1744
g48
(g49
g50
NtRp1745
(dp1746
g53
(dp1747
g61
I3
ssg62
g1741
sg55
(lp1748
S'2'
asbasbasbag48
(g64
g50
NtRp1749
(dp1750
g53
(dp1751
sg62
g1708
sg55
(lp1752
g48
(g69
g50
NtRp1753
(dp1754
g53
(dp1755
sg62
g1749
sg55
(lp1756
g48
(g49
g50
NtRp1757
(dp1758
g53
(dp1759
g61
I3
ssg62
g1753
sg55
(lp1760
S'datetime.datetime(2011, 9, 26, 6, 55, 33)'
p1761
asbasbasbag48
(g64
g50
NtRp1762
(dp1763
g53
(dp1764
sg62
g1708
sg55
(lp1765
g48
(g69
g50
NtRp1766
(dp1767
g53
(dp1768
sg62
g1762
sg55
(lp1769
g48
(g49
g50
NtRp1770
(dp1771
g53
(dp1772
g61
I3
ssg62
g1766
sg55
(lp1773
S'stable'
p1774
asbasbasbasbasbasbasbag48
(g64
g50
NtRp1775
(dp1776
g53
(dp1777
sg62
g917
sg55
(lp1778
g48
(g69
g50
NtRp1779
(dp1780
g53
(dp1781
g73
g74
ssg62
g1775
sg55
(lp1782
S'wsgi_errors'
p1783
asbag48
(g69
g50
NtRp1784
(dp1785
g53
(dp1786
g80
g81
ssg62
g1775
sg55
(lp1787
S':'
asbag48
(g69
g50
NtRp1788
(dp1789
g53
(dp1790
sg62
g1775
sg55
(lp1791
g48
(g49
g50
NtRp1792
(dp1793
g53
(dp1794
g61
I4
ssg62
g1788
sg55
(lp1795
S"<open file '<stderr>', mode 'w' at 0x015D00B0>"
p1796
asbasbasbag48
(g64
g50
NtRp1797
(dp1798
g53
(dp1799
sg62
g917
sg55
(lp1800
g48
(g69
g50
NtRp1801
(dp1802
g53
(dp1803
g73
g74
ssg62
g1797
sg55
(lp1804
S'wsgi_file_wrapper'
p1805
asbag48
(g69
g50
NtRp1806
(dp1807
g53
(dp1808
g80
g81
ssg62
g1797
sg55
(lp1809
S':'
asbag48
(g69
g50
NtRp1810
(dp1811
g53
(dp1812
sg62
g1797
sg55
(lp1813
g48
(g49
g50
NtRp1814
(dp1815
g53
(dp1816
g61
I4
ssg62
g1810
sg55
(lp1817
S'<class wsgiref.util.FileWrapper at 0x024A9AB0>'
p1818
asbasbasbag48
(g64
g50
NtRp1819
(dp1820
g53
(dp1821
sg62
g917
sg55
(lp1822
g48
(g69
g50
NtRp1823
(dp1824
g53
(dp1825
g73
g74
ssg62
g1819
sg55
(lp1826
S'wsgi_input'
p1827
asbag48
(g69
g50
NtRp1828
(dp1829
g53
(dp1830
g80
g81
ssg62
g1819
sg55
(lp1831
S':'
asbag48
(g69
g50
NtRp1832
(dp1833
g53
(dp1834
sg62
g1819
sg55
(lp1835
g48
(g49
g50
NtRp1836
(dp1837
g53
(dp1838
g61
I4
ssg62
g1832
sg55
(lp1839
S'<socket._fileobject object at 0x057AD070>'
p1840
asbasbasbag48
(g64
g50
NtRp1841
(dp1842
g53
(dp1843
sg62
g917
sg55
(lp1844
g48
(g69
g50
NtRp1845
(dp1846
g53
(dp1847
g73
g74
ssg62
g1841
sg55
(lp1848
S'wsgi_multiprocess'
p1849
asbag48
(g69
g50
NtRp1850
(dp1851
g53
(dp1852
g80
g81
ssg62
g1841
sg55
(lp1853
S':'
asbag48
(g69
g50
NtRp1854
(dp1855
g53
(dp1856
sg62
g1841
sg55
(lp1857
g48
(g49
g50
NtRp1858
(dp1859
g53
(dp1860
g61
I4
ssg62
g1854
sg55
(lp1861
g1099
asbasbasbag48
(g64
g50
NtRp1862
(dp1863
g53
(dp1864
sg62
g917
sg55
(lp1865
g48
(g69
g50
NtRp1866
(dp1867
g53
(dp1868
g73
g74
ssg62
g1862
sg55
(lp1869
S'wsgi_multithread'
p1870
asbag48
(g69
g50
NtRp1871
(dp1872
g53
(dp1873
g80
g81
ssg62
g1862
sg55
(lp1874
S':'
asbag48
(g69
g50
NtRp1875
(dp1876
g53
(dp1877
sg62
g1862
sg55
(lp1878
g48
(g49
g50
NtRp1879
(dp1880
g53
(dp1881
g61
I4
ssg62
g1875
sg55
(lp1882
g91
asbasbasbag48
(g64
g50
NtRp1883
(dp1884
g53
(dp1885
sg62
g917
sg55
(lp1886
g48
(g69
g50
NtRp1887
(dp1888
g53
(dp1889
g73
g74
ssg62
g1883
sg55
(lp1890
S'wsgi_run_once'
p1891
asbag48
(g69
g50
NtRp1892
(dp1893
g53
(dp1894
g80
g81
ssg62
g1883
sg55
(lp1895
S':'
asbag48
(g69
g50
NtRp1896
(dp1897
g53
(dp1898
sg62
g1883
sg55
(lp1899
g48
(g49
g50
NtRp1900
(dp1901
g53
(dp1902
g61
I4
ssg62
g1896
sg55
(lp1903
g1099
asbasbasbag48
(g64
g50
NtRp1904
(dp1905
g53
(dp1906
sg62
g917
sg55
(lp1907
g48
(g69
g50
NtRp1908
(dp1909
g53
(dp1910
g73
g74
ssg62
g1904
sg55
(lp1911
S'wsgi_url_scheme'
p1912
asbag48
(g69
g50
NtRp1913
(dp1914
g53
(dp1915
g80
g81
ssg62
g1904
sg55
(lp1916
S':'
asbag48
(g69
g50
NtRp1917
(dp1918
g53
(dp1919
sg62
g1904
sg55
(lp1920
g48
(g49
g50
NtRp1921
(dp1922
g53
(dp1923
g61
I4
ssg62
g1917
sg55
(lp1924
S'http'
p1925
asbasbasbag48
(g64
g50
NtRp1926
(dp1927
g53
(dp1928
sg62
g917
sg55
(lp1929
g48
(g69
g50
NtRp1930
(dp1931
g53
(dp1932
g73
g74
ssg62
g1926
sg55
(lp1933
S'wsgi_version'
p1934
asbag48
(g69
g50
NtRp1935
(dp1936
g53
(dp1937
g80
g81
ssg62
g1926
sg55
(lp1938
S':'
asbag48
(g69
g50
NtRp1939
(dp1940
g53
(dp1941
sg62
g1926
sg55
(lp1942
g48
(g49
g50
NtRp1943
(dp1944
g53
(dp1945
g61
I4
ssg62
g1939
sg55
(lp1946
g48
(g57
g50
NtRp1947
(dp1948
g53
(dp1949
g61
I3
ssg62
Nsg55
(lp1950
g48
(g64
g50
NtRp1951
(dp1952
g53
(dp1953
sg62
g1947
sg55
(lp1954
g48
(g69
g50
NtRp1955
(dp1956
g53
(dp1957
sg62
g1951
sg55
(lp1958
g48
(g49
g50
NtRp1959
(dp1960
g53
(dp1961
g61
I3
ssg62
g1955
sg55
(lp1962
S'1'
asbasbasbag48
(g64
g50
NtRp1963
(dp1964
g53
(dp1965
sg62
g1947
sg55
(lp1966
g48
(g69
g50
NtRp1967
(dp1968
g53
(dp1969
sg62
g1963
sg55
(lp1970
g48
(g49
g50
NtRp1971
(dp1972
g53
(dp1973
g61
I3
ssg62
g1967
sg55
(lp1974
S'0'
asbasbasbasbasbasbasbasbasbasbasbag48
(g64
g50
NtRp1975
(dp1976
g53
(dp1977
sg62
g58
sg55
(lp1978
g48
(g69
g50
NtRp1979
(dp1980
g53
(dp1981
g73
g74
ssg62
g1975
sg55
(lp1982
S'extension'
p1983
asbag48
(g69
g50
NtRp1984
(dp1985
g53
(dp1986
g80
g81
ssg62
g1975
sg55
(lp1987
S':'
asbag48
(g69
g50
NtRp1988
(dp1989
g53
(dp1990
sg62
g1975
sg55
(lp1991
g48
(g49
g50
NtRp1992
(dp1993
g53
(dp1994
g61
I5
ssg62
g1988
sg55
(lp1995
S'html'
p1996
asbasbasbag48
(g64
g50
NtRp1997
(dp1998
g53
(dp1999
sg62
g58
sg55
(lp2000
g48
(g69
g50
NtRp2001
(dp2002
g53
(dp2003
g73
g74
ssg62
g1997
sg55
(lp2004
S'folder'
p2005
asbag48
(g69
g50
NtRp2006
(dp2007
g53
(dp2008
g80
g81
ssg62
g1997
sg55
(lp2009
S':'
asbag48
(g69
g50
NtRp2010
(dp2011
g53
(dp2012
sg62
g1997
sg55
(lp2013
g48
(g49
g50
NtRp2014
(dp2015
g53
(dp2016
g61
I5
ssg62
g2010
sg55
(lp2017
S'C:\\Python32\\web2py_win\\web2py\\applications\\Casa_de_Apuestas\\'
p2018
asbasbasbag48
(g64
g50
NtRp2019
(dp2020
g53
(dp2021
sg62
g58
sg55
(lp2022
g48
(g69
g50
NtRp2023
(dp2024
g53
(dp2025
g73
g74
ssg62
g2019
sg55
(lp2026
S'function'
p2027
asbag48
(g69
g50
NtRp2028
(dp2029
g53
(dp2030
g80
g81
ssg62
g2019
sg55
(lp2031
S':'
asbag48
(g69
g50
NtRp2032
(dp2033
g53
(dp2034
sg62
g2019
sg55
(lp2035
g48
(g49
g50
NtRp2036
(dp2037
g53
(dp2038
g61
I5
ssg62
g2032
sg55
(lp2039
S'obtenerCategoria'
p2040
asbasbasbag48
(g64
g50
NtRp2041
(dp2042
g53
(dp2043
sg62
g58
sg55
(lp2044
g48
(g69
g50
NtRp2045
(dp2046
g53
(dp2047
g73
g74
ssg62
g2041
sg55
(lp2048
S'get_vars'
p2049
asbag48
(g69
g50
NtRp2050
(dp2051
g53
(dp2052
g80
g81
ssg62
g2041
sg55
(lp2053
S':'
asbag48
(g69
g50
NtRp2054
(dp2055
g53
(dp2056
sg62
g2041
sg55
(lp2057
g48
(g49
g50
NtRp2058
(dp2059
g53
(dp2060
g61
I5
ssg62
g2054
sg55
(lp2061
g48
(g57
g50
NtRp2062
(dp2063
g53
(dp2064
g61
I4
ssg62
Nsg55
(lp2065
sbasbasbasbag48
(g64
g50
NtRp2066
(dp2067
g53
(dp2068
sg62
g58
sg55
(lp2069
g48
(g69
g50
NtRp2070
(dp2071
g53
(dp2072
g73
g74
ssg62
g2066
sg55
(lp2073
S'global_settings'
p2074
asbag48
(g69
g50
NtRp2075
(dp2076
g53
(dp2077
g80
g81
ssg62
g2066
sg55
(lp2078
S':'
asbag48
(g69
g50
NtRp2079
(dp2080
g53
(dp2081
sg62
g2066
sg55
(lp2082
g48
(g49
g50
NtRp2083
(dp2084
g53
(dp2085
g61
I5
ssg62
g2079
sg55
(lp2086
g48
(g57
g50
NtRp2087
(dp2088
g53
(dp2089
g61
I4
ssg62
Nsg55
(lp2090
g48
(g64
g50
NtRp2091
(dp2092
g53
(dp2093
sg62
g2087
sg55
(lp2094
g48
(g69
g50
NtRp2095
(dp2096
g53
(dp2097
g73
g74
ssg62
g2091
sg55
(lp2098
g929
asbag48
(g69
g50
NtRp2099
(dp2100
g53
(dp2101
g80
g81
ssg62
g2091
sg55
(lp2102
S':'
asbag48
(g69
g50
NtRp2103
(dp2104
g53
(dp2105
sg62
g2091
sg55
(lp2106
g48
(g49
g50
NtRp2107
(dp2108
g53
(dp2109
g61
I4
ssg62
g2103
sg55
(lp2110
S"set(['C:\\\\Python32\\\\web2py_win\\\\web2py\\\\applications\\\\admin\\\\', 'C:\\\\Python32\\\\web2py_win\\\\web2py\\\\applications\\\\welcome\\\\', 'C:\\\\Python32\\\\web2py_win\\\\web2py\\\\applications\\\\images\\\\', 'C:\\\\Python32\\\\web2py_win\\\\web2py\\\\applications\\\\Casa_de_Apuestas\\\\'])"
p2111
asbasbasbag48
(g64
g50
NtRp2112
(dp2113
g53
(dp2114
sg62
g2087
sg55
(lp2115
g48
(g69
g50
NtRp2116
(dp2117
g53
(dp2118
g73
g74
ssg62
g2112
sg55
(lp2119
g951
asbag48
(g69
g50
NtRp2120
(dp2121
g53
(dp2122
g80
g81
ssg62
g2112
sg55
(lp2123
S':'
asbag48
(g69
g50
NtRp2124
(dp2125
g53
(dp2126
sg62
g2112
sg55
(lp2127
g48
(g49
g50
NtRp2128
(dp2129
g53
(dp2130
g61
I4
ssg62
g2124
sg55
(lp2131
g964
asbasbasbag48
(g64
g50
NtRp2132
(dp2133
g53
(dp2134
sg62
g2087
sg55
(lp2135
g48
(g69
g50
NtRp2136
(dp2137
g53
(dp2138
g73
g74
ssg62
g2132
sg55
(lp2139
g973
asbag48
(g69
g50
NtRp2140
(dp2141
g53
(dp2142
g80
g81
ssg62
g2132
sg55
(lp2143
S':'
asbag48
(g69
g50
NtRp2144
(dp2145
g53
(dp2146
sg62
g2132
sg55
(lp2147
g48
(g49
g50
NtRp2148
(dp2149
g53
(dp2150
g61
I4
ssg62
g2144
sg55
(lp2151
g48
(g57
g50
NtRp2152
(dp2153
g53
(dp2154
g61
I3
ssg62
Nsg55
(lp2155
sbasbasbasbag48
(g64
g50
NtRp2156
(dp2157
g53
(dp2158
sg62
g2087
sg55
(lp2159
g48
(g69
g50
NtRp2160
(dp2161
g53
(dp2162
g73
g74
ssg62
g2156
sg55
(lp2163
g998
asbag48
(g69
g50
NtRp2164
(dp2165
g53
(dp2166
g80
g81
ssg62
g2156
sg55
(lp2167
S':'
asbag48
(g69
g50
NtRp2168
(dp2169
g53
(dp2170
sg62
g2156
sg55
(lp2171
g48
(g49
g50
NtRp2172
(dp2173
g53
(dp2174
g61
I4
ssg62
g2168
sg55
(lp2175
S"<Values at 0x2705fa8: {'verbose': False, 'ip': '127.0.0.1', 'shutdown_timeout': 5, 'taskbar': False, 'nocron': False, 'pid_filename': 'httpserver.pid', 'maxthreads': None, 'softcron': False, 'server_name': 'hector-vaio', 'bpython': False, 'nogui': False, 'port': 8000, 'extcron': False, 'debuglevel': 30, 'test': None, 'folder': 'C:\\\\Python32\\\\web2py_win\\\\web2py', 'config': '', 'import_models': False, 'winservice': '', 'shell': None, 'run': '', 'log_filename': 'httpserver.log', 'args': [''], 'ssl_ca_certificate': None, 'scheduler': None, 'profiler_filename': None, 'ssl_private_key': '', 'password': '<ask>', 'request_queue_size': 5, 'ssl_certificate': '', 'cronjob': False, 'plain': False, 'quiet': False, 'interfaces': None, 'minthreads': None, 'timeout': 10, 'numthreads': None, 'nobanner': False}>"
p2176
asbasbasbag48
(g64
g50
NtRp2177
(dp2178
g53
(dp2179
sg62
g2087
sg55
(lp2180
g48
(g69
g50
NtRp2181
(dp2182
g53
(dp2183
g73
g74
ssg62
g2177
sg55
(lp2184
g1064
asbag48
(g69
g50
NtRp2185
(dp2186
g53
(dp2187
g80
g81
ssg62
g2177
sg55
(lp2188
S':'
asbag48
(g69
g50
NtRp2189
(dp2190
g53
(dp2191
sg62
g2177
sg55
(lp2192
g48
(g49
g50
NtRp2193
(dp2194
g53
(dp2195
g61
I4
ssg62
g2189
sg55
(lp2196
S'set([])'
p2197
asbasbasbag48
(g64
g50
NtRp2198
(dp2199
g53
(dp2200
sg62
g2087
sg55
(lp2201
g48
(g69
g50
NtRp2202
(dp2203
g53
(dp2204
g73
g74
ssg62
g2198
sg55
(lp2205
g1086
asbag48
(g69
g50
NtRp2206
(dp2207
g53
(dp2208
g80
g81
ssg62
g2198
sg55
(lp2209
S':'
asbag48
(g69
g50
NtRp2210
(dp2211
g53
(dp2212
sg62
g2198
sg55
(lp2213
g48
(g49
g50
NtRp2214
(dp2215
g53
(dp2216
g61
I4
ssg62
g2210
sg55
(lp2217
g1099
asbasbasbag48
(g64
g50
NtRp2218
(dp2219
g53
(dp2220
sg62
g2087
sg55
(lp2221
g48
(g69
g50
NtRp2222
(dp2223
g53
(dp2224
g73
g74
ssg62
g2218
sg55
(lp2225
g1108
asbag48
(g69
g50
NtRp2226
(dp2227
g53
(dp2228
g80
g81
ssg62
g2218
sg55
(lp2229
S':'
asbag48
(g69
g50
NtRp2230
(dp2231
g53
(dp2232
sg62
g2218
sg55
(lp2233
g48
(g49
g50
NtRp2234
(dp2235
g53
(dp2236
g61
I4
ssg62
g2230
sg55
(lp2237
g1121
asbasbasbag48
(g64
g50
NtRp2238
(dp2239
g53
(dp2240
sg62
g2087
sg55
(lp2241
g48
(g69
g50
NtRp2242
(dp2243
g53
(dp2244
g73
g74
ssg62
g2238
sg55
(lp2245
g1414
asbag48
(g69
g50
NtRp2246
(dp2247
g53
(dp2248
g80
g81
ssg62
g2238
sg55
(lp2249
S':'
asbag48
(g69
g50
NtRp2250
(dp2251
g53
(dp2252
sg62
g2238
sg55
(lp2253
g48
(g49
g50
NtRp2254
(dp2255
g53
(dp2256
g61
I4
ssg62
g2250
sg55
(lp2257
g1099
asbasbasbag48
(g64
g50
NtRp2258
(dp2259
g53
(dp2260
sg62
g2087
sg55
(lp2261
g48
(g69
g50
NtRp2262
(dp2263
g53
(dp2264
g73
g74
ssg62
g2258
sg55
(lp2265
g1652
asbag48
(g69
g50
NtRp2266
(dp2267
g53
(dp2268
g80
g81
ssg62
g2258
sg55
(lp2269
S':'
asbag48
(g69
g50
NtRp2270
(dp2271
g53
(dp2272
sg62
g2258
sg55
(lp2273
g48
(g49
g50
NtRp2274
(dp2275
g53
(dp2276
g61
I4
ssg62
g2270
sg55
(lp2277
g1665
asbasbasbag48
(g64
g50
NtRp2278
(dp2279
g53
(dp2280
sg62
g2087
sg55
(lp2281
g48
(g69
g50
NtRp2282
(dp2283
g53
(dp2284
g73
g74
ssg62
g2278
sg55
(lp2285
g1695
asbag48
(g69
g50
NtRp2286
(dp2287
g53
(dp2288
g80
g81
ssg62
g2278
sg55
(lp2289
S':'
asbag48
(g69
g50
NtRp2290
(dp2291
g53
(dp2292
sg62
g2278
sg55
(lp2293
g48
(g49
g50
NtRp2294
(dp2295
g53
(dp2296
g61
I4
ssg62
g2290
sg55
(lp2297
g48
(g57
g50
NtRp2298
(dp2299
g53
(dp2300
g61
I3
ssg62
Nsg55
(lp2301
g48
(g64
g50
NtRp2302
(dp2303
g53
(dp2304
sg62
g2298
sg55
(lp2305
g48
(g69
g50
NtRp2306
(dp2307
g53
(dp2308
sg62
g2302
sg55
(lp2309
g48
(g49
g50
NtRp2310
(dp2311
g53
(dp2312
g61
I3
ssg62
g2306
sg55
(lp2313
S'1'
asbasbasbag48
(g64
g50
NtRp2314
(dp2315
g53
(dp2316
sg62
g2298
sg55
(lp2317
g48
(g69
g50
NtRp2318
(dp2319
g53
(dp2320
sg62
g2314
sg55
(lp2321
g48
(g49
g50
NtRp2322
(dp2323
g53
(dp2324
g61
I3
ssg62
g2318
sg55
(lp2325
S'99'
p2326
asbasbasbag48
(g64
g50
NtRp2327
(dp2328
g53
(dp2329
sg62
g2298
sg55
(lp2330
g48
(g69
g50
NtRp2331
(dp2332
g53
(dp2333
sg62
g2327
sg55
(lp2334
g48
(g49
g50
NtRp2335
(dp2336
g53
(dp2337
g61
I3
ssg62
g2331
sg55
(lp2338
S'2'
asbasbasbag48
(g64
g50
NtRp2339
(dp2340
g53
(dp2341
sg62
g2298
sg55
(lp2342
g48
(g69
g50
NtRp2343
(dp2344
g53
(dp2345
sg62
g2339
sg55
(lp2346
g48
(g49
g50
NtRp2347
(dp2348
g53
(dp2349
g61
I3
ssg62
g2343
sg55
(lp2350
S'datetime.datetime(2011, 9, 26, 6, 55, 33)'
p2351
asbasbasbag48
(g64
g50
NtRp2352
(dp2353
g53
(dp2354
sg62
g2298
sg55
(lp2355
g48
(g69
g50
NtRp2356
(dp2357
g53
(dp2358
sg62
g2352
sg55
(lp2359
g48
(g49
g50
NtRp2360
(dp2361
g53
(dp2362
g61
I3
ssg62
g2356
sg55
(lp2363
g1774
asbasbasbasbasbasbasbasbasbasbasbag48
(g64
g50
NtRp2364
(dp2365
g53
(dp2366
sg62
g58
sg55
(lp2367
g48
(g69
g50
NtRp2368
(dp2369
g53
(dp2370
g73
g74
ssg62
g2364
sg55
(lp2371
S'is_https'
p2372
asbag48
(g69
g50
NtRp2373
(dp2374
g53
(dp2375
g80
g81
ssg62
g2364
sg55
(lp2376
S':'
asbag48
(g69
g50
NtRp2377
(dp2378
g53
(dp2379
sg62
g2364
sg55
(lp2380
g48
(g49
g50
NtRp2381
(dp2382
g53
(dp2383
g61
I5
ssg62
g2377
sg55
(lp2384
g1099
asbasbasbag48
(g64
g50
NtRp2385
(dp2386
g53
(dp2387
sg62
g58
sg55
(lp2388
g48
(g69
g50
NtRp2389
(dp2390
g53
(dp2391
g73
g74
ssg62
g2385
sg55
(lp2392
S'is_local'
p2393
asbag48
(g69
g50
NtRp2394
(dp2395
g53
(dp2396
g80
g81
ssg62
g2385
sg55
(lp2397
S':'
asbag48
(g69
g50
NtRp2398
(dp2399
g53
(dp2400
sg62
g2385
sg55
(lp2401
g48
(g49
g50
NtRp2402
(dp2403
g53
(dp2404
g61
I5
ssg62
g2398
sg55
(lp2405
g91
asbasbasbag48
(g64
g50
NtRp2406
(dp2407
g53
(dp2408
sg62
g58
sg55
(lp2409
g48
(g69
g50
NtRp2410
(dp2411
g53
(dp2412
g73
g74
ssg62
g2406
sg55
(lp2413
S'is_restful'
p2414
asbag48
(g69
g50
NtRp2415
(dp2416
g53
(dp2417
g80
g81
ssg62
g2406
sg55
(lp2418
S':'
asbag48
(g69
g50
NtRp2419
(dp2420
g53
(dp2421
sg62
g2406
sg55
(lp2422
g48
(g49
g50
NtRp2423
(dp2424
g53
(dp2425
g61
I5
ssg62
g2419
sg55
(lp2426
g1099
asbasbasbag48
(g64
g50
NtRp2427
(dp2428
g53
(dp2429
sg62
g58
sg55
(lp2430
g48
(g69
g50
NtRp2431
(dp2432
g53
(dp2433
g73
g74
ssg62
g2427
sg55
(lp2434
S'now'
p2435
asbag48
(g69
g50
NtRp2436
(dp2437
g53
(dp2438
g80
g81
ssg62
g2427
sg55
(lp2439
S':'
asbag48
(g69
g50
NtRp2440
(dp2441
g53
(dp2442
sg62
g2427
sg55
(lp2443
g48
(g49
g50
NtRp2444
(dp2445
g53
(dp2446
g61
I5
ssg62
g2440
sg55
(lp2447
S'datetime.datetime(2011, 12, 19, 19, 8, 59, 975000)'
p2448
asbasbasbag48
(g64
g50
NtRp2449
(dp2450
g53
(dp2451
sg62
g58
sg55
(lp2452
g48
(g69
g50
NtRp2453
(dp2454
g53
(dp2455
g73
g74
ssg62
g2449
sg55
(lp2456
S'post_vars'
p2457
asbag48
(g69
g50
NtRp2458
(dp2459
g53
(dp2460
g80
g81
ssg62
g2449
sg55
(lp2461
S':'
asbag48
(g69
g50
NtRp2462
(dp2463
g53
(dp2464
sg62
g2449
sg55
(lp2465
g48
(g49
g50
NtRp2466
(dp2467
g53
(dp2468
g61
I5
ssg62
g2462
sg55
(lp2469
g48
(g57
g50
NtRp2470
(dp2471
g53
(dp2472
g61
I4
ssg62
Nsg55
(lp2473
g48
(g64
g50
NtRp2474
(dp2475
g53
(dp2476
sg62
g2470
sg55
(lp2477
g48
(g69
g50
NtRp2478
(dp2479
g53
(dp2480
g73
g74
ssg62
g2474
sg55
(lp2481
S'categorias'
p2482
asbag48
(g69
g50
NtRp2483
(dp2484
g53
(dp2485
g80
g81
ssg62
g2474
sg55
(lp2486
S':'
asbag48
(g69
g50
NtRp2487
(dp2488
g53
(dp2489
sg62
g2474
sg55
(lp2490
g48
(g49
g50
NtRp2491
(dp2492
g53
(dp2493
g61
I4
ssg62
g2487
sg55
(lp2494
S'Be'
p2495
asbasbasbasbasbasbasbag48
(g64
g50
NtRp2496
(dp2497
g53
(dp2498
sg62
g58
sg55
(lp2499
g48
(g69
g50
NtRp2500
(dp2501
g53
(dp2502
g73
g74
ssg62
g2496
sg55
(lp2503
S'url'
p2504
asbag48
(g69
g50
NtRp2505
(dp2506
g53
(dp2507
g80
g81
ssg62
g2496
sg55
(lp2508
S':'
asbag48
(g69
g50
NtRp2509
(dp2510
g53
(dp2511
sg62
g2496
sg55
(lp2512
g48
(g49
g50
NtRp2513
(dp2514
g53
(dp2515
g61
I5
ssg62
g2509
sg55
(lp2516
S'/Casa_de_Apuestas/default/obtenerCategoria'
p2517
asbasbasbag48
(g64
g50
NtRp2518
(dp2519
g53
(dp2520
sg62
g58
sg55
(lp2521
g48
(g69
g50
NtRp2522
(dp2523
g53
(dp2524
g73
g74
ssg62
g2518
sg55
(lp2525
S'utcnow'
p2526
asbag48
(g69
g50
NtRp2527
(dp2528
g53
(dp2529
g80
g81
ssg62
g2518
sg55
(lp2530
S':'
asbag48
(g69
g50
NtRp2531
(dp2532
g53
(dp2533
sg62
g2518
sg55
(lp2534
g48
(g49
g50
NtRp2535
(dp2536
g53
(dp2537
g61
I5
ssg62
g2531
sg55
(lp2538
S'datetime.datetime(2011, 12, 19, 23, 38, 59, 975000)'
p2539
asbasbasbag48
(g64
g50
NtRp2540
(dp2541
g53
(dp2542
sg62
g58
sg55
(lp2543
g48
(g69
g50
NtRp2544
(dp2545
g53
(dp2546
g73
g74
ssg62
g2540
sg55
(lp2547
S'uuid'
p2548
asbag48
(g69
g50
NtRp2549
(dp2550
g53
(dp2551
g80
g81
ssg62
g2540
sg55
(lp2552
S':'
asbag48
(g69
g50
NtRp2553
(dp2554
g53
(dp2555
sg62
g2540
sg55
(lp2556
g48
(g49
g50
NtRp2557
(dp2558
g53
(dp2559
g61
I5
ssg62
g2553
sg55
(lp2560
S'Casa_de_Apuestas/127.0.0.1.2011-12-19.19-08-59.baa6ab7a-2f21-45cf-bf76-441cb22288b6'
p2561
asbasbasbag48
(g64
g50
NtRp2562
(dp2563
g53
(dp2564
sg62
g58
sg55
(lp2565
g48
(g69
g50
NtRp2566
(dp2567
g53
(dp2568
g73
g74
ssg62
g2562
sg55
(lp2569
S'vars'
p2570
asbag48
(g69
g50
NtRp2571
(dp2572
g53
(dp2573
g80
g81
ssg62
g2562
sg55
(lp2574
S':'
asbag48
(g69
g50
NtRp2575
(dp2576
g53
(dp2577
sg62
g2562
sg55
(lp2578
g48
(g49
g50
NtRp2579
(dp2580
g53
(dp2581
g61
I5
ssg62
g2575
sg55
(lp2582
g48
(g57
g50
NtRp2583
(dp2584
g53
(dp2585
g61
I4
ssg62
Nsg55
(lp2586
g48
(g64
g50
NtRp2587
(dp2588
g53
(dp2589
sg62
g2583
sg55
(lp2590
g48
(g69
g50
NtRp2591
(dp2592
g53
(dp2593
g73
g74
ssg62
g2587
sg55
(lp2594
g2482
asbag48
(g69
g50
NtRp2595
(dp2596
g53
(dp2597
g80
g81
ssg62
g2587
sg55
(lp2598
S':'
asbag48
(g69
g50
NtRp2599
(dp2600
g53
(dp2601
sg62
g2587
sg55
(lp2602
g48
(g49
g50
NtRp2603
(dp2604
g53
(dp2605
g61
I4
ssg62
g2599
sg55
(lp2606
g2495
asbasbasbasbasbasbasbag48
(g64
g50
NtRp2607
(dp2608
g53
(dp2609
sg62
g58
sg55
(lp2610
g48
(g69
g50
NtRp2611
(dp2612
g53
(dp2613
g73
g74
ssg62
g2607
sg55
(lp2614
S'wsgi'
p2615
asbag48
(g69
g50
NtRp2616
(dp2617
g53
(dp2618
g80
g81
ssg62
g2607
sg55
(lp2619
S':'
asbag48
(g69
g50
NtRp2620
(dp2621
g53
(dp2622
sg62
g2607
sg55
(lp2623
g48
(g49
g50
NtRp2624
(dp2625
g53
(dp2626
g61
I5
ssg62
g2620
sg55
(lp2627
g48
(g57
g50
NtRp2628
(dp2629
g53
(dp2630
g61
I4
ssg62
Nsg55
(lp2631
g48
(g64
g50
NtRp2632
(dp2633
g53
(dp2634
sg62
g2628
sg55
(lp2635
g48
(g69
g50
NtRp2636
(dp2637
g53
(dp2638
g73
g74
ssg62
g2632
sg55
(lp2639
S'environ'
p2640
asbag48
(g69
g50
NtRp2641
(dp2642
g53
(dp2643
g80
g81
ssg62
g2632
sg55
(lp2644
S':'
asbag48
(g69
g50
NtRp2645
(dp2646
g53
(dp2647
sg62
g2632
sg55
(lp2648
g48
(g49
g50
NtRp2649
(dp2650
g53
(dp2651
g61
I4
ssg62
g2645
sg55
(lp2652
g48
(g57
g50
NtRp2653
(dp2654
g53
(dp2655
g61
I3
ssg62
Nsg55
(lp2656
g48
(g64
g50
NtRp2657
(dp2658
g53
(dp2659
sg62
g2653
sg55
(lp2660
g48
(g69
g50
NtRp2661
(dp2662
g53
(dp2663
g73
g74
ssg62
g2657
sg55
(lp2664
S'CONTENT_LENGTH'
p2665
asbag48
(g69
g50
NtRp2666
(dp2667
g53
(dp2668
g80
g81
ssg62
g2657
sg55
(lp2669
S':'
asbag48
(g69
g50
NtRp2670
(dp2671
g53
(dp2672
sg62
g2657
sg55
(lp2673
g48
(g49
g50
NtRp2674
(dp2675
g53
(dp2676
g61
I3
ssg62
g2670
sg55
(lp2677
g1033
asbasbasbag48
(g64
g50
NtRp2678
(dp2679
g53
(dp2680
sg62
g2653
sg55
(lp2681
g48
(g69
g50
NtRp2682
(dp2683
g53
(dp2684
g73
g74
ssg62
g2678
sg55
(lp2685
S'CONTENT_TYPE'
p2686
asbag48
(g69
g50
NtRp2687
(dp2688
g53
(dp2689
g80
g81
ssg62
g2678
sg55
(lp2690
S':'
asbag48
(g69
g50
NtRp2691
(dp2692
g53
(dp2693
sg62
g2678
sg55
(lp2694
g48
(g49
g50
NtRp2695
(dp2696
g53
(dp2697
g61
I3
ssg62
g2691
sg55
(lp2698
g1055
asbasbasbag48
(g64
g50
NtRp2699
(dp2700
g53
(dp2701
sg62
g2653
sg55
(lp2702
g48
(g69
g50
NtRp2703
(dp2704
g53
(dp2705
g73
g74
ssg62
g2699
sg55
(lp2706
S'HTTP_ACCEPT'
p2707
asbag48
(g69
g50
NtRp2708
(dp2709
g53
(dp2710
g80
g81
ssg62
g2699
sg55
(lp2711
S':'
asbag48
(g69
g50
NtRp2712
(dp2713
g53
(dp2714
sg62
g2699
sg55
(lp2715
g48
(g49
g50
NtRp2716
(dp2717
g53
(dp2718
g61
I3
ssg62
g2712
sg55
(lp2719
g1143
asbasbasbag48
(g64
g50
NtRp2720
(dp2721
g53
(dp2722
sg62
g2653
sg55
(lp2723
g48
(g69
g50
NtRp2724
(dp2725
g53
(dp2726
g73
g74
ssg62
g2720
sg55
(lp2727
S'HTTP_ACCEPT_CHARSET'
p2728
asbag48
(g69
g50
NtRp2729
(dp2730
g53
(dp2731
g80
g81
ssg62
g2720
sg55
(lp2732
S':'
asbag48
(g69
g50
NtRp2733
(dp2734
g53
(dp2735
sg62
g2720
sg55
(lp2736
g48
(g49
g50
NtRp2737
(dp2738
g53
(dp2739
g61
I3
ssg62
g2733
sg55
(lp2740
g1165
asbasbasbag48
(g64
g50
NtRp2741
(dp2742
g53
(dp2743
sg62
g2653
sg55
(lp2744
g48
(g69
g50
NtRp2745
(dp2746
g53
(dp2747
g73
g74
ssg62
g2741
sg55
(lp2748
S'HTTP_ACCEPT_ENCODING'
p2749
asbag48
(g69
g50
NtRp2750
(dp2751
g53
(dp2752
g80
g81
ssg62
g2741
sg55
(lp2753
S':'
asbag48
(g69
g50
NtRp2754
(dp2755
g53
(dp2756
sg62
g2741
sg55
(lp2757
g48
(g49
g50
NtRp2758
(dp2759
g53
(dp2760
g61
I3
ssg62
g2754
sg55
(lp2761
g1187
asbasbasbag48
(g64
g50
NtRp2762
(dp2763
g53
(dp2764
sg62
g2653
sg55
(lp2765
g48
(g69
g50
NtRp2766
(dp2767
g53
(dp2768
g73
g74
ssg62
g2762
sg55
(lp2769
S'HTTP_ACCEPT_LANGUAGE'
p2770
asbag48
(g69
g50
NtRp2771
(dp2772
g53
(dp2773
g80
g81
ssg62
g2762
sg55
(lp2774
S':'
asbag48
(g69
g50
NtRp2775
(dp2776
g53
(dp2777
sg62
g2762
sg55
(lp2778
g48
(g49
g50
NtRp2779
(dp2780
g53
(dp2781
g61
I3
ssg62
g2775
sg55
(lp2782
g1209
asbasbasbag48
(g64
g50
NtRp2783
(dp2784
g53
(dp2785
sg62
g2653
sg55
(lp2786
g48
(g69
g50
NtRp2787
(dp2788
g53
(dp2789
g73
g74
ssg62
g2783
sg55
(lp2790
S'HTTP_CONNECTION'
p2791
asbag48
(g69
g50
NtRp2792
(dp2793
g53
(dp2794
g80
g81
ssg62
g2783
sg55
(lp2795
S':'
asbag48
(g69
g50
NtRp2796
(dp2797
g53
(dp2798
sg62
g2783
sg55
(lp2799
g48
(g49
g50
NtRp2800
(dp2801
g53
(dp2802
g61
I3
ssg62
g2796
sg55
(lp2803
g1231
asbasbasbag48
(g64
g50
NtRp2804
(dp2805
g53
(dp2806
sg62
g2653
sg55
(lp2807
g48
(g69
g50
NtRp2808
(dp2809
g53
(dp2810
g73
g74
ssg62
g2804
sg55
(lp2811
S'HTTP_CONTENT_LENGTH'
p2812
asbag48
(g69
g50
NtRp2813
(dp2814
g53
(dp2815
g80
g81
ssg62
g2804
sg55
(lp2816
S':'
asbag48
(g69
g50
NtRp2817
(dp2818
g53
(dp2819
sg62
g2804
sg55
(lp2820
g48
(g49
g50
NtRp2821
(dp2822
g53
(dp2823
g61
I3
ssg62
g2817
sg55
(lp2824
g1033
asbasbasbag48
(g64
g50
NtRp2825
(dp2826
g53
(dp2827
sg62
g2653
sg55
(lp2828
g48
(g69
g50
NtRp2829
(dp2830
g53
(dp2831
g73
g74
ssg62
g2825
sg55
(lp2832
S'HTTP_CONTENT_TYPE'
p2833
asbag48
(g69
g50
NtRp2834
(dp2835
g53
(dp2836
g80
g81
ssg62
g2825
sg55
(lp2837
S':'
asbag48
(g69
g50
NtRp2838
(dp2839
g53
(dp2840
sg62
g2825
sg55
(lp2841
g48
(g49
g50
NtRp2842
(dp2843
g53
(dp2844
g61
I3
ssg62
g2838
sg55
(lp2845
g1055
asbasbasbag48
(g64
g50
NtRp2846
(dp2847
g53
(dp2848
sg62
g2653
sg55
(lp2849
g48
(g69
g50
NtRp2850
(dp2851
g53
(dp2852
g73
g74
ssg62
g2846
sg55
(lp2853
S'HTTP_COOKIE'
p2854
asbag48
(g69
g50
NtRp2855
(dp2856
g53
(dp2857
g80
g81
ssg62
g2846
sg55
(lp2858
S':'
asbag48
(g69
g50
NtRp2859
(dp2860
g53
(dp2861
sg62
g2846
sg55
(lp2862
g48
(g49
g50
NtRp2863
(dp2864
g53
(dp2865
g61
I3
ssg62
g2859
sg55
(lp2866
g1295
asbasbasbag48
(g64
g50
NtRp2867
(dp2868
g53
(dp2869
sg62
g2653
sg55
(lp2870
g48
(g69
g50
NtRp2871
(dp2872
g53
(dp2873
g73
g74
ssg62
g2867
sg55
(lp2874
S'HTTP_HOST'
p2875
asbag48
(g69
g50
NtRp2876
(dp2877
g53
(dp2878
g80
g81
ssg62
g2867
sg55
(lp2879
S':'
asbag48
(g69
g50
NtRp2880
(dp2881
g53
(dp2882
sg62
g2867
sg55
(lp2883
g48
(g49
g50
NtRp2884
(dp2885
g53
(dp2886
g61
I3
ssg62
g2880
sg55
(lp2887
g1317
asbasbasbag48
(g64
g50
NtRp2888
(dp2889
g53
(dp2890
sg62
g2653
sg55
(lp2891
g48
(g69
g50
NtRp2892
(dp2893
g53
(dp2894
g73
g74
ssg62
g2888
sg55
(lp2895
S'HTTP_ORIGIN'
p2896
asbag48
(g69
g50
NtRp2897
(dp2898
g53
(dp2899
g80
g81
ssg62
g2888
sg55
(lp2900
S':'
asbag48
(g69
g50
NtRp2901
(dp2902
g53
(dp2903
sg62
g2888
sg55
(lp2904
g48
(g49
g50
NtRp2905
(dp2906
g53
(dp2907
g61
I3
ssg62
g2901
sg55
(lp2908
g1339
asbasbasbag48
(g64
g50
NtRp2909
(dp2910
g53
(dp2911
sg62
g2653
sg55
(lp2912
g48
(g69
g50
NtRp2913
(dp2914
g53
(dp2915
g73
g74
ssg62
g2909
sg55
(lp2916
S'HTTP_REFERER'
p2917
asbag48
(g69
g50
NtRp2918
(dp2919
g53
(dp2920
g80
g81
ssg62
g2909
sg55
(lp2921
S':'
asbag48
(g69
g50
NtRp2922
(dp2923
g53
(dp2924
sg62
g2909
sg55
(lp2925
g48
(g49
g50
NtRp2926
(dp2927
g53
(dp2928
g61
I3
ssg62
g2922
sg55
(lp2929
g1361
asbasbasbag48
(g64
g50
NtRp2930
(dp2931
g53
(dp2932
sg62
g2653
sg55
(lp2933
g48
(g69
g50
NtRp2934
(dp2935
g53
(dp2936
g73
g74
ssg62
g2930
sg55
(lp2937
S'HTTP_USER_AGENT'
p2938
asbag48
(g69
g50
NtRp2939
(dp2940
g53
(dp2941
g80
g81
ssg62
g2930
sg55
(lp2942
S':'
asbag48
(g69
g50
NtRp2943
(dp2944
g53
(dp2945
sg62
g2930
sg55
(lp2946
g48
(g49
g50
NtRp2947
(dp2948
g53
(dp2949
g61
I3
ssg62
g2943
sg55
(lp2950
g1383
asbasbasbag48
(g64
g50
NtRp2951
(dp2952
g53
(dp2953
sg62
g2653
sg55
(lp2954
g48
(g69
g50
NtRp2955
(dp2956
g53
(dp2957
g73
g74
ssg62
g2951
sg55
(lp2958
S'HTTP_X_REQUESTED_WITH'
p2959
asbag48
(g69
g50
NtRp2960
(dp2961
g53
(dp2962
g80
g81
ssg62
g2951
sg55
(lp2963
S':'
asbag48
(g69
g50
NtRp2964
(dp2965
g53
(dp2966
sg62
g2951
sg55
(lp2967
g48
(g49
g50
NtRp2968
(dp2969
g53
(dp2970
g61
I3
ssg62
g2964
sg55
(lp2971
g1405
asbasbasbag48
(g64
g50
NtRp2972
(dp2973
g53
(dp2974
sg62
g2653
sg55
(lp2975
g48
(g69
g50
NtRp2976
(dp2977
g53
(dp2978
g73
g74
ssg62
g2972
sg55
(lp2979
S'PATH_INFO'
p2980
asbag48
(g69
g50
NtRp2981
(dp2982
g53
(dp2983
g80
g81
ssg62
g2972
sg55
(lp2984
S':'
asbag48
(g69
g50
NtRp2985
(dp2986
g53
(dp2987
sg62
g2972
sg55
(lp2988
g48
(g49
g50
NtRp2989
(dp2990
g53
(dp2991
g61
I3
ssg62
g2985
sg55
(lp2992
g1448
asbasbasbag48
(g64
g50
NtRp2993
(dp2994
g53
(dp2995
sg62
g2653
sg55
(lp2996
g48
(g69
g50
NtRp2997
(dp2998
g53
(dp2999
g73
g74
ssg62
g2993
sg55
(lp3000
S'QUERY_STRING'
p3001
asbag48
(g69
g50
NtRp3002
(dp3003
g53
(dp3004
g80
g81
ssg62
g2993
sg55
(lp3005
S':'
asbag48
(g69
g50
NtRp3006
(dp3007
g53
(dp3008
sg62
g2993
sg55
(lp3009
g48
(g49
g50
NtRp3010
(dp3011
g53
(dp3012
g61
I3
ssg62
g3006
sg55
(lp3013
S''
asbasbasbag48
(g64
g50
NtRp3014
(dp3015
g53
(dp3016
sg62
g2653
sg55
(lp3017
g48
(g69
g50
NtRp3018
(dp3019
g53
(dp3020
g73
g74
ssg62
g3014
sg55
(lp3021
S'REMOTE_ADDR'
p3022
asbag48
(g69
g50
NtRp3023
(dp3024
g53
(dp3025
g80
g81
ssg62
g3014
sg55
(lp3026
S':'
asbag48
(g69
g50
NtRp3027
(dp3028
g53
(dp3029
sg62
g3014
sg55
(lp3030
g48
(g49
g50
NtRp3031
(dp3032
g53
(dp3033
g61
I3
ssg62
g3027
sg55
(lp3034
g181
asbasbasbag48
(g64
g50
NtRp3035
(dp3036
g53
(dp3037
sg62
g2653
sg55
(lp3038
g48
(g69
g50
NtRp3039
(dp3040
g53
(dp3041
g73
g74
ssg62
g3035
sg55
(lp3042
S'REMOTE_PORT'
p3043
asbag48
(g69
g50
NtRp3044
(dp3045
g53
(dp3046
g80
g81
ssg62
g3035
sg55
(lp3047
S':'
asbag48
(g69
g50
NtRp3048
(dp3049
g53
(dp3050
sg62
g3035
sg55
(lp3051
g48
(g49
g50
NtRp3052
(dp3053
g53
(dp3054
g61
I3
ssg62
g3048
sg55
(lp3055
g1512
asbasbasbag48
(g64
g50
NtRp3056
(dp3057
g53
(dp3058
sg62
g2653
sg55
(lp3059
g48
(g69
g50
NtRp3060
(dp3061
g53
(dp3062
g73
g74
ssg62
g3056
sg55
(lp3063
S'REQUEST_METHOD'
p3064
asbag48
(g69
g50
NtRp3065
(dp3066
g53
(dp3067
g80
g81
ssg62
g3056
sg55
(lp3068
S':'
asbag48
(g69
g50
NtRp3069
(dp3070
g53
(dp3071
sg62
g3056
sg55
(lp3072
g48
(g49
g50
NtRp3073
(dp3074
g53
(dp3075
g61
I3
ssg62
g3069
sg55
(lp3076
g1534
asbasbasbag48
(g64
g50
NtRp3077
(dp3078
g53
(dp3079
sg62
g2653
sg55
(lp3080
g48
(g69
g50
NtRp3081
(dp3082
g53
(dp3083
g73
g74
ssg62
g3077
sg55
(lp3084
S'SCRIPT_NAME'
p3085
asbag48
(g69
g50
NtRp3086
(dp3087
g53
(dp3088
g80
g81
ssg62
g3077
sg55
(lp3089
S':'
asbag48
(g69
g50
NtRp3090
(dp3091
g53
(dp3092
sg62
g3077
sg55
(lp3093
g48
(g49
g50
NtRp3094
(dp3095
g53
(dp3096
g61
I3
ssg62
g3090
sg55
(lp3097
S''
asbasbasbag48
(g64
g50
NtRp3098
(dp3099
g53
(dp3100
sg62
g2653
sg55
(lp3101
g48
(g69
g50
NtRp3102
(dp3103
g53
(dp3104
g73
g74
ssg62
g3098
sg55
(lp3105
S'SERVER_NAME'
p3106
asbag48
(g69
g50
NtRp3107
(dp3108
g53
(dp3109
g80
g81
ssg62
g3098
sg55
(lp3110
S':'
asbag48
(g69
g50
NtRp3111
(dp3112
g53
(dp3113
sg62
g3098
sg55
(lp3114
g48
(g49
g50
NtRp3115
(dp3116
g53
(dp3117
g61
I3
ssg62
g3111
sg55
(lp3118
g1577
asbasbasbag48
(g64
g50
NtRp3119
(dp3120
g53
(dp3121
sg62
g2653
sg55
(lp3122
g48
(g69
g50
NtRp3123
(dp3124
g53
(dp3125
g73
g74
ssg62
g3119
sg55
(lp3126
S'SERVER_PORT'
p3127
asbag48
(g69
g50
NtRp3128
(dp3129
g53
(dp3130
g80
g81
ssg62
g3119
sg55
(lp3131
S':'
asbag48
(g69
g50
NtRp3132
(dp3133
g53
(dp3134
sg62
g3119
sg55
(lp3135
g48
(g49
g50
NtRp3136
(dp3137
g53
(dp3138
g61
I3
ssg62
g3132
sg55
(lp3139
g1599
asbasbasbag48
(g64
g50
NtRp3140
(dp3141
g53
(dp3142
sg62
g2653
sg55
(lp3143
g48
(g69
g50
NtRp3144
(dp3145
g53
(dp3146
g73
g74
ssg62
g3140
sg55
(lp3147
S'SERVER_PROTOCOL'
p3148
asbag48
(g69
g50
NtRp3149
(dp3150
g53
(dp3151
g80
g81
ssg62
g3140
sg55
(lp3152
S':'
asbag48
(g69
g50
NtRp3153
(dp3154
g53
(dp3155
sg62
g3140
sg55
(lp3156
g48
(g49
g50
NtRp3157
(dp3158
g53
(dp3159
g61
I3
ssg62
g3153
sg55
(lp3160
g1621
asbasbasbag48
(g64
g50
NtRp3161
(dp3162
g53
(dp3163
sg62
g2653
sg55
(lp3164
g48
(g69
g50
NtRp3165
(dp3166
g53
(dp3167
g73
g74
ssg62
g3161
sg55
(lp3168
S'SERVER_SOFTWARE'
p3169
asbag48
(g69
g50
NtRp3170
(dp3171
g53
(dp3172
g80
g81
ssg62
g3161
sg55
(lp3173
S':'
asbag48
(g69
g50
NtRp3174
(dp3175
g53
(dp3176
sg62
g3161
sg55
(lp3177
g48
(g49
g50
NtRp3178
(dp3179
g53
(dp3180
g61
I3
ssg62
g3174
sg55
(lp3181
g1643
asbasbasbag48
(g64
g50
NtRp3182
(dp3183
g53
(dp3184
sg62
g2653
sg55
(lp3185
g48
(g69
g50
NtRp3186
(dp3187
g53
(dp3188
g73
g74
ssg62
g3182
sg55
(lp3189
S'wsgi.errors'
p3190
asbag48
(g69
g50
NtRp3191
(dp3192
g53
(dp3193
g80
g81
ssg62
g3182
sg55
(lp3194
S':'
asbag48
(g69
g50
NtRp3195
(dp3196
g53
(dp3197
sg62
g3182
sg55
(lp3198
g48
(g49
g50
NtRp3199
(dp3200
g53
(dp3201
g61
I3
ssg62
g3195
sg55
(lp3202
S"<open file '<stderr>', mode 'w' at 0x015D00B0>"
p3203
asbasbasbag48
(g64
g50
NtRp3204
(dp3205
g53
(dp3206
sg62
g2653
sg55
(lp3207
g48
(g69
g50
NtRp3208
(dp3209
g53
(dp3210
g73
g74
ssg62
g3204
sg55
(lp3211
S'wsgi.file_wrapper'
p3212
asbag48
(g69
g50
NtRp3213
(dp3214
g53
(dp3215
g80
g81
ssg62
g3204
sg55
(lp3216
S':'
asbag48
(g69
g50
NtRp3217
(dp3218
g53
(dp3219
sg62
g3204
sg55
(lp3220
g48
(g49
g50
NtRp3221
(dp3222
g53
(dp3223
g61
I3
ssg62
g3217
sg55
(lp3224
S'<class wsgiref.util.FileWrapper at 0x024A9AB0>'
p3225
asbasbasbag48
(g64
g50
NtRp3226
(dp3227
g53
(dp3228
sg62
g2653
sg55
(lp3229
g48
(g69
g50
NtRp3230
(dp3231
g53
(dp3232
g73
g74
ssg62
g3226
sg55
(lp3233
S'wsgi.input'
p3234
asbag48
(g69
g50
NtRp3235
(dp3236
g53
(dp3237
g80
g81
ssg62
g3226
sg55
(lp3238
S':'
asbag48
(g69
g50
NtRp3239
(dp3240
g53
(dp3241
sg62
g3226
sg55
(lp3242
g48
(g49
g50
NtRp3243
(dp3244
g53
(dp3245
g61
I3
ssg62
g3239
sg55
(lp3246
S"<open file '<fdopen>', mode 'w+b' at 0x057BCD10>"
p3247
asbasbasbag48
(g64
g50
NtRp3248
(dp3249
g53
(dp3250
sg62
g2653
sg55
(lp3251
g48
(g69
g50
NtRp3252
(dp3253
g53
(dp3254
g73
g74
ssg62
g3248
sg55
(lp3255
S'wsgi.multiprocess'
p3256
asbag48
(g69
g50
NtRp3257
(dp3258
g53
(dp3259
g80
g81
ssg62
g3248
sg55
(lp3260
S':'
asbag48
(g69
g50
NtRp3261
(dp3262
g53
(dp3263
sg62
g3248
sg55
(lp3264
g48
(g49
g50
NtRp3265
(dp3266
g53
(dp3267
g61
I3
ssg62
g3261
sg55
(lp3268
g1099
asbasbasbag48
(g64
g50
NtRp3269
(dp3270
g53
(dp3271
sg62
g2653
sg55
(lp3272
g48
(g69
g50
NtRp3273
(dp3274
g53
(dp3275
g73
g74
ssg62
g3269
sg55
(lp3276
S'wsgi.multithread'
p3277
asbag48
(g69
g50
NtRp3278
(dp3279
g53
(dp3280
g80
g81
ssg62
g3269
sg55
(lp3281
S':'
asbag48
(g69
g50
NtRp3282
(dp3283
g53
(dp3284
sg62
g3269
sg55
(lp3285
g48
(g49
g50
NtRp3286
(dp3287
g53
(dp3288
g61
I3
ssg62
g3282
sg55
(lp3289
g91
asbasbasbag48
(g64
g50
NtRp3290
(dp3291
g53
(dp3292
sg62
g2653
sg55
(lp3293
g48
(g69
g50
NtRp3294
(dp3295
g53
(dp3296
g73
g74
ssg62
g3290
sg55
(lp3297
S'wsgi.run_once'
p3298
asbag48
(g69
g50
NtRp3299
(dp3300
g53
(dp3301
g80
g81
ssg62
g3290
sg55
(lp3302
S':'
asbag48
(g69
g50
NtRp3303
(dp3304
g53
(dp3305
sg62
g3290
sg55
(lp3306
g48
(g49
g50
NtRp3307
(dp3308
g53
(dp3309
g61
I3
ssg62
g3303
sg55
(lp3310
g1099
asbasbasbag48
(g64
g50
NtRp3311
(dp3312
g53
(dp3313
sg62
g2653
sg55
(lp3314
g48
(g69
g50
NtRp3315
(dp3316
g53
(dp3317
g73
g74
ssg62
g3311
sg55
(lp3318
S'wsgi.url_scheme'
p3319
asbag48
(g69
g50
NtRp3320
(dp3321
g53
(dp3322
g80
g81
ssg62
g3311
sg55
(lp3323
S':'
asbag48
(g69
g50
NtRp3324
(dp3325
g53
(dp3326
sg62
g3311
sg55
(lp3327
g48
(g49
g50
NtRp3328
(dp3329
g53
(dp3330
g61
I3
ssg62
g3324
sg55
(lp3331
g1925
asbasbasbag48
(g64
g50
NtRp3332
(dp3333
g53
(dp3334
sg62
g2653
sg55
(lp3335
g48
(g69
g50
NtRp3336
(dp3337
g53
(dp3338
g73
g74
ssg62
g3332
sg55
(lp3339
S'wsgi.version'
p3340
asbag48
(g69
g50
NtRp3341
(dp3342
g53
(dp3343
g80
g81
ssg62
g3332
sg55
(lp3344
S':'
asbag48
(g69
g50
NtRp3345
(dp3346
g53
(dp3347
sg62
g3332
sg55
(lp3348
g48
(g49
g50
NtRp3349
(dp3350
g53
(dp3351
g61
I3
ssg62
g3345
sg55
(lp3352
S'1'
asbasbasbasbasbasbasbasbasbasbasbasbasbsS'frames'
p3353
(lp3354
(dp3355
S'file'
p3356
S'C:\\Python32\\web2py_win\\web2py\\gluon\\restricted.py'
p3357
sS'dump'
p3358
(dp3359
sS'lnum'
p3360
I194
sS'lines'
p3361
(dp3362
sS'call'
p3363
S"(code='# -*- coding: utf-8 -*-\\n### required - do no del...esponse._vars=response._caller(obtenerCategoria)\\n', environment={'A': <class 'gluon.html.A'>, 'Auth': <class 'gluon.tools.Auth'>, 'B': <class 'gluon.html.B'>, 'BEAUTIFY': <class 'gluon.html.BEAUTIFY'>, 'BODY': <class 'gluon.html.BODY'>, 'BR': <class 'gluon.html.BR'>, 'BUTTON': <class 'gluon.html.BUTTON'>, 'CAT': <class 'gluon.html.CAT'>, 'CENTER': <class 'gluon.html.CENTER'>, 'CLEANUP': <class 'gluon.validators.CLEANUP'>, ...}, layer=r'C:\\Python32\\web2py_win\\web2py\\applications\\Casa_de_Apuestas\\controllers/default.py')"
p3364
sS'func'
p3365
S'restricted'
p3366
sa(dp3367
g3356
S'C:\\Python32\\web2py_win\\web2py\\applications\\Casa_de_Apuestas\\controllers\\default.py'
p3368
sg3358
(dp3369
sg3360
I206
sg3361
(dp3370
I195
S'    return dict(eventos=eventos)'
p3371
sI196
S''
sI197
S'def verProximosEventos2():'
p3372
sI198
S'    evento_participante= db((db.eventosparticipantes.eventos_id==request.args(0))& (db.participantes.id==db.eventosparticipantes.participantes_id)).select()'
p3373
sI199
S'    evento = db(db.eventos.id==request.args(0)).select()'
p3374
sI200
S'    categoria = db((db.categorias.id==db.eventos.categoria_id)& (db.eventos.id==request.args(0))).select()'
p3375
sI201
S'    return dict(evento_participante=evento_participante,evento=evento,categoria=categoria)'
p3376
sI202
S''
sI203
S'def indexPublico():'
p3377
sI204
S'    return dict()'
p3378
ssg3363
S'()'
p3379
sg3365
S'<module>'
p3380
sa(dp3381
g3356
S'C:\\Python32\\web2py_win\\web2py\\gluon\\globals.py'
p3382
sg3358
(dp3383
sg3360
I149
sg3361
(dp3384
sg3363
S'(f=<function obtenerCategoria at 0x02895EF0>)'
p3385
sg3365
S'<lambda>'
p3386
sa(dp3387
g3356
S'C:\\Python32\\web2py_win\\web2py\\applications\\Casa_de_Apuestas\\controllers\\default.py'
p3388
sg3358
(dp3389
sg3360
I51
sg3361
(dp3390
I46
S''
sI47
S'def obtenerCategoria():'
p3391
sI48
S'        if not request.vars.categorias:'
p3392
sI49
S"            return ''"
p3393
sI50
S"        patron = request.vars.categorias.capitalize() + '%'"
p3394
sI51
S'        seleccionado = [row.name for row in db(db.categorias.nombre.like(patron)).select()]'
p3395
sI52
S"        return ''.join([DIV(k,"
p3396
sI53
S'                     _onclick="jQuery(\'#categorias\').val(\'%s\')" % k,'
p3397
sI54
S'                     _onmouseover="this.style.backgroundColor=\'green\'",'
p3398
sI55
S'                     _onmouseout="this.style.backgroundColor=\'white\'"'
p3399
ssg3363
S'()'
p3400
sg3365
S'obtenerCategoria'
p3401
sa(dp3402
g3356
S'C:\\Python32\\web2py_win\\web2py\\gluon\\dal.py'
p3403
sg3358
(dp3404
sg3360
I3851
sg3361
(dp3405
sg3363
S"(self=<Row {'eventos': <gluon.dal.Set object at 0x05FE...lete_record': <function <lambda> at 0x05ABE6F0>}>, key='name')"
p3406
sg3365
S'__getattr__'
p3407
sa(dp3408
g3356
S'C:\\Python32\\web2py_win\\web2py\\gluon\\dal.py'
p3409
sg3358
(dp3410
sg3360
I3842
sg3361
(dp3411
sg3363
S"(self=<Row {'eventos': <gluon.dal.Set object at 0x05FE...lete_record': <function <lambda> at 0x05ABE6F0>}>, key='name')"
p3412
sg3365
g19
sasS'pyver'
p3413
S'Python 2.5.4: C:\\Python32\\web2py_win\\web2py\\web2py.exe'
p3414
sS'session'
p3415
g48
(g49
g50
NtRp3416
(dp3417
g53
(dp3418
sg55
(lp3419
g48
(g57
g50
NtRp3420
(dp3421
g53
(dp3422
g61
I5
ssg62
Nsg55
(lp3423
g48
(g64
g50
NtRp3424
(dp3425
g53
(dp3426
sg62
g3420
sg55
(lp3427
g48
(g69
g50
NtRp3428
(dp3429
g53
(dp3430
g73
g74
ssg62
g3424
sg55
(lp3431
S'flash'
p3432
asbag48
(g69
g50
NtRp3433
(dp3434
g53
(dp3435
g80
g81
ssg62
g3424
sg55
(lp3436
S':'
asbag48
(g69
g50
NtRp3437
(dp3438
g53
(dp3439
sg62
g3424
sg55
(lp3440
g48
(g49
g50
NtRp3441
(dp3442
g53
(dp3443
g61
I5
ssg62
g3437
sg55
(lp3444
S''
asbasbasbasbasbsS'etype'
p3445
S"<type 'exceptions.KeyError'>"
p3446
sS'date'
p3447
S'Mon Dec 19 19:09:00 2011'
p3448
sS'response'
p3449
g48
(g49
g50
NtRp3450
(dp3451
g53
(dp3452
sg55
(lp3453
g48
(g57
g50
NtRp3454
(dp3455
g53
(dp3456
g61
I5
ssg62
Nsg55
(lp3457
g48
(g64
g50
NtRp3458
(dp3459
g53
(dp3460
sg62
g3454
sg55
(lp3461
g48
(g69
g50
NtRp3462
(dp3463
g53
(dp3464
g73
g74
ssg62
g3458
sg55
(lp3465
g146
asbag48
(g69
g50
NtRp3466
(dp3467
g53
(dp3468
g80
g81
ssg62
g3458
sg55
(lp3469
S':'
asbag48
(g69
g50
NtRp3470
(dp3471
g53
(dp3472
sg62
g3458
sg55
(lp3473
g48
(g49
g50
NtRp3474
(dp3475
g53
(dp3476
g61
I5
ssg62
g3470
sg55
(lp3477
S'<cStringIO.StringO object at 0x05DE99A0>'
p3478
asbasbasbag48
(g64
g50
NtRp3479
(dp3480
g53
(dp3481
sg62
g3454
sg55
(lp3482
g48
(g69
g50
NtRp3483
(dp3484
g53
(dp3485
g73
g74
ssg62
g3479
sg55
(lp3486
g212
asbag48
(g69
g50
NtRp3487
(dp3488
g53
(dp3489
g80
g81
ssg62
g3479
sg55
(lp3490
S':'
asbag48
(g69
g50
NtRp3491
(dp3492
g53
(dp3493
sg62
g3479
sg55
(lp3494
g48
(g49
g50
NtRp3495
(dp3496
g53
(dp3497
g61
I5
ssg62
g3491
sg55
(lp3498
g48
(g57
g50
NtRp3499
(dp3500
g53
(dp3501
g61
I4
ssg62
Nsg55
(lp3502
g48
(g64
g50
NtRp3503
(dp3504
g53
(dp3505
sg62
g3499
sg55
(lp3506
g48
(g69
g50
NtRp3507
(dp3508
g53
(dp3509
g73
g74
ssg62
g3503
sg55
(lp3510
S'session_id_casa_de_apuestas'
p3511
asbag48
(g69
g50
NtRp3512
(dp3513
g53
(dp3514
g80
g81
ssg62
g3503
sg55
(lp3515
S':'
asbag48
(g69
g50
NtRp3516
(dp3517
g53
(dp3518
sg62
g3503
sg55
(lp3519
g48
(g49
g50
NtRp3520
(dp3521
g53
(dp3522
g61
I4
ssg62
g3516
sg55
(lp3523
g48
(g57
g50
NtRp3524
(dp3525
g53
(dp3526
g61
I3
ssg62
Nsg55
(lp3527
g48
(g64
g50
NtRp3528
(dp3529
g53
(dp3530
sg62
g3524
sg55
(lp3531
g48
(g69
g50
NtRp3532
(dp3533
g53
(dp3534
g73
g74
ssg62
g3528
sg55
(lp3535
g262
asbag48
(g69
g50
NtRp3536
(dp3537
g53
(dp3538
g80
g81
ssg62
g3528
sg55
(lp3539
S':'
asbag48
(g69
g50
NtRp3540
(dp3541
g53
(dp3542
sg62
g3528
sg55
(lp3543
g48
(g49
g50
NtRp3544
(dp3545
g53
(dp3546
g61
I3
ssg62
g3540
sg55
(lp3547
S''
asbasbasbag48
(g64
g50
NtRp3548
(dp3549
g53
(dp3550
sg62
g3524
sg55
(lp3551
g48
(g69
g50
NtRp3552
(dp3553
g53
(dp3554
g73
g74
ssg62
g3548
sg55
(lp3555
g283
asbag48
(g69
g50
NtRp3556
(dp3557
g53
(dp3558
g80
g81
ssg62
g3548
sg55
(lp3559
S':'
asbag48
(g69
g50
NtRp3560
(dp3561
g53
(dp3562
sg62
g3548
sg55
(lp3563
g48
(g49
g50
NtRp3564
(dp3565
g53
(dp3566
g61
I3
ssg62
g3560
sg55
(lp3567
S''
asbasbasbag48
(g64
g50
NtRp3568
(dp3569
g53
(dp3570
sg62
g3524
sg55
(lp3571
g48
(g69
g50
NtRp3572
(dp3573
g53
(dp3574
g73
g74
ssg62
g3568
sg55
(lp3575
g304
asbag48
(g69
g50
NtRp3576
(dp3577
g53
(dp3578
g80
g81
ssg62
g3568
sg55
(lp3579
S':'
asbag48
(g69
g50
NtRp3580
(dp3581
g53
(dp3582
sg62
g3568
sg55
(lp3583
g48
(g49
g50
NtRp3584
(dp3585
g53
(dp3586
g61
I3
ssg62
g3580
sg55
(lp3587
S''
asbasbasbag48
(g64
g50
NtRp3588
(dp3589
g53
(dp3590
sg62
g3524
sg55
(lp3591
g48
(g69
g50
NtRp3592
(dp3593
g53
(dp3594
g73
g74
ssg62
g3588
sg55
(lp3595
g325
asbag48
(g69
g50
NtRp3596
(dp3597
g53
(dp3598
g80
g81
ssg62
g3588
sg55
(lp3599
S':'
asbag48
(g69
g50
NtRp3600
(dp3601
g53
(dp3602
sg62
g3588
sg55
(lp3603
g48
(g49
g50
NtRp3604
(dp3605
g53
(dp3606
g61
I3
ssg62
g3600
sg55
(lp3607
S''
asbasbasbag48
(g64
g50
NtRp3608
(dp3609
g53
(dp3610
sg62
g3524
sg55
(lp3611
g48
(g69
g50
NtRp3612
(dp3613
g53
(dp3614
g73
g74
ssg62
g3608
sg55
(lp3615
g346
asbag48
(g69
g50
NtRp3616
(dp3617
g53
(dp3618
g80
g81
ssg62
g3608
sg55
(lp3619
S':'
asbag48
(g69
g50
NtRp3620
(dp3621
g53
(dp3622
sg62
g3608
sg55
(lp3623
g48
(g49
g50
NtRp3624
(dp3625
g53
(dp3626
g61
I3
ssg62
g3620
sg55
(lp3627
S'/'
asbasbasbag48
(g64
g50
NtRp3628
(dp3629
g53
(dp3630
sg62
g3524
sg55
(lp3631
g48
(g69
g50
NtRp3632
(dp3633
g53
(dp3634
g73
g74
ssg62
g3628
sg55
(lp3635
g367
asbag48
(g69
g50
NtRp3636
(dp3637
g53
(dp3638
g80
g81
ssg62
g3628
sg55
(lp3639
S':'
asbag48
(g69
g50
NtRp3640
(dp3641
g53
(dp3642
sg62
g3628
sg55
(lp3643
g48
(g49
g50
NtRp3644
(dp3645
g53
(dp3646
g61
I3
ssg62
g3640
sg55
(lp3647
S''
asbasbasbag48
(g64
g50
NtRp3648
(dp3649
g53
(dp3650
sg62
g3524
sg55
(lp3651
g48
(g69
g50
NtRp3652
(dp3653
g53
(dp3654
g73
g74
ssg62
g3648
sg55
(lp3655
g388
asbag48
(g69
g50
NtRp3656
(dp3657
g53
(dp3658
g80
g81
ssg62
g3648
sg55
(lp3659
S':'
asbag48
(g69
g50
NtRp3660
(dp3661
g53
(dp3662
sg62
g3648
sg55
(lp3663
g48
(g49
g50
NtRp3664
(dp3665
g53
(dp3666
g61
I3
ssg62
g3660
sg55
(lp3667
S''
asbasbasbasbasbasbasbasbasbasbasbag48
(g64
g50
NtRp3668
(dp3669
g53
(dp3670
sg62
g3454
sg55
(lp3671
g48
(g69
g50
NtRp3672
(dp3673
g53
(dp3674
g73
g74
ssg62
g3668
sg55
(lp3675
S'files'
p3676
asbag48
(g69
g50
NtRp3677
(dp3678
g53
(dp3679
g80
g81
ssg62
g3668
sg55
(lp3680
S':'
asbag48
(g69
g50
NtRp3681
(dp3682
g53
(dp3683
sg62
g3668
sg55
(lp3684
g48
(g49
g50
NtRp3685
(dp3686
g53
(dp3687
g61
I5
ssg62
g3681
sg55
(lp3688
g48
(g57
g50
NtRp3689
(dp3690
g53
(dp3691
g61
I4
ssg62
Nsg55
(lp3692
sbasbasbasbag48
(g64
g50
NtRp3693
(dp3694
g53
(dp3695
sg62
g3454
sg55
(lp3696
g48
(g69
g50
NtRp3697
(dp3698
g53
(dp3699
g73
g74
ssg62
g3693
sg55
(lp3700
S'flash'
p3701
asbag48
(g69
g50
NtRp3702
(dp3703
g53
(dp3704
g80
g81
ssg62
g3693
sg55
(lp3705
S':'
asbag48
(g69
g50
NtRp3706
(dp3707
g53
(dp3708
sg62
g3693
sg55
(lp3709
g48
(g49
g50
NtRp3710
(dp3711
g53
(dp3712
g61
I5
ssg62
g3706
sg55
(lp3713
S''
asbasbasbag48
(g64
g50
NtRp3714
(dp3715
g53
(dp3716
sg62
g3454
sg55
(lp3717
g48
(g69
g50
NtRp3718
(dp3719
g53
(dp3720
g73
g74
ssg62
g3714
sg55
(lp3721
S'generic_patterns'
p3722
asbag48
(g69
g50
NtRp3723
(dp3724
g53
(dp3725
g80
g81
ssg62
g3714
sg55
(lp3726
S':'
asbag48
(g69
g50
NtRp3727
(dp3728
g53
(dp3729
sg62
g3714
sg55
(lp3730
g48
(g49
g50
NtRp3731
(dp3732
g53
(dp3733
g61
I5
ssg62
g3727
sg55
(lp3734
g48
(g57
g50
NtRp3735
(dp3736
g53
(dp3737
g61
I4
ssg62
Nsg55
(lp3738
g48
(g64
g50
NtRp3739
(dp3740
g53
(dp3741
sg62
g3735
sg55
(lp3742
g48
(g69
g50
NtRp3743
(dp3744
g53
(dp3745
sg62
g3739
sg55
(lp3746
g48
(g49
g50
NtRp3747
(dp3748
g53
(dp3749
g61
I4
ssg62
g3743
sg55
(lp3750
S'*'
asbasbasbasbasbasbasbag48
(g64
g50
NtRp3751
(dp3752
g53
(dp3753
sg62
g3454
sg55
(lp3754
g48
(g69
g50
NtRp3755
(dp3756
g53
(dp3757
g73
g74
ssg62
g3751
sg55
(lp3758
S'headers'
p3759
asbag48
(g69
g50
NtRp3760
(dp3761
g53
(dp3762
g80
g81
ssg62
g3751
sg55
(lp3763
S':'
asbag48
(g69
g50
NtRp3764
(dp3765
g53
(dp3766
sg62
g3751
sg55
(lp3767
g48
(g49
g50
NtRp3768
(dp3769
g53
(dp3770
g61
I5
ssg62
g3764
sg55
(lp3771
g48
(g57
g50
NtRp3772
(dp3773
g53
(dp3774
g61
I4
ssg62
Nsg55
(lp3775
g48
(g64
g50
NtRp3776
(dp3777
g53
(dp3778
sg62
g3772
sg55
(lp3779
g48
(g69
g50
NtRp3780
(dp3781
g53
(dp3782
g73
g74
ssg62
g3776
sg55
(lp3783
S'Cache-Control'
p3784
asbag48
(g69
g50
NtRp3785
(dp3786
g53
(dp3787
g80
g81
ssg62
g3776
sg55
(lp3788
S':'
asbag48
(g69
g50
NtRp3789
(dp3790
g53
(dp3791
sg62
g3776
sg55
(lp3792
g48
(g49
g50
NtRp3793
(dp3794
g53
(dp3795
g61
I4
ssg62
g3789
sg55
(lp3796
S'no-store, no-cache, must-revalidate, post-check=0, pre-check=0'
p3797
asbasbasbag48
(g64
g50
NtRp3798
(dp3799
g53
(dp3800
sg62
g3772
sg55
(lp3801
g48
(g69
g50
NtRp3802
(dp3803
g53
(dp3804
g73
g74
ssg62
g3798
sg55
(lp3805
S'Content-Type'
p3806
asbag48
(g69
g50
NtRp3807
(dp3808
g53
(dp3809
g80
g81
ssg62
g3798
sg55
(lp3810
S':'
asbag48
(g69
g50
NtRp3811
(dp3812
g53
(dp3813
sg62
g3798
sg55
(lp3814
g48
(g49
g50
NtRp3815
(dp3816
g53
(dp3817
g61
I4
ssg62
g3811
sg55
(lp3818
S'text/html; charset=utf-8'
p3819
asbasbasbag48
(g64
g50
NtRp3820
(dp3821
g53
(dp3822
sg62
g3772
sg55
(lp3823
g48
(g69
g50
NtRp3824
(dp3825
g53
(dp3826
g73
g74
ssg62
g3820
sg55
(lp3827
S'Expires'
p3828
asbag48
(g69
g50
NtRp3829
(dp3830
g53
(dp3831
g80
g81
ssg62
g3820
sg55
(lp3832
S':'
asbag48
(g69
g50
NtRp3833
(dp3834
g53
(dp3835
sg62
g3820
sg55
(lp3836
g48
(g49
g50
NtRp3837
(dp3838
g53
(dp3839
g61
I4
ssg62
g3833
sg55
(lp3840
S'Mon, 19 Dec 2011 23:38:59 GMT'
p3841
asbasbasbag48
(g64
g50
NtRp3842
(dp3843
g53
(dp3844
sg62
g3772
sg55
(lp3845
g48
(g69
g50
NtRp3846
(dp3847
g53
(dp3848
g73
g74
ssg62
g3842
sg55
(lp3849
S'Pragma'
p3850
asbag48
(g69
g50
NtRp3851
(dp3852
g53
(dp3853
g80
g81
ssg62
g3842
sg55
(lp3854
S':'
asbag48
(g69
g50
NtRp3855
(dp3856
g53
(dp3857
sg62
g3842
sg55
(lp3858
g48
(g49
g50
NtRp3859
(dp3860
g53
(dp3861
g61
I4
ssg62
g3855
sg55
(lp3862
S'no-cache'
p3863
asbasbasbag48
(g64
g50
NtRp3864
(dp3865
g53
(dp3866
sg62
g3772
sg55
(lp3867
g48
(g69
g50
NtRp3868
(dp3869
g53
(dp3870
g73
g74
ssg62
g3864
sg55
(lp3871
S'X-Powered-By'
p3872
asbag48
(g69
g50
NtRp3873
(dp3874
g53
(dp3875
g80
g81
ssg62
g3864
sg55
(lp3876
S':'
asbag48
(g69
g50
NtRp3877
(dp3878
g53
(dp3879
sg62
g3864
sg55
(lp3880
g48
(g49
g50
NtRp3881
(dp3882
g53
(dp3883
g61
I4
ssg62
g3877
sg55
(lp3884
S'web2py'
p3885
asbasbasbasbasbasbasbag48
(g64
g50
NtRp3886
(dp3887
g53
(dp3888
sg62
g3454
sg55
(lp3889
g48
(g69
g50
NtRp3890
(dp3891
g53
(dp3892
g73
g74
ssg62
g3886
sg55
(lp3893
S'menu'
p3894
asbag48
(g69
g50
NtRp3895
(dp3896
g53
(dp3897
g80
g81
ssg62
g3886
sg55
(lp3898
S':'
asbag48
(g69
g50
NtRp3899
(dp3900
g53
(dp3901
sg62
g3886
sg55
(lp3902
g48
(g49
g50
NtRp3903
(dp3904
g53
(dp3905
g61
I5
ssg62
g3899
sg55
(lp3906
g48
(g57
g50
NtRp3907
(dp3908
g53
(dp3909
g61
I4
ssg62
Nsg55
(lp3910
g48
(g64
g50
NtRp3911
(dp3912
g53
(dp3913
sg62
g3907
sg55
(lp3914
g48
(g69
g50
NtRp3915
(dp3916
g53
(dp3917
sg62
g3911
sg55
(lp3918
g48
(g49
g50
NtRp3919
(dp3920
g53
(dp3921
g61
I4
ssg62
g3915
sg55
(lp3922
g48
(g57
g50
NtRp3923
(dp3924
g53
(dp3925
g61
I3
ssg62
Nsg55
(lp3926
g48
(g64
g50
NtRp3927
(dp3928
g53
(dp3929
sg62
g3923
sg55
(lp3930
g48
(g69
g50
NtRp3931
(dp3932
g53
(dp3933
sg62
g3927
sg55
(lp3934
g48
(g49
g50
NtRp3935
(dp3936
g53
(dp3937
g61
I3
ssg62
g3931
sg55
(lp3938
cgluon.languages
lazyT_unpickle
p3939
(S's\x05\x00\x00\x00Index'
tRp3940
asbasbasbag48
(g64
g50
NtRp3941
(dp3942
g53
(dp3943
sg62
g3923
sg55
(lp3944
g48
(g69
g50
NtRp3945
(dp3946
g53
(dp3947
sg62
g3941
sg55
(lp3948
g48
(g49
g50
NtRp3949
(dp3950
g53
(dp3951
g61
I3
ssg62
g3945
sg55
(lp3952
g1099
asbasbasbag48
(g64
g50
NtRp3953
(dp3954
g53
(dp3955
sg62
g3923
sg55
(lp3956
g48
(g69
g50
NtRp3957
(dp3958
g53
(dp3959
sg62
g3953
sg55
(lp3960
g48
(g49
g50
NtRp3961
(dp3962
g53
(dp3963
g61
I3
ssg62
g3957
sg55
(lp3964
S'/Casa_de_Apuestas/default/index'
p3965
asbasbasbag48
(g64
g50
NtRp3966
(dp3967
g53
(dp3968
sg62
g3923
sg55
(lp3969
g48
(g69
g50
NtRp3970
(dp3971
g53
(dp3972
sg62
g3966
sg55
(lp3973
g48
(g49
g50
NtRp3974
(dp3975
g53
(dp3976
g61
I3
ssg62
g3970
sg55
(lp3977
g48
(g57
g50
NtRp3978
(dp3979
g53
(dp3980
g61
I2
ssg62
Nsg55
(lp3981
sbasbasbasbasbasbasbasbasbasbasbasbag48
(g64
g50
NtRp3982
(dp3983
g53
(dp3984
sg62
g3454
sg55
(lp3985
g48
(g69
g50
NtRp3986
(dp3987
g53
(dp3988
g73
g74
ssg62
g3982
sg55
(lp3989
S'meta'
p3990
asbag48
(g69
g50
NtRp3991
(dp3992
g53
(dp3993
g80
g81
ssg62
g3982
sg55
(lp3994
S':'
asbag48
(g69
g50
NtRp3995
(dp3996
g53
(dp3997
sg62
g3982
sg55
(lp3998
g48
(g49
g50
NtRp3999
(dp4000
g53
(dp4001
g61
I5
ssg62
g3995
sg55
(lp4002
g48
(g57
g50
NtRp4003
(dp4004
g53
(dp4005
g61
I4
ssg62
Nsg55
(lp4006
g48
(g64
g50
NtRp4007
(dp4008
g53
(dp4009
sg62
g4003
sg55
(lp4010
g48
(g69
g50
NtRp4011
(dp4012
g53
(dp4013
g73
g74
ssg62
g4007
sg55
(lp4014
S'author'
p4015
asbag48
(g69
g50
NtRp4016
(dp4017
g53
(dp4018
g80
g81
ssg62
g4007
sg55
(lp4019
S':'
asbag48
(g69
g50
NtRp4020
(dp4021
g53
(dp4022
sg62
g4007
sg55
(lp4023
g48
(g49
g50
NtRp4024
(dp4025
g53
(dp4026
g61
I4
ssg62
g4020
sg55
(lp4027
S'JSG Systems <jsg@example.com>'
p4028
asbasbasbag48
(g64
g50
NtRp4029
(dp4030
g53
(dp4031
sg62
g4003
sg55
(lp4032
g48
(g69
g50
NtRp4033
(dp4034
g53
(dp4035
g73
g74
ssg62
g4029
sg55
(lp4036
S'description'
p4037
asbag48
(g69
g50
NtRp4038
(dp4039
g53
(dp4040
g80
g81
ssg62
g4029
sg55
(lp4041
S':'
asbag48
(g69
g50
NtRp4042
(dp4043
g53
(dp4044
sg62
g4029
sg55
(lp4045
g48
(g49
g50
NtRp4046
(dp4047
g53
(dp4048
g61
I4
ssg62
g4042
sg55
(lp4049
S''
asbasbasbag48
(g64
g50
NtRp4050
(dp4051
g53
(dp4052
sg62
g4003
sg55
(lp4053
g48
(g69
g50
NtRp4054
(dp4055
g53
(dp4056
g73
g74
ssg62
g4050
sg55
(lp4057
S'keywords'
p4058
asbag48
(g69
g50
NtRp4059
(dp4060
g53
(dp4061
g80
g81
ssg62
g4050
sg55
(lp4062
S':'
asbag48
(g69
g50
NtRp4063
(dp4064
g53
(dp4065
sg62
g4050
sg55
(lp4066
g48
(g49
g50
NtRp4067
(dp4068
g53
(dp4069
g61
I4
ssg62
g4063
sg55
(lp4070
S'casa, apuestas'
p4071
asbasbasbasbasbasbasbag48
(g64
g50
NtRp4072
(dp4073
g53
(dp4074
sg62
g3454
sg55
(lp4075
g48
(g69
g50
NtRp4076
(dp4077
g53
(dp4078
g73
g74
ssg62
g4072
sg55
(lp4079
S'postprocessing'
p4080
asbag48
(g69
g50
NtRp4081
(dp4082
g53
(dp4083
g80
g81
ssg62
g4072
sg55
(lp4084
S':'
asbag48
(g69
g50
NtRp4085
(dp4086
g53
(dp4087
sg62
g4072
sg55
(lp4088
g48
(g49
g50
NtRp4089
(dp4090
g53
(dp4091
g61
I5
ssg62
g4085
sg55
(lp4092
g48
(g57
g50
NtRp4093
(dp4094
g53
(dp4095
g61
I4
ssg62
Nsg55
(lp4096
sbasbasbasbag48
(g64
g50
NtRp4097
(dp4098
g53
(dp4099
sg62
g3454
sg55
(lp4100
g48
(g69
g50
NtRp4101
(dp4102
g53
(dp4103
g73
g74
ssg62
g4097
sg55
(lp4104
S'session_file'
p4105
asbag48
(g69
g50
NtRp4106
(dp4107
g53
(dp4108
g80
g81
ssg62
g4097
sg55
(lp4109
S':'
asbag48
(g69
g50
NtRp4110
(dp4111
g53
(dp4112
sg62
g4097
sg55
(lp4113
g48
(g49
g50
NtRp4114
(dp4115
g53
(dp4116
g61
I5
ssg62
g4110
sg55
(lp4117
S"<open file 'C:\\Python32\\web2py_win\\web2py\\applications\\Casa_de_Apuestas\\sessions\\127.0.0.1-b28859fb-172e-488d-8e45-f5879b610d08', mode 'rb+' at 0x057BFB18>"
p4118
asbasbasbag48
(g64
g50
NtRp4119
(dp4120
g53
(dp4121
sg62
g3454
sg55
(lp4122
g48
(g69
g50
NtRp4123
(dp4124
g53
(dp4125
g73
g74
ssg62
g4119
sg55
(lp4126
S'session_filename'
p4127
asbag48
(g69
g50
NtRp4128
(dp4129
g53
(dp4130
g80
g81
ssg62
g4119
sg55
(lp4131
S':'
asbag48
(g69
g50
NtRp4132
(dp4133
g53
(dp4134
sg62
g4119
sg55
(lp4135
g48
(g49
g50
NtRp4136
(dp4137
g53
(dp4138
g61
I5
ssg62
g4132
sg55
(lp4139
S'C:\\Python32\\web2py_win\\web2py\\applications\\Casa_de_Apuestas\\sessions\\127.0.0.1-b28859fb-172e-488d-8e45-f5879b610d08'
p4140
asbasbasbag48
(g64
g50
NtRp4141
(dp4142
g53
(dp4143
sg62
g3454
sg55
(lp4144
g48
(g69
g50
NtRp4145
(dp4146
g53
(dp4147
g73
g74
ssg62
g4141
sg55
(lp4148
S'session_id'
p4149
asbag48
(g69
g50
NtRp4150
(dp4151
g53
(dp4152
g80
g81
ssg62
g4141
sg55
(lp4153
S':'
asbag48
(g69
g50
NtRp4154
(dp4155
g53
(dp4156
sg62
g4141
sg55
(lp4157
g48
(g49
g50
NtRp4158
(dp4159
g53
(dp4160
g61
I5
ssg62
g4154
sg55
(lp4161
S'127.0.0.1-b28859fb-172e-488d-8e45-f5879b610d08'
p4162
asbasbasbag48
(g64
g50
NtRp4163
(dp4164
g53
(dp4165
sg62
g3454
sg55
(lp4166
g48
(g69
g50
NtRp4167
(dp4168
g53
(dp4169
g73
g74
ssg62
g4163
sg55
(lp4170
S'session_id_name'
p4171
asbag48
(g69
g50
NtRp4172
(dp4173
g53
(dp4174
g80
g81
ssg62
g4163
sg55
(lp4175
S':'
asbag48
(g69
g50
NtRp4176
(dp4177
g53
(dp4178
sg62
g4163
sg55
(lp4179
g48
(g49
g50
NtRp4180
(dp4181
g53
(dp4182
g61
I5
ssg62
g4176
sg55
(lp4183
g3511
asbasbasbag48
(g64
g50
NtRp4184
(dp4185
g53
(dp4186
sg62
g3454
sg55
(lp4187
g48
(g69
g50
NtRp4188
(dp4189
g53
(dp4190
g73
g74
ssg62
g4184
sg55
(lp4191
S'session_locked'
p4192
asbag48
(g69
g50
NtRp4193
(dp4194
g53
(dp4195
g80
g81
ssg62
g4184
sg55
(lp4196
S':'
asbag48
(g69
g50
NtRp4197
(dp4198
g53
(dp4199
sg62
g4184
sg55
(lp4200
g48
(g49
g50
NtRp4201
(dp4202
g53
(dp4203
g61
I5
ssg62
g4197
sg55
(lp4204
g91
asbasbasbag48
(g64
g50
NtRp4205
(dp4206
g53
(dp4207
sg62
g3454
sg55
(lp4208
g48
(g69
g50
NtRp4209
(dp4210
g53
(dp4211
g73
g74
ssg62
g4205
sg55
(lp4212
S'session_new'
p4213
asbag48
(g69
g50
NtRp4214
(dp4215
g53
(dp4216
g80
g81
ssg62
g4205
sg55
(lp4217
S':'
asbag48
(g69
g50
NtRp4218
(dp4219
g53
(dp4220
sg62
g4205
sg55
(lp4221
g48
(g49
g50
NtRp4222
(dp4223
g53
(dp4224
g61
I5
ssg62
g4218
sg55
(lp4225
g1099
asbasbasbag48
(g64
g50
NtRp4226
(dp4227
g53
(dp4228
sg62
g3454
sg55
(lp4229
g48
(g69
g50
NtRp4230
(dp4231
g53
(dp4232
g73
g74
ssg62
g4226
sg55
(lp4233
S'status'
p4234
asbag48
(g69
g50
NtRp4235
(dp4236
g53
(dp4237
g80
g81
ssg62
g4226
sg55
(lp4238
S':'
asbag48
(g69
g50
NtRp4239
(dp4240
g53
(dp4241
sg62
g4226
sg55
(lp4242
g48
(g49
g50
NtRp4243
(dp4244
g53
(dp4245
g61
I5
ssg62
g4239
sg55
(lp4246
S'200'
p4247
asbasbasbag48
(g64
g50
NtRp4248
(dp4249
g53
(dp4250
sg62
g3454
sg55
(lp4251
g48
(g69
g50
NtRp4252
(dp4253
g53
(dp4254
g73
g74
ssg62
g4248
sg55
(lp4255
S'subtitle'
p4256
asbag48
(g69
g50
NtRp4257
(dp4258
g53
(dp4259
g80
g81
ssg62
g4248
sg55
(lp4260
S':'
asbag48
(g69
g50
NtRp4261
(dp4262
g53
(dp4263
sg62
g4248
sg55
(lp4264
g48
(g49
g50
NtRp4265
(dp4266
g53
(dp4267
g61
I5
ssg62
g4261
sg55
(lp4268
S''
asbasbasbag48
(g64
g50
NtRp4269
(dp4270
g53
(dp4271
sg62
g3454
sg55
(lp4272
g48
(g69
g50
NtRp4273
(dp4274
g53
(dp4275
g73
g74
ssg62
g4269
sg55
(lp4276
S'title'
p4277
asbag48
(g69
g50
NtRp4278
(dp4279
g53
(dp4280
g80
g81
ssg62
g4269
sg55
(lp4281
S':'
asbag48
(g69
g50
NtRp4282
(dp4283
g53
(dp4284
sg62
g4269
sg55
(lp4285
g48
(g49
g50
NtRp4286
(dp4287
g53
(dp4288
g61
I5
ssg62
g4282
sg55
(lp4289
S'Casa de Apuestas'
p4290
asbasbasbag48
(g64
g50
NtRp4291
(dp4292
g53
(dp4293
sg62
g3454
sg55
(lp4294
g48
(g69
g50
NtRp4295
(dp4296
g53
(dp4297
g73
g74
ssg62
g4291
sg55
(lp4298
g2548
asbag48
(g69
g50
NtRp4299
(dp4300
g53
(dp4301
g80
g81
ssg62
g4291
sg55
(lp4302
S':'
asbag48
(g69
g50
NtRp4303
(dp4304
g53
(dp4305
sg62
g4291
sg55
(lp4306
g48
(g49
g50
NtRp4307
(dp4308
g53
(dp4309
g61
I5
ssg62
g4303
sg55
(lp4310
g2561
asbasbasbag48
(g64
g50
NtRp4311
(dp4312
g53
(dp4313
sg62
g3454
sg55
(lp4314
g48
(g69
g50
NtRp4315
(dp4316
g53
(dp4317
g73
g74
ssg62
g4311
sg55
(lp4318
S'view'
p4319
asbag48
(g69
g50
NtRp4320
(dp4321
g53
(dp4322
g80
g81
ssg62
g4311
sg55
(lp4323
S':'
asbag48
(g69
g50
NtRp4324
(dp4325
g53
(dp4326
sg62
g4311
sg55
(lp4327
g48
(g49
g50
NtRp4328
(dp4329
g53
(dp4330
g61
I5
ssg62
g4324
sg55
(lp4331
S'default/obtenerCategoria.html'
p4332
asbasbasbasbasbsS'locals'
p4333
(dp4334
S'self'
p4335
S"<Row {'eventos': <gluon.dal.Set object at 0x05FE...lete_record': <function <lambda> at 0x05ABE6F0>}>"
p4336
sS'm'
S'None'
p4337
sS'key'
p4338
S"'name'"
p4339
sssS'traceback'
p4340
S'Traceback (most recent call last):\n  File "gluon/restricted.py", line 194, in restricted\n  File "C:\\Python32\\web2py_win\\web2py\\applications\\Casa_de_Apuestas\\controllers/default.py", line 206, in <module>\n  File "gluon/globals.py", line 149, in <lambda>\n  File "C:\\Python32\\web2py_win\\web2py\\applications\\Casa_de_Apuestas\\controllers/default.py", line 51, in obtenerCategoria\n  File "gluon/dal.py", line 3851, in __getattr__\n  File "gluon/dal.py", line 3842, in __getitem__\nKeyError: \'name\'\n'
p4341
s.