(dp1
S'output'
p2
S''
sS'layer'
p3
S'C:\\Python32\\web2py_win\\web2py\\applications\\Casa_de_Apuestas\\views\\default/showCategoria.html'
p4
sS'code'
p5
S'response.write(\'<!DOCTYPE html PUBLIC "-//W3C//DTD XHTML 1.0 Strict//EN" "http://www.w3.org/TR/xhtml1/DTD/xhtml1-strict.dtd">\\r\\n<!--\\r\\nDesign by Free CSS Templates\\r\\nhttp://www.freecsstemplates.org\\r\\nReleased for free under a Creative Commons Attribution 2.5 License\\r\\n\\r\\nName       : Balanced\\r\\nDescription: A two-column, fixed-width design suitable for blogs and small websites.\\r\\nVersion    : 1.0\\r\\nReleased   : 20090927\\r\\n\\r\\n-->\\r\\n<html xmlns="http://www.w3.org/1999/xhtml">\\r\\n <head>\\r\\n  <title>\\r\\n   \', escape=False)\nresponse.write(response.title or request.application)\nresponse.write(\'\\r\\n  </title>\\r\\n  \', escape=False)\nresponse.files.append(URL(request.application,\'static\',\'plugin_layouts/layouts/Balanced/default.css\'))\nresponse.write(\'\\r\\n  \', escape=False)\nresponse.files.append(URL(\'static\',\'plugin_layouts/superfish.js\'))\nresponse.write(\'\\r\\n  \', escape=False)\nresponse.files.insert(0,URL(\'static\',\'js/jquery.js\'))\nresponse.files.insert(1,URL(\'static\',\'css/anytime.css\'))\nresponse.files.insert(2,URL(\'static\',\'js/anytime.js\'))\nresponse.include_meta()\nresponse.include_files()\nresponse.write(\'\\r\\n<script type="text/javascript"><!--\\r\\n    // These variables are used by the web2py_ajax_init function in web2py_ajax.js (which is loaded below).\\r\\n    var w2p_ajax_confirm_message = "\', escape=False)\nresponse.write(T(\'Are you sure you want to delete this object?\'))\nresponse.write(\'";\\r\\n    var w2p_ajax_date_format = "\', escape=False)\nresponse.write(T(\'%Y-%m-%d\'))\nresponse.write(\'";\\r\\n    var w2p_ajax_datetime_format = "\', escape=False)\nresponse.write(T(\'%Y-%m-%d %H:%M:%S\'))\nresponse.write(\'";\\r\\n    //--></script>\\r\\n    <script src="\', escape=False)\nresponse.write(URL(\'static\',\'js/web2py_ajax.js\'))\nresponse.write(\'" type="text/javascript"></script>\\r\\n\', escape=False)\nresponse.write(\'\\r\\n  <style>\\r\\nul.web2py-menu-vertical { width: 150px; position: relative; top:1em; left:1em;  z-index:30; border:0; margin:0; padding: 0; list-style: none; text-decoration: none;}\\r\\nul.web2py-menu-vertical li { margin:0; padding:0; border:0; width: 150px; background: black; text-align:left;}\\r\\nul.web2py-menu-vertical li a { margin:0; padding: 1px 3px 1px 3px; border:0; width: 144px; color: white; font-size:12px;}\\r\\ndiv.flash { position: fixed; float: right; padding: 10px; top: 10px; right: 30px; opacity: 0.75; margin: 10px 10px 10px 10px; text-align: center; clear: both; color: #fff; font-size: 11pt; text-align: center; vertical-align: middle; cursor: pointer; background: black; border: 2px solid #fff; -moz-border-radius: 5px; -webkit-border-radius: 5px; z-index: 2; }\\r\\ndiv.error { background-color: red; color: white; padding: 3px; }\\r\\n.auth_navbar { text-align:right; z-index:20; position: absolute; top: 2px; right:30px; border:0; padding:0 }\\r\\n  </style>\\r\\n </head>\\r\\n <body>\\r\\n  <!-- start header -->\\r\\n  \', escape=False)\ntry:\n    response.write(auth.navbar(action=URL(\'default\',\'user\')))\nexcept:pass\nresponse.write(\'\\r\\n\\r\\n  <!-- start header -->\\r\\n  <div id="header">\\r\\n   <div id="logo">\\r\\n    <h1>\\r\\n     Sistema de Gesti\\xc3\\xb3n 1.0\\r\\n    </h1>\\r\\n   </div>\\r\\n  </div>\\r\\n  <!-- end header -->\\r\\n  <!-- start page -->\\r\\n  <div id="page">\\r\\n   <!-- start content -->\\r\\n   <!-- end content -->\\r\\n   \', escape=False)\nresponse.write(\'\\r\\n<div id="content">\\r\\n    <div class="post greenbox">\\r\\n           <div class="title">\\r\\n                <h1>\', escape=False)\nresponse.write(T(form.nombre))\nresponse.write(\'</h1>\\r\\n           </div>\\r\\n           <div class="entry">\\r\\n                    \', escape=False)\nresponse.write(form)\nresponse.write(\'\\r\\n           </div>\\r\\n           <div class="btm" align="center">\\r\\n              <div class="l">\\r\\n                  <div class="r">\\r\\n                       &nbsp;\\r\\n                  </div>\\r\\n              </div>\\r\\n           </div>\\r\\n     </div>\\r\\n</div>\\r\\n<div id="sidebar">\\r\\n  <ul>\\r\\n    <li>\\r\\n      <h2>\\r\\n       No se que colocar aqu\\xc3\\xad\\r\\n      </h2>\\r\\n      <ul align="center">\\r\\n      </ul>\\r\\n    </li>\\r\\n</div>\\r\\n\', escape=False)\npass\nresponse.write(\'\\r\\n\', escape=False)\nresponse.write(\'\\r\\n   <!-- start sidebar -->\\r\\n   <!-- end sidebar -->\\r\\n  </div>\\r\\n  <!-- end page -->\\r\\n  <div style="clear: both;">\\r\\n   &nbsp;\\r\\n  </div>\\r\\n  <div id="footer">\\r\\n   <p>\\r\\n    &copy;2011 All Rights Reserved. &nbsp;&bull;&nbsp; Design by JSG Systems\\r\\n   </p>\\r\\n  </div>\\r\\n </body>\\r\\n</html>\\r\\n\', escape=False)'
p6
sS'snapshot'
p7
(dp8
S'exception'
p9
(dp10
S'__hash__'
p11
S"<method-wrapper '__hash__' of exceptions.AttributeError object at 0x026C1BC0>"
p12
sS'__setattr__'
p13
S"<method-wrapper '__setattr__' of exceptions.AttributeError object at 0x026C1BC0>"
p14
sS'__reduce_ex__'
p15
S'<built-in method __reduce_ex__ of exceptions.AttributeError object at 0x026C1BC0>'
p16
sS'__getslice__'
p17
S"<method-wrapper '__getslice__' of exceptions.AttributeError object at 0x026C1BC0>"
p18
sS'__getitem__'
p19
S"<method-wrapper '__getitem__' of exceptions.AttributeError object at 0x026C1BC0>"
p20
sS'__setstate__'
p21
S'<built-in method __setstate__ of exceptions.AttributeError object at 0x026C1BC0>'
p22
sS'__reduce__'
p23
S'<built-in method __reduce__ of exceptions.AttributeError object at 0x026C1BC0>'
p24
sS'__str__'
p25
S"<method-wrapper '__str__' of exceptions.AttributeError object at 0x026C1BC0>"
p26
sS'args'
p27
S'("\'SQLFORM\' object has no attribute \'nombre\'",)'
p28
sS'__getattribute__'
p29
S"<method-wrapper '__getattribute__' of exceptions.AttributeError object at 0x026C1BC0>"
p30
sS'__class__'
p31
S"<type 'exceptions.AttributeError'>"
p32
sS'__delattr__'
p33
S"<method-wrapper '__delattr__' of exceptions.AttributeError object at 0x026C1BC0>"
p34
sS'__repr__'
p35
S"<method-wrapper '__repr__' of exceptions.AttributeError object at 0x026C1BC0>"
p36
sS'__dict__'
p37
S'{}'
p38
sS'__doc__'
p39
S"'Attribute not found.'"
p40
sS'__init__'
p41
S"<method-wrapper '__init__' of exceptions.AttributeError object at 0x026C1BC0>"
p42
sS'__new__'
p43
S'<built-in method __new__ of type object at 0x1E1CDA68>'
p44
ssS'evalue'
p45
S"'SQLFORM' object has no attribute 'nombre'"
p46
sS'request'
p47
ccopy_reg
_reconstructor
p48
(cgluon.html
BEAUTIFY
p49
c__builtin__
object
p50
NtRp51
(dp52
S'attributes'
p53
(dp54
sS'components'
p55
(lp56
g48
(cgluon.html
TABLE
p57
g50
NtRp58
(dp59
g53
(dp60
S'level'
p61
I5
ssS'parent'
p62
Nsg55
(lp63
g48
(cgluon.html
TR
p64
g50
NtRp65
(dp66
g53
(dp67
sg62
g58
sg55
(lp68
g48
(cgluon.html
TD
p69
g50
NtRp70
(dp71
g53
(dp72
S'_style'
p73
S'font-weight:bold;'
p74
ssg62
g65
sg55
(lp75
S'ajax'
p76
asbag48
(g69
g50
NtRp77
(dp78
g53
(dp79
S'_valign'
p80
S'top'
p81
ssg62
g65
sg55
(lp82
S':'
asbag48
(g69
g50
NtRp83
(dp84
g53
(dp85
sg62
g65
sg55
(lp86
g48
(g49
g50
NtRp87
(dp88
g53
(dp89
g61
I5
ssg62
g83
sg55
(lp90
S'False'
p91
asbasbasbag48
(g64
g50
NtRp92
(dp93
g53
(dp94
sg62
g58
sg55
(lp95
g48
(g69
g50
NtRp96
(dp97
g53
(dp98
g73
g74
ssg62
g92
sg55
(lp99
S'application'
p100
asbag48
(g69
g50
NtRp101
(dp102
g53
(dp103
g80
g81
ssg62
g92
sg55
(lp104
S':'
asbag48
(g69
g50
NtRp105
(dp106
g53
(dp107
sg62
g92
sg55
(lp108
g48
(g49
g50
NtRp109
(dp110
g53
(dp111
g61
I5
ssg62
g105
sg55
(lp112
S'Casa_de_Apuestas'
p113
asbasbasbag48
(g64
g50
NtRp114
(dp115
g53
(dp116
sg62
g58
sg55
(lp117
g48
(g69
g50
NtRp118
(dp119
g53
(dp120
g73
g74
ssg62
g114
sg55
(lp121
g27
asbag48
(g69
g50
NtRp122
(dp123
g53
(dp124
g80
g81
ssg62
g114
sg55
(lp125
S':'
asbag48
(g69
g50
NtRp126
(dp127
g53
(dp128
sg62
g114
sg55
(lp129
g48
(g49
g50
NtRp130
(dp131
g53
(dp132
g61
I5
ssg62
g126
sg55
(lp133
g48
(g57
g50
NtRp134
(dp135
g53
(dp136
g61
I4
ssg62
Nsg55
(lp137
g48
(g64
g50
NtRp138
(dp139
g53
(dp140
sg62
g134
sg55
(lp141
g48
(g69
g50
NtRp142
(dp143
g53
(dp144
sg62
g138
sg55
(lp145
g48
(g49
g50
NtRp146
(dp147
g53
(dp148
g61
I4
ssg62
g142
sg55
(lp149
S'2'
asbasbasbasbasbasbasbag48
(g64
g50
NtRp150
(dp151
g53
(dp152
sg62
g58
sg55
(lp153
g48
(g69
g50
NtRp154
(dp155
g53
(dp156
g73
g74
ssg62
g150
sg55
(lp157
S'body'
p158
asbag48
(g69
g50
NtRp159
(dp160
g53
(dp161
g80
g81
ssg62
g150
sg55
(lp162
S':'
asbag48
(g69
g50
NtRp163
(dp164
g53
(dp165
sg62
g150
sg55
(lp166
g48
(g49
g50
NtRp167
(dp168
g53
(dp169
g61
I5
ssg62
g163
sg55
(lp170
S'<cStringIO.StringO object at 0x026BE420>'
p171
asbasbasbag48
(g64
g50
NtRp172
(dp173
g53
(dp174
sg62
g58
sg55
(lp175
g48
(g69
g50
NtRp176
(dp177
g53
(dp178
g73
g74
ssg62
g172
sg55
(lp179
S'client'
p180
asbag48
(g69
g50
NtRp181
(dp182
g53
(dp183
g80
g81
ssg62
g172
sg55
(lp184
S':'
asbag48
(g69
g50
NtRp185
(dp186
g53
(dp187
sg62
g172
sg55
(lp188
g48
(g49
g50
NtRp189
(dp190
g53
(dp191
g61
I5
ssg62
g185
sg55
(lp192
S'127.0.0.1'
p193
asbasbasbag48
(g64
g50
NtRp194
(dp195
g53
(dp196
sg62
g58
sg55
(lp197
g48
(g69
g50
NtRp198
(dp199
g53
(dp200
g73
g74
ssg62
g194
sg55
(lp201
S'controller'
p202
asbag48
(g69
g50
NtRp203
(dp204
g53
(dp205
g80
g81
ssg62
g194
sg55
(lp206
S':'
asbag48
(g69
g50
NtRp207
(dp208
g53
(dp209
sg62
g194
sg55
(lp210
g48
(g49
g50
NtRp211
(dp212
g53
(dp213
g61
I5
ssg62
g207
sg55
(lp214
S'default'
p215
asbasbasbag48
(g64
g50
NtRp216
(dp217
g53
(dp218
sg62
g58
sg55
(lp219
g48
(g69
g50
NtRp220
(dp221
g53
(dp222
g73
g74
ssg62
g216
sg55
(lp223
S'cookies'
p224
asbag48
(g69
g50
NtRp225
(dp226
g53
(dp227
g80
g81
ssg62
g216
sg55
(lp228
S':'
asbag48
(g69
g50
NtRp229
(dp230
g53
(dp231
sg62
g216
sg55
(lp232
g48
(g49
g50
NtRp233
(dp234
g53
(dp235
g61
I5
ssg62
g229
sg55
(lp236
g48
(g57
g50
NtRp237
(dp238
g53
(dp239
g61
I4
ssg62
Nsg55
(lp240
g48
(g64
g50
NtRp241
(dp242
g53
(dp243
sg62
g237
sg55
(lp244
g48
(g69
g50
NtRp245
(dp246
g53
(dp247
g73
g74
ssg62
g241
sg55
(lp248
S'session_id_admin'
p249
asbag48
(g69
g50
NtRp250
(dp251
g53
(dp252
g80
g81
ssg62
g241
sg55
(lp253
S':'
asbag48
(g69
g50
NtRp254
(dp255
g53
(dp256
sg62
g241
sg55
(lp257
g48
(g49
g50
NtRp258
(dp259
g53
(dp260
g61
I4
ssg62
g254
sg55
(lp261
g48
(g57
g50
NtRp262
(dp263
g53
(dp264
g61
I3
ssg62
Nsg55
(lp265
g48
(g64
g50
NtRp266
(dp267
g53
(dp268
sg62
g262
sg55
(lp269
g48
(g69
g50
NtRp270
(dp271
g53
(dp272
g73
g74
ssg62
g266
sg55
(lp273
S'comment'
p274
asbag48
(g69
g50
NtRp275
(dp276
g53
(dp277
g80
g81
ssg62
g266
sg55
(lp278
S':'
asbag48
(g69
g50
NtRp279
(dp280
g53
(dp281
sg62
g266
sg55
(lp282
g48
(g49
g50
NtRp283
(dp284
g53
(dp285
g61
I3
ssg62
g279
sg55
(lp286
S''
asbasbasbag48
(g64
g50
NtRp287
(dp288
g53
(dp289
sg62
g262
sg55
(lp290
g48
(g69
g50
NtRp291
(dp292
g53
(dp293
g73
g74
ssg62
g287
sg55
(lp294
S'domain'
p295
asbag48
(g69
g50
NtRp296
(dp297
g53
(dp298
g80
g81
ssg62
g287
sg55
(lp299
S':'
asbag48
(g69
g50
NtRp300
(dp301
g53
(dp302
sg62
g287
sg55
(lp303
g48
(g49
g50
NtRp304
(dp305
g53
(dp306
g61
I3
ssg62
g300
sg55
(lp307
S''
asbasbasbag48
(g64
g50
NtRp308
(dp309
g53
(dp310
sg62
g262
sg55
(lp311
g48
(g69
g50
NtRp312
(dp313
g53
(dp314
g73
g74
ssg62
g308
sg55
(lp315
S'expires'
p316
asbag48
(g69
g50
NtRp317
(dp318
g53
(dp319
g80
g81
ssg62
g308
sg55
(lp320
S':'
asbag48
(g69
g50
NtRp321
(dp322
g53
(dp323
sg62
g308
sg55
(lp324
g48
(g49
g50
NtRp325
(dp326
g53
(dp327
g61
I3
ssg62
g321
sg55
(lp328
S''
asbasbasbag48
(g64
g50
NtRp329
(dp330
g53
(dp331
sg62
g262
sg55
(lp332
g48
(g69
g50
NtRp333
(dp334
g53
(dp335
g73
g74
ssg62
g329
sg55
(lp336
S'max-age'
p337
asbag48
(g69
g50
NtRp338
(dp339
g53
(dp340
g80
g81
ssg62
g329
sg55
(lp341
S':'
asbag48
(g69
g50
NtRp342
(dp343
g53
(dp344
sg62
g329
sg55
(lp345
g48
(g49
g50
NtRp346
(dp347
g53
(dp348
g61
I3
ssg62
g342
sg55
(lp349
S''
asbasbasbag48
(g64
g50
NtRp350
(dp351
g53
(dp352
sg62
g262
sg55
(lp353
g48
(g69
g50
NtRp354
(dp355
g53
(dp356
g73
g74
ssg62
g350
sg55
(lp357
S'path'
p358
asbag48
(g69
g50
NtRp359
(dp360
g53
(dp361
g80
g81
ssg62
g350
sg55
(lp362
S':'
asbag48
(g69
g50
NtRp363
(dp364
g53
(dp365
sg62
g350
sg55
(lp366
g48
(g49
g50
NtRp367
(dp368
g53
(dp369
g61
I3
ssg62
g363
sg55
(lp370
S''
asbasbasbag48
(g64
g50
NtRp371
(dp372
g53
(dp373
sg62
g262
sg55
(lp374
g48
(g69
g50
NtRp375
(dp376
g53
(dp377
g73
g74
ssg62
g371
sg55
(lp378
S'secure'
p379
asbag48
(g69
g50
NtRp380
(dp381
g53
(dp382
g80
g81
ssg62
g371
sg55
(lp383
S':'
asbag48
(g69
g50
NtRp384
(dp385
g53
(dp386
sg62
g371
sg55
(lp387
g48
(g49
g50
NtRp388
(dp389
g53
(dp390
g61
I3
ssg62
g384
sg55
(lp391
S''
asbasbasbag48
(g64
g50
NtRp392
(dp393
g53
(dp394
sg62
g262
sg55
(lp395
g48
(g69
g50
NtRp396
(dp397
g53
(dp398
g73
g74
ssg62
g392
sg55
(lp399
S'version'
p400
asbag48
(g69
g50
NtRp401
(dp402
g53
(dp403
g80
g81
ssg62
g392
sg55
(lp404
S':'
asbag48
(g69
g50
NtRp405
(dp406
g53
(dp407
sg62
g392
sg55
(lp408
g48
(g49
g50
NtRp409
(dp410
g53
(dp411
g61
I3
ssg62
g405
sg55
(lp412
S''
asbasbasbasbasbasbasbag48
(g64
g50
NtRp413
(dp414
g53
(dp415
sg62
g237
sg55
(lp416
g48
(g69
g50
NtRp417
(dp418
g53
(dp419
g73
g74
ssg62
g413
sg55
(lp420
S'session_id_casa_de_apuestas'
p421
asbag48
(g69
g50
NtRp422
(dp423
g53
(dp424
g80
g81
ssg62
g413
sg55
(lp425
S':'
asbag48
(g69
g50
NtRp426
(dp427
g53
(dp428
sg62
g413
sg55
(lp429
g48
(g49
g50
NtRp430
(dp431
g53
(dp432
g61
I4
ssg62
g426
sg55
(lp433
g48
(g57
g50
NtRp434
(dp435
g53
(dp436
g61
I3
ssg62
Nsg55
(lp437
g48
(g64
g50
NtRp438
(dp439
g53
(dp440
sg62
g434
sg55
(lp441
g48
(g69
g50
NtRp442
(dp443
g53
(dp444
g73
g74
ssg62
g438
sg55
(lp445
g274
asbag48
(g69
g50
NtRp446
(dp447
g53
(dp448
g80
g81
ssg62
g438
sg55
(lp449
S':'
asbag48
(g69
g50
NtRp450
(dp451
g53
(dp452
sg62
g438
sg55
(lp453
g48
(g49
g50
NtRp454
(dp455
g53
(dp456
g61
I3
ssg62
g450
sg55
(lp457
S''
asbasbasbag48
(g64
g50
NtRp458
(dp459
g53
(dp460
sg62
g434
sg55
(lp461
g48
(g69
g50
NtRp462
(dp463
g53
(dp464
g73
g74
ssg62
g458
sg55
(lp465
g295
asbag48
(g69
g50
NtRp466
(dp467
g53
(dp468
g80
g81
ssg62
g458
sg55
(lp469
S':'
asbag48
(g69
g50
NtRp470
(dp471
g53
(dp472
sg62
g458
sg55
(lp473
g48
(g49
g50
NtRp474
(dp475
g53
(dp476
g61
I3
ssg62
g470
sg55
(lp477
S''
asbasbasbag48
(g64
g50
NtRp478
(dp479
g53
(dp480
sg62
g434
sg55
(lp481
g48
(g69
g50
NtRp482
(dp483
g53
(dp484
g73
g74
ssg62
g478
sg55
(lp485
g316
asbag48
(g69
g50
NtRp486
(dp487
g53
(dp488
g80
g81
ssg62
g478
sg55
(lp489
S':'
asbag48
(g69
g50
NtRp490
(dp491
g53
(dp492
sg62
g478
sg55
(lp493
g48
(g49
g50
NtRp494
(dp495
g53
(dp496
g61
I3
ssg62
g490
sg55
(lp497
S''
asbasbasbag48
(g64
g50
NtRp498
(dp499
g53
(dp500
sg62
g434
sg55
(lp501
g48
(g69
g50
NtRp502
(dp503
g53
(dp504
g73
g74
ssg62
g498
sg55
(lp505
g337
asbag48
(g69
g50
NtRp506
(dp507
g53
(dp508
g80
g81
ssg62
g498
sg55
(lp509
S':'
asbag48
(g69
g50
NtRp510
(dp511
g53
(dp512
sg62
g498
sg55
(lp513
g48
(g49
g50
NtRp514
(dp515
g53
(dp516
g61
I3
ssg62
g510
sg55
(lp517
S''
asbasbasbag48
(g64
g50
NtRp518
(dp519
g53
(dp520
sg62
g434
sg55
(lp521
g48
(g69
g50
NtRp522
(dp523
g53
(dp524
g73
g74
ssg62
g518
sg55
(lp525
g358
asbag48
(g69
g50
NtRp526
(dp527
g53
(dp528
g80
g81
ssg62
g518
sg55
(lp529
S':'
asbag48
(g69
g50
NtRp530
(dp531
g53
(dp532
sg62
g518
sg55
(lp533
g48
(g49
g50
NtRp534
(dp535
g53
(dp536
g61
I3
ssg62
g530
sg55
(lp537
S''
asbasbasbag48
(g64
g50
NtRp538
(dp539
g53
(dp540
sg62
g434
sg55
(lp541
g48
(g69
g50
NtRp542
(dp543
g53
(dp544
g73
g74
ssg62
g538
sg55
(lp545
g379
asbag48
(g69
g50
NtRp546
(dp547
g53
(dp548
g80
g81
ssg62
g538
sg55
(lp549
S':'
asbag48
(g69
g50
NtRp550
(dp551
g53
(dp552
sg62
g538
sg55
(lp553
g48
(g49
g50
NtRp554
(dp555
g53
(dp556
g61
I3
ssg62
g550
sg55
(lp557
S''
asbasbasbag48
(g64
g50
NtRp558
(dp559
g53
(dp560
sg62
g434
sg55
(lp561
g48
(g69
g50
NtRp562
(dp563
g53
(dp564
g73
g74
ssg62
g558
sg55
(lp565
g400
asbag48
(g69
g50
NtRp566
(dp567
g53
(dp568
g80
g81
ssg62
g558
sg55
(lp569
S':'
asbag48
(g69
g50
NtRp570
(dp571
g53
(dp572
sg62
g558
sg55
(lp573
g48
(g49
g50
NtRp574
(dp575
g53
(dp576
g61
I3
ssg62
g570
sg55
(lp577
S''
asbasbasbasbasbasbasbag48
(g64
g50
NtRp578
(dp579
g53
(dp580
sg62
g237
sg55
(lp581
g48
(g69
g50
NtRp582
(dp583
g53
(dp584
g73
g74
ssg62
g578
sg55
(lp585
S'session_id_welcome'
p586
asbag48
(g69
g50
NtRp587
(dp588
g53
(dp589
g80
g81
ssg62
g578
sg55
(lp590
S':'
asbag48
(g69
g50
NtRp591
(dp592
g53
(dp593
sg62
g578
sg55
(lp594
g48
(g49
g50
NtRp595
(dp596
g53
(dp597
g61
I4
ssg62
g591
sg55
(lp598
g48
(g57
g50
NtRp599
(dp600
g53
(dp601
g61
I3
ssg62
Nsg55
(lp602
g48
(g64
g50
NtRp603
(dp604
g53
(dp605
sg62
g599
sg55
(lp606
g48
(g69
g50
NtRp607
(dp608
g53
(dp609
g73
g74
ssg62
g603
sg55
(lp610
g274
asbag48
(g69
g50
NtRp611
(dp612
g53
(dp613
g80
g81
ssg62
g603
sg55
(lp614
S':'
asbag48
(g69
g50
NtRp615
(dp616
g53
(dp617
sg62
g603
sg55
(lp618
g48
(g49
g50
NtRp619
(dp620
g53
(dp621
g61
I3
ssg62
g615
sg55
(lp622
S''
asbasbasbag48
(g64
g50
NtRp623
(dp624
g53
(dp625
sg62
g599
sg55
(lp626
g48
(g69
g50
NtRp627
(dp628
g53
(dp629
g73
g74
ssg62
g623
sg55
(lp630
g295
asbag48
(g69
g50
NtRp631
(dp632
g53
(dp633
g80
g81
ssg62
g623
sg55
(lp634
S':'
asbag48
(g69
g50
NtRp635
(dp636
g53
(dp637
sg62
g623
sg55
(lp638
g48
(g49
g50
NtRp639
(dp640
g53
(dp641
g61
I3
ssg62
g635
sg55
(lp642
S''
asbasbasbag48
(g64
g50
NtRp643
(dp644
g53
(dp645
sg62
g599
sg55
(lp646
g48
(g69
g50
NtRp647
(dp648
g53
(dp649
g73
g74
ssg62
g643
sg55
(lp650
g316
asbag48
(g69
g50
NtRp651
(dp652
g53
(dp653
g80
g81
ssg62
g643
sg55
(lp654
S':'
asbag48
(g69
g50
NtRp655
(dp656
g53
(dp657
sg62
g643
sg55
(lp658
g48
(g49
g50
NtRp659
(dp660
g53
(dp661
g61
I3
ssg62
g655
sg55
(lp662
S''
asbasbasbag48
(g64
g50
NtRp663
(dp664
g53
(dp665
sg62
g599
sg55
(lp666
g48
(g69
g50
NtRp667
(dp668
g53
(dp669
g73
g74
ssg62
g663
sg55
(lp670
g337
asbag48
(g69
g50
NtRp671
(dp672
g53
(dp673
g80
g81
ssg62
g663
sg55
(lp674
S':'
asbag48
(g69
g50
NtRp675
(dp676
g53
(dp677
sg62
g663
sg55
(lp678
g48
(g49
g50
NtRp679
(dp680
g53
(dp681
g61
I3
ssg62
g675
sg55
(lp682
S''
asbasbasbag48
(g64
g50
NtRp683
(dp684
g53
(dp685
sg62
g599
sg55
(lp686
g48
(g69
g50
NtRp687
(dp688
g53
(dp689
g73
g74
ssg62
g683
sg55
(lp690
g358
asbag48
(g69
g50
NtRp691
(dp692
g53
(dp693
g80
g81
ssg62
g683
sg55
(lp694
S':'
asbag48
(g69
g50
NtRp695
(dp696
g53
(dp697
sg62
g683
sg55
(lp698
g48
(g49
g50
NtRp699
(dp700
g53
(dp701
g61
I3
ssg62
g695
sg55
(lp702
S''
asbasbasbag48
(g64
g50
NtRp703
(dp704
g53
(dp705
sg62
g599
sg55
(lp706
g48
(g69
g50
NtRp707
(dp708
g53
(dp709
g73
g74
ssg62
g703
sg55
(lp710
g379
asbag48
(g69
g50
NtRp711
(dp712
g53
(dp713
g80
g81
ssg62
g703
sg55
(lp714
S':'
asbag48
(g69
g50
NtRp715
(dp716
g53
(dp717
sg62
g703
sg55
(lp718
g48
(g49
g50
NtRp719
(dp720
g53
(dp721
g61
I3
ssg62
g715
sg55
(lp722
S''
asbasbasbag48
(g64
g50
NtRp723
(dp724
g53
(dp725
sg62
g599
sg55
(lp726
g48
(g69
g50
NtRp727
(dp728
g53
(dp729
g73
g74
ssg62
g723
sg55
(lp730
g400
asbag48
(g69
g50
NtRp731
(dp732
g53
(dp733
g80
g81
ssg62
g723
sg55
(lp734
S':'
asbag48
(g69
g50
NtRp735
(dp736
g53
(dp737
sg62
g723
sg55
(lp738
g48
(g49
g50
NtRp739
(dp740
g53
(dp741
g61
I3
ssg62
g735
sg55
(lp742
S''
asbasbasbasbasbasbasbasbasbasbasbag48
(g64
g50
NtRp743
(dp744
g53
(dp745
sg62
g58
sg55
(lp746
g48
(g69
g50
NtRp747
(dp748
g53
(dp749
g73
g74
ssg62
g743
sg55
(lp750
S'env'
p751
asbag48
(g69
g50
NtRp752
(dp753
g53
(dp754
g80
g81
ssg62
g743
sg55
(lp755
S':'
asbag48
(g69
g50
NtRp756
(dp757
g53
(dp758
sg62
g743
sg55
(lp759
g48
(g49
g50
NtRp760
(dp761
g53
(dp762
g61
I5
ssg62
g756
sg55
(lp763
g48
(g57
g50
NtRp764
(dp765
g53
(dp766
g61
I4
ssg62
Nsg55
(lp767
g48
(g64
g50
NtRp768
(dp769
g53
(dp770
sg62
g764
sg55
(lp771
g48
(g69
g50
NtRp772
(dp773
g53
(dp774
g73
g74
ssg62
g768
sg55
(lp775
S'app_folders'
p776
asbag48
(g69
g50
NtRp777
(dp778
g53
(dp779
g80
g81
ssg62
g768
sg55
(lp780
S':'
asbag48
(g69
g50
NtRp781
(dp782
g53
(dp783
sg62
g768
sg55
(lp784
g48
(g49
g50
NtRp785
(dp786
g53
(dp787
g61
I4
ssg62
g781
sg55
(lp788
S"set(['C:\\\\Python32\\\\web2py_win\\\\web2py\\\\applications\\\\admin\\\\', 'C:\\\\Python32\\\\web2py_win\\\\web2py\\\\applications\\\\welcome\\\\', 'C:\\\\Python32\\\\web2py_win\\\\web2py\\\\applications\\\\Casa_de_Apuestas\\\\'])"
p789
asbasbasbag48
(g64
g50
NtRp790
(dp791
g53
(dp792
sg62
g764
sg55
(lp793
g48
(g69
g50
NtRp794
(dp795
g53
(dp796
g73
g74
ssg62
g790
sg55
(lp797
S'applications_parent'
p798
asbag48
(g69
g50
NtRp799
(dp800
g53
(dp801
g80
g81
ssg62
g790
sg55
(lp802
S':'
asbag48
(g69
g50
NtRp803
(dp804
g53
(dp805
sg62
g790
sg55
(lp806
g48
(g49
g50
NtRp807
(dp808
g53
(dp809
g61
I4
ssg62
g803
sg55
(lp810
S'C:\\Python32\\web2py_win\\web2py'
p811
asbasbasbag48
(g64
g50
NtRp812
(dp813
g53
(dp814
sg62
g764
sg55
(lp815
g48
(g69
g50
NtRp816
(dp817
g53
(dp818
g73
g74
ssg62
g812
sg55
(lp819
S'cmd_args'
p820
asbag48
(g69
g50
NtRp821
(dp822
g53
(dp823
g80
g81
ssg62
g812
sg55
(lp824
S':'
asbag48
(g69
g50
NtRp825
(dp826
g53
(dp827
sg62
g812
sg55
(lp828
g48
(g49
g50
NtRp829
(dp830
g53
(dp831
g61
I4
ssg62
g825
sg55
(lp832
g48
(g57
g50
NtRp833
(dp834
g53
(dp835
g61
I3
ssg62
Nsg55
(lp836
sbasbasbasbag48
(g64
g50
NtRp837
(dp838
g53
(dp839
sg62
g764
sg55
(lp840
g48
(g69
g50
NtRp841
(dp842
g53
(dp843
g73
g74
ssg62
g837
sg55
(lp844
S'cmd_options'
p845
asbag48
(g69
g50
NtRp846
(dp847
g53
(dp848
g80
g81
ssg62
g837
sg55
(lp849
S':'
asbag48
(g69
g50
NtRp850
(dp851
g53
(dp852
sg62
g837
sg55
(lp853
g48
(g49
g50
NtRp854
(dp855
g53
(dp856
g61
I4
ssg62
g850
sg55
(lp857
S"<Values at 0x26b5fa8: {'verbose': False, 'ip': '127.0.0.1', 'shutdown_timeout': 5, 'taskbar': False, 'nocron': False, 'pid_filename': 'httpserver.pid', 'maxthreads': None, 'softcron': False, 'server_name': 'hector-vaio', 'bpython': False, 'nogui': False, 'port': 8000, 'extcron': False, 'debuglevel': 30, 'test': None, 'folder': 'C:\\\\Python32\\\\web2py_win\\\\web2py', 'config': '', 'import_models': False, 'winservice': '', 'shell': None, 'run': '', 'log_filename': 'httpserver.log', 'args': [''], 'ssl_ca_certificate': None, 'scheduler': None, 'profiler_filename': None, 'ssl_private_key': '', 'password': '<ask>', 'request_queue_size': 5, 'ssl_certificate': '', 'cronjob': False, 'plain': False, 'quiet': False, 'interfaces': None, 'minthreads': None, 'timeout': 10, 'numthreads': None, 'nobanner': False}>"
p858
asbasbasbag48
(g64
g50
NtRp859
(dp860
g53
(dp861
sg62
g764
sg55
(lp862
g48
(g69
g50
NtRp863
(dp864
g53
(dp865
g73
g74
ssg62
g859
sg55
(lp866
S'db_sessions'
p867
asbag48
(g69
g50
NtRp868
(dp869
g53
(dp870
g80
g81
ssg62
g859
sg55
(lp871
S':'
asbag48
(g69
g50
NtRp872
(dp873
g53
(dp874
sg62
g859
sg55
(lp875
g48
(g49
g50
NtRp876
(dp877
g53
(dp878
g61
I4
ssg62
g872
sg55
(lp879
S'set([])'
p880
asbasbasbag48
(g64
g50
NtRp881
(dp882
g53
(dp883
sg62
g764
sg55
(lp884
g48
(g69
g50
NtRp885
(dp886
g53
(dp887
g73
g74
ssg62
g881
sg55
(lp888
S'debugging'
p889
asbag48
(g69
g50
NtRp890
(dp891
g53
(dp892
g80
g81
ssg62
g881
sg55
(lp893
S':'
asbag48
(g69
g50
NtRp894
(dp895
g53
(dp896
sg62
g881
sg55
(lp897
g48
(g49
g50
NtRp898
(dp899
g53
(dp900
g61
I4
ssg62
g894
sg55
(lp901
g91
asbasbasbag48
(g64
g50
NtRp902
(dp903
g53
(dp904
sg62
g764
sg55
(lp905
g48
(g69
g50
NtRp906
(dp907
g53
(dp908
g73
g74
ssg62
g902
sg55
(lp909
S'gluon_parent'
p910
asbag48
(g69
g50
NtRp911
(dp912
g53
(dp913
g80
g81
ssg62
g902
sg55
(lp914
S':'
asbag48
(g69
g50
NtRp915
(dp916
g53
(dp917
sg62
g902
sg55
(lp918
g48
(g49
g50
NtRp919
(dp920
g53
(dp921
g61
I4
ssg62
g915
sg55
(lp922
S'C:\\Python32\\web2py_win\\web2py'
p923
asbasbasbag48
(g64
g50
NtRp924
(dp925
g53
(dp926
sg62
g764
sg55
(lp927
g48
(g69
g50
NtRp928
(dp929
g53
(dp930
g73
g74
ssg62
g924
sg55
(lp931
S'http_accept'
p932
asbag48
(g69
g50
NtRp933
(dp934
g53
(dp935
g80
g81
ssg62
g924
sg55
(lp936
S':'
asbag48
(g69
g50
NtRp937
(dp938
g53
(dp939
sg62
g924
sg55
(lp940
g48
(g49
g50
NtRp941
(dp942
g53
(dp943
g61
I4
ssg62
g937
sg55
(lp944
S'text/html,application/xhtml+xml,application/xml;q=0.9,*/*;q=0.8'
p945
asbasbasbag48
(g64
g50
NtRp946
(dp947
g53
(dp948
sg62
g764
sg55
(lp949
g48
(g69
g50
NtRp950
(dp951
g53
(dp952
g73
g74
ssg62
g946
sg55
(lp953
S'http_accept_charset'
p954
asbag48
(g69
g50
NtRp955
(dp956
g53
(dp957
g80
g81
ssg62
g946
sg55
(lp958
S':'
asbag48
(g69
g50
NtRp959
(dp960
g53
(dp961
sg62
g946
sg55
(lp962
g48
(g49
g50
NtRp963
(dp964
g53
(dp965
g61
I4
ssg62
g959
sg55
(lp966
S'ISO-8859-1,utf-8;q=0.7,*;q=0.3'
p967
asbasbasbag48
(g64
g50
NtRp968
(dp969
g53
(dp970
sg62
g764
sg55
(lp971
g48
(g69
g50
NtRp972
(dp973
g53
(dp974
g73
g74
ssg62
g968
sg55
(lp975
S'http_accept_encoding'
p976
asbag48
(g69
g50
NtRp977
(dp978
g53
(dp979
g80
g81
ssg62
g968
sg55
(lp980
S':'
asbag48
(g69
g50
NtRp981
(dp982
g53
(dp983
sg62
g968
sg55
(lp984
g48
(g49
g50
NtRp985
(dp986
g53
(dp987
g61
I4
ssg62
g981
sg55
(lp988
S'gzip,deflate,sdch'
p989
asbasbasbag48
(g64
g50
NtRp990
(dp991
g53
(dp992
sg62
g764
sg55
(lp993
g48
(g69
g50
NtRp994
(dp995
g53
(dp996
g73
g74
ssg62
g990
sg55
(lp997
S'http_accept_language'
p998
asbag48
(g69
g50
NtRp999
(dp1000
g53
(dp1001
g80
g81
ssg62
g990
sg55
(lp1002
S':'
asbag48
(g69
g50
NtRp1003
(dp1004
g53
(dp1005
sg62
g990
sg55
(lp1006
g48
(g49
g50
NtRp1007
(dp1008
g53
(dp1009
g61
I4
ssg62
g1003
sg55
(lp1010
S'en-US,en;q=0.8'
p1011
asbasbasbag48
(g64
g50
NtRp1012
(dp1013
g53
(dp1014
sg62
g764
sg55
(lp1015
g48
(g69
g50
NtRp1016
(dp1017
g53
(dp1018
g73
g74
ssg62
g1012
sg55
(lp1019
S'http_connection'
p1020
asbag48
(g69
g50
NtRp1021
(dp1022
g53
(dp1023
g80
g81
ssg62
g1012
sg55
(lp1024
S':'
asbag48
(g69
g50
NtRp1025
(dp1026
g53
(dp1027
sg62
g1012
sg55
(lp1028
g48
(g49
g50
NtRp1029
(dp1030
g53
(dp1031
g61
I4
ssg62
g1025
sg55
(lp1032
S'keep-alive'
p1033
asbasbasbag48
(g64
g50
NtRp1034
(dp1035
g53
(dp1036
sg62
g764
sg55
(lp1037
g48
(g69
g50
NtRp1038
(dp1039
g53
(dp1040
g73
g74
ssg62
g1034
sg55
(lp1041
S'http_cookie'
p1042
asbag48
(g69
g50
NtRp1043
(dp1044
g53
(dp1045
g80
g81
ssg62
g1034
sg55
(lp1046
S':'
asbag48
(g69
g50
NtRp1047
(dp1048
g53
(dp1049
sg62
g1034
sg55
(lp1050
g48
(g49
g50
NtRp1051
(dp1052
g53
(dp1053
g61
I4
ssg62
g1047
sg55
(lp1054
S'session_id_welcome=127.0.0.1-25255ea7-0fcb-4e64-8f2d-73f331959f7a; session_id_casa_de_apuestas=127.0.0.1-e314f424-f067-4630-9a0d-db98dba87e6a; session_id_admin=127.0.0.1-31c30085-77f7-4736-96b0-7cc3eb483aaa'
p1055
asbasbasbag48
(g64
g50
NtRp1056
(dp1057
g53
(dp1058
sg62
g764
sg55
(lp1059
g48
(g69
g50
NtRp1060
(dp1061
g53
(dp1062
g73
g74
ssg62
g1056
sg55
(lp1063
S'http_host'
p1064
asbag48
(g69
g50
NtRp1065
(dp1066
g53
(dp1067
g80
g81
ssg62
g1056
sg55
(lp1068
S':'
asbag48
(g69
g50
NtRp1069
(dp1070
g53
(dp1071
sg62
g1056
sg55
(lp1072
g48
(g49
g50
NtRp1073
(dp1074
g53
(dp1075
g61
I4
ssg62
g1069
sg55
(lp1076
S'127.0.0.1:8000'
p1077
asbasbasbag48
(g64
g50
NtRp1078
(dp1079
g53
(dp1080
sg62
g764
sg55
(lp1081
g48
(g69
g50
NtRp1082
(dp1083
g53
(dp1084
g73
g74
ssg62
g1078
sg55
(lp1085
S'http_referer'
p1086
asbag48
(g69
g50
NtRp1087
(dp1088
g53
(dp1089
g80
g81
ssg62
g1078
sg55
(lp1090
S':'
asbag48
(g69
g50
NtRp1091
(dp1092
g53
(dp1093
sg62
g1078
sg55
(lp1094
g48
(g49
g50
NtRp1095
(dp1096
g53
(dp1097
g61
I4
ssg62
g1091
sg55
(lp1098
S'http://127.0.0.1:8000/Casa_de_Apuestas/default/mostrarCategoria'
p1099
asbasbasbag48
(g64
g50
NtRp1100
(dp1101
g53
(dp1102
sg62
g764
sg55
(lp1103
g48
(g69
g50
NtRp1104
(dp1105
g53
(dp1106
g73
g74
ssg62
g1100
sg55
(lp1107
S'http_user_agent'
p1108
asbag48
(g69
g50
NtRp1109
(dp1110
g53
(dp1111
g80
g81
ssg62
g1100
sg55
(lp1112
S':'
asbag48
(g69
g50
NtRp1113
(dp1114
g53
(dp1115
sg62
g1100
sg55
(lp1116
g48
(g49
g50
NtRp1117
(dp1118
g53
(dp1119
g61
I4
ssg62
g1113
sg55
(lp1120
S'Mozilla/5.0 (Windows NT 6.1) AppleWebKit/535.2 (KHTML, like Gecko) Chrome/15.0.874.120 Safari/535.2'
p1121
asbasbasbag48
(g64
g50
NtRp1122
(dp1123
g53
(dp1124
sg62
g764
sg55
(lp1125
g48
(g69
g50
NtRp1126
(dp1127
g53
(dp1128
g73
g74
ssg62
g1122
sg55
(lp1129
S'is_jython'
p1130
asbag48
(g69
g50
NtRp1131
(dp1132
g53
(dp1133
g80
g81
ssg62
g1122
sg55
(lp1134
S':'
asbag48
(g69
g50
NtRp1135
(dp1136
g53
(dp1137
sg62
g1122
sg55
(lp1138
g48
(g49
g50
NtRp1139
(dp1140
g53
(dp1141
g61
I4
ssg62
g1135
sg55
(lp1142
g91
asbasbasbag48
(g64
g50
NtRp1143
(dp1144
g53
(dp1145
sg62
g764
sg55
(lp1146
g48
(g69
g50
NtRp1147
(dp1148
g53
(dp1149
g73
g74
ssg62
g1143
sg55
(lp1150
S'path_info'
p1151
asbag48
(g69
g50
NtRp1152
(dp1153
g53
(dp1154
g80
g81
ssg62
g1143
sg55
(lp1155
S':'
asbag48
(g69
g50
NtRp1156
(dp1157
g53
(dp1158
sg62
g1143
sg55
(lp1159
g48
(g49
g50
NtRp1160
(dp1161
g53
(dp1162
g61
I4
ssg62
g1156
sg55
(lp1163
S'/Casa_de_Apuestas/default/showCategoria/2'
p1164
asbasbasbag48
(g64
g50
NtRp1165
(dp1166
g53
(dp1167
sg62
g764
sg55
(lp1168
g48
(g69
g50
NtRp1169
(dp1170
g53
(dp1171
g73
g74
ssg62
g1165
sg55
(lp1172
S'query_string'
p1173
asbag48
(g69
g50
NtRp1174
(dp1175
g53
(dp1176
g80
g81
ssg62
g1165
sg55
(lp1177
S':'
asbag48
(g69
g50
NtRp1178
(dp1179
g53
(dp1180
sg62
g1165
sg55
(lp1181
g48
(g49
g50
NtRp1182
(dp1183
g53
(dp1184
g61
I4
ssg62
g1178
sg55
(lp1185
S''
asbasbasbag48
(g64
g50
NtRp1186
(dp1187
g53
(dp1188
sg62
g764
sg55
(lp1189
g48
(g69
g50
NtRp1190
(dp1191
g53
(dp1192
g73
g74
ssg62
g1186
sg55
(lp1193
S'remote_addr'
p1194
asbag48
(g69
g50
NtRp1195
(dp1196
g53
(dp1197
g80
g81
ssg62
g1186
sg55
(lp1198
S':'
asbag48
(g69
g50
NtRp1199
(dp1200
g53
(dp1201
sg62
g1186
sg55
(lp1202
g48
(g49
g50
NtRp1203
(dp1204
g53
(dp1205
g61
I4
ssg62
g1199
sg55
(lp1206
g193
asbasbasbag48
(g64
g50
NtRp1207
(dp1208
g53
(dp1209
sg62
g764
sg55
(lp1210
g48
(g69
g50
NtRp1211
(dp1212
g53
(dp1213
g73
g74
ssg62
g1207
sg55
(lp1214
S'remote_port'
p1215
asbag48
(g69
g50
NtRp1216
(dp1217
g53
(dp1218
g80
g81
ssg62
g1207
sg55
(lp1219
S':'
asbag48
(g69
g50
NtRp1220
(dp1221
g53
(dp1222
sg62
g1207
sg55
(lp1223
g48
(g49
g50
NtRp1224
(dp1225
g53
(dp1226
g61
I4
ssg62
g1220
sg55
(lp1227
S'49527'
p1228
asbasbasbag48
(g64
g50
NtRp1229
(dp1230
g53
(dp1231
sg62
g764
sg55
(lp1232
g48
(g69
g50
NtRp1233
(dp1234
g53
(dp1235
g73
g74
ssg62
g1229
sg55
(lp1236
S'request_method'
p1237
asbag48
(g69
g50
NtRp1238
(dp1239
g53
(dp1240
g80
g81
ssg62
g1229
sg55
(lp1241
S':'
asbag48
(g69
g50
NtRp1242
(dp1243
g53
(dp1244
sg62
g1229
sg55
(lp1245
g48
(g49
g50
NtRp1246
(dp1247
g53
(dp1248
g61
I4
ssg62
g1242
sg55
(lp1249
S'GET'
p1250
asbasbasbag48
(g64
g50
NtRp1251
(dp1252
g53
(dp1253
sg62
g764
sg55
(lp1254
g48
(g69
g50
NtRp1255
(dp1256
g53
(dp1257
g73
g74
ssg62
g1251
sg55
(lp1258
S'script_name'
p1259
asbag48
(g69
g50
NtRp1260
(dp1261
g53
(dp1262
g80
g81
ssg62
g1251
sg55
(lp1263
S':'
asbag48
(g69
g50
NtRp1264
(dp1265
g53
(dp1266
sg62
g1251
sg55
(lp1267
g48
(g49
g50
NtRp1268
(dp1269
g53
(dp1270
g61
I4
ssg62
g1264
sg55
(lp1271
S''
asbasbasbag48
(g64
g50
NtRp1272
(dp1273
g53
(dp1274
sg62
g764
sg55
(lp1275
g48
(g69
g50
NtRp1276
(dp1277
g53
(dp1278
g73
g74
ssg62
g1272
sg55
(lp1279
S'server_name'
p1280
asbag48
(g69
g50
NtRp1281
(dp1282
g53
(dp1283
g80
g81
ssg62
g1272
sg55
(lp1284
S':'
asbag48
(g69
g50
NtRp1285
(dp1286
g53
(dp1287
sg62
g1272
sg55
(lp1288
g48
(g49
g50
NtRp1289
(dp1290
g53
(dp1291
g61
I4
ssg62
g1285
sg55
(lp1292
S'hector-vaio'
p1293
asbasbasbag48
(g64
g50
NtRp1294
(dp1295
g53
(dp1296
sg62
g764
sg55
(lp1297
g48
(g69
g50
NtRp1298
(dp1299
g53
(dp1300
g73
g74
ssg62
g1294
sg55
(lp1301
S'server_port'
p1302
asbag48
(g69
g50
NtRp1303
(dp1304
g53
(dp1305
g80
g81
ssg62
g1294
sg55
(lp1306
S':'
asbag48
(g69
g50
NtRp1307
(dp1308
g53
(dp1309
sg62
g1294
sg55
(lp1310
g48
(g49
g50
NtRp1311
(dp1312
g53
(dp1313
g61
I4
ssg62
g1307
sg55
(lp1314
S'8000'
p1315
asbasbasbag48
(g64
g50
NtRp1316
(dp1317
g53
(dp1318
sg62
g764
sg55
(lp1319
g48
(g69
g50
NtRp1320
(dp1321
g53
(dp1322
g73
g74
ssg62
g1316
sg55
(lp1323
S'server_protocol'
p1324
asbag48
(g69
g50
NtRp1325
(dp1326
g53
(dp1327
g80
g81
ssg62
g1316
sg55
(lp1328
S':'
asbag48
(g69
g50
NtRp1329
(dp1330
g53
(dp1331
sg62
g1316
sg55
(lp1332
g48
(g49
g50
NtRp1333
(dp1334
g53
(dp1335
g61
I4
ssg62
g1329
sg55
(lp1336
S'HTTP/1.1'
p1337
asbasbasbag48
(g64
g50
NtRp1338
(dp1339
g53
(dp1340
sg62
g764
sg55
(lp1341
g48
(g69
g50
NtRp1342
(dp1343
g53
(dp1344
g73
g74
ssg62
g1338
sg55
(lp1345
S'server_software'
p1346
asbag48
(g69
g50
NtRp1347
(dp1348
g53
(dp1349
g80
g81
ssg62
g1338
sg55
(lp1350
S':'
asbag48
(g69
g50
NtRp1351
(dp1352
g53
(dp1353
sg62
g1338
sg55
(lp1354
g48
(g49
g50
NtRp1355
(dp1356
g53
(dp1357
g61
I4
ssg62
g1351
sg55
(lp1358
S'Rocket 1.2.4'
p1359
asbasbasbag48
(g64
g50
NtRp1360
(dp1361
g53
(dp1362
sg62
g764
sg55
(lp1363
g48
(g69
g50
NtRp1364
(dp1365
g53
(dp1366
g73
g74
ssg62
g1360
sg55
(lp1367
S'web2py_crontype'
p1368
asbag48
(g69
g50
NtRp1369
(dp1370
g53
(dp1371
g80
g81
ssg62
g1360
sg55
(lp1372
S':'
asbag48
(g69
g50
NtRp1373
(dp1374
g53
(dp1375
sg62
g1360
sg55
(lp1376
g48
(g49
g50
NtRp1377
(dp1378
g53
(dp1379
g61
I4
ssg62
g1373
sg55
(lp1380
S'hard'
p1381
asbasbasbag48
(g64
g50
NtRp1382
(dp1383
g53
(dp1384
sg62
g764
sg55
(lp1385
g48
(g69
g50
NtRp1386
(dp1387
g53
(dp1388
g73
g74
ssg62
g1382
sg55
(lp1389
S'web2py_path'
p1390
asbag48
(g69
g50
NtRp1391
(dp1392
g53
(dp1393
g80
g81
ssg62
g1382
sg55
(lp1394
S':'
asbag48
(g69
g50
NtRp1395
(dp1396
g53
(dp1397
sg62
g1382
sg55
(lp1398
g48
(g49
g50
NtRp1399
(dp1400
g53
(dp1401
g61
I4
ssg62
g1395
sg55
(lp1402
g811
asbasbasbag48
(g64
g50
NtRp1403
(dp1404
g53
(dp1405
sg62
g764
sg55
(lp1406
g48
(g69
g50
NtRp1407
(dp1408
g53
(dp1409
g73
g74
ssg62
g1403
sg55
(lp1410
S'web2py_version'
p1411
asbag48
(g69
g50
NtRp1412
(dp1413
g53
(dp1414
g80
g81
ssg62
g1403
sg55
(lp1415
S':'
asbag48
(g69
g50
NtRp1416
(dp1417
g53
(dp1418
sg62
g1403
sg55
(lp1419
g48
(g49
g50
NtRp1420
(dp1421
g53
(dp1422
g61
I4
ssg62
g1416
sg55
(lp1423
g48
(g57
g50
NtRp1424
(dp1425
g53
(dp1426
g61
I3
ssg62
Nsg55
(lp1427
g48
(g64
g50
NtRp1428
(dp1429
g53
(dp1430
sg62
g1424
sg55
(lp1431
g48
(g69
g50
NtRp1432
(dp1433
g53
(dp1434
sg62
g1428
sg55
(lp1435
g48
(g49
g50
NtRp1436
(dp1437
g53
(dp1438
g61
I3
ssg62
g1432
sg55
(lp1439
S'1'
asbasbasbag48
(g64
g50
NtRp1440
(dp1441
g53
(dp1442
sg62
g1424
sg55
(lp1443
g48
(g69
g50
NtRp1444
(dp1445
g53
(dp1446
sg62
g1440
sg55
(lp1447
g48
(g49
g50
NtRp1448
(dp1449
g53
(dp1450
g61
I3
ssg62
g1444
sg55
(lp1451
S'99'
p1452
asbasbasbag48
(g64
g50
NtRp1453
(dp1454
g53
(dp1455
sg62
g1424
sg55
(lp1456
g48
(g69
g50
NtRp1457
(dp1458
g53
(dp1459
sg62
g1453
sg55
(lp1460
g48
(g49
g50
NtRp1461
(dp1462
g53
(dp1463
g61
I3
ssg62
g1457
sg55
(lp1464
S'2'
asbasbasbag48
(g64
g50
NtRp1465
(dp1466
g53
(dp1467
sg62
g1424
sg55
(lp1468
g48
(g69
g50
NtRp1469
(dp1470
g53
(dp1471
sg62
g1465
sg55
(lp1472
g48
(g49
g50
NtRp1473
(dp1474
g53
(dp1475
g61
I3
ssg62
g1469
sg55
(lp1476
S'datetime.datetime(2011, 9, 26, 6, 55, 33)'
p1477
asbasbasbag48
(g64
g50
NtRp1478
(dp1479
g53
(dp1480
sg62
g1424
sg55
(lp1481
g48
(g69
g50
NtRp1482
(dp1483
g53
(dp1484
sg62
g1478
sg55
(lp1485
g48
(g49
g50
NtRp1486
(dp1487
g53
(dp1488
g61
I3
ssg62
g1482
sg55
(lp1489
S'stable'
p1490
asbasbasbasbasbasbasbag48
(g64
g50
NtRp1491
(dp1492
g53
(dp1493
sg62
g764
sg55
(lp1494
g48
(g69
g50
NtRp1495
(dp1496
g53
(dp1497
g73
g74
ssg62
g1491
sg55
(lp1498
S'wsgi_errors'
p1499
asbag48
(g69
g50
NtRp1500
(dp1501
g53
(dp1502
g80
g81
ssg62
g1491
sg55
(lp1503
S':'
asbag48
(g69
g50
NtRp1504
(dp1505
g53
(dp1506
sg62
g1491
sg55
(lp1507
g48
(g49
g50
NtRp1508
(dp1509
g53
(dp1510
g61
I4
ssg62
g1504
sg55
(lp1511
S"<open file '<stderr>', mode 'w' at 0x014F00B0>"
p1512
asbasbasbag48
(g64
g50
NtRp1513
(dp1514
g53
(dp1515
sg62
g764
sg55
(lp1516
g48
(g69
g50
NtRp1517
(dp1518
g53
(dp1519
g73
g74
ssg62
g1513
sg55
(lp1520
S'wsgi_file_wrapper'
p1521
asbag48
(g69
g50
NtRp1522
(dp1523
g53
(dp1524
g80
g81
ssg62
g1513
sg55
(lp1525
S':'
asbag48
(g69
g50
NtRp1526
(dp1527
g53
(dp1528
sg62
g1513
sg55
(lp1529
g48
(g49
g50
NtRp1530
(dp1531
g53
(dp1532
g61
I4
ssg62
g1526
sg55
(lp1533
S'<class wsgiref.util.FileWrapper at 0x02459AB0>'
p1534
asbasbasbag48
(g64
g50
NtRp1535
(dp1536
g53
(dp1537
sg62
g764
sg55
(lp1538
g48
(g69
g50
NtRp1539
(dp1540
g53
(dp1541
g73
g74
ssg62
g1535
sg55
(lp1542
S'wsgi_input'
p1543
asbag48
(g69
g50
NtRp1544
(dp1545
g53
(dp1546
g80
g81
ssg62
g1535
sg55
(lp1547
S':'
asbag48
(g69
g50
NtRp1548
(dp1549
g53
(dp1550
sg62
g1535
sg55
(lp1551
g48
(g49
g50
NtRp1552
(dp1553
g53
(dp1554
g61
I4
ssg62
g1548
sg55
(lp1555
S'<socket._fileobject object at 0x060BB370>'
p1556
asbasbasbag48
(g64
g50
NtRp1557
(dp1558
g53
(dp1559
sg62
g764
sg55
(lp1560
g48
(g69
g50
NtRp1561
(dp1562
g53
(dp1563
g73
g74
ssg62
g1557
sg55
(lp1564
S'wsgi_multiprocess'
p1565
asbag48
(g69
g50
NtRp1566
(dp1567
g53
(dp1568
g80
g81
ssg62
g1557
sg55
(lp1569
S':'
asbag48
(g69
g50
NtRp1570
(dp1571
g53
(dp1572
sg62
g1557
sg55
(lp1573
g48
(g49
g50
NtRp1574
(dp1575
g53
(dp1576
g61
I4
ssg62
g1570
sg55
(lp1577
g91
asbasbasbag48
(g64
g50
NtRp1578
(dp1579
g53
(dp1580
sg62
g764
sg55
(lp1581
g48
(g69
g50
NtRp1582
(dp1583
g53
(dp1584
g73
g74
ssg62
g1578
sg55
(lp1585
S'wsgi_multithread'
p1586
asbag48
(g69
g50
NtRp1587
(dp1588
g53
(dp1589
g80
g81
ssg62
g1578
sg55
(lp1590
S':'
asbag48
(g69
g50
NtRp1591
(dp1592
g53
(dp1593
sg62
g1578
sg55
(lp1594
g48
(g49
g50
NtRp1595
(dp1596
g53
(dp1597
g61
I4
ssg62
g1591
sg55
(lp1598
S'True'
p1599
asbasbasbag48
(g64
g50
NtRp1600
(dp1601
g53
(dp1602
sg62
g764
sg55
(lp1603
g48
(g69
g50
NtRp1604
(dp1605
g53
(dp1606
g73
g74
ssg62
g1600
sg55
(lp1607
S'wsgi_run_once'
p1608
asbag48
(g69
g50
NtRp1609
(dp1610
g53
(dp1611
g80
g81
ssg62
g1600
sg55
(lp1612
S':'
asbag48
(g69
g50
NtRp1613
(dp1614
g53
(dp1615
sg62
g1600
sg55
(lp1616
g48
(g49
g50
NtRp1617
(dp1618
g53
(dp1619
g61
I4
ssg62
g1613
sg55
(lp1620
g91
asbasbasbag48
(g64
g50
NtRp1621
(dp1622
g53
(dp1623
sg62
g764
sg55
(lp1624
g48
(g69
g50
NtRp1625
(dp1626
g53
(dp1627
g73
g74
ssg62
g1621
sg55
(lp1628
S'wsgi_url_scheme'
p1629
asbag48
(g69
g50
NtRp1630
(dp1631
g53
(dp1632
g80
g81
ssg62
g1621
sg55
(lp1633
S':'
asbag48
(g69
g50
NtRp1634
(dp1635
g53
(dp1636
sg62
g1621
sg55
(lp1637
g48
(g49
g50
NtRp1638
(dp1639
g53
(dp1640
g61
I4
ssg62
g1634
sg55
(lp1641
S'http'
p1642
asbasbasbag48
(g64
g50
NtRp1643
(dp1644
g53
(dp1645
sg62
g764
sg55
(lp1646
g48
(g69
g50
NtRp1647
(dp1648
g53
(dp1649
g73
g74
ssg62
g1643
sg55
(lp1650
S'wsgi_version'
p1651
asbag48
(g69
g50
NtRp1652
(dp1653
g53
(dp1654
g80
g81
ssg62
g1643
sg55
(lp1655
S':'
asbag48
(g69
g50
NtRp1656
(dp1657
g53
(dp1658
sg62
g1643
sg55
(lp1659
g48
(g49
g50
NtRp1660
(dp1661
g53
(dp1662
g61
I4
ssg62
g1656
sg55
(lp1663
g48
(g57
g50
NtRp1664
(dp1665
g53
(dp1666
g61
I3
ssg62
Nsg55
(lp1667
g48
(g64
g50
NtRp1668
(dp1669
g53
(dp1670
sg62
g1664
sg55
(lp1671
g48
(g69
g50
NtRp1672
(dp1673
g53
(dp1674
sg62
g1668
sg55
(lp1675
g48
(g49
g50
NtRp1676
(dp1677
g53
(dp1678
g61
I3
ssg62
g1672
sg55
(lp1679
S'1'
asbasbasbag48
(g64
g50
NtRp1680
(dp1681
g53
(dp1682
sg62
g1664
sg55
(lp1683
g48
(g69
g50
NtRp1684
(dp1685
g53
(dp1686
sg62
g1680
sg55
(lp1687
g48
(g49
g50
NtRp1688
(dp1689
g53
(dp1690
g61
I3
ssg62
g1684
sg55
(lp1691
S'0'
asbasbasbasbasbasbasbasbasbasbasbag48
(g64
g50
NtRp1692
(dp1693
g53
(dp1694
sg62
g58
sg55
(lp1695
g48
(g69
g50
NtRp1696
(dp1697
g53
(dp1698
g73
g74
ssg62
g1692
sg55
(lp1699
S'extension'
p1700
asbag48
(g69
g50
NtRp1701
(dp1702
g53
(dp1703
g80
g81
ssg62
g1692
sg55
(lp1704
S':'
asbag48
(g69
g50
NtRp1705
(dp1706
g53
(dp1707
sg62
g1692
sg55
(lp1708
g48
(g49
g50
NtRp1709
(dp1710
g53
(dp1711
g61
I5
ssg62
g1705
sg55
(lp1712
S'html'
p1713
asbasbasbag48
(g64
g50
NtRp1714
(dp1715
g53
(dp1716
sg62
g58
sg55
(lp1717
g48
(g69
g50
NtRp1718
(dp1719
g53
(dp1720
g73
g74
ssg62
g1714
sg55
(lp1721
S'folder'
p1722
asbag48
(g69
g50
NtRp1723
(dp1724
g53
(dp1725
g80
g81
ssg62
g1714
sg55
(lp1726
S':'
asbag48
(g69
g50
NtRp1727
(dp1728
g53
(dp1729
sg62
g1714
sg55
(lp1730
g48
(g49
g50
NtRp1731
(dp1732
g53
(dp1733
g61
I5
ssg62
g1727
sg55
(lp1734
S'C:\\Python32\\web2py_win\\web2py\\applications\\Casa_de_Apuestas\\'
p1735
asbasbasbag48
(g64
g50
NtRp1736
(dp1737
g53
(dp1738
sg62
g58
sg55
(lp1739
g48
(g69
g50
NtRp1740
(dp1741
g53
(dp1742
g73
g74
ssg62
g1736
sg55
(lp1743
S'function'
p1744
asbag48
(g69
g50
NtRp1745
(dp1746
g53
(dp1747
g80
g81
ssg62
g1736
sg55
(lp1748
S':'
asbag48
(g69
g50
NtRp1749
(dp1750
g53
(dp1751
sg62
g1736
sg55
(lp1752
g48
(g49
g50
NtRp1753
(dp1754
g53
(dp1755
g61
I5
ssg62
g1749
sg55
(lp1756
S'showCategoria'
p1757
asbasbasbag48
(g64
g50
NtRp1758
(dp1759
g53
(dp1760
sg62
g58
sg55
(lp1761
g48
(g69
g50
NtRp1762
(dp1763
g53
(dp1764
g73
g74
ssg62
g1758
sg55
(lp1765
S'get_vars'
p1766
asbag48
(g69
g50
NtRp1767
(dp1768
g53
(dp1769
g80
g81
ssg62
g1758
sg55
(lp1770
S':'
asbag48
(g69
g50
NtRp1771
(dp1772
g53
(dp1773
sg62
g1758
sg55
(lp1774
g48
(g49
g50
NtRp1775
(dp1776
g53
(dp1777
g61
I5
ssg62
g1771
sg55
(lp1778
g48
(g57
g50
NtRp1779
(dp1780
g53
(dp1781
g61
I4
ssg62
Nsg55
(lp1782
sbasbasbasbag48
(g64
g50
NtRp1783
(dp1784
g53
(dp1785
sg62
g58
sg55
(lp1786
g48
(g69
g50
NtRp1787
(dp1788
g53
(dp1789
g73
g74
ssg62
g1783
sg55
(lp1790
S'global_settings'
p1791
asbag48
(g69
g50
NtRp1792
(dp1793
g53
(dp1794
g80
g81
ssg62
g1783
sg55
(lp1795
S':'
asbag48
(g69
g50
NtRp1796
(dp1797
g53
(dp1798
sg62
g1783
sg55
(lp1799
g48
(g49
g50
NtRp1800
(dp1801
g53
(dp1802
g61
I5
ssg62
g1796
sg55
(lp1803
g48
(g57
g50
NtRp1804
(dp1805
g53
(dp1806
g61
I4
ssg62
Nsg55
(lp1807
g48
(g64
g50
NtRp1808
(dp1809
g53
(dp1810
sg62
g1804
sg55
(lp1811
g48
(g69
g50
NtRp1812
(dp1813
g53
(dp1814
g73
g74
ssg62
g1808
sg55
(lp1815
g776
asbag48
(g69
g50
NtRp1816
(dp1817
g53
(dp1818
g80
g81
ssg62
g1808
sg55
(lp1819
S':'
asbag48
(g69
g50
NtRp1820
(dp1821
g53
(dp1822
sg62
g1808
sg55
(lp1823
g48
(g49
g50
NtRp1824
(dp1825
g53
(dp1826
g61
I4
ssg62
g1820
sg55
(lp1827
S"set(['C:\\\\Python32\\\\web2py_win\\\\web2py\\\\applications\\\\admin\\\\', 'C:\\\\Python32\\\\web2py_win\\\\web2py\\\\applications\\\\welcome\\\\', 'C:\\\\Python32\\\\web2py_win\\\\web2py\\\\applications\\\\Casa_de_Apuestas\\\\'])"
p1828
asbasbasbag48
(g64
g50
NtRp1829
(dp1830
g53
(dp1831
sg62
g1804
sg55
(lp1832
g48
(g69
g50
NtRp1833
(dp1834
g53
(dp1835
g73
g74
ssg62
g1829
sg55
(lp1836
g798
asbag48
(g69
g50
NtRp1837
(dp1838
g53
(dp1839
g80
g81
ssg62
g1829
sg55
(lp1840
S':'
asbag48
(g69
g50
NtRp1841
(dp1842
g53
(dp1843
sg62
g1829
sg55
(lp1844
g48
(g49
g50
NtRp1845
(dp1846
g53
(dp1847
g61
I4
ssg62
g1841
sg55
(lp1848
g811
asbasbasbag48
(g64
g50
NtRp1849
(dp1850
g53
(dp1851
sg62
g1804
sg55
(lp1852
g48
(g69
g50
NtRp1853
(dp1854
g53
(dp1855
g73
g74
ssg62
g1849
sg55
(lp1856
g820
asbag48
(g69
g50
NtRp1857
(dp1858
g53
(dp1859
g80
g81
ssg62
g1849
sg55
(lp1860
S':'
asbag48
(g69
g50
NtRp1861
(dp1862
g53
(dp1863
sg62
g1849
sg55
(lp1864
g48
(g49
g50
NtRp1865
(dp1866
g53
(dp1867
g61
I4
ssg62
g1861
sg55
(lp1868
g48
(g57
g50
NtRp1869
(dp1870
g53
(dp1871
g61
I3
ssg62
Nsg55
(lp1872
sbasbasbasbag48
(g64
g50
NtRp1873
(dp1874
g53
(dp1875
sg62
g1804
sg55
(lp1876
g48
(g69
g50
NtRp1877
(dp1878
g53
(dp1879
g73
g74
ssg62
g1873
sg55
(lp1880
g845
asbag48
(g69
g50
NtRp1881
(dp1882
g53
(dp1883
g80
g81
ssg62
g1873
sg55
(lp1884
S':'
asbag48
(g69
g50
NtRp1885
(dp1886
g53
(dp1887
sg62
g1873
sg55
(lp1888
g48
(g49
g50
NtRp1889
(dp1890
g53
(dp1891
g61
I4
ssg62
g1885
sg55
(lp1892
S"<Values at 0x26b5fa8: {'verbose': False, 'ip': '127.0.0.1', 'shutdown_timeout': 5, 'taskbar': False, 'nocron': False, 'pid_filename': 'httpserver.pid', 'maxthreads': None, 'softcron': False, 'server_name': 'hector-vaio', 'bpython': False, 'nogui': False, 'port': 8000, 'extcron': False, 'debuglevel': 30, 'test': None, 'folder': 'C:\\\\Python32\\\\web2py_win\\\\web2py', 'config': '', 'import_models': False, 'winservice': '', 'shell': None, 'run': '', 'log_filename': 'httpserver.log', 'args': [''], 'ssl_ca_certificate': None, 'scheduler': None, 'profiler_filename': None, 'ssl_private_key': '', 'password': '<ask>', 'request_queue_size': 5, 'ssl_certificate': '', 'cronjob': False, 'plain': False, 'quiet': False, 'interfaces': None, 'minthreads': None, 'timeout': 10, 'numthreads': None, 'nobanner': False}>"
p1893
asbasbasbag48
(g64
g50
NtRp1894
(dp1895
g53
(dp1896
sg62
g1804
sg55
(lp1897
g48
(g69
g50
NtRp1898
(dp1899
g53
(dp1900
g73
g74
ssg62
g1894
sg55
(lp1901
g867
asbag48
(g69
g50
NtRp1902
(dp1903
g53
(dp1904
g80
g81
ssg62
g1894
sg55
(lp1905
S':'
asbag48
(g69
g50
NtRp1906
(dp1907
g53
(dp1908
sg62
g1894
sg55
(lp1909
g48
(g49
g50
NtRp1910
(dp1911
g53
(dp1912
g61
I4
ssg62
g1906
sg55
(lp1913
S'set([])'
p1914
asbasbasbag48
(g64
g50
NtRp1915
(dp1916
g53
(dp1917
sg62
g1804
sg55
(lp1918
g48
(g69
g50
NtRp1919
(dp1920
g53
(dp1921
g73
g74
ssg62
g1915
sg55
(lp1922
g889
asbag48
(g69
g50
NtRp1923
(dp1924
g53
(dp1925
g80
g81
ssg62
g1915
sg55
(lp1926
S':'
asbag48
(g69
g50
NtRp1927
(dp1928
g53
(dp1929
sg62
g1915
sg55
(lp1930
g48
(g49
g50
NtRp1931
(dp1932
g53
(dp1933
g61
I4
ssg62
g1927
sg55
(lp1934
g91
asbasbasbag48
(g64
g50
NtRp1935
(dp1936
g53
(dp1937
sg62
g1804
sg55
(lp1938
g48
(g69
g50
NtRp1939
(dp1940
g53
(dp1941
g73
g74
ssg62
g1935
sg55
(lp1942
g910
asbag48
(g69
g50
NtRp1943
(dp1944
g53
(dp1945
g80
g81
ssg62
g1935
sg55
(lp1946
S':'
asbag48
(g69
g50
NtRp1947
(dp1948
g53
(dp1949
sg62
g1935
sg55
(lp1950
g48
(g49
g50
NtRp1951
(dp1952
g53
(dp1953
g61
I4
ssg62
g1947
sg55
(lp1954
g923
asbasbasbag48
(g64
g50
NtRp1955
(dp1956
g53
(dp1957
sg62
g1804
sg55
(lp1958
g48
(g69
g50
NtRp1959
(dp1960
g53
(dp1961
g73
g74
ssg62
g1955
sg55
(lp1962
g1130
asbag48
(g69
g50
NtRp1963
(dp1964
g53
(dp1965
g80
g81
ssg62
g1955
sg55
(lp1966
S':'
asbag48
(g69
g50
NtRp1967
(dp1968
g53
(dp1969
sg62
g1955
sg55
(lp1970
g48
(g49
g50
NtRp1971
(dp1972
g53
(dp1973
g61
I4
ssg62
g1967
sg55
(lp1974
g91
asbasbasbag48
(g64
g50
NtRp1975
(dp1976
g53
(dp1977
sg62
g1804
sg55
(lp1978
g48
(g69
g50
NtRp1979
(dp1980
g53
(dp1981
g73
g74
ssg62
g1975
sg55
(lp1982
g1368
asbag48
(g69
g50
NtRp1983
(dp1984
g53
(dp1985
g80
g81
ssg62
g1975
sg55
(lp1986
S':'
asbag48
(g69
g50
NtRp1987
(dp1988
g53
(dp1989
sg62
g1975
sg55
(lp1990
g48
(g49
g50
NtRp1991
(dp1992
g53
(dp1993
g61
I4
ssg62
g1987
sg55
(lp1994
g1381
asbasbasbag48
(g64
g50
NtRp1995
(dp1996
g53
(dp1997
sg62
g1804
sg55
(lp1998
g48
(g69
g50
NtRp1999
(dp2000
g53
(dp2001
g73
g74
ssg62
g1995
sg55
(lp2002
g1411
asbag48
(g69
g50
NtRp2003
(dp2004
g53
(dp2005
g80
g81
ssg62
g1995
sg55
(lp2006
S':'
asbag48
(g69
g50
NtRp2007
(dp2008
g53
(dp2009
sg62
g1995
sg55
(lp2010
g48
(g49
g50
NtRp2011
(dp2012
g53
(dp2013
g61
I4
ssg62
g2007
sg55
(lp2014
g48
(g57
g50
NtRp2015
(dp2016
g53
(dp2017
g61
I3
ssg62
Nsg55
(lp2018
g48
(g64
g50
NtRp2019
(dp2020
g53
(dp2021
sg62
g2015
sg55
(lp2022
g48
(g69
g50
NtRp2023
(dp2024
g53
(dp2025
sg62
g2019
sg55
(lp2026
g48
(g49
g50
NtRp2027
(dp2028
g53
(dp2029
g61
I3
ssg62
g2023
sg55
(lp2030
S'1'
asbasbasbag48
(g64
g50
NtRp2031
(dp2032
g53
(dp2033
sg62
g2015
sg55
(lp2034
g48
(g69
g50
NtRp2035
(dp2036
g53
(dp2037
sg62
g2031
sg55
(lp2038
g48
(g49
g50
NtRp2039
(dp2040
g53
(dp2041
g61
I3
ssg62
g2035
sg55
(lp2042
S'99'
p2043
asbasbasbag48
(g64
g50
NtRp2044
(dp2045
g53
(dp2046
sg62
g2015
sg55
(lp2047
g48
(g69
g50
NtRp2048
(dp2049
g53
(dp2050
sg62
g2044
sg55
(lp2051
g48
(g49
g50
NtRp2052
(dp2053
g53
(dp2054
g61
I3
ssg62
g2048
sg55
(lp2055
S'2'
asbasbasbag48
(g64
g50
NtRp2056
(dp2057
g53
(dp2058
sg62
g2015
sg55
(lp2059
g48
(g69
g50
NtRp2060
(dp2061
g53
(dp2062
sg62
g2056
sg55
(lp2063
g48
(g49
g50
NtRp2064
(dp2065
g53
(dp2066
g61
I3
ssg62
g2060
sg55
(lp2067
S'datetime.datetime(2011, 9, 26, 6, 55, 33)'
p2068
asbasbasbag48
(g64
g50
NtRp2069
(dp2070
g53
(dp2071
sg62
g2015
sg55
(lp2072
g48
(g69
g50
NtRp2073
(dp2074
g53
(dp2075
sg62
g2069
sg55
(lp2076
g48
(g49
g50
NtRp2077
(dp2078
g53
(dp2079
g61
I3
ssg62
g2073
sg55
(lp2080
g1490
asbasbasbasbasbasbasbasbasbasbasbag48
(g64
g50
NtRp2081
(dp2082
g53
(dp2083
sg62
g58
sg55
(lp2084
g48
(g69
g50
NtRp2085
(dp2086
g53
(dp2087
g73
g74
ssg62
g2081
sg55
(lp2088
S'is_https'
p2089
asbag48
(g69
g50
NtRp2090
(dp2091
g53
(dp2092
g80
g81
ssg62
g2081
sg55
(lp2093
S':'
asbag48
(g69
g50
NtRp2094
(dp2095
g53
(dp2096
sg62
g2081
sg55
(lp2097
g48
(g49
g50
NtRp2098
(dp2099
g53
(dp2100
g61
I5
ssg62
g2094
sg55
(lp2101
g91
asbasbasbag48
(g64
g50
NtRp2102
(dp2103
g53
(dp2104
sg62
g58
sg55
(lp2105
g48
(g69
g50
NtRp2106
(dp2107
g53
(dp2108
g73
g74
ssg62
g2102
sg55
(lp2109
S'is_local'
p2110
asbag48
(g69
g50
NtRp2111
(dp2112
g53
(dp2113
g80
g81
ssg62
g2102
sg55
(lp2114
S':'
asbag48
(g69
g50
NtRp2115
(dp2116
g53
(dp2117
sg62
g2102
sg55
(lp2118
g48
(g49
g50
NtRp2119
(dp2120
g53
(dp2121
g61
I5
ssg62
g2115
sg55
(lp2122
g1599
asbasbasbag48
(g64
g50
NtRp2123
(dp2124
g53
(dp2125
sg62
g58
sg55
(lp2126
g48
(g69
g50
NtRp2127
(dp2128
g53
(dp2129
g73
g74
ssg62
g2123
sg55
(lp2130
S'is_restful'
p2131
asbag48
(g69
g50
NtRp2132
(dp2133
g53
(dp2134
g80
g81
ssg62
g2123
sg55
(lp2135
S':'
asbag48
(g69
g50
NtRp2136
(dp2137
g53
(dp2138
sg62
g2123
sg55
(lp2139
g48
(g49
g50
NtRp2140
(dp2141
g53
(dp2142
g61
I5
ssg62
g2136
sg55
(lp2143
g91
asbasbasbag48
(g64
g50
NtRp2144
(dp2145
g53
(dp2146
sg62
g58
sg55
(lp2147
g48
(g69
g50
NtRp2148
(dp2149
g53
(dp2150
g73
g74
ssg62
g2144
sg55
(lp2151
S'now'
p2152
asbag48
(g69
g50
NtRp2153
(dp2154
g53
(dp2155
g80
g81
ssg62
g2144
sg55
(lp2156
S':'
asbag48
(g69
g50
NtRp2157
(dp2158
g53
(dp2159
sg62
g2144
sg55
(lp2160
g48
(g49
g50
NtRp2161
(dp2162
g53
(dp2163
g61
I5
ssg62
g2157
sg55
(lp2164
S'datetime.datetime(2011, 11, 17, 14, 30, 59, 938000)'
p2165
asbasbasbag48
(g64
g50
NtRp2166
(dp2167
g53
(dp2168
sg62
g58
sg55
(lp2169
g48
(g69
g50
NtRp2170
(dp2171
g53
(dp2172
g73
g74
ssg62
g2166
sg55
(lp2173
S'post_vars'
p2174
asbag48
(g69
g50
NtRp2175
(dp2176
g53
(dp2177
g80
g81
ssg62
g2166
sg55
(lp2178
S':'
asbag48
(g69
g50
NtRp2179
(dp2180
g53
(dp2181
sg62
g2166
sg55
(lp2182
g48
(g49
g50
NtRp2183
(dp2184
g53
(dp2185
g61
I5
ssg62
g2179
sg55
(lp2186
g48
(g57
g50
NtRp2187
(dp2188
g53
(dp2189
g61
I4
ssg62
Nsg55
(lp2190
sbasbasbasbag48
(g64
g50
NtRp2191
(dp2192
g53
(dp2193
sg62
g58
sg55
(lp2194
g48
(g69
g50
NtRp2195
(dp2196
g53
(dp2197
g73
g74
ssg62
g2191
sg55
(lp2198
S'raw_args'
p2199
asbag48
(g69
g50
NtRp2200
(dp2201
g53
(dp2202
g80
g81
ssg62
g2191
sg55
(lp2203
S':'
asbag48
(g69
g50
NtRp2204
(dp2205
g53
(dp2206
sg62
g2191
sg55
(lp2207
g48
(g49
g50
NtRp2208
(dp2209
g53
(dp2210
g61
I5
ssg62
g2204
sg55
(lp2211
S'2'
asbasbasbag48
(g64
g50
NtRp2212
(dp2213
g53
(dp2214
sg62
g58
sg55
(lp2215
g48
(g69
g50
NtRp2216
(dp2217
g53
(dp2218
g73
g74
ssg62
g2212
sg55
(lp2219
S'url'
p2220
asbag48
(g69
g50
NtRp2221
(dp2222
g53
(dp2223
g80
g81
ssg62
g2212
sg55
(lp2224
S':'
asbag48
(g69
g50
NtRp2225
(dp2226
g53
(dp2227
sg62
g2212
sg55
(lp2228
g48
(g49
g50
NtRp2229
(dp2230
g53
(dp2231
g61
I5
ssg62
g2225
sg55
(lp2232
S'/Casa_de_Apuestas/default/showCategoria/2'
p2233
asbasbasbag48
(g64
g50
NtRp2234
(dp2235
g53
(dp2236
sg62
g58
sg55
(lp2237
g48
(g69
g50
NtRp2238
(dp2239
g53
(dp2240
g73
g74
ssg62
g2234
sg55
(lp2241
S'utcnow'
p2242
asbag48
(g69
g50
NtRp2243
(dp2244
g53
(dp2245
g80
g81
ssg62
g2234
sg55
(lp2246
S':'
asbag48
(g69
g50
NtRp2247
(dp2248
g53
(dp2249
sg62
g2234
sg55
(lp2250
g48
(g49
g50
NtRp2251
(dp2252
g53
(dp2253
g61
I5
ssg62
g2247
sg55
(lp2254
S'datetime.datetime(2011, 11, 17, 19, 0, 59, 938000)'
p2255
asbasbasbag48
(g64
g50
NtRp2256
(dp2257
g53
(dp2258
sg62
g58
sg55
(lp2259
g48
(g69
g50
NtRp2260
(dp2261
g53
(dp2262
g73
g74
ssg62
g2256
sg55
(lp2263
S'uuid'
p2264
asbag48
(g69
g50
NtRp2265
(dp2266
g53
(dp2267
g80
g81
ssg62
g2256
sg55
(lp2268
S':'
asbag48
(g69
g50
NtRp2269
(dp2270
g53
(dp2271
sg62
g2256
sg55
(lp2272
g48
(g49
g50
NtRp2273
(dp2274
g53
(dp2275
g61
I5
ssg62
g2269
sg55
(lp2276
S'Casa_de_Apuestas/127.0.0.1.2011-11-17.14-30-59.07ab8dcb-5387-410a-9087-f8be01e45e19'
p2277
asbasbasbag48
(g64
g50
NtRp2278
(dp2279
g53
(dp2280
sg62
g58
sg55
(lp2281
g48
(g69
g50
NtRp2282
(dp2283
g53
(dp2284
g73
g74
ssg62
g2278
sg55
(lp2285
S'vars'
p2286
asbag48
(g69
g50
NtRp2287
(dp2288
g53
(dp2289
g80
g81
ssg62
g2278
sg55
(lp2290
S':'
asbag48
(g69
g50
NtRp2291
(dp2292
g53
(dp2293
sg62
g2278
sg55
(lp2294
g48
(g49
g50
NtRp2295
(dp2296
g53
(dp2297
g61
I5
ssg62
g2291
sg55
(lp2298
g48
(g57
g50
NtRp2299
(dp2300
g53
(dp2301
g61
I4
ssg62
Nsg55
(lp2302
sbasbasbasbag48
(g64
g50
NtRp2303
(dp2304
g53
(dp2305
sg62
g58
sg55
(lp2306
g48
(g69
g50
NtRp2307
(dp2308
g53
(dp2309
g73
g74
ssg62
g2303
sg55
(lp2310
S'wsgi'
p2311
asbag48
(g69
g50
NtRp2312
(dp2313
g53
(dp2314
g80
g81
ssg62
g2303
sg55
(lp2315
S':'
asbag48
(g69
g50
NtRp2316
(dp2317
g53
(dp2318
sg62
g2303
sg55
(lp2319
g48
(g49
g50
NtRp2320
(dp2321
g53
(dp2322
g61
I5
ssg62
g2316
sg55
(lp2323
g48
(g57
g50
NtRp2324
(dp2325
g53
(dp2326
g61
I4
ssg62
Nsg55
(lp2327
g48
(g64
g50
NtRp2328
(dp2329
g53
(dp2330
sg62
g2324
sg55
(lp2331
g48
(g69
g50
NtRp2332
(dp2333
g53
(dp2334
g73
g74
ssg62
g2328
sg55
(lp2335
S'environ'
p2336
asbag48
(g69
g50
NtRp2337
(dp2338
g53
(dp2339
g80
g81
ssg62
g2328
sg55
(lp2340
S':'
asbag48
(g69
g50
NtRp2341
(dp2342
g53
(dp2343
sg62
g2328
sg55
(lp2344
g48
(g49
g50
NtRp2345
(dp2346
g53
(dp2347
g61
I4
ssg62
g2341
sg55
(lp2348
g48
(g57
g50
NtRp2349
(dp2350
g53
(dp2351
g61
I3
ssg62
Nsg55
(lp2352
g48
(g64
g50
NtRp2353
(dp2354
g53
(dp2355
sg62
g2349
sg55
(lp2356
g48
(g69
g50
NtRp2357
(dp2358
g53
(dp2359
g73
g74
ssg62
g2353
sg55
(lp2360
S'HTTP_ACCEPT'
p2361
asbag48
(g69
g50
NtRp2362
(dp2363
g53
(dp2364
g80
g81
ssg62
g2353
sg55
(lp2365
S':'
asbag48
(g69
g50
NtRp2366
(dp2367
g53
(dp2368
sg62
g2353
sg55
(lp2369
g48
(g49
g50
NtRp2370
(dp2371
g53
(dp2372
g61
I3
ssg62
g2366
sg55
(lp2373
g945
asbasbasbag48
(g64
g50
NtRp2374
(dp2375
g53
(dp2376
sg62
g2349
sg55
(lp2377
g48
(g69
g50
NtRp2378
(dp2379
g53
(dp2380
g73
g74
ssg62
g2374
sg55
(lp2381
S'HTTP_ACCEPT_CHARSET'
p2382
asbag48
(g69
g50
NtRp2383
(dp2384
g53
(dp2385
g80
g81
ssg62
g2374
sg55
(lp2386
S':'
asbag48
(g69
g50
NtRp2387
(dp2388
g53
(dp2389
sg62
g2374
sg55
(lp2390
g48
(g49
g50
NtRp2391
(dp2392
g53
(dp2393
g61
I3
ssg62
g2387
sg55
(lp2394
g967
asbasbasbag48
(g64
g50
NtRp2395
(dp2396
g53
(dp2397
sg62
g2349
sg55
(lp2398
g48
(g69
g50
NtRp2399
(dp2400
g53
(dp2401
g73
g74
ssg62
g2395
sg55
(lp2402
S'HTTP_ACCEPT_ENCODING'
p2403
asbag48
(g69
g50
NtRp2404
(dp2405
g53
(dp2406
g80
g81
ssg62
g2395
sg55
(lp2407
S':'
asbag48
(g69
g50
NtRp2408
(dp2409
g53
(dp2410
sg62
g2395
sg55
(lp2411
g48
(g49
g50
NtRp2412
(dp2413
g53
(dp2414
g61
I3
ssg62
g2408
sg55
(lp2415
g989
asbasbasbag48
(g64
g50
NtRp2416
(dp2417
g53
(dp2418
sg62
g2349
sg55
(lp2419
g48
(g69
g50
NtRp2420
(dp2421
g53
(dp2422
g73
g74
ssg62
g2416
sg55
(lp2423
S'HTTP_ACCEPT_LANGUAGE'
p2424
asbag48
(g69
g50
NtRp2425
(dp2426
g53
(dp2427
g80
g81
ssg62
g2416
sg55
(lp2428
S':'
asbag48
(g69
g50
NtRp2429
(dp2430
g53
(dp2431
sg62
g2416
sg55
(lp2432
g48
(g49
g50
NtRp2433
(dp2434
g53
(dp2435
g61
I3
ssg62
g2429
sg55
(lp2436
g1011
asbasbasbag48
(g64
g50
NtRp2437
(dp2438
g53
(dp2439
sg62
g2349
sg55
(lp2440
g48
(g69
g50
NtRp2441
(dp2442
g53
(dp2443
g73
g74
ssg62
g2437
sg55
(lp2444
S'HTTP_CONNECTION'
p2445
asbag48
(g69
g50
NtRp2446
(dp2447
g53
(dp2448
g80
g81
ssg62
g2437
sg55
(lp2449
S':'
asbag48
(g69
g50
NtRp2450
(dp2451
g53
(dp2452
sg62
g2437
sg55
(lp2453
g48
(g49
g50
NtRp2454
(dp2455
g53
(dp2456
g61
I3
ssg62
g2450
sg55
(lp2457
g1033
asbasbasbag48
(g64
g50
NtRp2458
(dp2459
g53
(dp2460
sg62
g2349
sg55
(lp2461
g48
(g69
g50
NtRp2462
(dp2463
g53
(dp2464
g73
g74
ssg62
g2458
sg55
(lp2465
S'HTTP_COOKIE'
p2466
asbag48
(g69
g50
NtRp2467
(dp2468
g53
(dp2469
g80
g81
ssg62
g2458
sg55
(lp2470
S':'
asbag48
(g69
g50
NtRp2471
(dp2472
g53
(dp2473
sg62
g2458
sg55
(lp2474
g48
(g49
g50
NtRp2475
(dp2476
g53
(dp2477
g61
I3
ssg62
g2471
sg55
(lp2478
g1055
asbasbasbag48
(g64
g50
NtRp2479
(dp2480
g53
(dp2481
sg62
g2349
sg55
(lp2482
g48
(g69
g50
NtRp2483
(dp2484
g53
(dp2485
g73
g74
ssg62
g2479
sg55
(lp2486
S'HTTP_HOST'
p2487
asbag48
(g69
g50
NtRp2488
(dp2489
g53
(dp2490
g80
g81
ssg62
g2479
sg55
(lp2491
S':'
asbag48
(g69
g50
NtRp2492
(dp2493
g53
(dp2494
sg62
g2479
sg55
(lp2495
g48
(g49
g50
NtRp2496
(dp2497
g53
(dp2498
g61
I3
ssg62
g2492
sg55
(lp2499
g1077
asbasbasbag48
(g64
g50
NtRp2500
(dp2501
g53
(dp2502
sg62
g2349
sg55
(lp2503
g48
(g69
g50
NtRp2504
(dp2505
g53
(dp2506
g73
g74
ssg62
g2500
sg55
(lp2507
S'HTTP_REFERER'
p2508
asbag48
(g69
g50
NtRp2509
(dp2510
g53
(dp2511
g80
g81
ssg62
g2500
sg55
(lp2512
S':'
asbag48
(g69
g50
NtRp2513
(dp2514
g53
(dp2515
sg62
g2500
sg55
(lp2516
g48
(g49
g50
NtRp2517
(dp2518
g53
(dp2519
g61
I3
ssg62
g2513
sg55
(lp2520
g1099
asbasbasbag48
(g64
g50
NtRp2521
(dp2522
g53
(dp2523
sg62
g2349
sg55
(lp2524
g48
(g69
g50
NtRp2525
(dp2526
g53
(dp2527
g73
g74
ssg62
g2521
sg55
(lp2528
S'HTTP_USER_AGENT'
p2529
asbag48
(g69
g50
NtRp2530
(dp2531
g53
(dp2532
g80
g81
ssg62
g2521
sg55
(lp2533
S':'
asbag48
(g69
g50
NtRp2534
(dp2535
g53
(dp2536
sg62
g2521
sg55
(lp2537
g48
(g49
g50
NtRp2538
(dp2539
g53
(dp2540
g61
I3
ssg62
g2534
sg55
(lp2541
g1121
asbasbasbag48
(g64
g50
NtRp2542
(dp2543
g53
(dp2544
sg62
g2349
sg55
(lp2545
g48
(g69
g50
NtRp2546
(dp2547
g53
(dp2548
g73
g74
ssg62
g2542
sg55
(lp2549
S'PATH_INFO'
p2550
asbag48
(g69
g50
NtRp2551
(dp2552
g53
(dp2553
g80
g81
ssg62
g2542
sg55
(lp2554
S':'
asbag48
(g69
g50
NtRp2555
(dp2556
g53
(dp2557
sg62
g2542
sg55
(lp2558
g48
(g49
g50
NtRp2559
(dp2560
g53
(dp2561
g61
I3
ssg62
g2555
sg55
(lp2562
g1164
asbasbasbag48
(g64
g50
NtRp2563
(dp2564
g53
(dp2565
sg62
g2349
sg55
(lp2566
g48
(g69
g50
NtRp2567
(dp2568
g53
(dp2569
g73
g74
ssg62
g2563
sg55
(lp2570
S'QUERY_STRING'
p2571
asbag48
(g69
g50
NtRp2572
(dp2573
g53
(dp2574
g80
g81
ssg62
g2563
sg55
(lp2575
S':'
asbag48
(g69
g50
NtRp2576
(dp2577
g53
(dp2578
sg62
g2563
sg55
(lp2579
g48
(g49
g50
NtRp2580
(dp2581
g53
(dp2582
g61
I3
ssg62
g2576
sg55
(lp2583
S''
asbasbasbag48
(g64
g50
NtRp2584
(dp2585
g53
(dp2586
sg62
g2349
sg55
(lp2587
g48
(g69
g50
NtRp2588
(dp2589
g53
(dp2590
g73
g74
ssg62
g2584
sg55
(lp2591
S'REMOTE_ADDR'
p2592
asbag48
(g69
g50
NtRp2593
(dp2594
g53
(dp2595
g80
g81
ssg62
g2584
sg55
(lp2596
S':'
asbag48
(g69
g50
NtRp2597
(dp2598
g53
(dp2599
sg62
g2584
sg55
(lp2600
g48
(g49
g50
NtRp2601
(dp2602
g53
(dp2603
g61
I3
ssg62
g2597
sg55
(lp2604
g193
asbasbasbag48
(g64
g50
NtRp2605
(dp2606
g53
(dp2607
sg62
g2349
sg55
(lp2608
g48
(g69
g50
NtRp2609
(dp2610
g53
(dp2611
g73
g74
ssg62
g2605
sg55
(lp2612
S'REMOTE_PORT'
p2613
asbag48
(g69
g50
NtRp2614
(dp2615
g53
(dp2616
g80
g81
ssg62
g2605
sg55
(lp2617
S':'
asbag48
(g69
g50
NtRp2618
(dp2619
g53
(dp2620
sg62
g2605
sg55
(lp2621
g48
(g49
g50
NtRp2622
(dp2623
g53
(dp2624
g61
I3
ssg62
g2618
sg55
(lp2625
g1228
asbasbasbag48
(g64
g50
NtRp2626
(dp2627
g53
(dp2628
sg62
g2349
sg55
(lp2629
g48
(g69
g50
NtRp2630
(dp2631
g53
(dp2632
g73
g74
ssg62
g2626
sg55
(lp2633
S'REQUEST_METHOD'
p2634
asbag48
(g69
g50
NtRp2635
(dp2636
g53
(dp2637
g80
g81
ssg62
g2626
sg55
(lp2638
S':'
asbag48
(g69
g50
NtRp2639
(dp2640
g53
(dp2641
sg62
g2626
sg55
(lp2642
g48
(g49
g50
NtRp2643
(dp2644
g53
(dp2645
g61
I3
ssg62
g2639
sg55
(lp2646
g1250
asbasbasbag48
(g64
g50
NtRp2647
(dp2648
g53
(dp2649
sg62
g2349
sg55
(lp2650
g48
(g69
g50
NtRp2651
(dp2652
g53
(dp2653
g73
g74
ssg62
g2647
sg55
(lp2654
S'SCRIPT_NAME'
p2655
asbag48
(g69
g50
NtRp2656
(dp2657
g53
(dp2658
g80
g81
ssg62
g2647
sg55
(lp2659
S':'
asbag48
(g69
g50
NtRp2660
(dp2661
g53
(dp2662
sg62
g2647
sg55
(lp2663
g48
(g49
g50
NtRp2664
(dp2665
g53
(dp2666
g61
I3
ssg62
g2660
sg55
(lp2667
S''
asbasbasbag48
(g64
g50
NtRp2668
(dp2669
g53
(dp2670
sg62
g2349
sg55
(lp2671
g48
(g69
g50
NtRp2672
(dp2673
g53
(dp2674
g73
g74
ssg62
g2668
sg55
(lp2675
S'SERVER_NAME'
p2676
asbag48
(g69
g50
NtRp2677
(dp2678
g53
(dp2679
g80
g81
ssg62
g2668
sg55
(lp2680
S':'
asbag48
(g69
g50
NtRp2681
(dp2682
g53
(dp2683
sg62
g2668
sg55
(lp2684
g48
(g49
g50
NtRp2685
(dp2686
g53
(dp2687
g61
I3
ssg62
g2681
sg55
(lp2688
g1293
asbasbasbag48
(g64
g50
NtRp2689
(dp2690
g53
(dp2691
sg62
g2349
sg55
(lp2692
g48
(g69
g50
NtRp2693
(dp2694
g53
(dp2695
g73
g74
ssg62
g2689
sg55
(lp2696
S'SERVER_PORT'
p2697
asbag48
(g69
g50
NtRp2698
(dp2699
g53
(dp2700
g80
g81
ssg62
g2689
sg55
(lp2701
S':'
asbag48
(g69
g50
NtRp2702
(dp2703
g53
(dp2704
sg62
g2689
sg55
(lp2705
g48
(g49
g50
NtRp2706
(dp2707
g53
(dp2708
g61
I3
ssg62
g2702
sg55
(lp2709
g1315
asbasbasbag48
(g64
g50
NtRp2710
(dp2711
g53
(dp2712
sg62
g2349
sg55
(lp2713
g48
(g69
g50
NtRp2714
(dp2715
g53
(dp2716
g73
g74
ssg62
g2710
sg55
(lp2717
S'SERVER_PROTOCOL'
p2718
asbag48
(g69
g50
NtRp2719
(dp2720
g53
(dp2721
g80
g81
ssg62
g2710
sg55
(lp2722
S':'
asbag48
(g69
g50
NtRp2723
(dp2724
g53
(dp2725
sg62
g2710
sg55
(lp2726
g48
(g49
g50
NtRp2727
(dp2728
g53
(dp2729
g61
I3
ssg62
g2723
sg55
(lp2730
g1337
asbasbasbag48
(g64
g50
NtRp2731
(dp2732
g53
(dp2733
sg62
g2349
sg55
(lp2734
g48
(g69
g50
NtRp2735
(dp2736
g53
(dp2737
g73
g74
ssg62
g2731
sg55
(lp2738
S'SERVER_SOFTWARE'
p2739
asbag48
(g69
g50
NtRp2740
(dp2741
g53
(dp2742
g80
g81
ssg62
g2731
sg55
(lp2743
S':'
asbag48
(g69
g50
NtRp2744
(dp2745
g53
(dp2746
sg62
g2731
sg55
(lp2747
g48
(g49
g50
NtRp2748
(dp2749
g53
(dp2750
g61
I3
ssg62
g2744
sg55
(lp2751
g1359
asbasbasbag48
(g64
g50
NtRp2752
(dp2753
g53
(dp2754
sg62
g2349
sg55
(lp2755
g48
(g69
g50
NtRp2756
(dp2757
g53
(dp2758
g73
g74
ssg62
g2752
sg55
(lp2759
S'wsgi.errors'
p2760
asbag48
(g69
g50
NtRp2761
(dp2762
g53
(dp2763
g80
g81
ssg62
g2752
sg55
(lp2764
S':'
asbag48
(g69
g50
NtRp2765
(dp2766
g53
(dp2767
sg62
g2752
sg55
(lp2768
g48
(g49
g50
NtRp2769
(dp2770
g53
(dp2771
g61
I3
ssg62
g2765
sg55
(lp2772
S"<open file '<stderr>', mode 'w' at 0x014F00B0>"
p2773
asbasbasbag48
(g64
g50
NtRp2774
(dp2775
g53
(dp2776
sg62
g2349
sg55
(lp2777
g48
(g69
g50
NtRp2778
(dp2779
g53
(dp2780
g73
g74
ssg62
g2774
sg55
(lp2781
S'wsgi.file_wrapper'
p2782
asbag48
(g69
g50
NtRp2783
(dp2784
g53
(dp2785
g80
g81
ssg62
g2774
sg55
(lp2786
S':'
asbag48
(g69
g50
NtRp2787
(dp2788
g53
(dp2789
sg62
g2774
sg55
(lp2790
g48
(g49
g50
NtRp2791
(dp2792
g53
(dp2793
g61
I3
ssg62
g2787
sg55
(lp2794
S'<class wsgiref.util.FileWrapper at 0x02459AB0>'
p2795
asbasbasbag48
(g64
g50
NtRp2796
(dp2797
g53
(dp2798
sg62
g2349
sg55
(lp2799
g48
(g69
g50
NtRp2800
(dp2801
g53
(dp2802
g73
g74
ssg62
g2796
sg55
(lp2803
S'wsgi.input'
p2804
asbag48
(g69
g50
NtRp2805
(dp2806
g53
(dp2807
g80
g81
ssg62
g2796
sg55
(lp2808
S':'
asbag48
(g69
g50
NtRp2809
(dp2810
g53
(dp2811
sg62
g2796
sg55
(lp2812
g48
(g49
g50
NtRp2813
(dp2814
g53
(dp2815
g61
I3
ssg62
g2809
sg55
(lp2816
S'<cStringIO.StringO object at 0x026BE420>'
p2817
asbasbasbag48
(g64
g50
NtRp2818
(dp2819
g53
(dp2820
sg62
g2349
sg55
(lp2821
g48
(g69
g50
NtRp2822
(dp2823
g53
(dp2824
g73
g74
ssg62
g2818
sg55
(lp2825
S'wsgi.multiprocess'
p2826
asbag48
(g69
g50
NtRp2827
(dp2828
g53
(dp2829
g80
g81
ssg62
g2818
sg55
(lp2830
S':'
asbag48
(g69
g50
NtRp2831
(dp2832
g53
(dp2833
sg62
g2818
sg55
(lp2834
g48
(g49
g50
NtRp2835
(dp2836
g53
(dp2837
g61
I3
ssg62
g2831
sg55
(lp2838
g91
asbasbasbag48
(g64
g50
NtRp2839
(dp2840
g53
(dp2841
sg62
g2349
sg55
(lp2842
g48
(g69
g50
NtRp2843
(dp2844
g53
(dp2845
g73
g74
ssg62
g2839
sg55
(lp2846
S'wsgi.multithread'
p2847
asbag48
(g69
g50
NtRp2848
(dp2849
g53
(dp2850
g80
g81
ssg62
g2839
sg55
(lp2851
S':'
asbag48
(g69
g50
NtRp2852
(dp2853
g53
(dp2854
sg62
g2839
sg55
(lp2855
g48
(g49
g50
NtRp2856
(dp2857
g53
(dp2858
g61
I3
ssg62
g2852
sg55
(lp2859
g1599
asbasbasbag48
(g64
g50
NtRp2860
(dp2861
g53
(dp2862
sg62
g2349
sg55
(lp2863
g48
(g69
g50
NtRp2864
(dp2865
g53
(dp2866
g73
g74
ssg62
g2860
sg55
(lp2867
S'wsgi.run_once'
p2868
asbag48
(g69
g50
NtRp2869
(dp2870
g53
(dp2871
g80
g81
ssg62
g2860
sg55
(lp2872
S':'
asbag48
(g69
g50
NtRp2873
(dp2874
g53
(dp2875
sg62
g2860
sg55
(lp2876
g48
(g49
g50
NtRp2877
(dp2878
g53
(dp2879
g61
I3
ssg62
g2873
sg55
(lp2880
g91
asbasbasbag48
(g64
g50
NtRp2881
(dp2882
g53
(dp2883
sg62
g2349
sg55
(lp2884
g48
(g69
g50
NtRp2885
(dp2886
g53
(dp2887
g73
g74
ssg62
g2881
sg55
(lp2888
S'wsgi.url_scheme'
p2889
asbag48
(g69
g50
NtRp2890
(dp2891
g53
(dp2892
g80
g81
ssg62
g2881
sg55
(lp2893
S':'
asbag48
(g69
g50
NtRp2894
(dp2895
g53
(dp2896
sg62
g2881
sg55
(lp2897
g48
(g49
g50
NtRp2898
(dp2899
g53
(dp2900
g61
I3
ssg62
g2894
sg55
(lp2901
g1642
asbasbasbag48
(g64
g50
NtRp2902
(dp2903
g53
(dp2904
sg62
g2349
sg55
(lp2905
g48
(g69
g50
NtRp2906
(dp2907
g53
(dp2908
g73
g74
ssg62
g2902
sg55
(lp2909
S'wsgi.version'
p2910
asbag48
(g69
g50
NtRp2911
(dp2912
g53
(dp2913
g80
g81
ssg62
g2902
sg55
(lp2914
S':'
asbag48
(g69
g50
NtRp2915
(dp2916
g53
(dp2917
sg62
g2902
sg55
(lp2918
g48
(g49
g50
NtRp2919
(dp2920
g53
(dp2921
g61
I3
ssg62
g2915
sg55
(lp2922
S'1'
asbasbasbasbasbasbasbasbasbasbasbasbasbsS'frames'
p2923
(lp2924
(dp2925
S'file'
p2926
S'C:\\Python32\\web2py_win\\web2py\\gluon\\restricted.py'
p2927
sS'dump'
p2928
(dp2929
sS'lnum'
p2930
I194
sS'lines'
p2931
(dp2932
sS'call'
p2933
S'(code=\'response.write(\\\'<!DOCTYPE html PUBLIC "-//W3C//D...</div>\\\\r\\\\n </body>\\\\r\\\\n</html>\\\\r\\\\n\\\', escape=False)\', environment={\'A\': <class \'gluon.html.A\'>, \'Auth\': <class \'gluon.tools.Auth\'>, \'B\': <class \'gluon.html.B\'>, \'BEAUTIFY\': <class \'gluon.html.BEAUTIFY\'>, \'BODY\': <class \'gluon.html.BODY\'>, \'BR\': <class \'gluon.html.BR\'>, \'BUTTON\': <class \'gluon.html.BUTTON\'>, \'CAT\': <class \'gluon.html.CAT\'>, \'CENTER\': <class \'gluon.html.CENTER\'>, \'CLEANUP\': <class \'gluon.validators.CLEANUP\'>, ...}, layer=r\'C:\\Python32\\web2py_win\\web2py\\applications\\Casa_de_Apuestas\\views\\default/showCategoria.html\')'
p2934
sS'func'
p2935
S'restricted'
p2936
sa(dp2937
g2926
S'C:\\Python32\\web2py_win\\web2py\\applications\\Casa_de_Apuestas\\views\\default\\showCategoria.html'
p2938
sg2928
(dp2939
sg2930
I28
sg2931
(dp2940
I32
S'pass'
p2941
sI33
S"response.write('\\r\\n', escape=False)"
p2942
sI34
S'response.write(\'\\r\\n   <!-- start sidebar -->\\r\\n   <!-- end sidebar -->\\r\\n  </div>\\r\\n  <!-- end page -->\\r\\n  <div style="clear: both;">\\r\\n   &nbsp;\\r\\n  </div>\\r\\n  <div id="footer">\\r\\n   <p>\\r\\n    &copy;2011 All Rights Reserved. &nbsp;&bull;&nbsp; Design by JSG Systems\\r\\n   </p>\\r\\n  </div>\\r\\n </body>\\r\\n</html>\\r\\n\', escape=False)'
p2943
sI19
S'response.write(\'";\\r\\n    //--></script>\\r\\n    <script src="\', escape=False)'
p2944
sI20
S"response.write(URL('static','js/web2py_ajax.js'))"
p2945
sI21
S'response.write(\'" type="text/javascript"></script>\\r\\n\', escape=False)'
p2946
sI22
S"response.write('\\r\\n  <style>\\r\\nul.web2py-menu-vertical { width: 150px; position: relative; top:1em; left:1em;  z-index:30; border:0; margin:0; padding: 0; list-style: none; text-decoration: none;}\\r\\nul.web2py-menu-vertical li { margin:0; padding:0; border:0; width: 150px; background: black; text-align:left;}\\r\\nul.web2py-menu-vertical li a { margin:0; padding: 1px 3px 1px 3px; border:0; width: 144px; color: white; font-size:12px;}\\r\\ndiv.flash { position: fixed; float: right; padding: 10px; top: 10px; right: 30px; opacity: 0.75; margin: 10px 10px 10px 10px; text-align: center; clear: both; color: #fff; font-size: 11pt; text-align: center; vertical-align: middle; cursor: pointer; background: black; border: 2px solid #fff; -moz-border-radius: 5px; -webkit-border-radius: 5px; z-index: 2; }\\r\\ndiv.error { background-color: red; color: white; padding: 3px; }\\r\\n.auth_navbar { text-align:right; z-index:20; position: absolute; top: 2px; right:30px; border:0; padding:0 }\\r\\n  </style>\\r\\n </head>\\r\\n <body>\\r\\n  <!-- start header -->\\r\\n  ', escape=False)"
p2947
sI23
S'try:'
p2948
sI24
S"    response.write(auth.navbar(action=URL('default','user')))"
p2949
sI25
S'except:pass'
p2950
sI26
S'response.write(\'\\r\\n\\r\\n  <!-- start header -->\\r\\n  <div id="header">\\r\\n   <div id="logo">\\r\\n    <h1>\\r\\n     Sistema de Gesti\\xc3\\xb3n 1.0\\r\\n    </h1>\\r\\n   </div>\\r\\n  </div>\\r\\n  <!-- end header -->\\r\\n  <!-- start page -->\\r\\n  <div id="page">\\r\\n   <!-- start content -->\\r\\n   <!-- end content -->\\r\\n   \', escape=False)'
p2951
sI27
S'response.write(\'\\r\\n<div id="content">\\r\\n    <div class="post greenbox">\\r\\n           <div class="title">\\r\\n                <h1>\', escape=False)'
p2952
sI28
S'response.write(T(form.nombre))'
p2953
sI29
S'response.write(\'</h1>\\r\\n           </div>\\r\\n           <div class="entry">\\r\\n                    \', escape=False)'
p2954
sI30
S'response.write(form)'
p2955
sI31
S'response.write(\'\\r\\n           </div>\\r\\n           <div class="btm" align="center">\\r\\n              <div class="l">\\r\\n                  <div class="r">\\r\\n                       &nbsp;\\r\\n                  </div>\\r\\n              </div>\\r\\n           </div>\\r\\n     </div>\\r\\n</div>\\r\\n<div id="sidebar">\\r\\n  <ul>\\r\\n    <li>\\r\\n      <h2>\\r\\n       No se que colocar aqu\\xc3\\xad\\r\\n      </h2>\\r\\n      <ul align="center">\\r\\n      </ul>\\r\\n    </li>\\r\\n</div>\\r\\n\', escape=False)'
p2956
ssg2933
S'()'
p2957
sg2935
S'<module>'
p2958
sasS'pyver'
p2959
S'Python 2.5.4: C:\\Python32\\web2py_win\\web2py\\web2py.exe'
p2960
sS'session'
p2961
g48
(g49
g50
NtRp2962
(dp2963
g53
(dp2964
sg55
(lp2965
g48
(g57
g50
NtRp2966
(dp2967
g53
(dp2968
g61
I5
ssg62
Nsg55
(lp2969
g48
(g64
g50
NtRp2970
(dp2971
g53
(dp2972
sg62
g2966
sg55
(lp2973
g48
(g69
g50
NtRp2974
(dp2975
g53
(dp2976
g73
g74
ssg62
g2970
sg55
(lp2977
S'auth'
p2978
asbag48
(g69
g50
NtRp2979
(dp2980
g53
(dp2981
g80
g81
ssg62
g2970
sg55
(lp2982
S':'
asbag48
(g69
g50
NtRp2983
(dp2984
g53
(dp2985
sg62
g2970
sg55
(lp2986
g48
(g49
g50
NtRp2987
(dp2988
g53
(dp2989
g61
I5
ssg62
g2983
sg55
(lp2990
g48
(g57
g50
NtRp2991
(dp2992
g53
(dp2993
g61
I4
ssg62
Nsg55
(lp2994
g48
(g64
g50
NtRp2995
(dp2996
g53
(dp2997
sg62
g2991
sg55
(lp2998
g48
(g69
g50
NtRp2999
(dp3000
g53
(dp3001
g73
g74
ssg62
g2995
sg55
(lp3002
S'expiration'
p3003
asbag48
(g69
g50
NtRp3004
(dp3005
g53
(dp3006
g80
g81
ssg62
g2995
sg55
(lp3007
S':'
asbag48
(g69
g50
NtRp3008
(dp3009
g53
(dp3010
sg62
g2995
sg55
(lp3011
g48
(g49
g50
NtRp3012
(dp3013
g53
(dp3014
g61
I4
ssg62
g3008
sg55
(lp3015
S'2592000'
p3016
asbasbasbag48
(g64
g50
NtRp3017
(dp3018
g53
(dp3019
sg62
g2991
sg55
(lp3020
g48
(g69
g50
NtRp3021
(dp3022
g53
(dp3023
g73
g74
ssg62
g3017
sg55
(lp3024
S'hmac_key'
p3025
asbag48
(g69
g50
NtRp3026
(dp3027
g53
(dp3028
g80
g81
ssg62
g3017
sg55
(lp3029
S':'
asbag48
(g69
g50
NtRp3030
(dp3031
g53
(dp3032
sg62
g3017
sg55
(lp3033
g48
(g49
g50
NtRp3034
(dp3035
g53
(dp3036
g61
I4
ssg62
g3030
sg55
(lp3037
S'ef556059-c1f5-4d57-8b7a-81e4596d7d1b'
p3038
asbasbasbag48
(g64
g50
NtRp3039
(dp3040
g53
(dp3041
sg62
g2991
sg55
(lp3042
g48
(g69
g50
NtRp3043
(dp3044
g53
(dp3045
g73
g74
ssg62
g3039
sg55
(lp3046
S'last_visit'
p3047
asbag48
(g69
g50
NtRp3048
(dp3049
g53
(dp3050
g80
g81
ssg62
g3039
sg55
(lp3051
S':'
asbag48
(g69
g50
NtRp3052
(dp3053
g53
(dp3054
sg62
g3039
sg55
(lp3055
g48
(g49
g50
NtRp3056
(dp3057
g53
(dp3058
g61
I4
ssg62
g3052
sg55
(lp3059
S'datetime.datetime(2011, 11, 17, 14, 26, 37, 546000)'
p3060
asbasbasbag48
(g64
g50
NtRp3061
(dp3062
g53
(dp3063
sg62
g2991
sg55
(lp3064
g48
(g69
g50
NtRp3065
(dp3066
g53
(dp3067
g73
g74
ssg62
g3061
sg55
(lp3068
S'remember'
p3069
asbag48
(g69
g50
NtRp3070
(dp3071
g53
(dp3072
g80
g81
ssg62
g3061
sg55
(lp3073
S':'
asbag48
(g69
g50
NtRp3074
(dp3075
g53
(dp3076
sg62
g3061
sg55
(lp3077
g48
(g49
g50
NtRp3078
(dp3079
g53
(dp3080
g61
I4
ssg62
g3074
sg55
(lp3081
g91
asbasbasbag48
(g64
g50
NtRp3082
(dp3083
g53
(dp3084
sg62
g2991
sg55
(lp3085
g48
(g69
g50
NtRp3086
(dp3087
g53
(dp3088
g73
g74
ssg62
g3082
sg55
(lp3089
S'user'
p3090
asbag48
(g69
g50
NtRp3091
(dp3092
g53
(dp3093
g80
g81
ssg62
g3082
sg55
(lp3094
S':'
asbag48
(g69
g50
NtRp3095
(dp3096
g53
(dp3097
sg62
g3082
sg55
(lp3098
g48
(g49
g50
NtRp3099
(dp3100
g53
(dp3101
g61
I4
ssg62
g3095
sg55
(lp3102
g48
(g57
g50
NtRp3103
(dp3104
g53
(dp3105
g61
I3
ssg62
Nsg55
(lp3106
g48
(g64
g50
NtRp3107
(dp3108
g53
(dp3109
sg62
g3103
sg55
(lp3110
g48
(g69
g50
NtRp3111
(dp3112
g53
(dp3113
g73
g74
ssg62
g3107
sg55
(lp3114
S'apellido'
p3115
asbag48
(g69
g50
NtRp3116
(dp3117
g53
(dp3118
g80
g81
ssg62
g3107
sg55
(lp3119
S':'
asbag48
(g69
g50
NtRp3120
(dp3121
g53
(dp3122
sg62
g3107
sg55
(lp3123
g48
(g49
g50
NtRp3124
(dp3125
g53
(dp3126
g61
I3
ssg62
g3120
sg55
(lp3127
S'admin'
p3128
asbasbasbag48
(g64
g50
NtRp3129
(dp3130
g53
(dp3131
sg62
g3103
sg55
(lp3132
g48
(g69
g50
NtRp3133
(dp3134
g53
(dp3135
g73
g74
ssg62
g3129
sg55
(lp3136
S'created_on'
p3137
asbag48
(g69
g50
NtRp3138
(dp3139
g53
(dp3140
g80
g81
ssg62
g3129
sg55
(lp3141
S':'
asbag48
(g69
g50
NtRp3142
(dp3143
g53
(dp3144
sg62
g3129
sg55
(lp3145
g48
(g49
g50
NtRp3146
(dp3147
g53
(dp3148
g61
I3
ssg62
g3142
sg55
(lp3149
S'datetime.datetime(2011, 11, 13, 17, 39, 40)'
p3150
asbasbasbag48
(g64
g50
NtRp3151
(dp3152
g53
(dp3153
sg62
g3103
sg55
(lp3154
g48
(g69
g50
NtRp3155
(dp3156
g53
(dp3157
g73
g74
ssg62
g3151
sg55
(lp3158
S'email'
p3159
asbag48
(g69
g50
NtRp3160
(dp3161
g53
(dp3162
g80
g81
ssg62
g3151
sg55
(lp3163
S':'
asbag48
(g69
g50
NtRp3164
(dp3165
g53
(dp3166
sg62
g3151
sg55
(lp3167
g48
(g49
g50
NtRp3168
(dp3169
g53
(dp3170
g61
I3
ssg62
g3164
sg55
(lp3171
S'admin@ucab.edu.ve'
p3172
asbasbasbag48
(g64
g50
NtRp3173
(dp3174
g53
(dp3175
sg62
g3103
sg55
(lp3176
g48
(g69
g50
NtRp3177
(dp3178
g53
(dp3179
g73
g74
ssg62
g3173
sg55
(lp3180
S'id'
p3181
asbag48
(g69
g50
NtRp3182
(dp3183
g53
(dp3184
g80
g81
ssg62
g3173
sg55
(lp3185
S':'
asbag48
(g69
g50
NtRp3186
(dp3187
g53
(dp3188
sg62
g3173
sg55
(lp3189
g48
(g49
g50
NtRp3190
(dp3191
g53
(dp3192
g61
I3
ssg62
g3186
sg55
(lp3193
S'11'
p3194
asbasbasbag48
(g64
g50
NtRp3195
(dp3196
g53
(dp3197
sg62
g3103
sg55
(lp3198
g48
(g69
g50
NtRp3199
(dp3200
g53
(dp3201
g73
g74
ssg62
g3195
sg55
(lp3202
S'modified_on'
p3203
asbag48
(g69
g50
NtRp3204
(dp3205
g53
(dp3206
g80
g81
ssg62
g3195
sg55
(lp3207
S':'
asbag48
(g69
g50
NtRp3208
(dp3209
g53
(dp3210
sg62
g3195
sg55
(lp3211
g48
(g49
g50
NtRp3212
(dp3213
g53
(dp3214
g61
I3
ssg62
g3208
sg55
(lp3215
S'datetime.datetime(2011, 11, 13, 17, 39, 52)'
p3216
asbasbasbag48
(g64
g50
NtRp3217
(dp3218
g53
(dp3219
sg62
g3103
sg55
(lp3220
g48
(g69
g50
NtRp3221
(dp3222
g53
(dp3223
g73
g74
ssg62
g3217
sg55
(lp3224
S'nick'
p3225
asbag48
(g69
g50
NtRp3226
(dp3227
g53
(dp3228
g80
g81
ssg62
g3217
sg55
(lp3229
S':'
asbag48
(g69
g50
NtRp3230
(dp3231
g53
(dp3232
sg62
g3217
sg55
(lp3233
g48
(g49
g50
NtRp3234
(dp3235
g53
(dp3236
g61
I3
ssg62
g3230
sg55
(lp3237
S'admin'
p3238
asbasbasbag48
(g64
g50
NtRp3239
(dp3240
g53
(dp3241
sg62
g3103
sg55
(lp3242
g48
(g69
g50
NtRp3243
(dp3244
g53
(dp3245
g73
g74
ssg62
g3239
sg55
(lp3246
S'nombre'
p3247
asbag48
(g69
g50
NtRp3248
(dp3249
g53
(dp3250
g80
g81
ssg62
g3239
sg55
(lp3251
S':'
asbag48
(g69
g50
NtRp3252
(dp3253
g53
(dp3254
sg62
g3239
sg55
(lp3255
g48
(g49
g50
NtRp3256
(dp3257
g53
(dp3258
g61
I3
ssg62
g3252
sg55
(lp3259
S'admin'
p3260
asbasbasbag48
(g64
g50
NtRp3261
(dp3262
g53
(dp3263
sg62
g3103
sg55
(lp3264
g48
(g69
g50
NtRp3265
(dp3266
g53
(dp3267
g73
g74
ssg62
g3261
sg55
(lp3268
S'password'
p3269
asbag48
(g69
g50
NtRp3270
(dp3271
g53
(dp3272
g80
g81
ssg62
g3261
sg55
(lp3273
S':'
asbag48
(g69
g50
NtRp3274
(dp3275
g53
(dp3276
sg62
g3261
sg55
(lp3277
g48
(g49
g50
NtRp3278
(dp3279
g53
(dp3280
g61
I3
ssg62
g3274
sg55
(lp3281
S'd9112a75303bdd71a94bf896ec050b70'
p3282
asbasbasbag48
(g64
g50
NtRp3283
(dp3284
g53
(dp3285
sg62
g3103
sg55
(lp3286
g48
(g69
g50
NtRp3287
(dp3288
g53
(dp3289
g73
g74
ssg62
g3283
sg55
(lp3290
S'registration_id'
p3291
asbag48
(g69
g50
NtRp3292
(dp3293
g53
(dp3294
g80
g81
ssg62
g3283
sg55
(lp3295
S':'
asbag48
(g69
g50
NtRp3296
(dp3297
g53
(dp3298
sg62
g3283
sg55
(lp3299
g48
(g49
g50
NtRp3300
(dp3301
g53
(dp3302
g61
I3
ssg62
g3296
sg55
(lp3303
S''
asbasbasbag48
(g64
g50
NtRp3304
(dp3305
g53
(dp3306
sg62
g3103
sg55
(lp3307
g48
(g69
g50
NtRp3308
(dp3309
g53
(dp3310
g73
g74
ssg62
g3304
sg55
(lp3311
S'registration_key'
p3312
asbag48
(g69
g50
NtRp3313
(dp3314
g53
(dp3315
g80
g81
ssg62
g3304
sg55
(lp3316
S':'
asbag48
(g69
g50
NtRp3317
(dp3318
g53
(dp3319
sg62
g3304
sg55
(lp3320
g48
(g49
g50
NtRp3321
(dp3322
g53
(dp3323
g61
I3
ssg62
g3317
sg55
(lp3324
S''
asbasbasbag48
(g64
g50
NtRp3325
(dp3326
g53
(dp3327
sg62
g3103
sg55
(lp3328
g48
(g69
g50
NtRp3329
(dp3330
g53
(dp3331
g73
g74
ssg62
g3325
sg55
(lp3332
S'reset_password_key'
p3333
asbag48
(g69
g50
NtRp3334
(dp3335
g53
(dp3336
g80
g81
ssg62
g3325
sg55
(lp3337
S':'
asbag48
(g69
g50
NtRp3338
(dp3339
g53
(dp3340
sg62
g3325
sg55
(lp3341
g48
(g49
g50
NtRp3342
(dp3343
g53
(dp3344
g61
I3
ssg62
g3338
sg55
(lp3345
S''
asbasbasbasbasbasbasbasbasbasbasbasbasbsS'etype'
p3346
S"<type 'exceptions.AttributeError'>"
p3347
sS'date'
p3348
S'Thu Nov 17 14:31:00 2011'
p3349
sS'response'
p3350
g48
(g49
g50
NtRp3351
(dp3352
g53
(dp3353
sg55
(lp3354
g48
(g57
g50
NtRp3355
(dp3356
g53
(dp3357
g61
I5
ssg62
Nsg55
(lp3358
g48
(g64
g50
NtRp3359
(dp3360
g53
(dp3361
sg62
g3355
sg55
(lp3362
g48
(g69
g50
NtRp3363
(dp3364
g53
(dp3365
g73
g74
ssg62
g3359
sg55
(lp3366
g158
asbag48
(g69
g50
NtRp3367
(dp3368
g53
(dp3369
g80
g81
ssg62
g3359
sg55
(lp3370
S':'
asbag48
(g69
g50
NtRp3371
(dp3372
g53
(dp3373
sg62
g3359
sg55
(lp3374
g48
(g49
g50
NtRp3375
(dp3376
g53
(dp3377
g61
I5
ssg62
g3371
sg55
(lp3378
S'<cStringIO.StringO object at 0x060CCD80>'
p3379
asbasbasbag48
(g64
g50
NtRp3380
(dp3381
g53
(dp3382
sg62
g3355
sg55
(lp3383
g48
(g69
g50
NtRp3384
(dp3385
g53
(dp3386
g73
g74
ssg62
g3380
sg55
(lp3387
g224
asbag48
(g69
g50
NtRp3388
(dp3389
g53
(dp3390
g80
g81
ssg62
g3380
sg55
(lp3391
S':'
asbag48
(g69
g50
NtRp3392
(dp3393
g53
(dp3394
sg62
g3380
sg55
(lp3395
g48
(g49
g50
NtRp3396
(dp3397
g53
(dp3398
g61
I5
ssg62
g3392
sg55
(lp3399
g48
(g57
g50
NtRp3400
(dp3401
g53
(dp3402
g61
I4
ssg62
Nsg55
(lp3403
g48
(g64
g50
NtRp3404
(dp3405
g53
(dp3406
sg62
g3400
sg55
(lp3407
g48
(g69
g50
NtRp3408
(dp3409
g53
(dp3410
g73
g74
ssg62
g3404
sg55
(lp3411
S'session_id_casa_de_apuestas'
p3412
asbag48
(g69
g50
NtRp3413
(dp3414
g53
(dp3415
g80
g81
ssg62
g3404
sg55
(lp3416
S':'
asbag48
(g69
g50
NtRp3417
(dp3418
g53
(dp3419
sg62
g3404
sg55
(lp3420
g48
(g49
g50
NtRp3421
(dp3422
g53
(dp3423
g61
I4
ssg62
g3417
sg55
(lp3424
g48
(g57
g50
NtRp3425
(dp3426
g53
(dp3427
g61
I3
ssg62
Nsg55
(lp3428
g48
(g64
g50
NtRp3429
(dp3430
g53
(dp3431
sg62
g3425
sg55
(lp3432
g48
(g69
g50
NtRp3433
(dp3434
g53
(dp3435
g73
g74
ssg62
g3429
sg55
(lp3436
g274
asbag48
(g69
g50
NtRp3437
(dp3438
g53
(dp3439
g80
g81
ssg62
g3429
sg55
(lp3440
S':'
asbag48
(g69
g50
NtRp3441
(dp3442
g53
(dp3443
sg62
g3429
sg55
(lp3444
g48
(g49
g50
NtRp3445
(dp3446
g53
(dp3447
g61
I3
ssg62
g3441
sg55
(lp3448
S''
asbasbasbag48
(g64
g50
NtRp3449
(dp3450
g53
(dp3451
sg62
g3425
sg55
(lp3452
g48
(g69
g50
NtRp3453
(dp3454
g53
(dp3455
g73
g74
ssg62
g3449
sg55
(lp3456
g295
asbag48
(g69
g50
NtRp3457
(dp3458
g53
(dp3459
g80
g81
ssg62
g3449
sg55
(lp3460
S':'
asbag48
(g69
g50
NtRp3461
(dp3462
g53
(dp3463
sg62
g3449
sg55
(lp3464
g48
(g49
g50
NtRp3465
(dp3466
g53
(dp3467
g61
I3
ssg62
g3461
sg55
(lp3468
S''
asbasbasbag48
(g64
g50
NtRp3469
(dp3470
g53
(dp3471
sg62
g3425
sg55
(lp3472
g48
(g69
g50
NtRp3473
(dp3474
g53
(dp3475
g73
g74
ssg62
g3469
sg55
(lp3476
g316
asbag48
(g69
g50
NtRp3477
(dp3478
g53
(dp3479
g80
g81
ssg62
g3469
sg55
(lp3480
S':'
asbag48
(g69
g50
NtRp3481
(dp3482
g53
(dp3483
sg62
g3469
sg55
(lp3484
g48
(g49
g50
NtRp3485
(dp3486
g53
(dp3487
g61
I3
ssg62
g3481
sg55
(lp3488
S''
asbasbasbag48
(g64
g50
NtRp3489
(dp3490
g53
(dp3491
sg62
g3425
sg55
(lp3492
g48
(g69
g50
NtRp3493
(dp3494
g53
(dp3495
g73
g74
ssg62
g3489
sg55
(lp3496
g337
asbag48
(g69
g50
NtRp3497
(dp3498
g53
(dp3499
g80
g81
ssg62
g3489
sg55
(lp3500
S':'
asbag48
(g69
g50
NtRp3501
(dp3502
g53
(dp3503
sg62
g3489
sg55
(lp3504
g48
(g49
g50
NtRp3505
(dp3506
g53
(dp3507
g61
I3
ssg62
g3501
sg55
(lp3508
S''
asbasbasbag48
(g64
g50
NtRp3509
(dp3510
g53
(dp3511
sg62
g3425
sg55
(lp3512
g48
(g69
g50
NtRp3513
(dp3514
g53
(dp3515
g73
g74
ssg62
g3509
sg55
(lp3516
g358
asbag48
(g69
g50
NtRp3517
(dp3518
g53
(dp3519
g80
g81
ssg62
g3509
sg55
(lp3520
S':'
asbag48
(g69
g50
NtRp3521
(dp3522
g53
(dp3523
sg62
g3509
sg55
(lp3524
g48
(g49
g50
NtRp3525
(dp3526
g53
(dp3527
g61
I3
ssg62
g3521
sg55
(lp3528
S'/'
asbasbasbag48
(g64
g50
NtRp3529
(dp3530
g53
(dp3531
sg62
g3425
sg55
(lp3532
g48
(g69
g50
NtRp3533
(dp3534
g53
(dp3535
g73
g74
ssg62
g3529
sg55
(lp3536
g379
asbag48
(g69
g50
NtRp3537
(dp3538
g53
(dp3539
g80
g81
ssg62
g3529
sg55
(lp3540
S':'
asbag48
(g69
g50
NtRp3541
(dp3542
g53
(dp3543
sg62
g3529
sg55
(lp3544
g48
(g49
g50
NtRp3545
(dp3546
g53
(dp3547
g61
I3
ssg62
g3541
sg55
(lp3548
S''
asbasbasbag48
(g64
g50
NtRp3549
(dp3550
g53
(dp3551
sg62
g3425
sg55
(lp3552
g48
(g69
g50
NtRp3553
(dp3554
g53
(dp3555
g73
g74
ssg62
g3549
sg55
(lp3556
g400
asbag48
(g69
g50
NtRp3557
(dp3558
g53
(dp3559
g80
g81
ssg62
g3549
sg55
(lp3560
S':'
asbag48
(g69
g50
NtRp3561
(dp3562
g53
(dp3563
sg62
g3549
sg55
(lp3564
g48
(g49
g50
NtRp3565
(dp3566
g53
(dp3567
g61
I3
ssg62
g3561
sg55
(lp3568
S''
asbasbasbasbasbasbasbasbasbasbasbag48
(g64
g50
NtRp3569
(dp3570
g53
(dp3571
sg62
g3355
sg55
(lp3572
g48
(g69
g50
NtRp3573
(dp3574
g53
(dp3575
g73
g74
ssg62
g3569
sg55
(lp3576
S'files'
p3577
asbag48
(g69
g50
NtRp3578
(dp3579
g53
(dp3580
g80
g81
ssg62
g3569
sg55
(lp3581
S':'
asbag48
(g69
g50
NtRp3582
(dp3583
g53
(dp3584
sg62
g3569
sg55
(lp3585
g48
(g49
g50
NtRp3586
(dp3587
g53
(dp3588
g61
I5
ssg62
g3582
sg55
(lp3589
g48
(g57
g50
NtRp3590
(dp3591
g53
(dp3592
g61
I4
ssg62
Nsg55
(lp3593
g48
(g64
g50
NtRp3594
(dp3595
g53
(dp3596
sg62
g3590
sg55
(lp3597
g48
(g69
g50
NtRp3598
(dp3599
g53
(dp3600
sg62
g3594
sg55
(lp3601
g48
(g49
g50
NtRp3602
(dp3603
g53
(dp3604
g61
I4
ssg62
g3598
sg55
(lp3605
S'/Casa_de_Apuestas/static/js/jquery.js'
p3606
asbasbasbag48
(g64
g50
NtRp3607
(dp3608
g53
(dp3609
sg62
g3590
sg55
(lp3610
g48
(g69
g50
NtRp3611
(dp3612
g53
(dp3613
sg62
g3607
sg55
(lp3614
g48
(g49
g50
NtRp3615
(dp3616
g53
(dp3617
g61
I4
ssg62
g3611
sg55
(lp3618
S'/Casa_de_Apuestas/static/css/anytime.css'
p3619
asbasbasbag48
(g64
g50
NtRp3620
(dp3621
g53
(dp3622
sg62
g3590
sg55
(lp3623
g48
(g69
g50
NtRp3624
(dp3625
g53
(dp3626
sg62
g3620
sg55
(lp3627
g48
(g49
g50
NtRp3628
(dp3629
g53
(dp3630
g61
I4
ssg62
g3624
sg55
(lp3631
S'/Casa_de_Apuestas/static/js/anytime.js'
p3632
asbasbasbag48
(g64
g50
NtRp3633
(dp3634
g53
(dp3635
sg62
g3590
sg55
(lp3636
g48
(g69
g50
NtRp3637
(dp3638
g53
(dp3639
sg62
g3633
sg55
(lp3640
g48
(g49
g50
NtRp3641
(dp3642
g53
(dp3643
g61
I4
ssg62
g3637
sg55
(lp3644
S'/Casa_de_Apuestas/static/plugin_layouts/layouts/Balanced/default.css'
p3645
asbasbasbag48
(g64
g50
NtRp3646
(dp3647
g53
(dp3648
sg62
g3590
sg55
(lp3649
g48
(g69
g50
NtRp3650
(dp3651
g53
(dp3652
sg62
g3646
sg55
(lp3653
g48
(g49
g50
NtRp3654
(dp3655
g53
(dp3656
g61
I4
ssg62
g3650
sg55
(lp3657
S'/Casa_de_Apuestas/static/plugin_layouts/superfish.js'
p3658
asbasbasbasbasbasbasbag48
(g64
g50
NtRp3659
(dp3660
g53
(dp3661
sg62
g3355
sg55
(lp3662
g48
(g69
g50
NtRp3663
(dp3664
g53
(dp3665
g73
g74
ssg62
g3659
sg55
(lp3666
S'flash'
p3667
asbag48
(g69
g50
NtRp3668
(dp3669
g53
(dp3670
g80
g81
ssg62
g3659
sg55
(lp3671
S':'
asbag48
(g69
g50
NtRp3672
(dp3673
g53
(dp3674
sg62
g3659
sg55
(lp3675
g48
(g49
g50
NtRp3676
(dp3677
g53
(dp3678
g61
I5
ssg62
g3672
sg55
(lp3679
S''
asbasbasbag48
(g64
g50
NtRp3680
(dp3681
g53
(dp3682
sg62
g3355
sg55
(lp3683
g48
(g69
g50
NtRp3684
(dp3685
g53
(dp3686
g73
g74
ssg62
g3680
sg55
(lp3687
S'generic_patterns'
p3688
asbag48
(g69
g50
NtRp3689
(dp3690
g53
(dp3691
g80
g81
ssg62
g3680
sg55
(lp3692
S':'
asbag48
(g69
g50
NtRp3693
(dp3694
g53
(dp3695
sg62
g3680
sg55
(lp3696
g48
(g49
g50
NtRp3697
(dp3698
g53
(dp3699
g61
I5
ssg62
g3693
sg55
(lp3700
g48
(g57
g50
NtRp3701
(dp3702
g53
(dp3703
g61
I4
ssg62
Nsg55
(lp3704
g48
(g64
g50
NtRp3705
(dp3706
g53
(dp3707
sg62
g3701
sg55
(lp3708
g48
(g69
g50
NtRp3709
(dp3710
g53
(dp3711
sg62
g3705
sg55
(lp3712
g48
(g49
g50
NtRp3713
(dp3714
g53
(dp3715
g61
I4
ssg62
g3709
sg55
(lp3716
S'*'
asbasbasbasbasbasbasbag48
(g64
g50
NtRp3717
(dp3718
g53
(dp3719
sg62
g3355
sg55
(lp3720
g48
(g69
g50
NtRp3721
(dp3722
g53
(dp3723
g73
g74
ssg62
g3717
sg55
(lp3724
S'headers'
p3725
asbag48
(g69
g50
NtRp3726
(dp3727
g53
(dp3728
g80
g81
ssg62
g3717
sg55
(lp3729
S':'
asbag48
(g69
g50
NtRp3730
(dp3731
g53
(dp3732
sg62
g3717
sg55
(lp3733
g48
(g49
g50
NtRp3734
(dp3735
g53
(dp3736
g61
I5
ssg62
g3730
sg55
(lp3737
g48
(g57
g50
NtRp3738
(dp3739
g53
(dp3740
g61
I4
ssg62
Nsg55
(lp3741
g48
(g64
g50
NtRp3742
(dp3743
g53
(dp3744
sg62
g3738
sg55
(lp3745
g48
(g69
g50
NtRp3746
(dp3747
g53
(dp3748
g73
g74
ssg62
g3742
sg55
(lp3749
S'Cache-Control'
p3750
asbag48
(g69
g50
NtRp3751
(dp3752
g53
(dp3753
g80
g81
ssg62
g3742
sg55
(lp3754
S':'
asbag48
(g69
g50
NtRp3755
(dp3756
g53
(dp3757
sg62
g3742
sg55
(lp3758
g48
(g49
g50
NtRp3759
(dp3760
g53
(dp3761
g61
I4
ssg62
g3755
sg55
(lp3762
S'no-store, no-cache, must-revalidate, post-check=0, pre-check=0'
p3763
asbasbasbag48
(g64
g50
NtRp3764
(dp3765
g53
(dp3766
sg62
g3738
sg55
(lp3767
g48
(g69
g50
NtRp3768
(dp3769
g53
(dp3770
g73
g74
ssg62
g3764
sg55
(lp3771
S'Content-Type'
p3772
asbag48
(g69
g50
NtRp3773
(dp3774
g53
(dp3775
g80
g81
ssg62
g3764
sg55
(lp3776
S':'
asbag48
(g69
g50
NtRp3777
(dp3778
g53
(dp3779
sg62
g3764
sg55
(lp3780
g48
(g49
g50
NtRp3781
(dp3782
g53
(dp3783
g61
I4
ssg62
g3777
sg55
(lp3784
S'text/html; charset=utf-8'
p3785
asbasbasbag48
(g64
g50
NtRp3786
(dp3787
g53
(dp3788
sg62
g3738
sg55
(lp3789
g48
(g69
g50
NtRp3790
(dp3791
g53
(dp3792
g73
g74
ssg62
g3786
sg55
(lp3793
S'Expires'
p3794
asbag48
(g69
g50
NtRp3795
(dp3796
g53
(dp3797
g80
g81
ssg62
g3786
sg55
(lp3798
S':'
asbag48
(g69
g50
NtRp3799
(dp3800
g53
(dp3801
sg62
g3786
sg55
(lp3802
g48
(g49
g50
NtRp3803
(dp3804
g53
(dp3805
g61
I4
ssg62
g3799
sg55
(lp3806
S'Thu, 17 Nov 2011 19:00:59 GMT'
p3807
asbasbasbag48
(g64
g50
NtRp3808
(dp3809
g53
(dp3810
sg62
g3738
sg55
(lp3811
g48
(g69
g50
NtRp3812
(dp3813
g53
(dp3814
g73
g74
ssg62
g3808
sg55
(lp3815
S'Pragma'
p3816
asbag48
(g69
g50
NtRp3817
(dp3818
g53
(dp3819
g80
g81
ssg62
g3808
sg55
(lp3820
S':'
asbag48
(g69
g50
NtRp3821
(dp3822
g53
(dp3823
sg62
g3808
sg55
(lp3824
g48
(g49
g50
NtRp3825
(dp3826
g53
(dp3827
g61
I4
ssg62
g3821
sg55
(lp3828
S'no-cache'
p3829
asbasbasbag48
(g64
g50
NtRp3830
(dp3831
g53
(dp3832
sg62
g3738
sg55
(lp3833
g48
(g69
g50
NtRp3834
(dp3835
g53
(dp3836
g73
g74
ssg62
g3830
sg55
(lp3837
S'X-Powered-By'
p3838
asbag48
(g69
g50
NtRp3839
(dp3840
g53
(dp3841
g80
g81
ssg62
g3830
sg55
(lp3842
S':'
asbag48
(g69
g50
NtRp3843
(dp3844
g53
(dp3845
sg62
g3830
sg55
(lp3846
g48
(g49
g50
NtRp3847
(dp3848
g53
(dp3849
g61
I4
ssg62
g3843
sg55
(lp3850
S'web2py'
p3851
asbasbasbasbasbasbasbag48
(g64
g50
NtRp3852
(dp3853
g53
(dp3854
sg62
g3355
sg55
(lp3855
g48
(g69
g50
NtRp3856
(dp3857
g53
(dp3858
g73
g74
ssg62
g3852
sg55
(lp3859
S'menu'
p3860
asbag48
(g69
g50
NtRp3861
(dp3862
g53
(dp3863
g80
g81
ssg62
g3852
sg55
(lp3864
S':'
asbag48
(g69
g50
NtRp3865
(dp3866
g53
(dp3867
sg62
g3852
sg55
(lp3868
g48
(g49
g50
NtRp3869
(dp3870
g53
(dp3871
g61
I5
ssg62
g3865
sg55
(lp3872
g48
(g57
g50
NtRp3873
(dp3874
g53
(dp3875
g61
I4
ssg62
Nsg55
(lp3876
g48
(g64
g50
NtRp3877
(dp3878
g53
(dp3879
sg62
g3873
sg55
(lp3880
g48
(g69
g50
NtRp3881
(dp3882
g53
(dp3883
sg62
g3877
sg55
(lp3884
g48
(g49
g50
NtRp3885
(dp3886
g53
(dp3887
g61
I4
ssg62
g3881
sg55
(lp3888
g48
(g57
g50
NtRp3889
(dp3890
g53
(dp3891
g61
I3
ssg62
Nsg55
(lp3892
g48
(g64
g50
NtRp3893
(dp3894
g53
(dp3895
sg62
g3889
sg55
(lp3896
g48
(g69
g50
NtRp3897
(dp3898
g53
(dp3899
sg62
g3893
sg55
(lp3900
g48
(g49
g50
NtRp3901
(dp3902
g53
(dp3903
g61
I3
ssg62
g3897
sg55
(lp3904
cgluon.languages
lazyT_unpickle
p3905
(S's\x05\x00\x00\x00Index'
tRp3906
asbasbasbag48
(g64
g50
NtRp3907
(dp3908
g53
(dp3909
sg62
g3889
sg55
(lp3910
g48
(g69
g50
NtRp3911
(dp3912
g53
(dp3913
sg62
g3907
sg55
(lp3914
g48
(g49
g50
NtRp3915
(dp3916
g53
(dp3917
g61
I3
ssg62
g3911
sg55
(lp3918
g91
asbasbasbag48
(g64
g50
NtRp3919
(dp3920
g53
(dp3921
sg62
g3889
sg55
(lp3922
g48
(g69
g50
NtRp3923
(dp3924
g53
(dp3925
sg62
g3919
sg55
(lp3926
g48
(g49
g50
NtRp3927
(dp3928
g53
(dp3929
g61
I3
ssg62
g3923
sg55
(lp3930
S'/Casa_de_Apuestas/default/index'
p3931
asbasbasbag48
(g64
g50
NtRp3932
(dp3933
g53
(dp3934
sg62
g3889
sg55
(lp3935
g48
(g69
g50
NtRp3936
(dp3937
g53
(dp3938
sg62
g3932
sg55
(lp3939
g48
(g49
g50
NtRp3940
(dp3941
g53
(dp3942
g61
I3
ssg62
g3936
sg55
(lp3943
g48
(g57
g50
NtRp3944
(dp3945
g53
(dp3946
g61
I2
ssg62
Nsg55
(lp3947
sbasbasbasbasbasbasbasbasbasbasbasbag48
(g64
g50
NtRp3948
(dp3949
g53
(dp3950
sg62
g3355
sg55
(lp3951
g48
(g69
g50
NtRp3952
(dp3953
g53
(dp3954
g73
g74
ssg62
g3948
sg55
(lp3955
S'meta'
p3956
asbag48
(g69
g50
NtRp3957
(dp3958
g53
(dp3959
g80
g81
ssg62
g3948
sg55
(lp3960
S':'
asbag48
(g69
g50
NtRp3961
(dp3962
g53
(dp3963
sg62
g3948
sg55
(lp3964
g48
(g49
g50
NtRp3965
(dp3966
g53
(dp3967
g61
I5
ssg62
g3961
sg55
(lp3968
g48
(g57
g50
NtRp3969
(dp3970
g53
(dp3971
g61
I4
ssg62
Nsg55
(lp3972
g48
(g64
g50
NtRp3973
(dp3974
g53
(dp3975
sg62
g3969
sg55
(lp3976
g48
(g69
g50
NtRp3977
(dp3978
g53
(dp3979
g73
g74
ssg62
g3973
sg55
(lp3980
S'author'
p3981
asbag48
(g69
g50
NtRp3982
(dp3983
g53
(dp3984
g80
g81
ssg62
g3973
sg55
(lp3985
S':'
asbag48
(g69
g50
NtRp3986
(dp3987
g53
(dp3988
sg62
g3973
sg55
(lp3989
g48
(g49
g50
NtRp3990
(dp3991
g53
(dp3992
g61
I4
ssg62
g3986
sg55
(lp3993
S'JSG Systems <jsg@example.com>'
p3994
asbasbasbag48
(g64
g50
NtRp3995
(dp3996
g53
(dp3997
sg62
g3969
sg55
(lp3998
g48
(g69
g50
NtRp3999
(dp4000
g53
(dp4001
g73
g74
ssg62
g3995
sg55
(lp4002
S'description'
p4003
asbag48
(g69
g50
NtRp4004
(dp4005
g53
(dp4006
g80
g81
ssg62
g3995
sg55
(lp4007
S':'
asbag48
(g69
g50
NtRp4008
(dp4009
g53
(dp4010
sg62
g3995
sg55
(lp4011
g48
(g49
g50
NtRp4012
(dp4013
g53
(dp4014
g61
I4
ssg62
g4008
sg55
(lp4015
S''
asbasbasbag48
(g64
g50
NtRp4016
(dp4017
g53
(dp4018
sg62
g3969
sg55
(lp4019
g48
(g69
g50
NtRp4020
(dp4021
g53
(dp4022
g73
g74
ssg62
g4016
sg55
(lp4023
S'keywords'
p4024
asbag48
(g69
g50
NtRp4025
(dp4026
g53
(dp4027
g80
g81
ssg62
g4016
sg55
(lp4028
S':'
asbag48
(g69
g50
NtRp4029
(dp4030
g53
(dp4031
sg62
g4016
sg55
(lp4032
g48
(g49
g50
NtRp4033
(dp4034
g53
(dp4035
g61
I4
ssg62
g4029
sg55
(lp4036
S'casa, apuestas'
p4037
asbasbasbasbasbasbasbag48
(g64
g50
NtRp4038
(dp4039
g53
(dp4040
sg62
g3355
sg55
(lp4041
g48
(g69
g50
NtRp4042
(dp4043
g53
(dp4044
g73
g74
ssg62
g4038
sg55
(lp4045
S'postprocessing'
p4046
asbag48
(g69
g50
NtRp4047
(dp4048
g53
(dp4049
g80
g81
ssg62
g4038
sg55
(lp4050
S':'
asbag48
(g69
g50
NtRp4051
(dp4052
g53
(dp4053
sg62
g4038
sg55
(lp4054
g48
(g49
g50
NtRp4055
(dp4056
g53
(dp4057
g61
I5
ssg62
g4051
sg55
(lp4058
g48
(g57
g50
NtRp4059
(dp4060
g53
(dp4061
g61
I4
ssg62
Nsg55
(lp4062
sbasbasbasbag48
(g64
g50
NtRp4063
(dp4064
g53
(dp4065
sg62
g3355
sg55
(lp4066
g48
(g69
g50
NtRp4067
(dp4068
g53
(dp4069
g73
g74
ssg62
g4063
sg55
(lp4070
S'session_file'
p4071
asbag48
(g69
g50
NtRp4072
(dp4073
g53
(dp4074
g80
g81
ssg62
g4063
sg55
(lp4075
S':'
asbag48
(g69
g50
NtRp4076
(dp4077
g53
(dp4078
sg62
g4063
sg55
(lp4079
g48
(g49
g50
NtRp4080
(dp4081
g53
(dp4082
g61
I5
ssg62
g4076
sg55
(lp4083
S"<open file 'C:\\Python32\\web2py_win\\web2py\\applications\\Casa_de_Apuestas\\sessions\\127.0.0.1-e314f424-f067-4630-9a0d-db98dba87e6a', mode 'rb+' at 0x0618D848>"
p4084
asbasbasbag48
(g64
g50
NtRp4085
(dp4086
g53
(dp4087
sg62
g3355
sg55
(lp4088
g48
(g69
g50
NtRp4089
(dp4090
g53
(dp4091
g73
g74
ssg62
g4085
sg55
(lp4092
S'session_filename'
p4093
asbag48
(g69
g50
NtRp4094
(dp4095
g53
(dp4096
g80
g81
ssg62
g4085
sg55
(lp4097
S':'
asbag48
(g69
g50
NtRp4098
(dp4099
g53
(dp4100
sg62
g4085
sg55
(lp4101
g48
(g49
g50
NtRp4102
(dp4103
g53
(dp4104
g61
I5
ssg62
g4098
sg55
(lp4105
S'C:\\Python32\\web2py_win\\web2py\\applications\\Casa_de_Apuestas\\sessions\\127.0.0.1-e314f424-f067-4630-9a0d-db98dba87e6a'
p4106
asbasbasbag48
(g64
g50
NtRp4107
(dp4108
g53
(dp4109
sg62
g3355
sg55
(lp4110
g48
(g69
g50
NtRp4111
(dp4112
g53
(dp4113
g73
g74
ssg62
g4107
sg55
(lp4114
S'session_id'
p4115
asbag48
(g69
g50
NtRp4116
(dp4117
g53
(dp4118
g80
g81
ssg62
g4107
sg55
(lp4119
S':'
asbag48
(g69
g50
NtRp4120
(dp4121
g53
(dp4122
sg62
g4107
sg55
(lp4123
g48
(g49
g50
NtRp4124
(dp4125
g53
(dp4126
g61
I5
ssg62
g4120
sg55
(lp4127
S'127.0.0.1-e314f424-f067-4630-9a0d-db98dba87e6a'
p4128
asbasbasbag48
(g64
g50
NtRp4129
(dp4130
g53
(dp4131
sg62
g3355
sg55
(lp4132
g48
(g69
g50
NtRp4133
(dp4134
g53
(dp4135
g73
g74
ssg62
g4129
sg55
(lp4136
S'session_id_name'
p4137
asbag48
(g69
g50
NtRp4138
(dp4139
g53
(dp4140
g80
g81
ssg62
g4129
sg55
(lp4141
S':'
asbag48
(g69
g50
NtRp4142
(dp4143
g53
(dp4144
sg62
g4129
sg55
(lp4145
g48
(g49
g50
NtRp4146
(dp4147
g53
(dp4148
g61
I5
ssg62
g4142
sg55
(lp4149
g3412
asbasbasbag48
(g64
g50
NtRp4150
(dp4151
g53
(dp4152
sg62
g3355
sg55
(lp4153
g48
(g69
g50
NtRp4154
(dp4155
g53
(dp4156
g73
g74
ssg62
g4150
sg55
(lp4157
S'session_locked'
p4158
asbag48
(g69
g50
NtRp4159
(dp4160
g53
(dp4161
g80
g81
ssg62
g4150
sg55
(lp4162
S':'
asbag48
(g69
g50
NtRp4163
(dp4164
g53
(dp4165
sg62
g4150
sg55
(lp4166
g48
(g49
g50
NtRp4167
(dp4168
g53
(dp4169
g61
I5
ssg62
g4163
sg55
(lp4170
g1599
asbasbasbag48
(g64
g50
NtRp4171
(dp4172
g53
(dp4173
sg62
g3355
sg55
(lp4174
g48
(g69
g50
NtRp4175
(dp4176
g53
(dp4177
g73
g74
ssg62
g4171
sg55
(lp4178
S'session_new'
p4179
asbag48
(g69
g50
NtRp4180
(dp4181
g53
(dp4182
g80
g81
ssg62
g4171
sg55
(lp4183
S':'
asbag48
(g69
g50
NtRp4184
(dp4185
g53
(dp4186
sg62
g4171
sg55
(lp4187
g48
(g49
g50
NtRp4188
(dp4189
g53
(dp4190
g61
I5
ssg62
g4184
sg55
(lp4191
g91
asbasbasbag48
(g64
g50
NtRp4192
(dp4193
g53
(dp4194
sg62
g3355
sg55
(lp4195
g48
(g69
g50
NtRp4196
(dp4197
g53
(dp4198
g73
g74
ssg62
g4192
sg55
(lp4199
S'status'
p4200
asbag48
(g69
g50
NtRp4201
(dp4202
g53
(dp4203
g80
g81
ssg62
g4192
sg55
(lp4204
S':'
asbag48
(g69
g50
NtRp4205
(dp4206
g53
(dp4207
sg62
g4192
sg55
(lp4208
g48
(g49
g50
NtRp4209
(dp4210
g53
(dp4211
g61
I5
ssg62
g4205
sg55
(lp4212
S'200'
p4213
asbasbasbag48
(g64
g50
NtRp4214
(dp4215
g53
(dp4216
sg62
g3355
sg55
(lp4217
g48
(g69
g50
NtRp4218
(dp4219
g53
(dp4220
g73
g74
ssg62
g4214
sg55
(lp4221
S'subtitle'
p4222
asbag48
(g69
g50
NtRp4223
(dp4224
g53
(dp4225
g80
g81
ssg62
g4214
sg55
(lp4226
S':'
asbag48
(g69
g50
NtRp4227
(dp4228
g53
(dp4229
sg62
g4214
sg55
(lp4230
g48
(g49
g50
NtRp4231
(dp4232
g53
(dp4233
g61
I5
ssg62
g4227
sg55
(lp4234
S''
asbasbasbag48
(g64
g50
NtRp4235
(dp4236
g53
(dp4237
sg62
g3355
sg55
(lp4238
g48
(g69
g50
NtRp4239
(dp4240
g53
(dp4241
g73
g74
ssg62
g4235
sg55
(lp4242
S'title'
p4243
asbag48
(g69
g50
NtRp4244
(dp4245
g53
(dp4246
g80
g81
ssg62
g4235
sg55
(lp4247
S':'
asbag48
(g69
g50
NtRp4248
(dp4249
g53
(dp4250
sg62
g4235
sg55
(lp4251
g48
(g49
g50
NtRp4252
(dp4253
g53
(dp4254
g61
I5
ssg62
g4248
sg55
(lp4255
S'Casa de Apuestas'
p4256
asbasbasbag48
(g64
g50
NtRp4257
(dp4258
g53
(dp4259
sg62
g3355
sg55
(lp4260
g48
(g69
g50
NtRp4261
(dp4262
g53
(dp4263
g73
g74
ssg62
g4257
sg55
(lp4264
g2264
asbag48
(g69
g50
NtRp4265
(dp4266
g53
(dp4267
g80
g81
ssg62
g4257
sg55
(lp4268
S':'
asbag48
(g69
g50
NtRp4269
(dp4270
g53
(dp4271
sg62
g4257
sg55
(lp4272
g48
(g49
g50
NtRp4273
(dp4274
g53
(dp4275
g61
I5
ssg62
g4269
sg55
(lp4276
g2277
asbasbasbag48
(g64
g50
NtRp4277
(dp4278
g53
(dp4279
sg62
g3355
sg55
(lp4280
g48
(g69
g50
NtRp4281
(dp4282
g53
(dp4283
g73
g74
ssg62
g4277
sg55
(lp4284
S'view'
p4285
asbag48
(g69
g50
NtRp4286
(dp4287
g53
(dp4288
g80
g81
ssg62
g4277
sg55
(lp4289
S':'
asbag48
(g69
g50
NtRp4290
(dp4291
g53
(dp4292
sg62
g4277
sg55
(lp4293
g48
(g49
g50
NtRp4294
(dp4295
g53
(dp4296
g61
I5
ssg62
g4290
sg55
(lp4297
S'default/showCategoria.html'
p4298
asbasbasbasbasbsS'locals'
p4299
(dp4300
S'Service'
p4301
S"<class 'gluon.tools.Service'>"
p4302
sS'OBJECT'
p4303
S"<class 'gluon.html.OBJECT'>"
p4304
sS'SQLDB'
p4305
S"<class 'gluon.dal.DAL'>"
p4306
sg2961
S"<Storage {'_formkey[categorias/2]': '459584d5d6e...egorias/4]': 'dfc8872a567f5812d5b9b0aab6d15964'}>"
p4307
sS'LINK'
p4308
S"<class 'gluon.html.LINK'>"
p4309
sS'BR'
p4310
S"<class 'gluon.html.BR'>"
p4311
sS'local_import'
p4312
S'<function <lambda> at 0x061AAD30>'
p4313
sS'OPTGROUP'
p4314
S"<class 'gluon.html.OPTGROUP'>"
p4315
sS'PRE'
p4316
S"<class 'gluon.html.PRE'>"
p4317
sS'IS_INT_IN_RANGE'
p4318
S"<class 'gluon.validators.IS_INT_IN_RANGE'>"
p4319
sS'IS_LOWER'
p4320
S"<class 'gluon.validators.IS_LOWER'>"
p4321
sS'IS_STRONG'
p4322
S"<class 'gluon.validators.IS_STRONG'>"
p4323
sS'cache'
p4324
S'<gluon.cache.Cache object at 0x026BE490>'
p4325
sS'IS_IN_DB'
p4326
S"<class 'gluon.validators.IS_IN_DB'>"
p4327
sS'TAG'
p4328
S'<gluon.html.__TAG__ object at 0x01C11770>'
p4329
sS'SQLField'
p4330
S"<class 'gluon.dal.Field'>"
p4331
sS'mail'
p4332
S'<gluon.tools.Mail object at 0x060E14F0>'
p4333
sS'BODY'
p4334
S"<class 'gluon.html.BODY'>"
p4335
sS'IS_DATE_IN_RANGE'
p4336
S"<class 'gluon.validators.IS_DATE_IN_RANGE'>"
p4337
sS'TH'
p4338
S"<class 'gluon.html.TH'>"
p4339
sS'URL'
p4340
S'<function URL at 0x01C654B0>'
p4341
sS'__file__'
p4342
S"r'C:\\Python32\\web2py_win\\web2py\\applications\\Casa_de_Apuestas\\views\\default/showCategoria.html'"
p4343
sS'db'
p4344
S"<DAL {'auth_event': <Table {'origin': <gluon.dal...'_id': <gluon.dal.Field object at 0x060D6270>}>}>"
p4345
sS'auth'
p4346
S'<gluon.tools.Auth object at 0x060E11B0>'
p4347
sS'P'
S"<class 'gluon.html.P'>"
p4348
sS'TFOOT'
p4349
S"<class 'gluon.html.TFOOT'>"
p4350
sS'XHTML'
p4351
S"<class 'gluon.html.XHTML'>"
p4352
sS'ON'
p4353
g1599
sS'OL'
p4354
S"<class 'gluon.html.OL'>"
p4355
sS'TEXTAREA'
p4356
S"<class 'gluon.html.TEXTAREA'>"
p4357
sS'settings'
p4358
S"<Storage {'layout_theme': 'Balanced', 'subtitle'...l_server': 'localhost', 'login_method': 'local'}>"
p4359
sS'MENU'
p4360
S"<class 'gluon.html.MENU'>"
p4361
sS'LOAD'
p4362
S'<gluon.compileapp.LoadFactory object at 0x061B64D0>'
p4363
sS'CODE'
p4364
S"<class 'gluon.html.CODE'>"
p4365
sS'HTTP'
p4366
S"<class 'gluon.http.HTTP'>"
p4367
sS'HR'
p4368
S"<class 'gluon.html.HR'>"
p4369
sS'IS_DATETIME'
p4370
S"<class 'gluon.validators.IS_DATETIME'>"
p4371
sS'Storage'
p4372
S"<class 'gluon.storage.Storage'>"
p4373
sS'HEAD'
p4374
S"<class 'gluon.html.HEAD'>"
p4375
sS'LABEL'
p4376
S"<class 'gluon.html.LABEL'>"
p4377
sS'CLEANUP'
p4378
S"<class 'gluon.validators.CLEANUP'>"
p4379
sS'plugins'
p4380
S'<gluon.tools.PluginManager object at 0x0633D930>'
p4381
sS'SELECT'
p4382
S"<class 'gluon.html.SELECT'>"
p4383
sS'use_janrain'
p4384
S'<function use_janrain at 0x02827170>'
p4385
sS'CENTER'
p4386
S"<class 'gluon.html.CENTER'>"
p4387
sS'prettydate'
p4388
S'<function prettydate at 0x026DF930>'
p4389
sS'Crud'
p4390
S"<class 'gluon.tools.Crud'>"
p4391
sS'Auth'
p4392
S"<class 'gluon.tools.Auth'>"
p4393
sS'__builtins__'
p4394
S"{'ArithmeticError': <type 'exceptions.ArithmeticError'>, 'AssertionError': <type 'exceptions.AssertionError'>, 'AttributeError': <type 'exceptions.AttributeError'>, 'BaseException': <type 'exceptions.BaseException'>, 'DeprecationWarning': <type 'exceptions.DeprecationWarning'>, 'EOFError': <type 'exceptions.EOFError'>, 'Ellipsis': Ellipsis, 'EnvironmentError': <type 'exceptions.EnvironmentError'>, 'Exception': <type 'exceptions.Exception'>, 'False': False, ...}"
p4395
sS'HTML'
p4396
S"<class 'gluon.html.HTML'>"
p4397
sS'SQLFORM'
p4398
S"<class 'gluon.sqlhtml.SQLFORM'>"
p4399
sS'EM'
p4400
S"<class 'gluon.html.EM'>"
p4401
sS'redirect'
p4402
S'<function redirect at 0x01A6A170>'
p4403
sS'FIELDSET'
p4404
S"<class 'gluon.html.FIELDSET'>"
p4405
sS'IS_EQUAL_TO'
p4406
S"<class 'gluon.validators.IS_EQUAL_TO'>"
p4407
sS'embed64'
p4408
S'<function embed64 at 0x01C65FB0>'
p4409
sS'IS_LIST_OF'
p4410
S"<class 'gluon.validators.IS_LIST_OF'>"
p4411
sS'INPUT'
p4412
S"<class 'gluon.html.INPUT'>"
p4413
sS'EMBED'
p4414
S"<class 'gluon.html.EMBED'>"
p4415
sS'FORM'
p4416
S"<class 'gluon.html.FORM'>"
p4417
sS'H2'
p4418
S"<class 'gluon.html.H2'>"
p4419
sS'H3'
p4420
S"<class 'gluon.html.H3'>"
p4421
sS'BUTTON'
p4422
S"<class 'gluon.html.BUTTON'>"
p4423
sS'H1'
p4424
S"<class 'gluon.html.H1'>"
p4425
sS'H6'
p4426
S"<class 'gluon.html.H6'>"
p4427
sS'H4'
p4428
S"<class 'gluon.html.H4'>"
p4429
sS'H5'
p4430
S"<class 'gluon.html.H5'>"
p4431
sS'UL'
p4432
S"<class 'gluon.html.UL'>"
p4433
sS'IS_UPPER'
p4434
S"<class 'gluon.validators.IS_UPPER'>"
p4435
sS'xmlescape'
p4436
S'<function xmlescape at 0x01C65470>'
p4437
sS'IS_TIME'
p4438
S"<class 'gluon.validators.IS_TIME'>"
p4439
sS'OPTION'
p4440
S"<class 'gluon.html.OPTION'>"
p4441
sS'TITLE'
p4442
S"<class 'gluon.html.TITLE'>"
p4443
sS'CRYPT'
p4444
S"<class 'gluon.validators.CRYPT'>"
p4445
sS'IS_EMPTY_OR'
p4446
S"<class 'gluon.validators.IS_EMPTY_OR'>"
p4447
sS'MARKMIN'
p4448
S"<class 'gluon.html.MARKMIN'>"
p4449
sS'COL'
p4450
S"<class 'gluon.html.COL'>"
p4451
sS'service'
p4452
S'<gluon.tools.Service object at 0x060E1430>'
p4453
sS'SCRIPT'
p4454
S"<class 'gluon.html.SCRIPT'>"
p4455
sS'TABLE'
p4456
S"<class 'gluon.html.TABLE'>"
p4457
sS'IS_IPV4'
p4458
S"<class 'gluon.validators.IS_IPV4'>"
p4459
sS'IS_LENGTH'
p4460
S"<class 'gluon.validators.IS_LENGTH'>"
p4461
sS'XML'
p4462
S"<class 'gluon.html.XML'>"
p4463
sS'B'
S"<class 'gluon.html.B'>"
p4464
sS'form'
p4465
S'<gluon.sqlhtml.SQLFORM object at 0x062064B0>'
p4466
sS'SQLTABLE'
p4467
S"<class 'gluon.sqlhtml.SQLTABLE'>"
p4468
sS'IS_MATCH'
p4469
S"<class 'gluon.validators.IS_MATCH'>"
p4470
sS'IS_ALPHANUMERIC'
p4471
S"<class 'gluon.validators.IS_ALPHANUMERIC'>"
p4472
sS'SPAN'
p4473
S"<class 'gluon.html.SPAN'>"
p4474
sS'IS_SLUG'
p4475
S"<class 'gluon.validators.IS_SLUG'>"
p4476
sS'BEAUTIFY'
p4477
S"<class 'gluon.html.BEAUTIFY'>"
p4478
sS'META'
p4479
S"<class 'gluon.html.META'>"
p4480
sS'IS_DATE'
p4481
S"<class 'gluon.validators.IS_DATE'>"
p4482
sS'IS_EMAIL'
p4483
S"<class 'gluon.validators.IS_EMAIL'>"
p4484
sS'IS_NOT_EMPTY'
p4485
S"<class 'gluon.validators.IS_NOT_EMPTY'>"
p4486
sS'IS_FLOAT_IN_RANGE'
p4487
S"<class 'gluon.validators.IS_FLOAT_IN_RANGE'>"
p4488
sS'TBODY'
p4489
S"<class 'gluon.html.TBODY'>"
p4490
sS'CAT'
p4491
S"<class 'gluon.html.CAT'>"
p4492
sS'Field'
p4493
S"<class 'gluon.dal.Field'>"
p4494
sS'DIV'
p4495
S"<class 'gluon.html.DIV'>"
p4496
sS'LEGEND'
p4497
S"<class 'gluon.html.LEGEND'>"
p4498
sS'IMG'
p4499
S"<class 'gluon.html.IMG'>"
p4500
sS'COLGROUP'
p4501
S"<class 'gluon.html.COLGROUP'>"
p4502
sS'DAL'
p4503
S"<class 'gluon.dal.DAL'>"
p4504
sS'TT'
p4505
S"<class 'gluon.html.TT'>"
p4506
sS'TR'
p4507
S"<class 'gluon.html.TR'>"
p4508
sS'LI'
p4509
S"<class 'gluon.html.LI'>"
p4510
sS'IFRAME'
p4511
S"<class 'gluon.html.IFRAME'>"
p4512
sS'TD'
p4513
S"<class 'gluon.html.TD'>"
p4514
sS'PluginManager'
p4515
S"<class 'gluon.tools.PluginManager'>"
p4516
sS'IS_URL'
p4517
S"<class 'gluon.validators.IS_URL'>"
p4518
sS'A'
S"<class 'gluon.html.A'>"
p4519
sS'STYLE'
p4520
S"<class 'gluon.html.STYLE'>"
p4521
sS'IS_DATETIME_IN_RANGE'
p4522
S"<class 'gluon.validators.IS_DATETIME_IN_RANGE'>"
p4523
sS'IS_IMAGE'
p4524
S"<class 'gluon.validators.IS_IMAGE'>"
p4525
sS'I'
S"<class 'gluon.html.I'>"
p4526
sS'crud'
p4527
S'<gluon.tools.Crud object at 0x060E1590>'
p4528
sS'IS_NOT_IN_DB'
p4529
S"<class 'gluon.validators.IS_NOT_IN_DB'>"
p4530
sg3350
S"<Storage {'body': <cStringIO.StringO object at 0...061AAD70>, 'view': 'default/showCategoria.html'}>"
p4531
sS'THEAD'
p4532
S"<class 'gluon.html.THEAD'>"
p4533
sS'IS_NULL_OR'
p4534
S"<class 'gluon.validators.IS_EMPTY_OR'>"
p4535
sg47
S"<Storage {'body': <cStringIO.StringO object at 0..._vars': <Storage {}>, 'post_vars': <Storage {}>}>"
p4536
sS'IS_EXPR'
p4537
S"<class 'gluon.validators.IS_EXPR'>"
p4538
sS'T'
S'<gluon.languages.translator object at 0x0620F070>'
p4539
sS'IS_IN_SET'
p4540
S"<class 'gluon.validators.IS_IN_SET'>"
p4541
sS'IS_UPLOAD_FILENAME'
p4542
S"<class 'gluon.validators.IS_UPLOAD_FILENAME'>"
p4543
sS'IS_DECIMAL_IN_RANGE'
p4544
S"<class 'gluon.validators.IS_DECIMAL_IN_RANGE'>"
p4545
sssS'traceback'
p4546
S'Traceback (most recent call last):\n  File "gluon/restricted.py", line 194, in restricted\n  File "C:\\Python32\\web2py_win\\web2py\\applications\\Casa_de_Apuestas\\views\\default/showCategoria.html", line 28, in <module>\nAttributeError: \'SQLFORM\' object has no attribute \'nombre\'\n'
p4547
s.