(dp1
S'output'
p2
S''
sS'layer'
p3
S'C:\\Python32\\web2py_win\\web2py\\applications\\Casa_de_Apuestas\\controllers/default.py'
p4
sS'code'
p5
S'# -*- coding: utf-8 -*-\n### required - do no delete\n"""\nEste Modulo corresponde al de controladores segun MVC, los metodos aqui contenidos\nson los encargados de invocar a las vistas, eso esta configurado en el framework\n"""\nfrom Servicio import *\nservice = Servicio(db, crud)\nfrom log import *\nlog = log()\n\ndef user(): return dict(form=auth())\ndef download(): return response.download(request,db)\ndef call(): return service()\n\n### end requires\n\n@auth.requires_login()\ndef index():\n    return dict()\n\ndef error():\n    return dict()\n\ndef maquinas():\n    form = crud.update(db.maquinas, request.args(0),next=URL(\'maquinas\'))\n    maquinas = db().select(db.maquinas.ALL)\n    coordenadas = False\n    if (request.args(0)):\n        for i, maquina in enumerate(maquinas):\n            if (i == request.args(0)):\n                break\n        coordenadas = dict(lon=maquina.longitud,lat=maquina.latitud)                    \n    return dict(form=form, maquinas=maquinas, coordenadas=coordenadas)\n\ndef crearCategoria():\n        categorias = db().select(db.categorias.ALL)\n        form = crud.create(db.categorias)\n        #if form.accepts(request.vars, formname=None):\n        if form.process().accepted:\n            db.commit()        \n            from log import *\n            log = log()\n            log.logear("Categoria creada: "+form.vars.nombre)\n        return response.render(dict(form=form, categorias=categorias))\n\ndef obtenerCategoria():\n        if not request.vars.categorias:\n            return \'\'\n        patron = request.vars.categorias.capitalize() + \'%\'\n        seleccionadoNombre = [row.nombre for row in db(db.categorias.nombre.like(patron)).select()]\n        seleccionado = [db(db.categorias.nombre.like(patron)).select()]\n        return \'\'.join([DIV(k,\n                     _onclick="jQuery(\'#categorias\').val(\'%s\')" % k.nombre +\n                     ";document.getElementById(\'sugerencias\').innerHTML = \'\';",\n                     _onmouseover="this.style.backgroundColor=\'yellow\'",\n                     _onmouseout="this.style.backgroundColor=\'white\'"\n                     ).xml() for k in seleccionado])\n\ndef crearEvento():\n        eventos = db().select(db.eventos.ALL)\n        form = crud.create(db.eventos)\n        #if form.accepts(request.vars, formname=None):\n        if form.process().accepted:\n            db.commit()        \n            from log import *\n            log = log()\n            log.logear("Evento creado: "+form.vars.nombre)\n        return response.render(dict(form=form,eventos=eventos))\n\ndef crearParticipante():\n        participantes = db().select(db.participantes.ALL)\n        form = crud.create(db.participantes)\n        #if form.accepts(request.vars, formname=None):\n        if form.process().accepted:\n            db.commit()        \n            from log import *\n            log = log()\n            log.logear("Participante creado: "+form.vars.nombre)\n        return response.render(dict(form=form,participantes=participantes))\n\ndef crearEventoParticipante():\n        eventosparticipantes = db().select(db.eventosparticipantes.ALL)\n        form = crud.create(db.eventosparticipantes)\n        #if form.accepts(request.vars, formname=None):\n        if form.process().accepted:\n            db.commit()        \n            from log import *\n            log = log()\n            log.logear("EventoParticipante creado: "+form.vars.nombre)\n        return response.render(dict(form=form,eventosparticipantes=eventosparticipantes))\n\ndef crearUsuario():\n        usuarios = db().select(db.auth_user.ALL)\n        form = crud.create(db.auth_user)\n        #if form.accepts(request.vars, formname=None):\n        if form.process().accepted:\n            db.commit()        \n            from log import *\n            log = log()\n            log.logear("Usuario creado: "+form.vars.nombre)\n        return response.render(dict(form=form,usuarios=usuarios))\n    \n\ndef mostrarCategoria():\n        categorias = db().select(db.categorias.ALL, orderby = db.categorias.id)\n        return response.render(dict(categorias = categorias))\n\ndef mostrarEvento():\n        eventos = db().select(db.eventos.ALL, orderby = db.eventos.id)\n        return response.render(dict(eventos = eventos))\n\ndef mostrarParticipante():\n        participantes = db().select(db.participantes.ALL, orderby = db.participantes.id)\n        return response.render(dict(participantes = participantes))\n\ndef mostrarEventosParticipantes():\n        eventosparticipantes = db().select(db.eventosparticipantes.ALL,orderby = db.eventosparticipantes.id)\n        return response.render(dict(eventosparticipantes= eventosparticipantes))\n    \ndef mostrarUsuario():\n        usuarios = db().select(db.auth_user.ALL, orderby = db.auth_user.id)\n        return response.render(dict(usuarios = usuarios))\n    \n    \n    \ndef showEvento():\n        form = crud.update(db.eventos, request.args(0),next = URL(\'mostrarEvento\'))\n        #if form.accepts(request.vars, formname=None):\n        if form.process().accepted:\n            db.commit()        \n            from log import *\n            log = log()\n            log.logear("Evento modificado: "+form.vars.nombre)           \n        return response.render(dict(form = form))\n\ndef showCategoria():\n        form =crud.update(db.categorias, request.args(0), next = URL(\'mostrarCategoria\'))\n        #if form.accepts(request.vars, formname=None):\n        if form.process().accepted:\n            db.commit()        \n            from log import *\n            log = log()\n            log.logear("Categoria modificada: "+form.vars.nombre)          \n        return response.render(dict(form = form))\n\ndef showParticipante():\n        form = crud.update(db.participantes, request.args(0),next = URL(\'mostrarParticipante\'))\n        #if form.accepts(request.vars, formname=None):\n        if form.process().accepted:\n            db.commit()        \n            from log import *\n            log = log()\n            log.logear("Participante modificado: "+form.vars.nombre)            \n        return response.render(dict(form = form)) \n\ndef showEventosParticipantes():\n    return service.showEventoParticipante(request)\n    \ndef showUsuario():\n        form = crud.update(db.auth_user, request.args(0), next = URL(\'mostrarUsuario\'))\n        #if form.accepts(request.vars, formname=None):\n        if form.process().accepted:\n            db.commit()        \n            from log import *\n            log = log()\n            log.logear("Usuario modificado: "+form.vars.nombre)           \n        return response.render(dict(form = form))\n\n\ndef verResultado1():\n    import datetime\n    fechaActual=datetime.datetime.now()\n    eventos =db(db.eventos.fecha <fechaActual).select()\n    return dict(eventos=eventos)\n        \ndef verResultado2():\n    resultados= db((db.resultados.eventos_id==request.args(0))& (db.resultados.participantes_id==db.participantes.id)).select()\n    evento=db(db.eventos.id==request.args(0)).select()\n    return dict(resultados=resultados,evento=evento)\n    \ndef mostrar():\n    from DAOCasadeApuestas import *\n    dao = DAOCasadeApuestas()\n    dao2 = DAOCasadeApuestas()\n    dao3 = DAOCasadeApuestas()\n    dao4 = DAOCasadeApuestas()\n    dao5 = DAOCasadeApuestas()\n    q = dao.generarArchivoActualizacionMD5(dao.generarMensajeMD5(db().select(db.eventos.ALL)), dao2.generarMensajeMD5(db().select(db.categorias.ALL)), dao3.generarMensajeMD5(db().select(db.participantes.ALL)), dao4.generarMensajeMD5(db().select(db.eventosparticipantes.ALL)), dao5.generarMensajeMD5(db().select(db.auth_user.ALL)))\n    s = dao.generarArchivoActualizacionXML(dao.generarFormatoXml(db().select(db.eventos.ALL)), dao2.generarFormatoXml(db().select(db.categorias.ALL)), dao3.generarFormatoXml(db().select(db.participantes.ALL)), dao4.generarFormatoXml(db().select(db.eventosparticipantes.ALL)), dao5.generarFormatoXml(db().select(db.auth_user.ALL)))\n    return response.render(dict(q = q, s = s))   \n    \ndef verProximosEventos1():\n    import datetime\n    fechaActual=datetime.datetime.now()\n    eventos =db(db.eventos.fecha>fechaActual).select()\n    return dict(eventos=eventos)\n    \ndef verProximosEventos2():\n    evento_participante= db((db.eventosparticipantes.eventos_id==request.args(0))& (db.participantes.id==db.eventosparticipantes.participantes_id)).select()\n    evento = db(db.eventos.id==request.args(0)).select()\n    categoria = db((db.categorias.id==db.eventos.categoria_id)& (db.eventos.id==request.args(0))).select()\n    return dict(evento_participante=evento_participante,evento=evento,categoria=categoria)\n    \ndef indexPublico():\n    return dict()\n\nresponse._vars=response._caller(obtenerCategoria)\n'
p6
sS'snapshot'
p7
(dp8
S'exception'
p9
(dp10
S'__hash__'
p11
S"<method-wrapper '__hash__' of exceptions.AttributeError object at 0x06D9FCB0>"
p12
sS'__setattr__'
p13
S"<method-wrapper '__setattr__' of exceptions.AttributeError object at 0x06D9FCB0>"
p14
sS'__reduce_ex__'
p15
S'<built-in method __reduce_ex__ of exceptions.AttributeError object at 0x06D9FCB0>'
p16
sS'__getslice__'
p17
S"<method-wrapper '__getslice__' of exceptions.AttributeError object at 0x06D9FCB0>"
p18
sS'__getitem__'
p19
S"<method-wrapper '__getitem__' of exceptions.AttributeError object at 0x06D9FCB0>"
p20
sS'__setstate__'
p21
S'<built-in method __setstate__ of exceptions.AttributeError object at 0x06D9FCB0>'
p22
sS'__reduce__'
p23
S'<built-in method __reduce__ of exceptions.AttributeError object at 0x06D9FCB0>'
p24
sS'__str__'
p25
S"<method-wrapper '__str__' of exceptions.AttributeError object at 0x06D9FCB0>"
p26
sS'args'
p27
S'("\'Rows\' object has no attribute \'nombre\'",)'
p28
sS'__getattribute__'
p29
S"<method-wrapper '__getattribute__' of exceptions.AttributeError object at 0x06D9FCB0>"
p30
sS'__class__'
p31
S"<type 'exceptions.AttributeError'>"
p32
sS'__delattr__'
p33
S"<method-wrapper '__delattr__' of exceptions.AttributeError object at 0x06D9FCB0>"
p34
sS'__repr__'
p35
S"<method-wrapper '__repr__' of exceptions.AttributeError object at 0x06D9FCB0>"
p36
sS'__dict__'
p37
S'{}'
p38
sS'__doc__'
p39
S"'Attribute not found.'"
p40
sS'__init__'
p41
S"<method-wrapper '__init__' of exceptions.AttributeError object at 0x06D9FCB0>"
p42
sS'__new__'
p43
S'<built-in method __new__ of type object at 0x1E1CDA68>'
p44
ssS'evalue'
p45
S"'Rows' object has no attribute 'nombre'"
p46
sS'request'
p47
ccopy_reg
_reconstructor
p48
(cgluon.html
BEAUTIFY
p49
c__builtin__
object
p50
NtRp51
(dp52
S'attributes'
p53
(dp54
sS'components'
p55
(lp56
g48
(cgluon.html
TABLE
p57
g50
NtRp58
(dp59
g53
(dp60
S'level'
p61
I5
ssS'parent'
p62
Nsg55
(lp63
g48
(cgluon.html
TR
p64
g50
NtRp65
(dp66
g53
(dp67
sg62
g58
sg55
(lp68
g48
(cgluon.html
TD
p69
g50
NtRp70
(dp71
g53
(dp72
S'_style'
p73
S'font-weight:bold;'
p74
ssg62
g65
sg55
(lp75
S'ajax'
p76
asbag48
(g69
g50
NtRp77
(dp78
g53
(dp79
S'_valign'
p80
S'top'
p81
ssg62
g65
sg55
(lp82
S':'
asbag48
(g69
g50
NtRp83
(dp84
g53
(dp85
sg62
g65
sg55
(lp86
g48
(g49
g50
NtRp87
(dp88
g53
(dp89
g61
I5
ssg62
g83
sg55
(lp90
S'True'
p91
asbasbasbag48
(g64
g50
NtRp92
(dp93
g53
(dp94
sg62
g58
sg55
(lp95
g48
(g69
g50
NtRp96
(dp97
g53
(dp98
g73
g74
ssg62
g92
sg55
(lp99
S'application'
p100
asbag48
(g69
g50
NtRp101
(dp102
g53
(dp103
g80
g81
ssg62
g92
sg55
(lp104
S':'
asbag48
(g69
g50
NtRp105
(dp106
g53
(dp107
sg62
g92
sg55
(lp108
g48
(g49
g50
NtRp109
(dp110
g53
(dp111
g61
I5
ssg62
g105
sg55
(lp112
S'Casa_de_Apuestas'
p113
asbasbasbag48
(g64
g50
NtRp114
(dp115
g53
(dp116
sg62
g58
sg55
(lp117
g48
(g69
g50
NtRp118
(dp119
g53
(dp120
g73
g74
ssg62
g114
sg55
(lp121
g27
asbag48
(g69
g50
NtRp122
(dp123
g53
(dp124
g80
g81
ssg62
g114
sg55
(lp125
S':'
asbag48
(g69
g50
NtRp126
(dp127
g53
(dp128
sg62
g114
sg55
(lp129
g48
(g49
g50
NtRp130
(dp131
g53
(dp132
g61
I5
ssg62
g126
sg55
(lp133
g48
(g57
g50
NtRp134
(dp135
g53
(dp136
g61
I4
ssg62
Nsg55
(lp137
sbasbasbasbag48
(g64
g50
NtRp138
(dp139
g53
(dp140
sg62
g58
sg55
(lp141
g48
(g69
g50
NtRp142
(dp143
g53
(dp144
g73
g74
ssg62
g138
sg55
(lp145
S'body'
p146
asbag48
(g69
g50
NtRp147
(dp148
g53
(dp149
g80
g81
ssg62
g138
sg55
(lp150
S':'
asbag48
(g69
g50
NtRp151
(dp152
g53
(dp153
sg62
g138
sg55
(lp154
g48
(g49
g50
NtRp155
(dp156
g53
(dp157
g61
I5
ssg62
g151
sg55
(lp158
S"<open file '<fdopen>', mode 'w+b' at 0x0284B6E0>"
p159
asbasbasbag48
(g64
g50
NtRp160
(dp161
g53
(dp162
sg62
g58
sg55
(lp163
g48
(g69
g50
NtRp164
(dp165
g53
(dp166
g73
g74
ssg62
g160
sg55
(lp167
S'client'
p168
asbag48
(g69
g50
NtRp169
(dp170
g53
(dp171
g80
g81
ssg62
g160
sg55
(lp172
S':'
asbag48
(g69
g50
NtRp173
(dp174
g53
(dp175
sg62
g160
sg55
(lp176
g48
(g49
g50
NtRp177
(dp178
g53
(dp179
g61
I5
ssg62
g173
sg55
(lp180
S'127.0.0.1'
p181
asbasbasbag48
(g64
g50
NtRp182
(dp183
g53
(dp184
sg62
g58
sg55
(lp185
g48
(g69
g50
NtRp186
(dp187
g53
(dp188
g73
g74
ssg62
g182
sg55
(lp189
S'controller'
p190
asbag48
(g69
g50
NtRp191
(dp192
g53
(dp193
g80
g81
ssg62
g182
sg55
(lp194
S':'
asbag48
(g69
g50
NtRp195
(dp196
g53
(dp197
sg62
g182
sg55
(lp198
g48
(g49
g50
NtRp199
(dp200
g53
(dp201
g61
I5
ssg62
g195
sg55
(lp202
S'default'
p203
asbasbasbag48
(g64
g50
NtRp204
(dp205
g53
(dp206
sg62
g58
sg55
(lp207
g48
(g69
g50
NtRp208
(dp209
g53
(dp210
g73
g74
ssg62
g204
sg55
(lp211
S'cookies'
p212
asbag48
(g69
g50
NtRp213
(dp214
g53
(dp215
g80
g81
ssg62
g204
sg55
(lp216
S':'
asbag48
(g69
g50
NtRp217
(dp218
g53
(dp219
sg62
g204
sg55
(lp220
g48
(g49
g50
NtRp221
(dp222
g53
(dp223
g61
I5
ssg62
g217
sg55
(lp224
g48
(g57
g50
NtRp225
(dp226
g53
(dp227
g61
I4
ssg62
Nsg55
(lp228
g48
(g64
g50
NtRp229
(dp230
g53
(dp231
sg62
g225
sg55
(lp232
g48
(g69
g50
NtRp233
(dp234
g53
(dp235
g73
g74
ssg62
g229
sg55
(lp236
S'session_id_admin'
p237
asbag48
(g69
g50
NtRp238
(dp239
g53
(dp240
g80
g81
ssg62
g229
sg55
(lp241
S':'
asbag48
(g69
g50
NtRp242
(dp243
g53
(dp244
sg62
g229
sg55
(lp245
g48
(g49
g50
NtRp246
(dp247
g53
(dp248
g61
I4
ssg62
g242
sg55
(lp249
g48
(g57
g50
NtRp250
(dp251
g53
(dp252
g61
I3
ssg62
Nsg55
(lp253
g48
(g64
g50
NtRp254
(dp255
g53
(dp256
sg62
g250
sg55
(lp257
g48
(g69
g50
NtRp258
(dp259
g53
(dp260
g73
g74
ssg62
g254
sg55
(lp261
S'comment'
p262
asbag48
(g69
g50
NtRp263
(dp264
g53
(dp265
g80
g81
ssg62
g254
sg55
(lp266
S':'
asbag48
(g69
g50
NtRp267
(dp268
g53
(dp269
sg62
g254
sg55
(lp270
g48
(g49
g50
NtRp271
(dp272
g53
(dp273
g61
I3
ssg62
g267
sg55
(lp274
S''
asbasbasbag48
(g64
g50
NtRp275
(dp276
g53
(dp277
sg62
g250
sg55
(lp278
g48
(g69
g50
NtRp279
(dp280
g53
(dp281
g73
g74
ssg62
g275
sg55
(lp282
S'domain'
p283
asbag48
(g69
g50
NtRp284
(dp285
g53
(dp286
g80
g81
ssg62
g275
sg55
(lp287
S':'
asbag48
(g69
g50
NtRp288
(dp289
g53
(dp290
sg62
g275
sg55
(lp291
g48
(g49
g50
NtRp292
(dp293
g53
(dp294
g61
I3
ssg62
g288
sg55
(lp295
S''
asbasbasbag48
(g64
g50
NtRp296
(dp297
g53
(dp298
sg62
g250
sg55
(lp299
g48
(g69
g50
NtRp300
(dp301
g53
(dp302
g73
g74
ssg62
g296
sg55
(lp303
S'expires'
p304
asbag48
(g69
g50
NtRp305
(dp306
g53
(dp307
g80
g81
ssg62
g296
sg55
(lp308
S':'
asbag48
(g69
g50
NtRp309
(dp310
g53
(dp311
sg62
g296
sg55
(lp312
g48
(g49
g50
NtRp313
(dp314
g53
(dp315
g61
I3
ssg62
g309
sg55
(lp316
S''
asbasbasbag48
(g64
g50
NtRp317
(dp318
g53
(dp319
sg62
g250
sg55
(lp320
g48
(g69
g50
NtRp321
(dp322
g53
(dp323
g73
g74
ssg62
g317
sg55
(lp324
S'max-age'
p325
asbag48
(g69
g50
NtRp326
(dp327
g53
(dp328
g80
g81
ssg62
g317
sg55
(lp329
S':'
asbag48
(g69
g50
NtRp330
(dp331
g53
(dp332
sg62
g317
sg55
(lp333
g48
(g49
g50
NtRp334
(dp335
g53
(dp336
g61
I3
ssg62
g330
sg55
(lp337
S''
asbasbasbag48
(g64
g50
NtRp338
(dp339
g53
(dp340
sg62
g250
sg55
(lp341
g48
(g69
g50
NtRp342
(dp343
g53
(dp344
g73
g74
ssg62
g338
sg55
(lp345
S'path'
p346
asbag48
(g69
g50
NtRp347
(dp348
g53
(dp349
g80
g81
ssg62
g338
sg55
(lp350
S':'
asbag48
(g69
g50
NtRp351
(dp352
g53
(dp353
sg62
g338
sg55
(lp354
g48
(g49
g50
NtRp355
(dp356
g53
(dp357
g61
I3
ssg62
g351
sg55
(lp358
S''
asbasbasbag48
(g64
g50
NtRp359
(dp360
g53
(dp361
sg62
g250
sg55
(lp362
g48
(g69
g50
NtRp363
(dp364
g53
(dp365
g73
g74
ssg62
g359
sg55
(lp366
S'secure'
p367
asbag48
(g69
g50
NtRp368
(dp369
g53
(dp370
g80
g81
ssg62
g359
sg55
(lp371
S':'
asbag48
(g69
g50
NtRp372
(dp373
g53
(dp374
sg62
g359
sg55
(lp375
g48
(g49
g50
NtRp376
(dp377
g53
(dp378
g61
I3
ssg62
g372
sg55
(lp379
S''
asbasbasbag48
(g64
g50
NtRp380
(dp381
g53
(dp382
sg62
g250
sg55
(lp383
g48
(g69
g50
NtRp384
(dp385
g53
(dp386
g73
g74
ssg62
g380
sg55
(lp387
S'version'
p388
asbag48
(g69
g50
NtRp389
(dp390
g53
(dp391
g80
g81
ssg62
g380
sg55
(lp392
S':'
asbag48
(g69
g50
NtRp393
(dp394
g53
(dp395
sg62
g380
sg55
(lp396
g48
(g49
g50
NtRp397
(dp398
g53
(dp399
g61
I3
ssg62
g393
sg55
(lp400
S''
asbasbasbasbasbasbasbag48
(g64
g50
NtRp401
(dp402
g53
(dp403
sg62
g225
sg55
(lp404
g48
(g69
g50
NtRp405
(dp406
g53
(dp407
g73
g74
ssg62
g401
sg55
(lp408
S'session_id_casa_de_apuestas'
p409
asbag48
(g69
g50
NtRp410
(dp411
g53
(dp412
g80
g81
ssg62
g401
sg55
(lp413
S':'
asbag48
(g69
g50
NtRp414
(dp415
g53
(dp416
sg62
g401
sg55
(lp417
g48
(g49
g50
NtRp418
(dp419
g53
(dp420
g61
I4
ssg62
g414
sg55
(lp421
g48
(g57
g50
NtRp422
(dp423
g53
(dp424
g61
I3
ssg62
Nsg55
(lp425
g48
(g64
g50
NtRp426
(dp427
g53
(dp428
sg62
g422
sg55
(lp429
g48
(g69
g50
NtRp430
(dp431
g53
(dp432
g73
g74
ssg62
g426
sg55
(lp433
g262
asbag48
(g69
g50
NtRp434
(dp435
g53
(dp436
g80
g81
ssg62
g426
sg55
(lp437
S':'
asbag48
(g69
g50
NtRp438
(dp439
g53
(dp440
sg62
g426
sg55
(lp441
g48
(g49
g50
NtRp442
(dp443
g53
(dp444
g61
I3
ssg62
g438
sg55
(lp445
S''
asbasbasbag48
(g64
g50
NtRp446
(dp447
g53
(dp448
sg62
g422
sg55
(lp449
g48
(g69
g50
NtRp450
(dp451
g53
(dp452
g73
g74
ssg62
g446
sg55
(lp453
g283
asbag48
(g69
g50
NtRp454
(dp455
g53
(dp456
g80
g81
ssg62
g446
sg55
(lp457
S':'
asbag48
(g69
g50
NtRp458
(dp459
g53
(dp460
sg62
g446
sg55
(lp461
g48
(g49
g50
NtRp462
(dp463
g53
(dp464
g61
I3
ssg62
g458
sg55
(lp465
S''
asbasbasbag48
(g64
g50
NtRp466
(dp467
g53
(dp468
sg62
g422
sg55
(lp469
g48
(g69
g50
NtRp470
(dp471
g53
(dp472
g73
g74
ssg62
g466
sg55
(lp473
g304
asbag48
(g69
g50
NtRp474
(dp475
g53
(dp476
g80
g81
ssg62
g466
sg55
(lp477
S':'
asbag48
(g69
g50
NtRp478
(dp479
g53
(dp480
sg62
g466
sg55
(lp481
g48
(g49
g50
NtRp482
(dp483
g53
(dp484
g61
I3
ssg62
g478
sg55
(lp485
S''
asbasbasbag48
(g64
g50
NtRp486
(dp487
g53
(dp488
sg62
g422
sg55
(lp489
g48
(g69
g50
NtRp490
(dp491
g53
(dp492
g73
g74
ssg62
g486
sg55
(lp493
g325
asbag48
(g69
g50
NtRp494
(dp495
g53
(dp496
g80
g81
ssg62
g486
sg55
(lp497
S':'
asbag48
(g69
g50
NtRp498
(dp499
g53
(dp500
sg62
g486
sg55
(lp501
g48
(g49
g50
NtRp502
(dp503
g53
(dp504
g61
I3
ssg62
g498
sg55
(lp505
S''
asbasbasbag48
(g64
g50
NtRp506
(dp507
g53
(dp508
sg62
g422
sg55
(lp509
g48
(g69
g50
NtRp510
(dp511
g53
(dp512
g73
g74
ssg62
g506
sg55
(lp513
g346
asbag48
(g69
g50
NtRp514
(dp515
g53
(dp516
g80
g81
ssg62
g506
sg55
(lp517
S':'
asbag48
(g69
g50
NtRp518
(dp519
g53
(dp520
sg62
g506
sg55
(lp521
g48
(g49
g50
NtRp522
(dp523
g53
(dp524
g61
I3
ssg62
g518
sg55
(lp525
S''
asbasbasbag48
(g64
g50
NtRp526
(dp527
g53
(dp528
sg62
g422
sg55
(lp529
g48
(g69
g50
NtRp530
(dp531
g53
(dp532
g73
g74
ssg62
g526
sg55
(lp533
g367
asbag48
(g69
g50
NtRp534
(dp535
g53
(dp536
g80
g81
ssg62
g526
sg55
(lp537
S':'
asbag48
(g69
g50
NtRp538
(dp539
g53
(dp540
sg62
g526
sg55
(lp541
g48
(g49
g50
NtRp542
(dp543
g53
(dp544
g61
I3
ssg62
g538
sg55
(lp545
S''
asbasbasbag48
(g64
g50
NtRp546
(dp547
g53
(dp548
sg62
g422
sg55
(lp549
g48
(g69
g50
NtRp550
(dp551
g53
(dp552
g73
g74
ssg62
g546
sg55
(lp553
g388
asbag48
(g69
g50
NtRp554
(dp555
g53
(dp556
g80
g81
ssg62
g546
sg55
(lp557
S':'
asbag48
(g69
g50
NtRp558
(dp559
g53
(dp560
sg62
g546
sg55
(lp561
g48
(g49
g50
NtRp562
(dp563
g53
(dp564
g61
I3
ssg62
g558
sg55
(lp565
S''
asbasbasbasbasbasbasbag48
(g64
g50
NtRp566
(dp567
g53
(dp568
sg62
g225
sg55
(lp569
g48
(g69
g50
NtRp570
(dp571
g53
(dp572
g73
g74
ssg62
g566
sg55
(lp573
S'session_id_welcome'
p574
asbag48
(g69
g50
NtRp575
(dp576
g53
(dp577
g80
g81
ssg62
g566
sg55
(lp578
S':'
asbag48
(g69
g50
NtRp579
(dp580
g53
(dp581
sg62
g566
sg55
(lp582
g48
(g49
g50
NtRp583
(dp584
g53
(dp585
g61
I4
ssg62
g579
sg55
(lp586
g48
(g57
g50
NtRp587
(dp588
g53
(dp589
g61
I3
ssg62
Nsg55
(lp590
g48
(g64
g50
NtRp591
(dp592
g53
(dp593
sg62
g587
sg55
(lp594
g48
(g69
g50
NtRp595
(dp596
g53
(dp597
g73
g74
ssg62
g591
sg55
(lp598
g262
asbag48
(g69
g50
NtRp599
(dp600
g53
(dp601
g80
g81
ssg62
g591
sg55
(lp602
S':'
asbag48
(g69
g50
NtRp603
(dp604
g53
(dp605
sg62
g591
sg55
(lp606
g48
(g49
g50
NtRp607
(dp608
g53
(dp609
g61
I3
ssg62
g603
sg55
(lp610
S''
asbasbasbag48
(g64
g50
NtRp611
(dp612
g53
(dp613
sg62
g587
sg55
(lp614
g48
(g69
g50
NtRp615
(dp616
g53
(dp617
g73
g74
ssg62
g611
sg55
(lp618
g283
asbag48
(g69
g50
NtRp619
(dp620
g53
(dp621
g80
g81
ssg62
g611
sg55
(lp622
S':'
asbag48
(g69
g50
NtRp623
(dp624
g53
(dp625
sg62
g611
sg55
(lp626
g48
(g49
g50
NtRp627
(dp628
g53
(dp629
g61
I3
ssg62
g623
sg55
(lp630
S''
asbasbasbag48
(g64
g50
NtRp631
(dp632
g53
(dp633
sg62
g587
sg55
(lp634
g48
(g69
g50
NtRp635
(dp636
g53
(dp637
g73
g74
ssg62
g631
sg55
(lp638
g304
asbag48
(g69
g50
NtRp639
(dp640
g53
(dp641
g80
g81
ssg62
g631
sg55
(lp642
S':'
asbag48
(g69
g50
NtRp643
(dp644
g53
(dp645
sg62
g631
sg55
(lp646
g48
(g49
g50
NtRp647
(dp648
g53
(dp649
g61
I3
ssg62
g643
sg55
(lp650
S''
asbasbasbag48
(g64
g50
NtRp651
(dp652
g53
(dp653
sg62
g587
sg55
(lp654
g48
(g69
g50
NtRp655
(dp656
g53
(dp657
g73
g74
ssg62
g651
sg55
(lp658
g325
asbag48
(g69
g50
NtRp659
(dp660
g53
(dp661
g80
g81
ssg62
g651
sg55
(lp662
S':'
asbag48
(g69
g50
NtRp663
(dp664
g53
(dp665
sg62
g651
sg55
(lp666
g48
(g49
g50
NtRp667
(dp668
g53
(dp669
g61
I3
ssg62
g663
sg55
(lp670
S''
asbasbasbag48
(g64
g50
NtRp671
(dp672
g53
(dp673
sg62
g587
sg55
(lp674
g48
(g69
g50
NtRp675
(dp676
g53
(dp677
g73
g74
ssg62
g671
sg55
(lp678
g346
asbag48
(g69
g50
NtRp679
(dp680
g53
(dp681
g80
g81
ssg62
g671
sg55
(lp682
S':'
asbag48
(g69
g50
NtRp683
(dp684
g53
(dp685
sg62
g671
sg55
(lp686
g48
(g49
g50
NtRp687
(dp688
g53
(dp689
g61
I3
ssg62
g683
sg55
(lp690
S''
asbasbasbag48
(g64
g50
NtRp691
(dp692
g53
(dp693
sg62
g587
sg55
(lp694
g48
(g69
g50
NtRp695
(dp696
g53
(dp697
g73
g74
ssg62
g691
sg55
(lp698
g367
asbag48
(g69
g50
NtRp699
(dp700
g53
(dp701
g80
g81
ssg62
g691
sg55
(lp702
S':'
asbag48
(g69
g50
NtRp703
(dp704
g53
(dp705
sg62
g691
sg55
(lp706
g48
(g49
g50
NtRp707
(dp708
g53
(dp709
g61
I3
ssg62
g703
sg55
(lp710
S''
asbasbasbag48
(g64
g50
NtRp711
(dp712
g53
(dp713
sg62
g587
sg55
(lp714
g48
(g69
g50
NtRp715
(dp716
g53
(dp717
g73
g74
ssg62
g711
sg55
(lp718
g388
asbag48
(g69
g50
NtRp719
(dp720
g53
(dp721
g80
g81
ssg62
g711
sg55
(lp722
S':'
asbag48
(g69
g50
NtRp723
(dp724
g53
(dp725
sg62
g711
sg55
(lp726
g48
(g49
g50
NtRp727
(dp728
g53
(dp729
g61
I3
ssg62
g723
sg55
(lp730
S''
asbasbasbasbasbasbasbasbasbasbasbag48
(g64
g50
NtRp731
(dp732
g53
(dp733
sg62
g58
sg55
(lp734
g48
(g69
g50
NtRp735
(dp736
g53
(dp737
g73
g74
ssg62
g731
sg55
(lp738
S'env'
p739
asbag48
(g69
g50
NtRp740
(dp741
g53
(dp742
g80
g81
ssg62
g731
sg55
(lp743
S':'
asbag48
(g69
g50
NtRp744
(dp745
g53
(dp746
sg62
g731
sg55
(lp747
g48
(g49
g50
NtRp748
(dp749
g53
(dp750
g61
I5
ssg62
g744
sg55
(lp751
g48
(g57
g50
NtRp752
(dp753
g53
(dp754
g61
I4
ssg62
Nsg55
(lp755
g48
(g64
g50
NtRp756
(dp757
g53
(dp758
sg62
g752
sg55
(lp759
g48
(g69
g50
NtRp760
(dp761
g53
(dp762
g73
g74
ssg62
g756
sg55
(lp763
S'app_folders'
p764
asbag48
(g69
g50
NtRp765
(dp766
g53
(dp767
g80
g81
ssg62
g756
sg55
(lp768
S':'
asbag48
(g69
g50
NtRp769
(dp770
g53
(dp771
sg62
g756
sg55
(lp772
g48
(g49
g50
NtRp773
(dp774
g53
(dp775
g61
I4
ssg62
g769
sg55
(lp776
S"set(['C:\\\\Python32\\\\web2py_win\\\\web2py\\\\applications\\\\admin\\\\', 'C:\\\\Python32\\\\web2py_win\\\\web2py\\\\applications\\\\welcome\\\\', 'C:\\\\Python32\\\\web2py_win\\\\web2py\\\\applications\\\\Casa_de_Apuestas\\\\'])"
p777
asbasbasbag48
(g64
g50
NtRp778
(dp779
g53
(dp780
sg62
g752
sg55
(lp781
g48
(g69
g50
NtRp782
(dp783
g53
(dp784
g73
g74
ssg62
g778
sg55
(lp785
S'applications_parent'
p786
asbag48
(g69
g50
NtRp787
(dp788
g53
(dp789
g80
g81
ssg62
g778
sg55
(lp790
S':'
asbag48
(g69
g50
NtRp791
(dp792
g53
(dp793
sg62
g778
sg55
(lp794
g48
(g49
g50
NtRp795
(dp796
g53
(dp797
g61
I4
ssg62
g791
sg55
(lp798
S'C:\\Python32\\web2py_win\\web2py'
p799
asbasbasbag48
(g64
g50
NtRp800
(dp801
g53
(dp802
sg62
g752
sg55
(lp803
g48
(g69
g50
NtRp804
(dp805
g53
(dp806
g73
g74
ssg62
g800
sg55
(lp807
S'cmd_args'
p808
asbag48
(g69
g50
NtRp809
(dp810
g53
(dp811
g80
g81
ssg62
g800
sg55
(lp812
S':'
asbag48
(g69
g50
NtRp813
(dp814
g53
(dp815
sg62
g800
sg55
(lp816
g48
(g49
g50
NtRp817
(dp818
g53
(dp819
g61
I4
ssg62
g813
sg55
(lp820
g48
(g57
g50
NtRp821
(dp822
g53
(dp823
g61
I3
ssg62
Nsg55
(lp824
sbasbasbasbag48
(g64
g50
NtRp825
(dp826
g53
(dp827
sg62
g752
sg55
(lp828
g48
(g69
g50
NtRp829
(dp830
g53
(dp831
g73
g74
ssg62
g825
sg55
(lp832
S'cmd_options'
p833
asbag48
(g69
g50
NtRp834
(dp835
g53
(dp836
g80
g81
ssg62
g825
sg55
(lp837
S':'
asbag48
(g69
g50
NtRp838
(dp839
g53
(dp840
sg62
g825
sg55
(lp841
g48
(g49
g50
NtRp842
(dp843
g53
(dp844
g61
I4
ssg62
g838
sg55
(lp845
S"<Values at 0x2635fa8: {'verbose': False, 'ip': '127.0.0.1', 'shutdown_timeout': 5, 'taskbar': False, 'nocron': False, 'pid_filename': 'httpserver.pid', 'maxthreads': None, 'softcron': False, 'server_name': 'hector-vaio', 'bpython': False, 'nogui': False, 'port': 8000, 'extcron': False, 'debuglevel': 30, 'test': None, 'folder': 'C:\\\\Python32\\\\web2py_win\\\\web2py', 'config': '', 'import_models': False, 'winservice': '', 'shell': None, 'run': '', 'log_filename': 'httpserver.log', 'args': [''], 'ssl_ca_certificate': None, 'scheduler': None, 'profiler_filename': None, 'ssl_private_key': '', 'password': '<ask>', 'request_queue_size': 5, 'ssl_certificate': '', 'cronjob': False, 'plain': False, 'quiet': False, 'interfaces': None, 'minthreads': None, 'timeout': 10, 'numthreads': None, 'nobanner': False}>"
p846
asbasbasbag48
(g64
g50
NtRp847
(dp848
g53
(dp849
sg62
g752
sg55
(lp850
g48
(g69
g50
NtRp851
(dp852
g53
(dp853
g73
g74
ssg62
g847
sg55
(lp854
S'content_length'
p855
asbag48
(g69
g50
NtRp856
(dp857
g53
(dp858
g80
g81
ssg62
g847
sg55
(lp859
S':'
asbag48
(g69
g50
NtRp860
(dp861
g53
(dp862
sg62
g847
sg55
(lp863
g48
(g49
g50
NtRp864
(dp865
g53
(dp866
g61
I4
ssg62
g860
sg55
(lp867
S'15'
p868
asbasbasbag48
(g64
g50
NtRp869
(dp870
g53
(dp871
sg62
g752
sg55
(lp872
g48
(g69
g50
NtRp873
(dp874
g53
(dp875
g73
g74
ssg62
g869
sg55
(lp876
S'content_type'
p877
asbag48
(g69
g50
NtRp878
(dp879
g53
(dp880
g80
g81
ssg62
g869
sg55
(lp881
S':'
asbag48
(g69
g50
NtRp882
(dp883
g53
(dp884
sg62
g869
sg55
(lp885
g48
(g49
g50
NtRp886
(dp887
g53
(dp888
g61
I4
ssg62
g882
sg55
(lp889
S'application/x-www-form-urlencoded'
p890
asbasbasbag48
(g64
g50
NtRp891
(dp892
g53
(dp893
sg62
g752
sg55
(lp894
g48
(g69
g50
NtRp895
(dp896
g53
(dp897
g73
g74
ssg62
g891
sg55
(lp898
S'db_sessions'
p899
asbag48
(g69
g50
NtRp900
(dp901
g53
(dp902
g80
g81
ssg62
g891
sg55
(lp903
S':'
asbag48
(g69
g50
NtRp904
(dp905
g53
(dp906
sg62
g891
sg55
(lp907
g48
(g49
g50
NtRp908
(dp909
g53
(dp910
g61
I4
ssg62
g904
sg55
(lp911
S'set([])'
p912
asbasbasbag48
(g64
g50
NtRp913
(dp914
g53
(dp915
sg62
g752
sg55
(lp916
g48
(g69
g50
NtRp917
(dp918
g53
(dp919
g73
g74
ssg62
g913
sg55
(lp920
S'debugging'
p921
asbag48
(g69
g50
NtRp922
(dp923
g53
(dp924
g80
g81
ssg62
g913
sg55
(lp925
S':'
asbag48
(g69
g50
NtRp926
(dp927
g53
(dp928
sg62
g913
sg55
(lp929
g48
(g49
g50
NtRp930
(dp931
g53
(dp932
g61
I4
ssg62
g926
sg55
(lp933
S'False'
p934
asbasbasbag48
(g64
g50
NtRp935
(dp936
g53
(dp937
sg62
g752
sg55
(lp938
g48
(g69
g50
NtRp939
(dp940
g53
(dp941
g73
g74
ssg62
g935
sg55
(lp942
S'gluon_parent'
p943
asbag48
(g69
g50
NtRp944
(dp945
g53
(dp946
g80
g81
ssg62
g935
sg55
(lp947
S':'
asbag48
(g69
g50
NtRp948
(dp949
g53
(dp950
sg62
g935
sg55
(lp951
g48
(g49
g50
NtRp952
(dp953
g53
(dp954
g61
I4
ssg62
g948
sg55
(lp955
S'C:\\Python32\\web2py_win\\web2py'
p956
asbasbasbag48
(g64
g50
NtRp957
(dp958
g53
(dp959
sg62
g752
sg55
(lp960
g48
(g69
g50
NtRp961
(dp962
g53
(dp963
g73
g74
ssg62
g957
sg55
(lp964
S'http_accept'
p965
asbag48
(g69
g50
NtRp966
(dp967
g53
(dp968
g80
g81
ssg62
g957
sg55
(lp969
S':'
asbag48
(g69
g50
NtRp970
(dp971
g53
(dp972
sg62
g957
sg55
(lp973
g48
(g49
g50
NtRp974
(dp975
g53
(dp976
g61
I4
ssg62
g970
sg55
(lp977
S'*/*'
p978
asbasbasbag48
(g64
g50
NtRp979
(dp980
g53
(dp981
sg62
g752
sg55
(lp982
g48
(g69
g50
NtRp983
(dp984
g53
(dp985
g73
g74
ssg62
g979
sg55
(lp986
S'http_accept_charset'
p987
asbag48
(g69
g50
NtRp988
(dp989
g53
(dp990
g80
g81
ssg62
g979
sg55
(lp991
S':'
asbag48
(g69
g50
NtRp992
(dp993
g53
(dp994
sg62
g979
sg55
(lp995
g48
(g49
g50
NtRp996
(dp997
g53
(dp998
g61
I4
ssg62
g992
sg55
(lp999
S'ISO-8859-1,utf-8;q=0.7,*;q=0.3'
p1000
asbasbasbag48
(g64
g50
NtRp1001
(dp1002
g53
(dp1003
sg62
g752
sg55
(lp1004
g48
(g69
g50
NtRp1005
(dp1006
g53
(dp1007
g73
g74
ssg62
g1001
sg55
(lp1008
S'http_accept_encoding'
p1009
asbag48
(g69
g50
NtRp1010
(dp1011
g53
(dp1012
g80
g81
ssg62
g1001
sg55
(lp1013
S':'
asbag48
(g69
g50
NtRp1014
(dp1015
g53
(dp1016
sg62
g1001
sg55
(lp1017
g48
(g49
g50
NtRp1018
(dp1019
g53
(dp1020
g61
I4
ssg62
g1014
sg55
(lp1021
S'gzip,deflate,sdch'
p1022
asbasbasbag48
(g64
g50
NtRp1023
(dp1024
g53
(dp1025
sg62
g752
sg55
(lp1026
g48
(g69
g50
NtRp1027
(dp1028
g53
(dp1029
g73
g74
ssg62
g1023
sg55
(lp1030
S'http_accept_language'
p1031
asbag48
(g69
g50
NtRp1032
(dp1033
g53
(dp1034
g80
g81
ssg62
g1023
sg55
(lp1035
S':'
asbag48
(g69
g50
NtRp1036
(dp1037
g53
(dp1038
sg62
g1023
sg55
(lp1039
g48
(g49
g50
NtRp1040
(dp1041
g53
(dp1042
g61
I4
ssg62
g1036
sg55
(lp1043
S'en-US,en;q=0.8'
p1044
asbasbasbag48
(g64
g50
NtRp1045
(dp1046
g53
(dp1047
sg62
g752
sg55
(lp1048
g48
(g69
g50
NtRp1049
(dp1050
g53
(dp1051
g73
g74
ssg62
g1045
sg55
(lp1052
S'http_connection'
p1053
asbag48
(g69
g50
NtRp1054
(dp1055
g53
(dp1056
g80
g81
ssg62
g1045
sg55
(lp1057
S':'
asbag48
(g69
g50
NtRp1058
(dp1059
g53
(dp1060
sg62
g1045
sg55
(lp1061
g48
(g49
g50
NtRp1062
(dp1063
g53
(dp1064
g61
I4
ssg62
g1058
sg55
(lp1065
S'keep-alive'
p1066
asbasbasbag48
(g64
g50
NtRp1067
(dp1068
g53
(dp1069
sg62
g752
sg55
(lp1070
g48
(g69
g50
NtRp1071
(dp1072
g53
(dp1073
g73
g74
ssg62
g1067
sg55
(lp1074
S'http_content_length'
p1075
asbag48
(g69
g50
NtRp1076
(dp1077
g53
(dp1078
g80
g81
ssg62
g1067
sg55
(lp1079
S':'
asbag48
(g69
g50
NtRp1080
(dp1081
g53
(dp1082
sg62
g1067
sg55
(lp1083
g48
(g49
g50
NtRp1084
(dp1085
g53
(dp1086
g61
I4
ssg62
g1080
sg55
(lp1087
g868
asbasbasbag48
(g64
g50
NtRp1088
(dp1089
g53
(dp1090
sg62
g752
sg55
(lp1091
g48
(g69
g50
NtRp1092
(dp1093
g53
(dp1094
g73
g74
ssg62
g1088
sg55
(lp1095
S'http_content_type'
p1096
asbag48
(g69
g50
NtRp1097
(dp1098
g53
(dp1099
g80
g81
ssg62
g1088
sg55
(lp1100
S':'
asbag48
(g69
g50
NtRp1101
(dp1102
g53
(dp1103
sg62
g1088
sg55
(lp1104
g48
(g49
g50
NtRp1105
(dp1106
g53
(dp1107
g61
I4
ssg62
g1101
sg55
(lp1108
g890
asbasbasbag48
(g64
g50
NtRp1109
(dp1110
g53
(dp1111
sg62
g752
sg55
(lp1112
g48
(g69
g50
NtRp1113
(dp1114
g53
(dp1115
g73
g74
ssg62
g1109
sg55
(lp1116
S'http_cookie'
p1117
asbag48
(g69
g50
NtRp1118
(dp1119
g53
(dp1120
g80
g81
ssg62
g1109
sg55
(lp1121
S':'
asbag48
(g69
g50
NtRp1122
(dp1123
g53
(dp1124
sg62
g1109
sg55
(lp1125
g48
(g49
g50
NtRp1126
(dp1127
g53
(dp1128
g61
I4
ssg62
g1122
sg55
(lp1129
S'session_id_welcome=127.0.0.1-bc513751-996f-43f7-934f-3853f1cd10d9; session_id_admin=127.0.0.1-3b7a4582-ec5a-4b8e-b633-4226d8e92779; session_id_casa_de_apuestas=127.0.0.1-620e4e48-b9ab-46bd-a58d-617594f1c170'
p1130
asbasbasbag48
(g64
g50
NtRp1131
(dp1132
g53
(dp1133
sg62
g752
sg55
(lp1134
g48
(g69
g50
NtRp1135
(dp1136
g53
(dp1137
g73
g74
ssg62
g1131
sg55
(lp1138
S'http_host'
p1139
asbag48
(g69
g50
NtRp1140
(dp1141
g53
(dp1142
g80
g81
ssg62
g1131
sg55
(lp1143
S':'
asbag48
(g69
g50
NtRp1144
(dp1145
g53
(dp1146
sg62
g1131
sg55
(lp1147
g48
(g49
g50
NtRp1148
(dp1149
g53
(dp1150
g61
I4
ssg62
g1144
sg55
(lp1151
S'127.0.0.1:8000'
p1152
asbasbasbag48
(g64
g50
NtRp1153
(dp1154
g53
(dp1155
sg62
g752
sg55
(lp1156
g48
(g69
g50
NtRp1157
(dp1158
g53
(dp1159
g73
g74
ssg62
g1153
sg55
(lp1160
S'http_origin'
p1161
asbag48
(g69
g50
NtRp1162
(dp1163
g53
(dp1164
g80
g81
ssg62
g1153
sg55
(lp1165
S':'
asbag48
(g69
g50
NtRp1166
(dp1167
g53
(dp1168
sg62
g1153
sg55
(lp1169
g48
(g49
g50
NtRp1170
(dp1171
g53
(dp1172
g61
I4
ssg62
g1166
sg55
(lp1173
S'http://127.0.0.1:8000'
p1174
asbasbasbag48
(g64
g50
NtRp1175
(dp1176
g53
(dp1177
sg62
g752
sg55
(lp1178
g48
(g69
g50
NtRp1179
(dp1180
g53
(dp1181
g73
g74
ssg62
g1175
sg55
(lp1182
S'http_referer'
p1183
asbag48
(g69
g50
NtRp1184
(dp1185
g53
(dp1186
g80
g81
ssg62
g1175
sg55
(lp1187
S':'
asbag48
(g69
g50
NtRp1188
(dp1189
g53
(dp1190
sg62
g1175
sg55
(lp1191
g48
(g49
g50
NtRp1192
(dp1193
g53
(dp1194
g61
I4
ssg62
g1188
sg55
(lp1195
S'http://127.0.0.1:8000/Casa_de_Apuestas/default/crearEvento'
p1196
asbasbasbag48
(g64
g50
NtRp1197
(dp1198
g53
(dp1199
sg62
g752
sg55
(lp1200
g48
(g69
g50
NtRp1201
(dp1202
g53
(dp1203
g73
g74
ssg62
g1197
sg55
(lp1204
S'http_user_agent'
p1205
asbag48
(g69
g50
NtRp1206
(dp1207
g53
(dp1208
g80
g81
ssg62
g1197
sg55
(lp1209
S':'
asbag48
(g69
g50
NtRp1210
(dp1211
g53
(dp1212
sg62
g1197
sg55
(lp1213
g48
(g49
g50
NtRp1214
(dp1215
g53
(dp1216
g61
I4
ssg62
g1210
sg55
(lp1217
S'Mozilla/5.0 (Windows NT 6.1) AppleWebKit/535.7 (KHTML, like Gecko) Chrome/16.0.912.63 Safari/535.7'
p1218
asbasbasbag48
(g64
g50
NtRp1219
(dp1220
g53
(dp1221
sg62
g752
sg55
(lp1222
g48
(g69
g50
NtRp1223
(dp1224
g53
(dp1225
g73
g74
ssg62
g1219
sg55
(lp1226
S'http_x_requested_with'
p1227
asbag48
(g69
g50
NtRp1228
(dp1229
g53
(dp1230
g80
g81
ssg62
g1219
sg55
(lp1231
S':'
asbag48
(g69
g50
NtRp1232
(dp1233
g53
(dp1234
sg62
g1219
sg55
(lp1235
g48
(g49
g50
NtRp1236
(dp1237
g53
(dp1238
g61
I4
ssg62
g1232
sg55
(lp1239
S'XMLHttpRequest'
p1240
asbasbasbag48
(g64
g50
NtRp1241
(dp1242
g53
(dp1243
sg62
g752
sg55
(lp1244
g48
(g69
g50
NtRp1245
(dp1246
g53
(dp1247
g73
g74
ssg62
g1241
sg55
(lp1248
S'is_jython'
p1249
asbag48
(g69
g50
NtRp1250
(dp1251
g53
(dp1252
g80
g81
ssg62
g1241
sg55
(lp1253
S':'
asbag48
(g69
g50
NtRp1254
(dp1255
g53
(dp1256
sg62
g1241
sg55
(lp1257
g48
(g49
g50
NtRp1258
(dp1259
g53
(dp1260
g61
I4
ssg62
g1254
sg55
(lp1261
g934
asbasbasbag48
(g64
g50
NtRp1262
(dp1263
g53
(dp1264
sg62
g752
sg55
(lp1265
g48
(g69
g50
NtRp1266
(dp1267
g53
(dp1268
g73
g74
ssg62
g1262
sg55
(lp1269
S'path_info'
p1270
asbag48
(g69
g50
NtRp1271
(dp1272
g53
(dp1273
g80
g81
ssg62
g1262
sg55
(lp1274
S':'
asbag48
(g69
g50
NtRp1275
(dp1276
g53
(dp1277
sg62
g1262
sg55
(lp1278
g48
(g49
g50
NtRp1279
(dp1280
g53
(dp1281
g61
I4
ssg62
g1275
sg55
(lp1282
S'/Casa_de_Apuestas/default/obtenerCategoria'
p1283
asbasbasbag48
(g64
g50
NtRp1284
(dp1285
g53
(dp1286
sg62
g752
sg55
(lp1287
g48
(g69
g50
NtRp1288
(dp1289
g53
(dp1290
g73
g74
ssg62
g1284
sg55
(lp1291
S'query_string'
p1292
asbag48
(g69
g50
NtRp1293
(dp1294
g53
(dp1295
g80
g81
ssg62
g1284
sg55
(lp1296
S':'
asbag48
(g69
g50
NtRp1297
(dp1298
g53
(dp1299
sg62
g1284
sg55
(lp1300
g48
(g49
g50
NtRp1301
(dp1302
g53
(dp1303
g61
I4
ssg62
g1297
sg55
(lp1304
S''
asbasbasbag48
(g64
g50
NtRp1305
(dp1306
g53
(dp1307
sg62
g752
sg55
(lp1308
g48
(g69
g50
NtRp1309
(dp1310
g53
(dp1311
g73
g74
ssg62
g1305
sg55
(lp1312
S'remote_addr'
p1313
asbag48
(g69
g50
NtRp1314
(dp1315
g53
(dp1316
g80
g81
ssg62
g1305
sg55
(lp1317
S':'
asbag48
(g69
g50
NtRp1318
(dp1319
g53
(dp1320
sg62
g1305
sg55
(lp1321
g48
(g49
g50
NtRp1322
(dp1323
g53
(dp1324
g61
I4
ssg62
g1318
sg55
(lp1325
g181
asbasbasbag48
(g64
g50
NtRp1326
(dp1327
g53
(dp1328
sg62
g752
sg55
(lp1329
g48
(g69
g50
NtRp1330
(dp1331
g53
(dp1332
g73
g74
ssg62
g1326
sg55
(lp1333
S'remote_port'
p1334
asbag48
(g69
g50
NtRp1335
(dp1336
g53
(dp1337
g80
g81
ssg62
g1326
sg55
(lp1338
S':'
asbag48
(g69
g50
NtRp1339
(dp1340
g53
(dp1341
sg62
g1326
sg55
(lp1342
g48
(g49
g50
NtRp1343
(dp1344
g53
(dp1345
g61
I4
ssg62
g1339
sg55
(lp1346
S'51645'
p1347
asbasbasbag48
(g64
g50
NtRp1348
(dp1349
g53
(dp1350
sg62
g752
sg55
(lp1351
g48
(g69
g50
NtRp1352
(dp1353
g53
(dp1354
g73
g74
ssg62
g1348
sg55
(lp1355
S'request_method'
p1356
asbag48
(g69
g50
NtRp1357
(dp1358
g53
(dp1359
g80
g81
ssg62
g1348
sg55
(lp1360
S':'
asbag48
(g69
g50
NtRp1361
(dp1362
g53
(dp1363
sg62
g1348
sg55
(lp1364
g48
(g49
g50
NtRp1365
(dp1366
g53
(dp1367
g61
I4
ssg62
g1361
sg55
(lp1368
S'POST'
p1369
asbasbasbag48
(g64
g50
NtRp1370
(dp1371
g53
(dp1372
sg62
g752
sg55
(lp1373
g48
(g69
g50
NtRp1374
(dp1375
g53
(dp1376
g73
g74
ssg62
g1370
sg55
(lp1377
S'script_name'
p1378
asbag48
(g69
g50
NtRp1379
(dp1380
g53
(dp1381
g80
g81
ssg62
g1370
sg55
(lp1382
S':'
asbag48
(g69
g50
NtRp1383
(dp1384
g53
(dp1385
sg62
g1370
sg55
(lp1386
g48
(g49
g50
NtRp1387
(dp1388
g53
(dp1389
g61
I4
ssg62
g1383
sg55
(lp1390
S''
asbasbasbag48
(g64
g50
NtRp1391
(dp1392
g53
(dp1393
sg62
g752
sg55
(lp1394
g48
(g69
g50
NtRp1395
(dp1396
g53
(dp1397
g73
g74
ssg62
g1391
sg55
(lp1398
S'server_name'
p1399
asbag48
(g69
g50
NtRp1400
(dp1401
g53
(dp1402
g80
g81
ssg62
g1391
sg55
(lp1403
S':'
asbag48
(g69
g50
NtRp1404
(dp1405
g53
(dp1406
sg62
g1391
sg55
(lp1407
g48
(g49
g50
NtRp1408
(dp1409
g53
(dp1410
g61
I4
ssg62
g1404
sg55
(lp1411
S'hector-vaio'
p1412
asbasbasbag48
(g64
g50
NtRp1413
(dp1414
g53
(dp1415
sg62
g752
sg55
(lp1416
g48
(g69
g50
NtRp1417
(dp1418
g53
(dp1419
g73
g74
ssg62
g1413
sg55
(lp1420
S'server_port'
p1421
asbag48
(g69
g50
NtRp1422
(dp1423
g53
(dp1424
g80
g81
ssg62
g1413
sg55
(lp1425
S':'
asbag48
(g69
g50
NtRp1426
(dp1427
g53
(dp1428
sg62
g1413
sg55
(lp1429
g48
(g49
g50
NtRp1430
(dp1431
g53
(dp1432
g61
I4
ssg62
g1426
sg55
(lp1433
S'8000'
p1434
asbasbasbag48
(g64
g50
NtRp1435
(dp1436
g53
(dp1437
sg62
g752
sg55
(lp1438
g48
(g69
g50
NtRp1439
(dp1440
g53
(dp1441
g73
g74
ssg62
g1435
sg55
(lp1442
S'server_protocol'
p1443
asbag48
(g69
g50
NtRp1444
(dp1445
g53
(dp1446
g80
g81
ssg62
g1435
sg55
(lp1447
S':'
asbag48
(g69
g50
NtRp1448
(dp1449
g53
(dp1450
sg62
g1435
sg55
(lp1451
g48
(g49
g50
NtRp1452
(dp1453
g53
(dp1454
g61
I4
ssg62
g1448
sg55
(lp1455
S'HTTP/1.1'
p1456
asbasbasbag48
(g64
g50
NtRp1457
(dp1458
g53
(dp1459
sg62
g752
sg55
(lp1460
g48
(g69
g50
NtRp1461
(dp1462
g53
(dp1463
g73
g74
ssg62
g1457
sg55
(lp1464
S'server_software'
p1465
asbag48
(g69
g50
NtRp1466
(dp1467
g53
(dp1468
g80
g81
ssg62
g1457
sg55
(lp1469
S':'
asbag48
(g69
g50
NtRp1470
(dp1471
g53
(dp1472
sg62
g1457
sg55
(lp1473
g48
(g49
g50
NtRp1474
(dp1475
g53
(dp1476
g61
I4
ssg62
g1470
sg55
(lp1477
S'Rocket 1.2.4'
p1478
asbasbasbag48
(g64
g50
NtRp1479
(dp1480
g53
(dp1481
sg62
g752
sg55
(lp1482
g48
(g69
g50
NtRp1483
(dp1484
g53
(dp1485
g73
g74
ssg62
g1479
sg55
(lp1486
S'web2py_crontype'
p1487
asbag48
(g69
g50
NtRp1488
(dp1489
g53
(dp1490
g80
g81
ssg62
g1479
sg55
(lp1491
S':'
asbag48
(g69
g50
NtRp1492
(dp1493
g53
(dp1494
sg62
g1479
sg55
(lp1495
g48
(g49
g50
NtRp1496
(dp1497
g53
(dp1498
g61
I4
ssg62
g1492
sg55
(lp1499
S'hard'
p1500
asbasbasbag48
(g64
g50
NtRp1501
(dp1502
g53
(dp1503
sg62
g752
sg55
(lp1504
g48
(g69
g50
NtRp1505
(dp1506
g53
(dp1507
g73
g74
ssg62
g1501
sg55
(lp1508
S'web2py_path'
p1509
asbag48
(g69
g50
NtRp1510
(dp1511
g53
(dp1512
g80
g81
ssg62
g1501
sg55
(lp1513
S':'
asbag48
(g69
g50
NtRp1514
(dp1515
g53
(dp1516
sg62
g1501
sg55
(lp1517
g48
(g49
g50
NtRp1518
(dp1519
g53
(dp1520
g61
I4
ssg62
g1514
sg55
(lp1521
g799
asbasbasbag48
(g64
g50
NtRp1522
(dp1523
g53
(dp1524
sg62
g752
sg55
(lp1525
g48
(g69
g50
NtRp1526
(dp1527
g53
(dp1528
g73
g74
ssg62
g1522
sg55
(lp1529
S'web2py_version'
p1530
asbag48
(g69
g50
NtRp1531
(dp1532
g53
(dp1533
g80
g81
ssg62
g1522
sg55
(lp1534
S':'
asbag48
(g69
g50
NtRp1535
(dp1536
g53
(dp1537
sg62
g1522
sg55
(lp1538
g48
(g49
g50
NtRp1539
(dp1540
g53
(dp1541
g61
I4
ssg62
g1535
sg55
(lp1542
g48
(g57
g50
NtRp1543
(dp1544
g53
(dp1545
g61
I3
ssg62
Nsg55
(lp1546
g48
(g64
g50
NtRp1547
(dp1548
g53
(dp1549
sg62
g1543
sg55
(lp1550
g48
(g69
g50
NtRp1551
(dp1552
g53
(dp1553
sg62
g1547
sg55
(lp1554
g48
(g49
g50
NtRp1555
(dp1556
g53
(dp1557
g61
I3
ssg62
g1551
sg55
(lp1558
S'1'
asbasbasbag48
(g64
g50
NtRp1559
(dp1560
g53
(dp1561
sg62
g1543
sg55
(lp1562
g48
(g69
g50
NtRp1563
(dp1564
g53
(dp1565
sg62
g1559
sg55
(lp1566
g48
(g49
g50
NtRp1567
(dp1568
g53
(dp1569
g61
I3
ssg62
g1563
sg55
(lp1570
S'99'
p1571
asbasbasbag48
(g64
g50
NtRp1572
(dp1573
g53
(dp1574
sg62
g1543
sg55
(lp1575
g48
(g69
g50
NtRp1576
(dp1577
g53
(dp1578
sg62
g1572
sg55
(lp1579
g48
(g49
g50
NtRp1580
(dp1581
g53
(dp1582
g61
I3
ssg62
g1576
sg55
(lp1583
S'2'
asbasbasbag48
(g64
g50
NtRp1584
(dp1585
g53
(dp1586
sg62
g1543
sg55
(lp1587
g48
(g69
g50
NtRp1588
(dp1589
g53
(dp1590
sg62
g1584
sg55
(lp1591
g48
(g49
g50
NtRp1592
(dp1593
g53
(dp1594
g61
I3
ssg62
g1588
sg55
(lp1595
S'datetime.datetime(2011, 9, 26, 6, 55, 33)'
p1596
asbasbasbag48
(g64
g50
NtRp1597
(dp1598
g53
(dp1599
sg62
g1543
sg55
(lp1600
g48
(g69
g50
NtRp1601
(dp1602
g53
(dp1603
sg62
g1597
sg55
(lp1604
g48
(g49
g50
NtRp1605
(dp1606
g53
(dp1607
g61
I3
ssg62
g1601
sg55
(lp1608
S'stable'
p1609
asbasbasbasbasbasbasbag48
(g64
g50
NtRp1610
(dp1611
g53
(dp1612
sg62
g752
sg55
(lp1613
g48
(g69
g50
NtRp1614
(dp1615
g53
(dp1616
g73
g74
ssg62
g1610
sg55
(lp1617
S'wsgi_errors'
p1618
asbag48
(g69
g50
NtRp1619
(dp1620
g53
(dp1621
g80
g81
ssg62
g1610
sg55
(lp1622
S':'
asbag48
(g69
g50
NtRp1623
(dp1624
g53
(dp1625
sg62
g1610
sg55
(lp1626
g48
(g49
g50
NtRp1627
(dp1628
g53
(dp1629
g61
I4
ssg62
g1623
sg55
(lp1630
S"<open file '<stderr>', mode 'w' at 0x014F00B0>"
p1631
asbasbasbag48
(g64
g50
NtRp1632
(dp1633
g53
(dp1634
sg62
g752
sg55
(lp1635
g48
(g69
g50
NtRp1636
(dp1637
g53
(dp1638
g73
g74
ssg62
g1632
sg55
(lp1639
S'wsgi_file_wrapper'
p1640
asbag48
(g69
g50
NtRp1641
(dp1642
g53
(dp1643
g80
g81
ssg62
g1632
sg55
(lp1644
S':'
asbag48
(g69
g50
NtRp1645
(dp1646
g53
(dp1647
sg62
g1632
sg55
(lp1648
g48
(g49
g50
NtRp1649
(dp1650
g53
(dp1651
g61
I4
ssg62
g1645
sg55
(lp1652
S'<class wsgiref.util.FileWrapper at 0x023D9AB0>'
p1653
asbasbasbag48
(g64
g50
NtRp1654
(dp1655
g53
(dp1656
sg62
g752
sg55
(lp1657
g48
(g69
g50
NtRp1658
(dp1659
g53
(dp1660
g73
g74
ssg62
g1654
sg55
(lp1661
S'wsgi_input'
p1662
asbag48
(g69
g50
NtRp1663
(dp1664
g53
(dp1665
g80
g81
ssg62
g1654
sg55
(lp1666
S':'
asbag48
(g69
g50
NtRp1667
(dp1668
g53
(dp1669
sg62
g1654
sg55
(lp1670
g48
(g49
g50
NtRp1671
(dp1672
g53
(dp1673
g61
I4
ssg62
g1667
sg55
(lp1674
S'<socket._fileobject object at 0x06B96D30>'
p1675
asbasbasbag48
(g64
g50
NtRp1676
(dp1677
g53
(dp1678
sg62
g752
sg55
(lp1679
g48
(g69
g50
NtRp1680
(dp1681
g53
(dp1682
g73
g74
ssg62
g1676
sg55
(lp1683
S'wsgi_multiprocess'
p1684
asbag48
(g69
g50
NtRp1685
(dp1686
g53
(dp1687
g80
g81
ssg62
g1676
sg55
(lp1688
S':'
asbag48
(g69
g50
NtRp1689
(dp1690
g53
(dp1691
sg62
g1676
sg55
(lp1692
g48
(g49
g50
NtRp1693
(dp1694
g53
(dp1695
g61
I4
ssg62
g1689
sg55
(lp1696
g934
asbasbasbag48
(g64
g50
NtRp1697
(dp1698
g53
(dp1699
sg62
g752
sg55
(lp1700
g48
(g69
g50
NtRp1701
(dp1702
g53
(dp1703
g73
g74
ssg62
g1697
sg55
(lp1704
S'wsgi_multithread'
p1705
asbag48
(g69
g50
NtRp1706
(dp1707
g53
(dp1708
g80
g81
ssg62
g1697
sg55
(lp1709
S':'
asbag48
(g69
g50
NtRp1710
(dp1711
g53
(dp1712
sg62
g1697
sg55
(lp1713
g48
(g49
g50
NtRp1714
(dp1715
g53
(dp1716
g61
I4
ssg62
g1710
sg55
(lp1717
g91
asbasbasbag48
(g64
g50
NtRp1718
(dp1719
g53
(dp1720
sg62
g752
sg55
(lp1721
g48
(g69
g50
NtRp1722
(dp1723
g53
(dp1724
g73
g74
ssg62
g1718
sg55
(lp1725
S'wsgi_run_once'
p1726
asbag48
(g69
g50
NtRp1727
(dp1728
g53
(dp1729
g80
g81
ssg62
g1718
sg55
(lp1730
S':'
asbag48
(g69
g50
NtRp1731
(dp1732
g53
(dp1733
sg62
g1718
sg55
(lp1734
g48
(g49
g50
NtRp1735
(dp1736
g53
(dp1737
g61
I4
ssg62
g1731
sg55
(lp1738
g934
asbasbasbag48
(g64
g50
NtRp1739
(dp1740
g53
(dp1741
sg62
g752
sg55
(lp1742
g48
(g69
g50
NtRp1743
(dp1744
g53
(dp1745
g73
g74
ssg62
g1739
sg55
(lp1746
S'wsgi_url_scheme'
p1747
asbag48
(g69
g50
NtRp1748
(dp1749
g53
(dp1750
g80
g81
ssg62
g1739
sg55
(lp1751
S':'
asbag48
(g69
g50
NtRp1752
(dp1753
g53
(dp1754
sg62
g1739
sg55
(lp1755
g48
(g49
g50
NtRp1756
(dp1757
g53
(dp1758
g61
I4
ssg62
g1752
sg55
(lp1759
S'http'
p1760
asbasbasbag48
(g64
g50
NtRp1761
(dp1762
g53
(dp1763
sg62
g752
sg55
(lp1764
g48
(g69
g50
NtRp1765
(dp1766
g53
(dp1767
g73
g74
ssg62
g1761
sg55
(lp1768
S'wsgi_version'
p1769
asbag48
(g69
g50
NtRp1770
(dp1771
g53
(dp1772
g80
g81
ssg62
g1761
sg55
(lp1773
S':'
asbag48
(g69
g50
NtRp1774
(dp1775
g53
(dp1776
sg62
g1761
sg55
(lp1777
g48
(g49
g50
NtRp1778
(dp1779
g53
(dp1780
g61
I4
ssg62
g1774
sg55
(lp1781
g48
(g57
g50
NtRp1782
(dp1783
g53
(dp1784
g61
I3
ssg62
Nsg55
(lp1785
g48
(g64
g50
NtRp1786
(dp1787
g53
(dp1788
sg62
g1782
sg55
(lp1789
g48
(g69
g50
NtRp1790
(dp1791
g53
(dp1792
sg62
g1786
sg55
(lp1793
g48
(g49
g50
NtRp1794
(dp1795
g53
(dp1796
g61
I3
ssg62
g1790
sg55
(lp1797
S'1'
asbasbasbag48
(g64
g50
NtRp1798
(dp1799
g53
(dp1800
sg62
g1782
sg55
(lp1801
g48
(g69
g50
NtRp1802
(dp1803
g53
(dp1804
sg62
g1798
sg55
(lp1805
g48
(g49
g50
NtRp1806
(dp1807
g53
(dp1808
g61
I3
ssg62
g1802
sg55
(lp1809
S'0'
asbasbasbasbasbasbasbasbasbasbasbag48
(g64
g50
NtRp1810
(dp1811
g53
(dp1812
sg62
g58
sg55
(lp1813
g48
(g69
g50
NtRp1814
(dp1815
g53
(dp1816
g73
g74
ssg62
g1810
sg55
(lp1817
S'extension'
p1818
asbag48
(g69
g50
NtRp1819
(dp1820
g53
(dp1821
g80
g81
ssg62
g1810
sg55
(lp1822
S':'
asbag48
(g69
g50
NtRp1823
(dp1824
g53
(dp1825
sg62
g1810
sg55
(lp1826
g48
(g49
g50
NtRp1827
(dp1828
g53
(dp1829
g61
I5
ssg62
g1823
sg55
(lp1830
S'html'
p1831
asbasbasbag48
(g64
g50
NtRp1832
(dp1833
g53
(dp1834
sg62
g58
sg55
(lp1835
g48
(g69
g50
NtRp1836
(dp1837
g53
(dp1838
g73
g74
ssg62
g1832
sg55
(lp1839
S'folder'
p1840
asbag48
(g69
g50
NtRp1841
(dp1842
g53
(dp1843
g80
g81
ssg62
g1832
sg55
(lp1844
S':'
asbag48
(g69
g50
NtRp1845
(dp1846
g53
(dp1847
sg62
g1832
sg55
(lp1848
g48
(g49
g50
NtRp1849
(dp1850
g53
(dp1851
g61
I5
ssg62
g1845
sg55
(lp1852
S'C:\\Python32\\web2py_win\\web2py\\applications\\Casa_de_Apuestas\\'
p1853
asbasbasbag48
(g64
g50
NtRp1854
(dp1855
g53
(dp1856
sg62
g58
sg55
(lp1857
g48
(g69
g50
NtRp1858
(dp1859
g53
(dp1860
g73
g74
ssg62
g1854
sg55
(lp1861
S'function'
p1862
asbag48
(g69
g50
NtRp1863
(dp1864
g53
(dp1865
g80
g81
ssg62
g1854
sg55
(lp1866
S':'
asbag48
(g69
g50
NtRp1867
(dp1868
g53
(dp1869
sg62
g1854
sg55
(lp1870
g48
(g49
g50
NtRp1871
(dp1872
g53
(dp1873
g61
I5
ssg62
g1867
sg55
(lp1874
S'obtenerCategoria'
p1875
asbasbasbag48
(g64
g50
NtRp1876
(dp1877
g53
(dp1878
sg62
g58
sg55
(lp1879
g48
(g69
g50
NtRp1880
(dp1881
g53
(dp1882
g73
g74
ssg62
g1876
sg55
(lp1883
S'get_vars'
p1884
asbag48
(g69
g50
NtRp1885
(dp1886
g53
(dp1887
g80
g81
ssg62
g1876
sg55
(lp1888
S':'
asbag48
(g69
g50
NtRp1889
(dp1890
g53
(dp1891
sg62
g1876
sg55
(lp1892
g48
(g49
g50
NtRp1893
(dp1894
g53
(dp1895
g61
I5
ssg62
g1889
sg55
(lp1896
g48
(g57
g50
NtRp1897
(dp1898
g53
(dp1899
g61
I4
ssg62
Nsg55
(lp1900
sbasbasbasbag48
(g64
g50
NtRp1901
(dp1902
g53
(dp1903
sg62
g58
sg55
(lp1904
g48
(g69
g50
NtRp1905
(dp1906
g53
(dp1907
g73
g74
ssg62
g1901
sg55
(lp1908
S'global_settings'
p1909
asbag48
(g69
g50
NtRp1910
(dp1911
g53
(dp1912
g80
g81
ssg62
g1901
sg55
(lp1913
S':'
asbag48
(g69
g50
NtRp1914
(dp1915
g53
(dp1916
sg62
g1901
sg55
(lp1917
g48
(g49
g50
NtRp1918
(dp1919
g53
(dp1920
g61
I5
ssg62
g1914
sg55
(lp1921
g48
(g57
g50
NtRp1922
(dp1923
g53
(dp1924
g61
I4
ssg62
Nsg55
(lp1925
g48
(g64
g50
NtRp1926
(dp1927
g53
(dp1928
sg62
g1922
sg55
(lp1929
g48
(g69
g50
NtRp1930
(dp1931
g53
(dp1932
g73
g74
ssg62
g1926
sg55
(lp1933
g764
asbag48
(g69
g50
NtRp1934
(dp1935
g53
(dp1936
g80
g81
ssg62
g1926
sg55
(lp1937
S':'
asbag48
(g69
g50
NtRp1938
(dp1939
g53
(dp1940
sg62
g1926
sg55
(lp1941
g48
(g49
g50
NtRp1942
(dp1943
g53
(dp1944
g61
I4
ssg62
g1938
sg55
(lp1945
S"set(['C:\\\\Python32\\\\web2py_win\\\\web2py\\\\applications\\\\admin\\\\', 'C:\\\\Python32\\\\web2py_win\\\\web2py\\\\applications\\\\welcome\\\\', 'C:\\\\Python32\\\\web2py_win\\\\web2py\\\\applications\\\\Casa_de_Apuestas\\\\'])"
p1946
asbasbasbag48
(g64
g50
NtRp1947
(dp1948
g53
(dp1949
sg62
g1922
sg55
(lp1950
g48
(g69
g50
NtRp1951
(dp1952
g53
(dp1953
g73
g74
ssg62
g1947
sg55
(lp1954
g786
asbag48
(g69
g50
NtRp1955
(dp1956
g53
(dp1957
g80
g81
ssg62
g1947
sg55
(lp1958
S':'
asbag48
(g69
g50
NtRp1959
(dp1960
g53
(dp1961
sg62
g1947
sg55
(lp1962
g48
(g49
g50
NtRp1963
(dp1964
g53
(dp1965
g61
I4
ssg62
g1959
sg55
(lp1966
g799
asbasbasbag48
(g64
g50
NtRp1967
(dp1968
g53
(dp1969
sg62
g1922
sg55
(lp1970
g48
(g69
g50
NtRp1971
(dp1972
g53
(dp1973
g73
g74
ssg62
g1967
sg55
(lp1974
g808
asbag48
(g69
g50
NtRp1975
(dp1976
g53
(dp1977
g80
g81
ssg62
g1967
sg55
(lp1978
S':'
asbag48
(g69
g50
NtRp1979
(dp1980
g53
(dp1981
sg62
g1967
sg55
(lp1982
g48
(g49
g50
NtRp1983
(dp1984
g53
(dp1985
g61
I4
ssg62
g1979
sg55
(lp1986
g48
(g57
g50
NtRp1987
(dp1988
g53
(dp1989
g61
I3
ssg62
Nsg55
(lp1990
sbasbasbasbag48
(g64
g50
NtRp1991
(dp1992
g53
(dp1993
sg62
g1922
sg55
(lp1994
g48
(g69
g50
NtRp1995
(dp1996
g53
(dp1997
g73
g74
ssg62
g1991
sg55
(lp1998
g833
asbag48
(g69
g50
NtRp1999
(dp2000
g53
(dp2001
g80
g81
ssg62
g1991
sg55
(lp2002
S':'
asbag48
(g69
g50
NtRp2003
(dp2004
g53
(dp2005
sg62
g1991
sg55
(lp2006
g48
(g49
g50
NtRp2007
(dp2008
g53
(dp2009
g61
I4
ssg62
g2003
sg55
(lp2010
S"<Values at 0x2635fa8: {'verbose': False, 'ip': '127.0.0.1', 'shutdown_timeout': 5, 'taskbar': False, 'nocron': False, 'pid_filename': 'httpserver.pid', 'maxthreads': None, 'softcron': False, 'server_name': 'hector-vaio', 'bpython': False, 'nogui': False, 'port': 8000, 'extcron': False, 'debuglevel': 30, 'test': None, 'folder': 'C:\\\\Python32\\\\web2py_win\\\\web2py', 'config': '', 'import_models': False, 'winservice': '', 'shell': None, 'run': '', 'log_filename': 'httpserver.log', 'args': [''], 'ssl_ca_certificate': None, 'scheduler': None, 'profiler_filename': None, 'ssl_private_key': '', 'password': '<ask>', 'request_queue_size': 5, 'ssl_certificate': '', 'cronjob': False, 'plain': False, 'quiet': False, 'interfaces': None, 'minthreads': None, 'timeout': 10, 'numthreads': None, 'nobanner': False}>"
p2011
asbasbasbag48
(g64
g50
NtRp2012
(dp2013
g53
(dp2014
sg62
g1922
sg55
(lp2015
g48
(g69
g50
NtRp2016
(dp2017
g53
(dp2018
g73
g74
ssg62
g2012
sg55
(lp2019
g899
asbag48
(g69
g50
NtRp2020
(dp2021
g53
(dp2022
g80
g81
ssg62
g2012
sg55
(lp2023
S':'
asbag48
(g69
g50
NtRp2024
(dp2025
g53
(dp2026
sg62
g2012
sg55
(lp2027
g48
(g49
g50
NtRp2028
(dp2029
g53
(dp2030
g61
I4
ssg62
g2024
sg55
(lp2031
S'set([])'
p2032
asbasbasbag48
(g64
g50
NtRp2033
(dp2034
g53
(dp2035
sg62
g1922
sg55
(lp2036
g48
(g69
g50
NtRp2037
(dp2038
g53
(dp2039
g73
g74
ssg62
g2033
sg55
(lp2040
g921
asbag48
(g69
g50
NtRp2041
(dp2042
g53
(dp2043
g80
g81
ssg62
g2033
sg55
(lp2044
S':'
asbag48
(g69
g50
NtRp2045
(dp2046
g53
(dp2047
sg62
g2033
sg55
(lp2048
g48
(g49
g50
NtRp2049
(dp2050
g53
(dp2051
g61
I4
ssg62
g2045
sg55
(lp2052
g934
asbasbasbag48
(g64
g50
NtRp2053
(dp2054
g53
(dp2055
sg62
g1922
sg55
(lp2056
g48
(g69
g50
NtRp2057
(dp2058
g53
(dp2059
g73
g74
ssg62
g2053
sg55
(lp2060
g943
asbag48
(g69
g50
NtRp2061
(dp2062
g53
(dp2063
g80
g81
ssg62
g2053
sg55
(lp2064
S':'
asbag48
(g69
g50
NtRp2065
(dp2066
g53
(dp2067
sg62
g2053
sg55
(lp2068
g48
(g49
g50
NtRp2069
(dp2070
g53
(dp2071
g61
I4
ssg62
g2065
sg55
(lp2072
g956
asbasbasbag48
(g64
g50
NtRp2073
(dp2074
g53
(dp2075
sg62
g1922
sg55
(lp2076
g48
(g69
g50
NtRp2077
(dp2078
g53
(dp2079
g73
g74
ssg62
g2073
sg55
(lp2080
g1249
asbag48
(g69
g50
NtRp2081
(dp2082
g53
(dp2083
g80
g81
ssg62
g2073
sg55
(lp2084
S':'
asbag48
(g69
g50
NtRp2085
(dp2086
g53
(dp2087
sg62
g2073
sg55
(lp2088
g48
(g49
g50
NtRp2089
(dp2090
g53
(dp2091
g61
I4
ssg62
g2085
sg55
(lp2092
g934
asbasbasbag48
(g64
g50
NtRp2093
(dp2094
g53
(dp2095
sg62
g1922
sg55
(lp2096
g48
(g69
g50
NtRp2097
(dp2098
g53
(dp2099
g73
g74
ssg62
g2093
sg55
(lp2100
g1487
asbag48
(g69
g50
NtRp2101
(dp2102
g53
(dp2103
g80
g81
ssg62
g2093
sg55
(lp2104
S':'
asbag48
(g69
g50
NtRp2105
(dp2106
g53
(dp2107
sg62
g2093
sg55
(lp2108
g48
(g49
g50
NtRp2109
(dp2110
g53
(dp2111
g61
I4
ssg62
g2105
sg55
(lp2112
g1500
asbasbasbag48
(g64
g50
NtRp2113
(dp2114
g53
(dp2115
sg62
g1922
sg55
(lp2116
g48
(g69
g50
NtRp2117
(dp2118
g53
(dp2119
g73
g74
ssg62
g2113
sg55
(lp2120
g1530
asbag48
(g69
g50
NtRp2121
(dp2122
g53
(dp2123
g80
g81
ssg62
g2113
sg55
(lp2124
S':'
asbag48
(g69
g50
NtRp2125
(dp2126
g53
(dp2127
sg62
g2113
sg55
(lp2128
g48
(g49
g50
NtRp2129
(dp2130
g53
(dp2131
g61
I4
ssg62
g2125
sg55
(lp2132
g48
(g57
g50
NtRp2133
(dp2134
g53
(dp2135
g61
I3
ssg62
Nsg55
(lp2136
g48
(g64
g50
NtRp2137
(dp2138
g53
(dp2139
sg62
g2133
sg55
(lp2140
g48
(g69
g50
NtRp2141
(dp2142
g53
(dp2143
sg62
g2137
sg55
(lp2144
g48
(g49
g50
NtRp2145
(dp2146
g53
(dp2147
g61
I3
ssg62
g2141
sg55
(lp2148
S'1'
asbasbasbag48
(g64
g50
NtRp2149
(dp2150
g53
(dp2151
sg62
g2133
sg55
(lp2152
g48
(g69
g50
NtRp2153
(dp2154
g53
(dp2155
sg62
g2149
sg55
(lp2156
g48
(g49
g50
NtRp2157
(dp2158
g53
(dp2159
g61
I3
ssg62
g2153
sg55
(lp2160
S'99'
p2161
asbasbasbag48
(g64
g50
NtRp2162
(dp2163
g53
(dp2164
sg62
g2133
sg55
(lp2165
g48
(g69
g50
NtRp2166
(dp2167
g53
(dp2168
sg62
g2162
sg55
(lp2169
g48
(g49
g50
NtRp2170
(dp2171
g53
(dp2172
g61
I3
ssg62
g2166
sg55
(lp2173
S'2'
asbasbasbag48
(g64
g50
NtRp2174
(dp2175
g53
(dp2176
sg62
g2133
sg55
(lp2177
g48
(g69
g50
NtRp2178
(dp2179
g53
(dp2180
sg62
g2174
sg55
(lp2181
g48
(g49
g50
NtRp2182
(dp2183
g53
(dp2184
g61
I3
ssg62
g2178
sg55
(lp2185
S'datetime.datetime(2011, 9, 26, 6, 55, 33)'
p2186
asbasbasbag48
(g64
g50
NtRp2187
(dp2188
g53
(dp2189
sg62
g2133
sg55
(lp2190
g48
(g69
g50
NtRp2191
(dp2192
g53
(dp2193
sg62
g2187
sg55
(lp2194
g48
(g49
g50
NtRp2195
(dp2196
g53
(dp2197
g61
I3
ssg62
g2191
sg55
(lp2198
g1609
asbasbasbasbasbasbasbasbasbasbasbag48
(g64
g50
NtRp2199
(dp2200
g53
(dp2201
sg62
g58
sg55
(lp2202
g48
(g69
g50
NtRp2203
(dp2204
g53
(dp2205
g73
g74
ssg62
g2199
sg55
(lp2206
S'is_https'
p2207
asbag48
(g69
g50
NtRp2208
(dp2209
g53
(dp2210
g80
g81
ssg62
g2199
sg55
(lp2211
S':'
asbag48
(g69
g50
NtRp2212
(dp2213
g53
(dp2214
sg62
g2199
sg55
(lp2215
g48
(g49
g50
NtRp2216
(dp2217
g53
(dp2218
g61
I5
ssg62
g2212
sg55
(lp2219
g934
asbasbasbag48
(g64
g50
NtRp2220
(dp2221
g53
(dp2222
sg62
g58
sg55
(lp2223
g48
(g69
g50
NtRp2224
(dp2225
g53
(dp2226
g73
g74
ssg62
g2220
sg55
(lp2227
S'is_local'
p2228
asbag48
(g69
g50
NtRp2229
(dp2230
g53
(dp2231
g80
g81
ssg62
g2220
sg55
(lp2232
S':'
asbag48
(g69
g50
NtRp2233
(dp2234
g53
(dp2235
sg62
g2220
sg55
(lp2236
g48
(g49
g50
NtRp2237
(dp2238
g53
(dp2239
g61
I5
ssg62
g2233
sg55
(lp2240
g91
asbasbasbag48
(g64
g50
NtRp2241
(dp2242
g53
(dp2243
sg62
g58
sg55
(lp2244
g48
(g69
g50
NtRp2245
(dp2246
g53
(dp2247
g73
g74
ssg62
g2241
sg55
(lp2248
S'is_restful'
p2249
asbag48
(g69
g50
NtRp2250
(dp2251
g53
(dp2252
g80
g81
ssg62
g2241
sg55
(lp2253
S':'
asbag48
(g69
g50
NtRp2254
(dp2255
g53
(dp2256
sg62
g2241
sg55
(lp2257
g48
(g49
g50
NtRp2258
(dp2259
g53
(dp2260
g61
I5
ssg62
g2254
sg55
(lp2261
g934
asbasbasbag48
(g64
g50
NtRp2262
(dp2263
g53
(dp2264
sg62
g58
sg55
(lp2265
g48
(g69
g50
NtRp2266
(dp2267
g53
(dp2268
g73
g74
ssg62
g2262
sg55
(lp2269
S'now'
p2270
asbag48
(g69
g50
NtRp2271
(dp2272
g53
(dp2273
g80
g81
ssg62
g2262
sg55
(lp2274
S':'
asbag48
(g69
g50
NtRp2275
(dp2276
g53
(dp2277
sg62
g2262
sg55
(lp2278
g48
(g49
g50
NtRp2279
(dp2280
g53
(dp2281
g61
I5
ssg62
g2275
sg55
(lp2282
S'datetime.datetime(2011, 12, 25, 13, 39, 36, 389000)'
p2283
asbasbasbag48
(g64
g50
NtRp2284
(dp2285
g53
(dp2286
sg62
g58
sg55
(lp2287
g48
(g69
g50
NtRp2288
(dp2289
g53
(dp2290
g73
g74
ssg62
g2284
sg55
(lp2291
S'post_vars'
p2292
asbag48
(g69
g50
NtRp2293
(dp2294
g53
(dp2295
g80
g81
ssg62
g2284
sg55
(lp2296
S':'
asbag48
(g69
g50
NtRp2297
(dp2298
g53
(dp2299
sg62
g2284
sg55
(lp2300
g48
(g49
g50
NtRp2301
(dp2302
g53
(dp2303
g61
I5
ssg62
g2297
sg55
(lp2304
g48
(g57
g50
NtRp2305
(dp2306
g53
(dp2307
g61
I4
ssg62
Nsg55
(lp2308
g48
(g64
g50
NtRp2309
(dp2310
g53
(dp2311
sg62
g2305
sg55
(lp2312
g48
(g69
g50
NtRp2313
(dp2314
g53
(dp2315
g73
g74
ssg62
g2309
sg55
(lp2316
S'categorias'
p2317
asbag48
(g69
g50
NtRp2318
(dp2319
g53
(dp2320
g80
g81
ssg62
g2309
sg55
(lp2321
S':'
asbag48
(g69
g50
NtRp2322
(dp2323
g53
(dp2324
sg62
g2309
sg55
(lp2325
g48
(g49
g50
NtRp2326
(dp2327
g53
(dp2328
g61
I4
ssg62
g2322
sg55
(lp2329
S'Beis'
p2330
asbasbasbasbasbasbasbag48
(g64
g50
NtRp2331
(dp2332
g53
(dp2333
sg62
g58
sg55
(lp2334
g48
(g69
g50
NtRp2335
(dp2336
g53
(dp2337
g73
g74
ssg62
g2331
sg55
(lp2338
S'url'
p2339
asbag48
(g69
g50
NtRp2340
(dp2341
g53
(dp2342
g80
g81
ssg62
g2331
sg55
(lp2343
S':'
asbag48
(g69
g50
NtRp2344
(dp2345
g53
(dp2346
sg62
g2331
sg55
(lp2347
g48
(g49
g50
NtRp2348
(dp2349
g53
(dp2350
g61
I5
ssg62
g2344
sg55
(lp2351
S'/Casa_de_Apuestas/default/obtenerCategoria'
p2352
asbasbasbag48
(g64
g50
NtRp2353
(dp2354
g53
(dp2355
sg62
g58
sg55
(lp2356
g48
(g69
g50
NtRp2357
(dp2358
g53
(dp2359
g73
g74
ssg62
g2353
sg55
(lp2360
S'utcnow'
p2361
asbag48
(g69
g50
NtRp2362
(dp2363
g53
(dp2364
g80
g81
ssg62
g2353
sg55
(lp2365
S':'
asbag48
(g69
g50
NtRp2366
(dp2367
g53
(dp2368
sg62
g2353
sg55
(lp2369
g48
(g49
g50
NtRp2370
(dp2371
g53
(dp2372
g61
I5
ssg62
g2366
sg55
(lp2373
S'datetime.datetime(2011, 12, 25, 18, 9, 36, 389000)'
p2374
asbasbasbag48
(g64
g50
NtRp2375
(dp2376
g53
(dp2377
sg62
g58
sg55
(lp2378
g48
(g69
g50
NtRp2379
(dp2380
g53
(dp2381
g73
g74
ssg62
g2375
sg55
(lp2382
S'uuid'
p2383
asbag48
(g69
g50
NtRp2384
(dp2385
g53
(dp2386
g80
g81
ssg62
g2375
sg55
(lp2387
S':'
asbag48
(g69
g50
NtRp2388
(dp2389
g53
(dp2390
sg62
g2375
sg55
(lp2391
g48
(g49
g50
NtRp2392
(dp2393
g53
(dp2394
g61
I5
ssg62
g2388
sg55
(lp2395
S'Casa_de_Apuestas/127.0.0.1.2011-12-25.13-39-36.584f0b85-d473-4603-b1fb-53b021fdcdf9'
p2396
asbasbasbag48
(g64
g50
NtRp2397
(dp2398
g53
(dp2399
sg62
g58
sg55
(lp2400
g48
(g69
g50
NtRp2401
(dp2402
g53
(dp2403
g73
g74
ssg62
g2397
sg55
(lp2404
S'vars'
p2405
asbag48
(g69
g50
NtRp2406
(dp2407
g53
(dp2408
g80
g81
ssg62
g2397
sg55
(lp2409
S':'
asbag48
(g69
g50
NtRp2410
(dp2411
g53
(dp2412
sg62
g2397
sg55
(lp2413
g48
(g49
g50
NtRp2414
(dp2415
g53
(dp2416
g61
I5
ssg62
g2410
sg55
(lp2417
g48
(g57
g50
NtRp2418
(dp2419
g53
(dp2420
g61
I4
ssg62
Nsg55
(lp2421
g48
(g64
g50
NtRp2422
(dp2423
g53
(dp2424
sg62
g2418
sg55
(lp2425
g48
(g69
g50
NtRp2426
(dp2427
g53
(dp2428
g73
g74
ssg62
g2422
sg55
(lp2429
g2317
asbag48
(g69
g50
NtRp2430
(dp2431
g53
(dp2432
g80
g81
ssg62
g2422
sg55
(lp2433
S':'
asbag48
(g69
g50
NtRp2434
(dp2435
g53
(dp2436
sg62
g2422
sg55
(lp2437
g48
(g49
g50
NtRp2438
(dp2439
g53
(dp2440
g61
I4
ssg62
g2434
sg55
(lp2441
g2330
asbasbasbasbasbasbasbag48
(g64
g50
NtRp2442
(dp2443
g53
(dp2444
sg62
g58
sg55
(lp2445
g48
(g69
g50
NtRp2446
(dp2447
g53
(dp2448
g73
g74
ssg62
g2442
sg55
(lp2449
S'wsgi'
p2450
asbag48
(g69
g50
NtRp2451
(dp2452
g53
(dp2453
g80
g81
ssg62
g2442
sg55
(lp2454
S':'
asbag48
(g69
g50
NtRp2455
(dp2456
g53
(dp2457
sg62
g2442
sg55
(lp2458
g48
(g49
g50
NtRp2459
(dp2460
g53
(dp2461
g61
I5
ssg62
g2455
sg55
(lp2462
g48
(g57
g50
NtRp2463
(dp2464
g53
(dp2465
g61
I4
ssg62
Nsg55
(lp2466
g48
(g64
g50
NtRp2467
(dp2468
g53
(dp2469
sg62
g2463
sg55
(lp2470
g48
(g69
g50
NtRp2471
(dp2472
g53
(dp2473
g73
g74
ssg62
g2467
sg55
(lp2474
S'environ'
p2475
asbag48
(g69
g50
NtRp2476
(dp2477
g53
(dp2478
g80
g81
ssg62
g2467
sg55
(lp2479
S':'
asbag48
(g69
g50
NtRp2480
(dp2481
g53
(dp2482
sg62
g2467
sg55
(lp2483
g48
(g49
g50
NtRp2484
(dp2485
g53
(dp2486
g61
I4
ssg62
g2480
sg55
(lp2487
g48
(g57
g50
NtRp2488
(dp2489
g53
(dp2490
g61
I3
ssg62
Nsg55
(lp2491
g48
(g64
g50
NtRp2492
(dp2493
g53
(dp2494
sg62
g2488
sg55
(lp2495
g48
(g69
g50
NtRp2496
(dp2497
g53
(dp2498
g73
g74
ssg62
g2492
sg55
(lp2499
S'CONTENT_LENGTH'
p2500
asbag48
(g69
g50
NtRp2501
(dp2502
g53
(dp2503
g80
g81
ssg62
g2492
sg55
(lp2504
S':'
asbag48
(g69
g50
NtRp2505
(dp2506
g53
(dp2507
sg62
g2492
sg55
(lp2508
g48
(g49
g50
NtRp2509
(dp2510
g53
(dp2511
g61
I3
ssg62
g2505
sg55
(lp2512
g868
asbasbasbag48
(g64
g50
NtRp2513
(dp2514
g53
(dp2515
sg62
g2488
sg55
(lp2516
g48
(g69
g50
NtRp2517
(dp2518
g53
(dp2519
g73
g74
ssg62
g2513
sg55
(lp2520
S'CONTENT_TYPE'
p2521
asbag48
(g69
g50
NtRp2522
(dp2523
g53
(dp2524
g80
g81
ssg62
g2513
sg55
(lp2525
S':'
asbag48
(g69
g50
NtRp2526
(dp2527
g53
(dp2528
sg62
g2513
sg55
(lp2529
g48
(g49
g50
NtRp2530
(dp2531
g53
(dp2532
g61
I3
ssg62
g2526
sg55
(lp2533
g890
asbasbasbag48
(g64
g50
NtRp2534
(dp2535
g53
(dp2536
sg62
g2488
sg55
(lp2537
g48
(g69
g50
NtRp2538
(dp2539
g53
(dp2540
g73
g74
ssg62
g2534
sg55
(lp2541
S'HTTP_ACCEPT'
p2542
asbag48
(g69
g50
NtRp2543
(dp2544
g53
(dp2545
g80
g81
ssg62
g2534
sg55
(lp2546
S':'
asbag48
(g69
g50
NtRp2547
(dp2548
g53
(dp2549
sg62
g2534
sg55
(lp2550
g48
(g49
g50
NtRp2551
(dp2552
g53
(dp2553
g61
I3
ssg62
g2547
sg55
(lp2554
g978
asbasbasbag48
(g64
g50
NtRp2555
(dp2556
g53
(dp2557
sg62
g2488
sg55
(lp2558
g48
(g69
g50
NtRp2559
(dp2560
g53
(dp2561
g73
g74
ssg62
g2555
sg55
(lp2562
S'HTTP_ACCEPT_CHARSET'
p2563
asbag48
(g69
g50
NtRp2564
(dp2565
g53
(dp2566
g80
g81
ssg62
g2555
sg55
(lp2567
S':'
asbag48
(g69
g50
NtRp2568
(dp2569
g53
(dp2570
sg62
g2555
sg55
(lp2571
g48
(g49
g50
NtRp2572
(dp2573
g53
(dp2574
g61
I3
ssg62
g2568
sg55
(lp2575
g1000
asbasbasbag48
(g64
g50
NtRp2576
(dp2577
g53
(dp2578
sg62
g2488
sg55
(lp2579
g48
(g69
g50
NtRp2580
(dp2581
g53
(dp2582
g73
g74
ssg62
g2576
sg55
(lp2583
S'HTTP_ACCEPT_ENCODING'
p2584
asbag48
(g69
g50
NtRp2585
(dp2586
g53
(dp2587
g80
g81
ssg62
g2576
sg55
(lp2588
S':'
asbag48
(g69
g50
NtRp2589
(dp2590
g53
(dp2591
sg62
g2576
sg55
(lp2592
g48
(g49
g50
NtRp2593
(dp2594
g53
(dp2595
g61
I3
ssg62
g2589
sg55
(lp2596
g1022
asbasbasbag48
(g64
g50
NtRp2597
(dp2598
g53
(dp2599
sg62
g2488
sg55
(lp2600
g48
(g69
g50
NtRp2601
(dp2602
g53
(dp2603
g73
g74
ssg62
g2597
sg55
(lp2604
S'HTTP_ACCEPT_LANGUAGE'
p2605
asbag48
(g69
g50
NtRp2606
(dp2607
g53
(dp2608
g80
g81
ssg62
g2597
sg55
(lp2609
S':'
asbag48
(g69
g50
NtRp2610
(dp2611
g53
(dp2612
sg62
g2597
sg55
(lp2613
g48
(g49
g50
NtRp2614
(dp2615
g53
(dp2616
g61
I3
ssg62
g2610
sg55
(lp2617
g1044
asbasbasbag48
(g64
g50
NtRp2618
(dp2619
g53
(dp2620
sg62
g2488
sg55
(lp2621
g48
(g69
g50
NtRp2622
(dp2623
g53
(dp2624
g73
g74
ssg62
g2618
sg55
(lp2625
S'HTTP_CONNECTION'
p2626
asbag48
(g69
g50
NtRp2627
(dp2628
g53
(dp2629
g80
g81
ssg62
g2618
sg55
(lp2630
S':'
asbag48
(g69
g50
NtRp2631
(dp2632
g53
(dp2633
sg62
g2618
sg55
(lp2634
g48
(g49
g50
NtRp2635
(dp2636
g53
(dp2637
g61
I3
ssg62
g2631
sg55
(lp2638
g1066
asbasbasbag48
(g64
g50
NtRp2639
(dp2640
g53
(dp2641
sg62
g2488
sg55
(lp2642
g48
(g69
g50
NtRp2643
(dp2644
g53
(dp2645
g73
g74
ssg62
g2639
sg55
(lp2646
S'HTTP_CONTENT_LENGTH'
p2647
asbag48
(g69
g50
NtRp2648
(dp2649
g53
(dp2650
g80
g81
ssg62
g2639
sg55
(lp2651
S':'
asbag48
(g69
g50
NtRp2652
(dp2653
g53
(dp2654
sg62
g2639
sg55
(lp2655
g48
(g49
g50
NtRp2656
(dp2657
g53
(dp2658
g61
I3
ssg62
g2652
sg55
(lp2659
g868
asbasbasbag48
(g64
g50
NtRp2660
(dp2661
g53
(dp2662
sg62
g2488
sg55
(lp2663
g48
(g69
g50
NtRp2664
(dp2665
g53
(dp2666
g73
g74
ssg62
g2660
sg55
(lp2667
S'HTTP_CONTENT_TYPE'
p2668
asbag48
(g69
g50
NtRp2669
(dp2670
g53
(dp2671
g80
g81
ssg62
g2660
sg55
(lp2672
S':'
asbag48
(g69
g50
NtRp2673
(dp2674
g53
(dp2675
sg62
g2660
sg55
(lp2676
g48
(g49
g50
NtRp2677
(dp2678
g53
(dp2679
g61
I3
ssg62
g2673
sg55
(lp2680
g890
asbasbasbag48
(g64
g50
NtRp2681
(dp2682
g53
(dp2683
sg62
g2488
sg55
(lp2684
g48
(g69
g50
NtRp2685
(dp2686
g53
(dp2687
g73
g74
ssg62
g2681
sg55
(lp2688
S'HTTP_COOKIE'
p2689
asbag48
(g69
g50
NtRp2690
(dp2691
g53
(dp2692
g80
g81
ssg62
g2681
sg55
(lp2693
S':'
asbag48
(g69
g50
NtRp2694
(dp2695
g53
(dp2696
sg62
g2681
sg55
(lp2697
g48
(g49
g50
NtRp2698
(dp2699
g53
(dp2700
g61
I3
ssg62
g2694
sg55
(lp2701
g1130
asbasbasbag48
(g64
g50
NtRp2702
(dp2703
g53
(dp2704
sg62
g2488
sg55
(lp2705
g48
(g69
g50
NtRp2706
(dp2707
g53
(dp2708
g73
g74
ssg62
g2702
sg55
(lp2709
S'HTTP_HOST'
p2710
asbag48
(g69
g50
NtRp2711
(dp2712
g53
(dp2713
g80
g81
ssg62
g2702
sg55
(lp2714
S':'
asbag48
(g69
g50
NtRp2715
(dp2716
g53
(dp2717
sg62
g2702
sg55
(lp2718
g48
(g49
g50
NtRp2719
(dp2720
g53
(dp2721
g61
I3
ssg62
g2715
sg55
(lp2722
g1152
asbasbasbag48
(g64
g50
NtRp2723
(dp2724
g53
(dp2725
sg62
g2488
sg55
(lp2726
g48
(g69
g50
NtRp2727
(dp2728
g53
(dp2729
g73
g74
ssg62
g2723
sg55
(lp2730
S'HTTP_ORIGIN'
p2731
asbag48
(g69
g50
NtRp2732
(dp2733
g53
(dp2734
g80
g81
ssg62
g2723
sg55
(lp2735
S':'
asbag48
(g69
g50
NtRp2736
(dp2737
g53
(dp2738
sg62
g2723
sg55
(lp2739
g48
(g49
g50
NtRp2740
(dp2741
g53
(dp2742
g61
I3
ssg62
g2736
sg55
(lp2743
g1174
asbasbasbag48
(g64
g50
NtRp2744
(dp2745
g53
(dp2746
sg62
g2488
sg55
(lp2747
g48
(g69
g50
NtRp2748
(dp2749
g53
(dp2750
g73
g74
ssg62
g2744
sg55
(lp2751
S'HTTP_REFERER'
p2752
asbag48
(g69
g50
NtRp2753
(dp2754
g53
(dp2755
g80
g81
ssg62
g2744
sg55
(lp2756
S':'
asbag48
(g69
g50
NtRp2757
(dp2758
g53
(dp2759
sg62
g2744
sg55
(lp2760
g48
(g49
g50
NtRp2761
(dp2762
g53
(dp2763
g61
I3
ssg62
g2757
sg55
(lp2764
g1196
asbasbasbag48
(g64
g50
NtRp2765
(dp2766
g53
(dp2767
sg62
g2488
sg55
(lp2768
g48
(g69
g50
NtRp2769
(dp2770
g53
(dp2771
g73
g74
ssg62
g2765
sg55
(lp2772
S'HTTP_USER_AGENT'
p2773
asbag48
(g69
g50
NtRp2774
(dp2775
g53
(dp2776
g80
g81
ssg62
g2765
sg55
(lp2777
S':'
asbag48
(g69
g50
NtRp2778
(dp2779
g53
(dp2780
sg62
g2765
sg55
(lp2781
g48
(g49
g50
NtRp2782
(dp2783
g53
(dp2784
g61
I3
ssg62
g2778
sg55
(lp2785
g1218
asbasbasbag48
(g64
g50
NtRp2786
(dp2787
g53
(dp2788
sg62
g2488
sg55
(lp2789
g48
(g69
g50
NtRp2790
(dp2791
g53
(dp2792
g73
g74
ssg62
g2786
sg55
(lp2793
S'HTTP_X_REQUESTED_WITH'
p2794
asbag48
(g69
g50
NtRp2795
(dp2796
g53
(dp2797
g80
g81
ssg62
g2786
sg55
(lp2798
S':'
asbag48
(g69
g50
NtRp2799
(dp2800
g53
(dp2801
sg62
g2786
sg55
(lp2802
g48
(g49
g50
NtRp2803
(dp2804
g53
(dp2805
g61
I3
ssg62
g2799
sg55
(lp2806
g1240
asbasbasbag48
(g64
g50
NtRp2807
(dp2808
g53
(dp2809
sg62
g2488
sg55
(lp2810
g48
(g69
g50
NtRp2811
(dp2812
g53
(dp2813
g73
g74
ssg62
g2807
sg55
(lp2814
S'PATH_INFO'
p2815
asbag48
(g69
g50
NtRp2816
(dp2817
g53
(dp2818
g80
g81
ssg62
g2807
sg55
(lp2819
S':'
asbag48
(g69
g50
NtRp2820
(dp2821
g53
(dp2822
sg62
g2807
sg55
(lp2823
g48
(g49
g50
NtRp2824
(dp2825
g53
(dp2826
g61
I3
ssg62
g2820
sg55
(lp2827
g1283
asbasbasbag48
(g64
g50
NtRp2828
(dp2829
g53
(dp2830
sg62
g2488
sg55
(lp2831
g48
(g69
g50
NtRp2832
(dp2833
g53
(dp2834
g73
g74
ssg62
g2828
sg55
(lp2835
S'QUERY_STRING'
p2836
asbag48
(g69
g50
NtRp2837
(dp2838
g53
(dp2839
g80
g81
ssg62
g2828
sg55
(lp2840
S':'
asbag48
(g69
g50
NtRp2841
(dp2842
g53
(dp2843
sg62
g2828
sg55
(lp2844
g48
(g49
g50
NtRp2845
(dp2846
g53
(dp2847
g61
I3
ssg62
g2841
sg55
(lp2848
S''
asbasbasbag48
(g64
g50
NtRp2849
(dp2850
g53
(dp2851
sg62
g2488
sg55
(lp2852
g48
(g69
g50
NtRp2853
(dp2854
g53
(dp2855
g73
g74
ssg62
g2849
sg55
(lp2856
S'REMOTE_ADDR'
p2857
asbag48
(g69
g50
NtRp2858
(dp2859
g53
(dp2860
g80
g81
ssg62
g2849
sg55
(lp2861
S':'
asbag48
(g69
g50
NtRp2862
(dp2863
g53
(dp2864
sg62
g2849
sg55
(lp2865
g48
(g49
g50
NtRp2866
(dp2867
g53
(dp2868
g61
I3
ssg62
g2862
sg55
(lp2869
g181
asbasbasbag48
(g64
g50
NtRp2870
(dp2871
g53
(dp2872
sg62
g2488
sg55
(lp2873
g48
(g69
g50
NtRp2874
(dp2875
g53
(dp2876
g73
g74
ssg62
g2870
sg55
(lp2877
S'REMOTE_PORT'
p2878
asbag48
(g69
g50
NtRp2879
(dp2880
g53
(dp2881
g80
g81
ssg62
g2870
sg55
(lp2882
S':'
asbag48
(g69
g50
NtRp2883
(dp2884
g53
(dp2885
sg62
g2870
sg55
(lp2886
g48
(g49
g50
NtRp2887
(dp2888
g53
(dp2889
g61
I3
ssg62
g2883
sg55
(lp2890
g1347
asbasbasbag48
(g64
g50
NtRp2891
(dp2892
g53
(dp2893
sg62
g2488
sg55
(lp2894
g48
(g69
g50
NtRp2895
(dp2896
g53
(dp2897
g73
g74
ssg62
g2891
sg55
(lp2898
S'REQUEST_METHOD'
p2899
asbag48
(g69
g50
NtRp2900
(dp2901
g53
(dp2902
g80
g81
ssg62
g2891
sg55
(lp2903
S':'
asbag48
(g69
g50
NtRp2904
(dp2905
g53
(dp2906
sg62
g2891
sg55
(lp2907
g48
(g49
g50
NtRp2908
(dp2909
g53
(dp2910
g61
I3
ssg62
g2904
sg55
(lp2911
g1369
asbasbasbag48
(g64
g50
NtRp2912
(dp2913
g53
(dp2914
sg62
g2488
sg55
(lp2915
g48
(g69
g50
NtRp2916
(dp2917
g53
(dp2918
g73
g74
ssg62
g2912
sg55
(lp2919
S'SCRIPT_NAME'
p2920
asbag48
(g69
g50
NtRp2921
(dp2922
g53
(dp2923
g80
g81
ssg62
g2912
sg55
(lp2924
S':'
asbag48
(g69
g50
NtRp2925
(dp2926
g53
(dp2927
sg62
g2912
sg55
(lp2928
g48
(g49
g50
NtRp2929
(dp2930
g53
(dp2931
g61
I3
ssg62
g2925
sg55
(lp2932
S''
asbasbasbag48
(g64
g50
NtRp2933
(dp2934
g53
(dp2935
sg62
g2488
sg55
(lp2936
g48
(g69
g50
NtRp2937
(dp2938
g53
(dp2939
g73
g74
ssg62
g2933
sg55
(lp2940
S'SERVER_NAME'
p2941
asbag48
(g69
g50
NtRp2942
(dp2943
g53
(dp2944
g80
g81
ssg62
g2933
sg55
(lp2945
S':'
asbag48
(g69
g50
NtRp2946
(dp2947
g53
(dp2948
sg62
g2933
sg55
(lp2949
g48
(g49
g50
NtRp2950
(dp2951
g53
(dp2952
g61
I3
ssg62
g2946
sg55
(lp2953
g1412
asbasbasbag48
(g64
g50
NtRp2954
(dp2955
g53
(dp2956
sg62
g2488
sg55
(lp2957
g48
(g69
g50
NtRp2958
(dp2959
g53
(dp2960
g73
g74
ssg62
g2954
sg55
(lp2961
S'SERVER_PORT'
p2962
asbag48
(g69
g50
NtRp2963
(dp2964
g53
(dp2965
g80
g81
ssg62
g2954
sg55
(lp2966
S':'
asbag48
(g69
g50
NtRp2967
(dp2968
g53
(dp2969
sg62
g2954
sg55
(lp2970
g48
(g49
g50
NtRp2971
(dp2972
g53
(dp2973
g61
I3
ssg62
g2967
sg55
(lp2974
g1434
asbasbasbag48
(g64
g50
NtRp2975
(dp2976
g53
(dp2977
sg62
g2488
sg55
(lp2978
g48
(g69
g50
NtRp2979
(dp2980
g53
(dp2981
g73
g74
ssg62
g2975
sg55
(lp2982
S'SERVER_PROTOCOL'
p2983
asbag48
(g69
g50
NtRp2984
(dp2985
g53
(dp2986
g80
g81
ssg62
g2975
sg55
(lp2987
S':'
asbag48
(g69
g50
NtRp2988
(dp2989
g53
(dp2990
sg62
g2975
sg55
(lp2991
g48
(g49
g50
NtRp2992
(dp2993
g53
(dp2994
g61
I3
ssg62
g2988
sg55
(lp2995
g1456
asbasbasbag48
(g64
g50
NtRp2996
(dp2997
g53
(dp2998
sg62
g2488
sg55
(lp2999
g48
(g69
g50
NtRp3000
(dp3001
g53
(dp3002
g73
g74
ssg62
g2996
sg55
(lp3003
S'SERVER_SOFTWARE'
p3004
asbag48
(g69
g50
NtRp3005
(dp3006
g53
(dp3007
g80
g81
ssg62
g2996
sg55
(lp3008
S':'
asbag48
(g69
g50
NtRp3009
(dp3010
g53
(dp3011
sg62
g2996
sg55
(lp3012
g48
(g49
g50
NtRp3013
(dp3014
g53
(dp3015
g61
I3
ssg62
g3009
sg55
(lp3016
g1478
asbasbasbag48
(g64
g50
NtRp3017
(dp3018
g53
(dp3019
sg62
g2488
sg55
(lp3020
g48
(g69
g50
NtRp3021
(dp3022
g53
(dp3023
g73
g74
ssg62
g3017
sg55
(lp3024
S'wsgi.errors'
p3025
asbag48
(g69
g50
NtRp3026
(dp3027
g53
(dp3028
g80
g81
ssg62
g3017
sg55
(lp3029
S':'
asbag48
(g69
g50
NtRp3030
(dp3031
g53
(dp3032
sg62
g3017
sg55
(lp3033
g48
(g49
g50
NtRp3034
(dp3035
g53
(dp3036
g61
I3
ssg62
g3030
sg55
(lp3037
S"<open file '<stderr>', mode 'w' at 0x014F00B0>"
p3038
asbasbasbag48
(g64
g50
NtRp3039
(dp3040
g53
(dp3041
sg62
g2488
sg55
(lp3042
g48
(g69
g50
NtRp3043
(dp3044
g53
(dp3045
g73
g74
ssg62
g3039
sg55
(lp3046
S'wsgi.file_wrapper'
p3047
asbag48
(g69
g50
NtRp3048
(dp3049
g53
(dp3050
g80
g81
ssg62
g3039
sg55
(lp3051
S':'
asbag48
(g69
g50
NtRp3052
(dp3053
g53
(dp3054
sg62
g3039
sg55
(lp3055
g48
(g49
g50
NtRp3056
(dp3057
g53
(dp3058
g61
I3
ssg62
g3052
sg55
(lp3059
S'<class wsgiref.util.FileWrapper at 0x023D9AB0>'
p3060
asbasbasbag48
(g64
g50
NtRp3061
(dp3062
g53
(dp3063
sg62
g2488
sg55
(lp3064
g48
(g69
g50
NtRp3065
(dp3066
g53
(dp3067
g73
g74
ssg62
g3061
sg55
(lp3068
S'wsgi.input'
p3069
asbag48
(g69
g50
NtRp3070
(dp3071
g53
(dp3072
g80
g81
ssg62
g3061
sg55
(lp3073
S':'
asbag48
(g69
g50
NtRp3074
(dp3075
g53
(dp3076
sg62
g3061
sg55
(lp3077
g48
(g49
g50
NtRp3078
(dp3079
g53
(dp3080
g61
I3
ssg62
g3074
sg55
(lp3081
S"<open file '<fdopen>', mode 'w+b' at 0x0284B6E0>"
p3082
asbasbasbag48
(g64
g50
NtRp3083
(dp3084
g53
(dp3085
sg62
g2488
sg55
(lp3086
g48
(g69
g50
NtRp3087
(dp3088
g53
(dp3089
g73
g74
ssg62
g3083
sg55
(lp3090
S'wsgi.multiprocess'
p3091
asbag48
(g69
g50
NtRp3092
(dp3093
g53
(dp3094
g80
g81
ssg62
g3083
sg55
(lp3095
S':'
asbag48
(g69
g50
NtRp3096
(dp3097
g53
(dp3098
sg62
g3083
sg55
(lp3099
g48
(g49
g50
NtRp3100
(dp3101
g53
(dp3102
g61
I3
ssg62
g3096
sg55
(lp3103
g934
asbasbasbag48
(g64
g50
NtRp3104
(dp3105
g53
(dp3106
sg62
g2488
sg55
(lp3107
g48
(g69
g50
NtRp3108
(dp3109
g53
(dp3110
g73
g74
ssg62
g3104
sg55
(lp3111
S'wsgi.multithread'
p3112
asbag48
(g69
g50
NtRp3113
(dp3114
g53
(dp3115
g80
g81
ssg62
g3104
sg55
(lp3116
S':'
asbag48
(g69
g50
NtRp3117
(dp3118
g53
(dp3119
sg62
g3104
sg55
(lp3120
g48
(g49
g50
NtRp3121
(dp3122
g53
(dp3123
g61
I3
ssg62
g3117
sg55
(lp3124
g91
asbasbasbag48
(g64
g50
NtRp3125
(dp3126
g53
(dp3127
sg62
g2488
sg55
(lp3128
g48
(g69
g50
NtRp3129
(dp3130
g53
(dp3131
g73
g74
ssg62
g3125
sg55
(lp3132
S'wsgi.run_once'
p3133
asbag48
(g69
g50
NtRp3134
(dp3135
g53
(dp3136
g80
g81
ssg62
g3125
sg55
(lp3137
S':'
asbag48
(g69
g50
NtRp3138
(dp3139
g53
(dp3140
sg62
g3125
sg55
(lp3141
g48
(g49
g50
NtRp3142
(dp3143
g53
(dp3144
g61
I3
ssg62
g3138
sg55
(lp3145
g934
asbasbasbag48
(g64
g50
NtRp3146
(dp3147
g53
(dp3148
sg62
g2488
sg55
(lp3149
g48
(g69
g50
NtRp3150
(dp3151
g53
(dp3152
g73
g74
ssg62
g3146
sg55
(lp3153
S'wsgi.url_scheme'
p3154
asbag48
(g69
g50
NtRp3155
(dp3156
g53
(dp3157
g80
g81
ssg62
g3146
sg55
(lp3158
S':'
asbag48
(g69
g50
NtRp3159
(dp3160
g53
(dp3161
sg62
g3146
sg55
(lp3162
g48
(g49
g50
NtRp3163
(dp3164
g53
(dp3165
g61
I3
ssg62
g3159
sg55
(lp3166
g1760
asbasbasbag48
(g64
g50
NtRp3167
(dp3168
g53
(dp3169
sg62
g2488
sg55
(lp3170
g48
(g69
g50
NtRp3171
(dp3172
g53
(dp3173
g73
g74
ssg62
g3167
sg55
(lp3174
S'wsgi.version'
p3175
asbag48
(g69
g50
NtRp3176
(dp3177
g53
(dp3178
g80
g81
ssg62
g3167
sg55
(lp3179
S':'
asbag48
(g69
g50
NtRp3180
(dp3181
g53
(dp3182
sg62
g3167
sg55
(lp3183
g48
(g49
g50
NtRp3184
(dp3185
g53
(dp3186
g61
I3
ssg62
g3180
sg55
(lp3187
S'1'
asbasbasbasbasbasbasbasbasbasbasbasbasbsS'frames'
p3188
(lp3189
(dp3190
S'file'
p3191
S'C:\\Python32\\web2py_win\\web2py\\gluon\\restricted.py'
p3192
sS'dump'
p3193
(dp3194
sS'lnum'
p3195
I194
sS'lines'
p3196
(dp3197
sS'call'
p3198
S"(code='# -*- coding: utf-8 -*-\\n### required - do no del...esponse._vars=response._caller(obtenerCategoria)\\n', environment={'A': <class 'gluon.html.A'>, 'Auth': <class 'gluon.tools.Auth'>, 'B': <class 'gluon.html.B'>, 'BEAUTIFY': <class 'gluon.html.BEAUTIFY'>, 'BODY': <class 'gluon.html.BODY'>, 'BR': <class 'gluon.html.BR'>, 'BUTTON': <class 'gluon.html.BUTTON'>, 'CAT': <class 'gluon.html.CAT'>, 'CENTER': <class 'gluon.html.CENTER'>, 'CLEANUP': <class 'gluon.validators.CLEANUP'>, ...}, layer=r'C:\\Python32\\web2py_win\\web2py\\applications\\Casa_de_Apuestas\\controllers/default.py')"
p3199
sS'func'
p3200
S'restricted'
p3201
sa(dp3202
g3191
S'C:\\Python32\\web2py_win\\web2py\\applications\\Casa_de_Apuestas\\controllers\\default.py'
p3203
sg3193
(dp3204
sg3195
I208
sg3196
(dp3205
I197
S'    return dict(eventos=eventos)'
p3206
sI198
S''
sI199
S'def verProximosEventos2():'
p3207
sI200
S'    evento_participante= db((db.eventosparticipantes.eventos_id==request.args(0))& (db.participantes.id==db.eventosparticipantes.participantes_id)).select()'
p3208
sI201
S'    evento = db(db.eventos.id==request.args(0)).select()'
p3209
sI202
S'    categoria = db((db.categorias.id==db.eventos.categoria_id)& (db.eventos.id==request.args(0))).select()'
p3210
sI203
S'    return dict(evento_participante=evento_participante,evento=evento,categoria=categoria)'
p3211
sI204
S''
sI205
S'def indexPublico():'
p3212
sI206
S'    return dict()'
p3213
ssg3198
S'()'
p3214
sg3200
S'<module>'
p3215
sa(dp3216
g3191
S'C:\\Python32\\web2py_win\\web2py\\gluon\\globals.py'
p3217
sg3193
(dp3218
sg3195
I149
sg3196
(dp3219
sg3198
S'(f=<function obtenerCategoria at 0x065ED2F0>)'
p3220
sg3200
S'<lambda>'
p3221
sa(dp3222
g3191
S'C:\\Python32\\web2py_win\\web2py\\applications\\Casa_de_Apuestas\\controllers\\default.py'
p3223
sg3193
(dp3224
sg3195
I58
sg3196
(dp3225
I53
S"        return ''.join([DIV(k,"
p3226
sI54
S'                     _onclick="jQuery(\'#categorias\').val(\'%s\')" % k.nombre +'
p3227
sI55
S'                     ";document.getElementById(\'sugerencias\').innerHTML = \'\';",'
p3228
sI56
S'                     _onmouseover="this.style.backgroundColor=\'yellow\'",'
p3229
sI57
S'                     _onmouseout="this.style.backgroundColor=\'white\'"'
p3230
sI58
S'                     ).xml() for k in seleccionado])'
p3231
sI59
S''
sI60
S'def crearEvento():'
p3232
sI61
S'        eventos = db().select(db.eventos.ALL)'
p3233
sI62
S'        form = crud.create(db.eventos)'
p3234
ssg3198
S'()'
p3235
sg3200
S'obtenerCategoria'
p3236
sasS'pyver'
p3237
S'Python 2.5.4: C:\\Python32\\web2py_win\\web2py\\web2py.exe'
p3238
sS'session'
p3239
g48
(g49
g50
NtRp3240
(dp3241
g53
(dp3242
sg55
(lp3243
g48
(g57
g50
NtRp3244
(dp3245
g53
(dp3246
g61
I5
ssg62
Nsg55
(lp3247
g48
(g64
g50
NtRp3248
(dp3249
g53
(dp3250
sg62
g3244
sg55
(lp3251
g48
(g69
g50
NtRp3252
(dp3253
g53
(dp3254
g73
g74
ssg62
g3248
sg55
(lp3255
S'last_query'
p3256
asbag48
(g69
g50
NtRp3257
(dp3258
g53
(dp3259
g80
g81
ssg62
g3248
sg55
(lp3260
S':'
asbag48
(g69
g50
NtRp3261
(dp3262
g53
(dp3263
sg62
g3248
sg55
(lp3264
g48
(g49
g50
NtRp3265
(dp3266
g53
(dp3267
g61
I5
ssg62
g3261
sg55
(lp3268
S'db.eventos.id>0'
p3269
asbasbasbasbasbsS'etype'
p3270
S"<type 'exceptions.AttributeError'>"
p3271
sS'date'
p3272
S'Sun Dec 25 13:39:36 2011'
p3273
sS'response'
p3274
g48
(g49
g50
NtRp3275
(dp3276
g53
(dp3277
sg55
(lp3278
g48
(g57
g50
NtRp3279
(dp3280
g53
(dp3281
g61
I5
ssg62
Nsg55
(lp3282
g48
(g64
g50
NtRp3283
(dp3284
g53
(dp3285
sg62
g3279
sg55
(lp3286
g48
(g69
g50
NtRp3287
(dp3288
g53
(dp3289
g73
g74
ssg62
g3283
sg55
(lp3290
g146
asbag48
(g69
g50
NtRp3291
(dp3292
g53
(dp3293
g80
g81
ssg62
g3283
sg55
(lp3294
S':'
asbag48
(g69
g50
NtRp3295
(dp3296
g53
(dp3297
sg62
g3283
sg55
(lp3298
g48
(g49
g50
NtRp3299
(dp3300
g53
(dp3301
g61
I5
ssg62
g3295
sg55
(lp3302
S'<cStringIO.StringO object at 0x06C720C0>'
p3303
asbasbasbag48
(g64
g50
NtRp3304
(dp3305
g53
(dp3306
sg62
g3279
sg55
(lp3307
g48
(g69
g50
NtRp3308
(dp3309
g53
(dp3310
g73
g74
ssg62
g3304
sg55
(lp3311
g212
asbag48
(g69
g50
NtRp3312
(dp3313
g53
(dp3314
g80
g81
ssg62
g3304
sg55
(lp3315
S':'
asbag48
(g69
g50
NtRp3316
(dp3317
g53
(dp3318
sg62
g3304
sg55
(lp3319
g48
(g49
g50
NtRp3320
(dp3321
g53
(dp3322
g61
I5
ssg62
g3316
sg55
(lp3323
g48
(g57
g50
NtRp3324
(dp3325
g53
(dp3326
g61
I4
ssg62
Nsg55
(lp3327
g48
(g64
g50
NtRp3328
(dp3329
g53
(dp3330
sg62
g3324
sg55
(lp3331
g48
(g69
g50
NtRp3332
(dp3333
g53
(dp3334
g73
g74
ssg62
g3328
sg55
(lp3335
S'session_id_casa_de_apuestas'
p3336
asbag48
(g69
g50
NtRp3337
(dp3338
g53
(dp3339
g80
g81
ssg62
g3328
sg55
(lp3340
S':'
asbag48
(g69
g50
NtRp3341
(dp3342
g53
(dp3343
sg62
g3328
sg55
(lp3344
g48
(g49
g50
NtRp3345
(dp3346
g53
(dp3347
g61
I4
ssg62
g3341
sg55
(lp3348
g48
(g57
g50
NtRp3349
(dp3350
g53
(dp3351
g61
I3
ssg62
Nsg55
(lp3352
g48
(g64
g50
NtRp3353
(dp3354
g53
(dp3355
sg62
g3349
sg55
(lp3356
g48
(g69
g50
NtRp3357
(dp3358
g53
(dp3359
g73
g74
ssg62
g3353
sg55
(lp3360
g262
asbag48
(g69
g50
NtRp3361
(dp3362
g53
(dp3363
g80
g81
ssg62
g3353
sg55
(lp3364
S':'
asbag48
(g69
g50
NtRp3365
(dp3366
g53
(dp3367
sg62
g3353
sg55
(lp3368
g48
(g49
g50
NtRp3369
(dp3370
g53
(dp3371
g61
I3
ssg62
g3365
sg55
(lp3372
S''
asbasbasbag48
(g64
g50
NtRp3373
(dp3374
g53
(dp3375
sg62
g3349
sg55
(lp3376
g48
(g69
g50
NtRp3377
(dp3378
g53
(dp3379
g73
g74
ssg62
g3373
sg55
(lp3380
g283
asbag48
(g69
g50
NtRp3381
(dp3382
g53
(dp3383
g80
g81
ssg62
g3373
sg55
(lp3384
S':'
asbag48
(g69
g50
NtRp3385
(dp3386
g53
(dp3387
sg62
g3373
sg55
(lp3388
g48
(g49
g50
NtRp3389
(dp3390
g53
(dp3391
g61
I3
ssg62
g3385
sg55
(lp3392
S''
asbasbasbag48
(g64
g50
NtRp3393
(dp3394
g53
(dp3395
sg62
g3349
sg55
(lp3396
g48
(g69
g50
NtRp3397
(dp3398
g53
(dp3399
g73
g74
ssg62
g3393
sg55
(lp3400
g304
asbag48
(g69
g50
NtRp3401
(dp3402
g53
(dp3403
g80
g81
ssg62
g3393
sg55
(lp3404
S':'
asbag48
(g69
g50
NtRp3405
(dp3406
g53
(dp3407
sg62
g3393
sg55
(lp3408
g48
(g49
g50
NtRp3409
(dp3410
g53
(dp3411
g61
I3
ssg62
g3405
sg55
(lp3412
S''
asbasbasbag48
(g64
g50
NtRp3413
(dp3414
g53
(dp3415
sg62
g3349
sg55
(lp3416
g48
(g69
g50
NtRp3417
(dp3418
g53
(dp3419
g73
g74
ssg62
g3413
sg55
(lp3420
g325
asbag48
(g69
g50
NtRp3421
(dp3422
g53
(dp3423
g80
g81
ssg62
g3413
sg55
(lp3424
S':'
asbag48
(g69
g50
NtRp3425
(dp3426
g53
(dp3427
sg62
g3413
sg55
(lp3428
g48
(g49
g50
NtRp3429
(dp3430
g53
(dp3431
g61
I3
ssg62
g3425
sg55
(lp3432
S''
asbasbasbag48
(g64
g50
NtRp3433
(dp3434
g53
(dp3435
sg62
g3349
sg55
(lp3436
g48
(g69
g50
NtRp3437
(dp3438
g53
(dp3439
g73
g74
ssg62
g3433
sg55
(lp3440
g346
asbag48
(g69
g50
NtRp3441
(dp3442
g53
(dp3443
g80
g81
ssg62
g3433
sg55
(lp3444
S':'
asbag48
(g69
g50
NtRp3445
(dp3446
g53
(dp3447
sg62
g3433
sg55
(lp3448
g48
(g49
g50
NtRp3449
(dp3450
g53
(dp3451
g61
I3
ssg62
g3445
sg55
(lp3452
S'/'
asbasbasbag48
(g64
g50
NtRp3453
(dp3454
g53
(dp3455
sg62
g3349
sg55
(lp3456
g48
(g69
g50
NtRp3457
(dp3458
g53
(dp3459
g73
g74
ssg62
g3453
sg55
(lp3460
g367
asbag48
(g69
g50
NtRp3461
(dp3462
g53
(dp3463
g80
g81
ssg62
g3453
sg55
(lp3464
S':'
asbag48
(g69
g50
NtRp3465
(dp3466
g53
(dp3467
sg62
g3453
sg55
(lp3468
g48
(g49
g50
NtRp3469
(dp3470
g53
(dp3471
g61
I3
ssg62
g3465
sg55
(lp3472
S''
asbasbasbag48
(g64
g50
NtRp3473
(dp3474
g53
(dp3475
sg62
g3349
sg55
(lp3476
g48
(g69
g50
NtRp3477
(dp3478
g53
(dp3479
g73
g74
ssg62
g3473
sg55
(lp3480
g388
asbag48
(g69
g50
NtRp3481
(dp3482
g53
(dp3483
g80
g81
ssg62
g3473
sg55
(lp3484
S':'
asbag48
(g69
g50
NtRp3485
(dp3486
g53
(dp3487
sg62
g3473
sg55
(lp3488
g48
(g49
g50
NtRp3489
(dp3490
g53
(dp3491
g61
I3
ssg62
g3485
sg55
(lp3492
S''
asbasbasbasbasbasbasbasbasbasbasbag48
(g64
g50
NtRp3493
(dp3494
g53
(dp3495
sg62
g3279
sg55
(lp3496
g48
(g69
g50
NtRp3497
(dp3498
g53
(dp3499
g73
g74
ssg62
g3493
sg55
(lp3500
S'files'
p3501
asbag48
(g69
g50
NtRp3502
(dp3503
g53
(dp3504
g80
g81
ssg62
g3493
sg55
(lp3505
S':'
asbag48
(g69
g50
NtRp3506
(dp3507
g53
(dp3508
sg62
g3493
sg55
(lp3509
g48
(g49
g50
NtRp3510
(dp3511
g53
(dp3512
g61
I5
ssg62
g3506
sg55
(lp3513
g48
(g57
g50
NtRp3514
(dp3515
g53
(dp3516
g61
I4
ssg62
Nsg55
(lp3517
sbasbasbasbag48
(g64
g50
NtRp3518
(dp3519
g53
(dp3520
sg62
g3279
sg55
(lp3521
g48
(g69
g50
NtRp3522
(dp3523
g53
(dp3524
g73
g74
ssg62
g3518
sg55
(lp3525
S'flash'
p3526
asbag48
(g69
g50
NtRp3527
(dp3528
g53
(dp3529
g80
g81
ssg62
g3518
sg55
(lp3530
S':'
asbag48
(g69
g50
NtRp3531
(dp3532
g53
(dp3533
sg62
g3518
sg55
(lp3534
g48
(g49
g50
NtRp3535
(dp3536
g53
(dp3537
g61
I5
ssg62
g3531
sg55
(lp3538
S''
asbasbasbag48
(g64
g50
NtRp3539
(dp3540
g53
(dp3541
sg62
g3279
sg55
(lp3542
g48
(g69
g50
NtRp3543
(dp3544
g53
(dp3545
g73
g74
ssg62
g3539
sg55
(lp3546
S'generic_patterns'
p3547
asbag48
(g69
g50
NtRp3548
(dp3549
g53
(dp3550
g80
g81
ssg62
g3539
sg55
(lp3551
S':'
asbag48
(g69
g50
NtRp3552
(dp3553
g53
(dp3554
sg62
g3539
sg55
(lp3555
g48
(g49
g50
NtRp3556
(dp3557
g53
(dp3558
g61
I5
ssg62
g3552
sg55
(lp3559
g48
(g57
g50
NtRp3560
(dp3561
g53
(dp3562
g61
I4
ssg62
Nsg55
(lp3563
g48
(g64
g50
NtRp3564
(dp3565
g53
(dp3566
sg62
g3560
sg55
(lp3567
g48
(g69
g50
NtRp3568
(dp3569
g53
(dp3570
sg62
g3564
sg55
(lp3571
g48
(g49
g50
NtRp3572
(dp3573
g53
(dp3574
g61
I4
ssg62
g3568
sg55
(lp3575
S'*'
asbasbasbasbasbasbasbag48
(g64
g50
NtRp3576
(dp3577
g53
(dp3578
sg62
g3279
sg55
(lp3579
g48
(g69
g50
NtRp3580
(dp3581
g53
(dp3582
g73
g74
ssg62
g3576
sg55
(lp3583
S'headers'
p3584
asbag48
(g69
g50
NtRp3585
(dp3586
g53
(dp3587
g80
g81
ssg62
g3576
sg55
(lp3588
S':'
asbag48
(g69
g50
NtRp3589
(dp3590
g53
(dp3591
sg62
g3576
sg55
(lp3592
g48
(g49
g50
NtRp3593
(dp3594
g53
(dp3595
g61
I5
ssg62
g3589
sg55
(lp3596
g48
(g57
g50
NtRp3597
(dp3598
g53
(dp3599
g61
I4
ssg62
Nsg55
(lp3600
g48
(g64
g50
NtRp3601
(dp3602
g53
(dp3603
sg62
g3597
sg55
(lp3604
g48
(g69
g50
NtRp3605
(dp3606
g53
(dp3607
g73
g74
ssg62
g3601
sg55
(lp3608
S'Cache-Control'
p3609
asbag48
(g69
g50
NtRp3610
(dp3611
g53
(dp3612
g80
g81
ssg62
g3601
sg55
(lp3613
S':'
asbag48
(g69
g50
NtRp3614
(dp3615
g53
(dp3616
sg62
g3601
sg55
(lp3617
g48
(g49
g50
NtRp3618
(dp3619
g53
(dp3620
g61
I4
ssg62
g3614
sg55
(lp3621
S'no-store, no-cache, must-revalidate, post-check=0, pre-check=0'
p3622
asbasbasbag48
(g64
g50
NtRp3623
(dp3624
g53
(dp3625
sg62
g3597
sg55
(lp3626
g48
(g69
g50
NtRp3627
(dp3628
g53
(dp3629
g73
g74
ssg62
g3623
sg55
(lp3630
S'Content-Type'
p3631
asbag48
(g69
g50
NtRp3632
(dp3633
g53
(dp3634
g80
g81
ssg62
g3623
sg55
(lp3635
S':'
asbag48
(g69
g50
NtRp3636
(dp3637
g53
(dp3638
sg62
g3623
sg55
(lp3639
g48
(g49
g50
NtRp3640
(dp3641
g53
(dp3642
g61
I4
ssg62
g3636
sg55
(lp3643
S'text/html; charset=utf-8'
p3644
asbasbasbag48
(g64
g50
NtRp3645
(dp3646
g53
(dp3647
sg62
g3597
sg55
(lp3648
g48
(g69
g50
NtRp3649
(dp3650
g53
(dp3651
g73
g74
ssg62
g3645
sg55
(lp3652
S'Expires'
p3653
asbag48
(g69
g50
NtRp3654
(dp3655
g53
(dp3656
g80
g81
ssg62
g3645
sg55
(lp3657
S':'
asbag48
(g69
g50
NtRp3658
(dp3659
g53
(dp3660
sg62
g3645
sg55
(lp3661
g48
(g49
g50
NtRp3662
(dp3663
g53
(dp3664
g61
I4
ssg62
g3658
sg55
(lp3665
S'Sun, 25 Dec 2011 18:09:36 GMT'
p3666
asbasbasbag48
(g64
g50
NtRp3667
(dp3668
g53
(dp3669
sg62
g3597
sg55
(lp3670
g48
(g69
g50
NtRp3671
(dp3672
g53
(dp3673
g73
g74
ssg62
g3667
sg55
(lp3674
S'Pragma'
p3675
asbag48
(g69
g50
NtRp3676
(dp3677
g53
(dp3678
g80
g81
ssg62
g3667
sg55
(lp3679
S':'
asbag48
(g69
g50
NtRp3680
(dp3681
g53
(dp3682
sg62
g3667
sg55
(lp3683
g48
(g49
g50
NtRp3684
(dp3685
g53
(dp3686
g61
I4
ssg62
g3680
sg55
(lp3687
S'no-cache'
p3688
asbasbasbag48
(g64
g50
NtRp3689
(dp3690
g53
(dp3691
sg62
g3597
sg55
(lp3692
g48
(g69
g50
NtRp3693
(dp3694
g53
(dp3695
g73
g74
ssg62
g3689
sg55
(lp3696
S'X-Powered-By'
p3697
asbag48
(g69
g50
NtRp3698
(dp3699
g53
(dp3700
g80
g81
ssg62
g3689
sg55
(lp3701
S':'
asbag48
(g69
g50
NtRp3702
(dp3703
g53
(dp3704
sg62
g3689
sg55
(lp3705
g48
(g49
g50
NtRp3706
(dp3707
g53
(dp3708
g61
I4
ssg62
g3702
sg55
(lp3709
S'web2py'
p3710
asbasbasbasbasbasbasbag48
(g64
g50
NtRp3711
(dp3712
g53
(dp3713
sg62
g3279
sg55
(lp3714
g48
(g69
g50
NtRp3715
(dp3716
g53
(dp3717
g73
g74
ssg62
g3711
sg55
(lp3718
S'menu'
p3719
asbag48
(g69
g50
NtRp3720
(dp3721
g53
(dp3722
g80
g81
ssg62
g3711
sg55
(lp3723
S':'
asbag48
(g69
g50
NtRp3724
(dp3725
g53
(dp3726
sg62
g3711
sg55
(lp3727
g48
(g49
g50
NtRp3728
(dp3729
g53
(dp3730
g61
I5
ssg62
g3724
sg55
(lp3731
g48
(g57
g50
NtRp3732
(dp3733
g53
(dp3734
g61
I4
ssg62
Nsg55
(lp3735
g48
(g64
g50
NtRp3736
(dp3737
g53
(dp3738
sg62
g3732
sg55
(lp3739
g48
(g69
g50
NtRp3740
(dp3741
g53
(dp3742
sg62
g3736
sg55
(lp3743
g48
(g49
g50
NtRp3744
(dp3745
g53
(dp3746
g61
I4
ssg62
g3740
sg55
(lp3747
g48
(g57
g50
NtRp3748
(dp3749
g53
(dp3750
g61
I3
ssg62
Nsg55
(lp3751
g48
(g64
g50
NtRp3752
(dp3753
g53
(dp3754
sg62
g3748
sg55
(lp3755
g48
(g69
g50
NtRp3756
(dp3757
g53
(dp3758
sg62
g3752
sg55
(lp3759
g48
(g49
g50
NtRp3760
(dp3761
g53
(dp3762
g61
I3
ssg62
g3756
sg55
(lp3763
cgluon.languages
lazyT_unpickle
p3764
(S's\x05\x00\x00\x00Index'
tRp3765
asbasbasbag48
(g64
g50
NtRp3766
(dp3767
g53
(dp3768
sg62
g3748
sg55
(lp3769
g48
(g69
g50
NtRp3770
(dp3771
g53
(dp3772
sg62
g3766
sg55
(lp3773
g48
(g49
g50
NtRp3774
(dp3775
g53
(dp3776
g61
I3
ssg62
g3770
sg55
(lp3777
g934
asbasbasbag48
(g64
g50
NtRp3778
(dp3779
g53
(dp3780
sg62
g3748
sg55
(lp3781
g48
(g69
g50
NtRp3782
(dp3783
g53
(dp3784
sg62
g3778
sg55
(lp3785
g48
(g49
g50
NtRp3786
(dp3787
g53
(dp3788
g61
I3
ssg62
g3782
sg55
(lp3789
S'/Casa_de_Apuestas/default/index'
p3790
asbasbasbag48
(g64
g50
NtRp3791
(dp3792
g53
(dp3793
sg62
g3748
sg55
(lp3794
g48
(g69
g50
NtRp3795
(dp3796
g53
(dp3797
sg62
g3791
sg55
(lp3798
g48
(g49
g50
NtRp3799
(dp3800
g53
(dp3801
g61
I3
ssg62
g3795
sg55
(lp3802
g48
(g57
g50
NtRp3803
(dp3804
g53
(dp3805
g61
I2
ssg62
Nsg55
(lp3806
sbasbasbasbasbasbasbasbasbasbasbasbag48
(g64
g50
NtRp3807
(dp3808
g53
(dp3809
sg62
g3279
sg55
(lp3810
g48
(g69
g50
NtRp3811
(dp3812
g53
(dp3813
g73
g74
ssg62
g3807
sg55
(lp3814
S'meta'
p3815
asbag48
(g69
g50
NtRp3816
(dp3817
g53
(dp3818
g80
g81
ssg62
g3807
sg55
(lp3819
S':'
asbag48
(g69
g50
NtRp3820
(dp3821
g53
(dp3822
sg62
g3807
sg55
(lp3823
g48
(g49
g50
NtRp3824
(dp3825
g53
(dp3826
g61
I5
ssg62
g3820
sg55
(lp3827
g48
(g57
g50
NtRp3828
(dp3829
g53
(dp3830
g61
I4
ssg62
Nsg55
(lp3831
g48
(g64
g50
NtRp3832
(dp3833
g53
(dp3834
sg62
g3828
sg55
(lp3835
g48
(g69
g50
NtRp3836
(dp3837
g53
(dp3838
g73
g74
ssg62
g3832
sg55
(lp3839
S'author'
p3840
asbag48
(g69
g50
NtRp3841
(dp3842
g53
(dp3843
g80
g81
ssg62
g3832
sg55
(lp3844
S':'
asbag48
(g69
g50
NtRp3845
(dp3846
g53
(dp3847
sg62
g3832
sg55
(lp3848
g48
(g49
g50
NtRp3849
(dp3850
g53
(dp3851
g61
I4
ssg62
g3845
sg55
(lp3852
S'JSG Systems <jsg@example.com>'
p3853
asbasbasbag48
(g64
g50
NtRp3854
(dp3855
g53
(dp3856
sg62
g3828
sg55
(lp3857
g48
(g69
g50
NtRp3858
(dp3859
g53
(dp3860
g73
g74
ssg62
g3854
sg55
(lp3861
S'description'
p3862
asbag48
(g69
g50
NtRp3863
(dp3864
g53
(dp3865
g80
g81
ssg62
g3854
sg55
(lp3866
S':'
asbag48
(g69
g50
NtRp3867
(dp3868
g53
(dp3869
sg62
g3854
sg55
(lp3870
g48
(g49
g50
NtRp3871
(dp3872
g53
(dp3873
g61
I4
ssg62
g3867
sg55
(lp3874
S''
asbasbasbag48
(g64
g50
NtRp3875
(dp3876
g53
(dp3877
sg62
g3828
sg55
(lp3878
g48
(g69
g50
NtRp3879
(dp3880
g53
(dp3881
g73
g74
ssg62
g3875
sg55
(lp3882
S'keywords'
p3883
asbag48
(g69
g50
NtRp3884
(dp3885
g53
(dp3886
g80
g81
ssg62
g3875
sg55
(lp3887
S':'
asbag48
(g69
g50
NtRp3888
(dp3889
g53
(dp3890
sg62
g3875
sg55
(lp3891
g48
(g49
g50
NtRp3892
(dp3893
g53
(dp3894
g61
I4
ssg62
g3888
sg55
(lp3895
S'casa, apuestas'
p3896
asbasbasbasbasbasbasbag48
(g64
g50
NtRp3897
(dp3898
g53
(dp3899
sg62
g3279
sg55
(lp3900
g48
(g69
g50
NtRp3901
(dp3902
g53
(dp3903
g73
g74
ssg62
g3897
sg55
(lp3904
S'postprocessing'
p3905
asbag48
(g69
g50
NtRp3906
(dp3907
g53
(dp3908
g80
g81
ssg62
g3897
sg55
(lp3909
S':'
asbag48
(g69
g50
NtRp3910
(dp3911
g53
(dp3912
sg62
g3897
sg55
(lp3913
g48
(g49
g50
NtRp3914
(dp3915
g53
(dp3916
g61
I5
ssg62
g3910
sg55
(lp3917
g48
(g57
g50
NtRp3918
(dp3919
g53
(dp3920
g61
I4
ssg62
Nsg55
(lp3921
sbasbasbasbag48
(g64
g50
NtRp3922
(dp3923
g53
(dp3924
sg62
g3279
sg55
(lp3925
g48
(g69
g50
NtRp3926
(dp3927
g53
(dp3928
g73
g74
ssg62
g3922
sg55
(lp3929
S'session_file'
p3930
asbag48
(g69
g50
NtRp3931
(dp3932
g53
(dp3933
g80
g81
ssg62
g3922
sg55
(lp3934
S':'
asbag48
(g69
g50
NtRp3935
(dp3936
g53
(dp3937
sg62
g3922
sg55
(lp3938
g48
(g49
g50
NtRp3939
(dp3940
g53
(dp3941
g61
I5
ssg62
g3935
sg55
(lp3942
S"<open file 'C:\\Python32\\web2py_win\\web2py\\applications\\Casa_de_Apuestas\\sessions\\127.0.0.1-620e4e48-b9ab-46bd-a58d-617594f1c170', mode 'rb+' at 0x0284B9F8>"
p3943
asbasbasbag48
(g64
g50
NtRp3944
(dp3945
g53
(dp3946
sg62
g3279
sg55
(lp3947
g48
(g69
g50
NtRp3948
(dp3949
g53
(dp3950
g73
g74
ssg62
g3944
sg55
(lp3951
S'session_filename'
p3952
asbag48
(g69
g50
NtRp3953
(dp3954
g53
(dp3955
g80
g81
ssg62
g3944
sg55
(lp3956
S':'
asbag48
(g69
g50
NtRp3957
(dp3958
g53
(dp3959
sg62
g3944
sg55
(lp3960
g48
(g49
g50
NtRp3961
(dp3962
g53
(dp3963
g61
I5
ssg62
g3957
sg55
(lp3964
S'C:\\Python32\\web2py_win\\web2py\\applications\\Casa_de_Apuestas\\sessions\\127.0.0.1-620e4e48-b9ab-46bd-a58d-617594f1c170'
p3965
asbasbasbag48
(g64
g50
NtRp3966
(dp3967
g53
(dp3968
sg62
g3279
sg55
(lp3969
g48
(g69
g50
NtRp3970
(dp3971
g53
(dp3972
g73
g74
ssg62
g3966
sg55
(lp3973
S'session_id'
p3974
asbag48
(g69
g50
NtRp3975
(dp3976
g53
(dp3977
g80
g81
ssg62
g3966
sg55
(lp3978
S':'
asbag48
(g69
g50
NtRp3979
(dp3980
g53
(dp3981
sg62
g3966
sg55
(lp3982
g48
(g49
g50
NtRp3983
(dp3984
g53
(dp3985
g61
I5
ssg62
g3979
sg55
(lp3986
S'127.0.0.1-620e4e48-b9ab-46bd-a58d-617594f1c170'
p3987
asbasbasbag48
(g64
g50
NtRp3988
(dp3989
g53
(dp3990
sg62
g3279
sg55
(lp3991
g48
(g69
g50
NtRp3992
(dp3993
g53
(dp3994
g73
g74
ssg62
g3988
sg55
(lp3995
S'session_id_name'
p3996
asbag48
(g69
g50
NtRp3997
(dp3998
g53
(dp3999
g80
g81
ssg62
g3988
sg55
(lp4000
S':'
asbag48
(g69
g50
NtRp4001
(dp4002
g53
(dp4003
sg62
g3988
sg55
(lp4004
g48
(g49
g50
NtRp4005
(dp4006
g53
(dp4007
g61
I5
ssg62
g4001
sg55
(lp4008
g3336
asbasbasbag48
(g64
g50
NtRp4009
(dp4010
g53
(dp4011
sg62
g3279
sg55
(lp4012
g48
(g69
g50
NtRp4013
(dp4014
g53
(dp4015
g73
g74
ssg62
g4009
sg55
(lp4016
S'session_locked'
p4017
asbag48
(g69
g50
NtRp4018
(dp4019
g53
(dp4020
g80
g81
ssg62
g4009
sg55
(lp4021
S':'
asbag48
(g69
g50
NtRp4022
(dp4023
g53
(dp4024
sg62
g4009
sg55
(lp4025
g48
(g49
g50
NtRp4026
(dp4027
g53
(dp4028
g61
I5
ssg62
g4022
sg55
(lp4029
g91
asbasbasbag48
(g64
g50
NtRp4030
(dp4031
g53
(dp4032
sg62
g3279
sg55
(lp4033
g48
(g69
g50
NtRp4034
(dp4035
g53
(dp4036
g73
g74
ssg62
g4030
sg55
(lp4037
S'session_new'
p4038
asbag48
(g69
g50
NtRp4039
(dp4040
g53
(dp4041
g80
g81
ssg62
g4030
sg55
(lp4042
S':'
asbag48
(g69
g50
NtRp4043
(dp4044
g53
(dp4045
sg62
g4030
sg55
(lp4046
g48
(g49
g50
NtRp4047
(dp4048
g53
(dp4049
g61
I5
ssg62
g4043
sg55
(lp4050
g934
asbasbasbag48
(g64
g50
NtRp4051
(dp4052
g53
(dp4053
sg62
g3279
sg55
(lp4054
g48
(g69
g50
NtRp4055
(dp4056
g53
(dp4057
g73
g74
ssg62
g4051
sg55
(lp4058
S'status'
p4059
asbag48
(g69
g50
NtRp4060
(dp4061
g53
(dp4062
g80
g81
ssg62
g4051
sg55
(lp4063
S':'
asbag48
(g69
g50
NtRp4064
(dp4065
g53
(dp4066
sg62
g4051
sg55
(lp4067
g48
(g49
g50
NtRp4068
(dp4069
g53
(dp4070
g61
I5
ssg62
g4064
sg55
(lp4071
S'200'
p4072
asbasbasbag48
(g64
g50
NtRp4073
(dp4074
g53
(dp4075
sg62
g3279
sg55
(lp4076
g48
(g69
g50
NtRp4077
(dp4078
g53
(dp4079
g73
g74
ssg62
g4073
sg55
(lp4080
S'subtitle'
p4081
asbag48
(g69
g50
NtRp4082
(dp4083
g53
(dp4084
g80
g81
ssg62
g4073
sg55
(lp4085
S':'
asbag48
(g69
g50
NtRp4086
(dp4087
g53
(dp4088
sg62
g4073
sg55
(lp4089
g48
(g49
g50
NtRp4090
(dp4091
g53
(dp4092
g61
I5
ssg62
g4086
sg55
(lp4093
S''
asbasbasbag48
(g64
g50
NtRp4094
(dp4095
g53
(dp4096
sg62
g3279
sg55
(lp4097
g48
(g69
g50
NtRp4098
(dp4099
g53
(dp4100
g73
g74
ssg62
g4094
sg55
(lp4101
S'title'
p4102
asbag48
(g69
g50
NtRp4103
(dp4104
g53
(dp4105
g80
g81
ssg62
g4094
sg55
(lp4106
S':'
asbag48
(g69
g50
NtRp4107
(dp4108
g53
(dp4109
sg62
g4094
sg55
(lp4110
g48
(g49
g50
NtRp4111
(dp4112
g53
(dp4113
g61
I5
ssg62
g4107
sg55
(lp4114
S'Casa de Apuestas'
p4115
asbasbasbag48
(g64
g50
NtRp4116
(dp4117
g53
(dp4118
sg62
g3279
sg55
(lp4119
g48
(g69
g50
NtRp4120
(dp4121
g53
(dp4122
g73
g74
ssg62
g4116
sg55
(lp4123
g2383
asbag48
(g69
g50
NtRp4124
(dp4125
g53
(dp4126
g80
g81
ssg62
g4116
sg55
(lp4127
S':'
asbag48
(g69
g50
NtRp4128
(dp4129
g53
(dp4130
sg62
g4116
sg55
(lp4131
g48
(g49
g50
NtRp4132
(dp4133
g53
(dp4134
g61
I5
ssg62
g4128
sg55
(lp4135
g2396
asbasbasbag48
(g64
g50
NtRp4136
(dp4137
g53
(dp4138
sg62
g3279
sg55
(lp4139
g48
(g69
g50
NtRp4140
(dp4141
g53
(dp4142
g73
g74
ssg62
g4136
sg55
(lp4143
S'view'
p4144
asbag48
(g69
g50
NtRp4145
(dp4146
g53
(dp4147
g80
g81
ssg62
g4136
sg55
(lp4148
S':'
asbag48
(g69
g50
NtRp4149
(dp4150
g53
(dp4151
sg62
g4136
sg55
(lp4152
g48
(g49
g50
NtRp4153
(dp4154
g53
(dp4155
g61
I5
ssg62
g4149
sg55
(lp4156
S'default/obtenerCategoria.html'
p4157
asbasbasbasbasbsS'locals'
p4158
(dp4159
S'seleccionadoNombre'
p4160
S"['Beisbol']"
p4161
sS'patron'
p4162
S"'Beis%'"
p4163
sS'k'
S'<gluon.dal.Rows object at 0x06C49910>'
p4164
sS'seleccionado'
p4165
S'[<gluon.dal.Rows object at 0x06C49910>]'
p4166
sS'_[2]'
p4167
S'[]'
p4168
sS'row'
p4169
S"<Row {'eventos': <gluon.dal.Set object at 0x06C4...lete_record': <function <lambda> at 0x064A32F0>}>"
p4170
sssS'traceback'
p4171
S'Traceback (most recent call last):\n  File "gluon/restricted.py", line 194, in restricted\n  File "C:\\Python32\\web2py_win\\web2py\\applications\\Casa_de_Apuestas\\controllers/default.py", line 208, in <module>\n  File "gluon/globals.py", line 149, in <lambda>\n  File "C:\\Python32\\web2py_win\\web2py\\applications\\Casa_de_Apuestas\\controllers/default.py", line 58, in obtenerCategoria\nAttributeError: \'Rows\' object has no attribute \'nombre\'\n'
p4172
s.