(dp1
S'output'
p2
S''
sS'layer'
p3
S'C:\\Users\\Gary\\Desktop\\web2py\\applications\\Casa_de_Apuestas\\controllers/default.py'
p4
sS'code'
p5
S"# -*- coding: utf-8 -*-\n### required - do no delete\ndef user(): return dict(form=auth())\ndef download(): return response.download(request,db)\ndef call(): return service()\n### end requires\n\n@auth.requires_login()\ndef index():\n    return dict()\n\ndef error():\n    return dict()\n\n\ndef maquinas():\n    return dict()\n\n\ndef crearCategoria():\n    categorias = db().select(db.categorias.ALL)\n    form = crud.create(db.categorias)\n    return dict(form=form, categorias=categorias)\n\ndef crearEvento():\n    eventos= db().select(db.eventos.ALL)\n    form = crud.create(db.eventos)\n    return dict(form=form,eventos=eventos)\n\ndef crearParticipante():\n    participantes= db().select(db.participantes.ALL)\n    form = crud.create(db.participantes)\n    return dict(form=form,participantes=participantes)\n\ndef crearEventoParticipante():\n    eventosparticipantes= db().select(db.eventos_participantes.ALL)\n    form = crud.create(db.eventos_participantes)\n    return dict(form=form,eventosparticipantes=eventosparticipantes)\n\ndef crearUsuario():\n    usuarios= db().select(db.auth_user.ALL)\n    form = crud.create(db.auth_user)\n    return dict(form=form,usuarios=usuarios)\n\ndef crearMaquina():\n    maquinas= db().select(db.maquinas.ALL)\n    form = crud.create(db.maquinas)\n    return dict(form=form,maquinas=maquinas)\n\ndef generar_xml(rows):\n    idx=range(len(rows.colnames))\n    colnames=[item.replace('.','_') for item in rows.colnames]\n    records=[]\n    for row in rows.response:\n        records.append(TAG['record'](*[TAG[colnames[i]](row[i]) for i in idx]))\n    return str(TAG['records'](*records))\n    #return str(estrin)\n\ndef prueba_xml():\n    import hashlib\n    codificador = hashlib.md5()\n    response.headers['Content-Type']='application/xml'\n    #a = generar_xml(db().select(db.participantes.ALL));\n    codificador.update(generar_xml(db().select(db.participantes.ALL)))\n    #return generar_xml(db().select(db.participantes.ALL))\n    return dict(var=codificador.hexdigest(), var1=codificador1.hexdigest())\n\ndef mostrarCategoria():\n    categorias= db().select(db.categorias.ALL, orderby=db.categorias.id)\n    return dict(categorias=categorias)\n\ndef showCategoria():\n    form = crud.update(db.categorias,request.args(0),next=URL('mostrarCategoria'))\n    return dict(form=form)\n\n\ndef mostrarEvento():\n    eventos= db().select(db.eventos.ALL, orderby=db.eventos.id)\n    return dict(eventos=eventos)\n\ndef showEvento():\n    form = crud.update(db.eventos,request.args(0),next=URL('mostrarEvento'))\n    return dict(form=form)\n\n\ndef mostrarParticipante():\n    participantes= db().select(db.participantes.ALL, orderby=db.participantes.id)\n    return dict(participantes=participantes)\n\ndef showParticipante():\n    form = crud.update(db.participantes,request.args(0),next=URL('mostrarParticipante'))\n    return dict(form=form)\n    \ndef mostrarMaquina():\n    maquinas= db().select(db.maquinas.ALL, orderby=db.maquinas.id)\n    return dict(maquinas=maquinas)\n\ndef showMaquinas():\n    form = crud.update(db.maquinas,request.args(0),next=URL('mostrarMaquina'))\n    return dict(form=form)\n    \ndef mostrarUsuario():\n    usuarios= db().select(db.auth_user.ALL, orderby=db.auth_user.id)\n    return dict(usuarios=usuarios)\n\ndef showUsuario():\n    form = crud.update(db.auth_user,request.args(0),next=URL('mostrarUsuario'))\n    return dict(form=form)\n\nresponse._vars=response._caller(prueba_xml)\n"
p6
sS'snapshot'
p7
(dp8
S'exception'
p9
(dp10
S'__hash__'
p11
S"<method-wrapper '__hash__' of exceptions.NameError object at 0x07154E90>"
p12
sS'__setattr__'
p13
S"<method-wrapper '__setattr__' of exceptions.NameError object at 0x07154E90>"
p14
sS'__reduce_ex__'
p15
S'<built-in method __reduce_ex__ of exceptions.NameError object at 0x07154E90>'
p16
sS'__getslice__'
p17
S"<method-wrapper '__getslice__' of exceptions.NameError object at 0x07154E90>"
p18
sS'__getitem__'
p19
S"<method-wrapper '__getitem__' of exceptions.NameError object at 0x07154E90>"
p20
sS'__setstate__'
p21
S'<built-in method __setstate__ of exceptions.NameError object at 0x07154E90>'
p22
sS'__reduce__'
p23
S'<built-in method __reduce__ of exceptions.NameError object at 0x07154E90>'
p24
sS'__str__'
p25
S"<method-wrapper '__str__' of exceptions.NameError object at 0x07154E90>"
p26
sS'args'
p27
S'("global name \'codificador1\' is not defined",)'
p28
sS'__getattribute__'
p29
S"<method-wrapper '__getattribute__' of exceptions.NameError object at 0x07154E90>"
p30
sS'__class__'
p31
S"<type 'exceptions.NameError'>"
p32
sS'__delattr__'
p33
S"<method-wrapper '__delattr__' of exceptions.NameError object at 0x07154E90>"
p34
sS'__repr__'
p35
S"<method-wrapper '__repr__' of exceptions.NameError object at 0x07154E90>"
p36
sS'__dict__'
p37
S'{}'
p38
sS'__doc__'
p39
S"'Name not found globally.'"
p40
sS'__init__'
p41
S"<method-wrapper '__init__' of exceptions.NameError object at 0x07154E90>"
p42
sS'__new__'
p43
S'<built-in method __new__ of type object at 0x1E1CD8D8>'
p44
ssS'evalue'
p45
S"global name 'codificador1' is not defined"
p46
sS'request'
p47
ccopy_reg
_reconstructor
p48
(cgluon.html
BEAUTIFY
p49
c__builtin__
object
p50
NtRp51
(dp52
S'attributes'
p53
(dp54
sS'components'
p55
(lp56
g48
(cgluon.html
TABLE
p57
g50
NtRp58
(dp59
g53
(dp60
S'level'
p61
I5
ssS'parent'
p62
Nsg55
(lp63
g48
(cgluon.html
TR
p64
g50
NtRp65
(dp66
g53
(dp67
sg62
g58
sg55
(lp68
g48
(cgluon.html
TD
p69
g50
NtRp70
(dp71
g53
(dp72
S'_style'
p73
S'font-weight:bold;'
p74
ssg62
g65
sg55
(lp75
S'ajax'
p76
asbag48
(g69
g50
NtRp77
(dp78
g53
(dp79
S'_valign'
p80
S'top'
p81
ssg62
g65
sg55
(lp82
S':'
asbag48
(g69
g50
NtRp83
(dp84
g53
(dp85
sg62
g65
sg55
(lp86
g48
(g49
g50
NtRp87
(dp88
g53
(dp89
g61
I5
ssg62
g83
sg55
(lp90
S'False'
p91
asbasbasbag48
(g64
g50
NtRp92
(dp93
g53
(dp94
sg62
g58
sg55
(lp95
g48
(g69
g50
NtRp96
(dp97
g53
(dp98
g73
g74
ssg62
g92
sg55
(lp99
S'application'
p100
asbag48
(g69
g50
NtRp101
(dp102
g53
(dp103
g80
g81
ssg62
g92
sg55
(lp104
S':'
asbag48
(g69
g50
NtRp105
(dp106
g53
(dp107
sg62
g92
sg55
(lp108
g48
(g49
g50
NtRp109
(dp110
g53
(dp111
g61
I5
ssg62
g105
sg55
(lp112
S'Casa_de_Apuestas'
p113
asbasbasbag48
(g64
g50
NtRp114
(dp115
g53
(dp116
sg62
g58
sg55
(lp117
g48
(g69
g50
NtRp118
(dp119
g53
(dp120
g73
g74
ssg62
g114
sg55
(lp121
g27
asbag48
(g69
g50
NtRp122
(dp123
g53
(dp124
g80
g81
ssg62
g114
sg55
(lp125
S':'
asbag48
(g69
g50
NtRp126
(dp127
g53
(dp128
sg62
g114
sg55
(lp129
g48
(g49
g50
NtRp130
(dp131
g53
(dp132
g61
I5
ssg62
g126
sg55
(lp133
g48
(g57
g50
NtRp134
(dp135
g53
(dp136
g61
I4
ssg62
Nsg55
(lp137
sbasbasbasbag48
(g64
g50
NtRp138
(dp139
g53
(dp140
sg62
g58
sg55
(lp141
g48
(g69
g50
NtRp142
(dp143
g53
(dp144
g73
g74
ssg62
g138
sg55
(lp145
S'body'
p146
asbag48
(g69
g50
NtRp147
(dp148
g53
(dp149
g80
g81
ssg62
g138
sg55
(lp150
S':'
asbag48
(g69
g50
NtRp151
(dp152
g53
(dp153
sg62
g138
sg55
(lp154
g48
(g49
g50
NtRp155
(dp156
g53
(dp157
g61
I5
ssg62
g151
sg55
(lp158
S'<cStringIO.StringO object at 0x0783B360>'
p159
asbasbasbag48
(g64
g50
NtRp160
(dp161
g53
(dp162
sg62
g58
sg55
(lp163
g48
(g69
g50
NtRp164
(dp165
g53
(dp166
g73
g74
ssg62
g160
sg55
(lp167
S'client'
p168
asbag48
(g69
g50
NtRp169
(dp170
g53
(dp171
g80
g81
ssg62
g160
sg55
(lp172
S':'
asbag48
(g69
g50
NtRp173
(dp174
g53
(dp175
sg62
g160
sg55
(lp176
g48
(g49
g50
NtRp177
(dp178
g53
(dp179
g61
I5
ssg62
g173
sg55
(lp180
S'127.0.0.1'
p181
asbasbasbag48
(g64
g50
NtRp182
(dp183
g53
(dp184
sg62
g58
sg55
(lp185
g48
(g69
g50
NtRp186
(dp187
g53
(dp188
g73
g74
ssg62
g182
sg55
(lp189
S'controller'
p190
asbag48
(g69
g50
NtRp191
(dp192
g53
(dp193
g80
g81
ssg62
g182
sg55
(lp194
S':'
asbag48
(g69
g50
NtRp195
(dp196
g53
(dp197
sg62
g182
sg55
(lp198
g48
(g49
g50
NtRp199
(dp200
g53
(dp201
g61
I5
ssg62
g195
sg55
(lp202
S'default'
p203
asbasbasbag48
(g64
g50
NtRp204
(dp205
g53
(dp206
sg62
g58
sg55
(lp207
g48
(g69
g50
NtRp208
(dp209
g53
(dp210
g73
g74
ssg62
g204
sg55
(lp211
S'cookies'
p212
asbag48
(g69
g50
NtRp213
(dp214
g53
(dp215
g80
g81
ssg62
g204
sg55
(lp216
S':'
asbag48
(g69
g50
NtRp217
(dp218
g53
(dp219
sg62
g204
sg55
(lp220
g48
(g49
g50
NtRp221
(dp222
g53
(dp223
g61
I5
ssg62
g217
sg55
(lp224
g48
(g57
g50
NtRp225
(dp226
g53
(dp227
g61
I4
ssg62
Nsg55
(lp228
sbasbasbasbag48
(g64
g50
NtRp229
(dp230
g53
(dp231
sg62
g58
sg55
(lp232
g48
(g69
g50
NtRp233
(dp234
g53
(dp235
g73
g74
ssg62
g229
sg55
(lp236
S'env'
p237
asbag48
(g69
g50
NtRp238
(dp239
g53
(dp240
g80
g81
ssg62
g229
sg55
(lp241
S':'
asbag48
(g69
g50
NtRp242
(dp243
g53
(dp244
sg62
g229
sg55
(lp245
g48
(g49
g50
NtRp246
(dp247
g53
(dp248
g61
I5
ssg62
g242
sg55
(lp249
g48
(g57
g50
NtRp250
(dp251
g53
(dp252
g61
I4
ssg62
Nsg55
(lp253
g48
(g64
g50
NtRp254
(dp255
g53
(dp256
sg62
g250
sg55
(lp257
g48
(g69
g50
NtRp258
(dp259
g53
(dp260
g73
g74
ssg62
g254
sg55
(lp261
S'app_folders'
p262
asbag48
(g69
g50
NtRp263
(dp264
g53
(dp265
g80
g81
ssg62
g254
sg55
(lp266
S':'
asbag48
(g69
g50
NtRp267
(dp268
g53
(dp269
sg62
g254
sg55
(lp270
g48
(g49
g50
NtRp271
(dp272
g53
(dp273
g61
I4
ssg62
g267
sg55
(lp274
S"set(['C:\\\\Users\\\\Gary\\\\Desktop\\\\web2py\\\\applications\\\\Casa_de_Apuestas\\\\', 'C:\\\\Users\\\\Gary\\\\Desktop\\\\web2py\\\\applications\\\\welcome\\\\', 'C:\\\\Users\\\\Gary\\\\Desktop\\\\web2py\\\\applications\\\\admin\\\\'])"
p275
asbasbasbag48
(g64
g50
NtRp276
(dp277
g53
(dp278
sg62
g250
sg55
(lp279
g48
(g69
g50
NtRp280
(dp281
g53
(dp282
g73
g74
ssg62
g276
sg55
(lp283
S'applications_parent'
p284
asbag48
(g69
g50
NtRp285
(dp286
g53
(dp287
g80
g81
ssg62
g276
sg55
(lp288
S':'
asbag48
(g69
g50
NtRp289
(dp290
g53
(dp291
sg62
g276
sg55
(lp292
g48
(g49
g50
NtRp293
(dp294
g53
(dp295
g61
I4
ssg62
g289
sg55
(lp296
S'C:\\Users\\Gary\\Desktop\\web2py'
p297
asbasbasbag48
(g64
g50
NtRp298
(dp299
g53
(dp300
sg62
g250
sg55
(lp301
g48
(g69
g50
NtRp302
(dp303
g53
(dp304
g73
g74
ssg62
g298
sg55
(lp305
S'cmd_args'
p306
asbag48
(g69
g50
NtRp307
(dp308
g53
(dp309
g80
g81
ssg62
g298
sg55
(lp310
S':'
asbag48
(g69
g50
NtRp311
(dp312
g53
(dp313
sg62
g298
sg55
(lp314
g48
(g49
g50
NtRp315
(dp316
g53
(dp317
g61
I4
ssg62
g311
sg55
(lp318
g48
(g57
g50
NtRp319
(dp320
g53
(dp321
g61
I3
ssg62
Nsg55
(lp322
sbasbasbasbag48
(g64
g50
NtRp323
(dp324
g53
(dp325
sg62
g250
sg55
(lp326
g48
(g69
g50
NtRp327
(dp328
g53
(dp329
g73
g74
ssg62
g323
sg55
(lp330
S'cmd_options'
p331
asbag48
(g69
g50
NtRp332
(dp333
g53
(dp334
g80
g81
ssg62
g323
sg55
(lp335
S':'
asbag48
(g69
g50
NtRp336
(dp337
g53
(dp338
sg62
g323
sg55
(lp339
g48
(g49
g50
NtRp340
(dp341
g53
(dp342
g61
I4
ssg62
g336
sg55
(lp343
S"<Values at 0x32a2e90: {'verbose': False, 'ip': '127.0.0.1', 'shutdown_timeout': 5, 'taskbar': False, 'nocron': False, 'pid_filename': 'httpserver.pid', 'maxthreads': None, 'softcron': False, 'server_name': 'GABM', 'bpython': False, 'nogui': False, 'port': 8000, 'extcron': False, 'debuglevel': 30, 'test': None, 'folder': 'C:\\\\Users\\\\Gary\\\\Desktop\\\\web2py', 'config': '', 'import_models': False, 'winservice': '', 'shell': None, 'run': '', 'log_filename': 'httpserver.log', 'args': [''], 'ssl_ca_certificate': None, 'scheduler': None, 'profiler_filename': None, 'ssl_private_key': '', 'password': '<ask>', 'request_queue_size': 5, 'ssl_certificate': '', 'cronjob': False, 'plain': False, 'quiet': False, 'interfaces': None, 'minthreads': None, 'timeout': 10, 'numthreads': None, 'nobanner': False}>"
p344
asbasbasbag48
(g64
g50
NtRp345
(dp346
g53
(dp347
sg62
g250
sg55
(lp348
g48
(g69
g50
NtRp349
(dp350
g53
(dp351
g73
g74
ssg62
g345
sg55
(lp352
S'db_sessions'
p353
asbag48
(g69
g50
NtRp354
(dp355
g53
(dp356
g80
g81
ssg62
g345
sg55
(lp357
S':'
asbag48
(g69
g50
NtRp358
(dp359
g53
(dp360
sg62
g345
sg55
(lp361
g48
(g49
g50
NtRp362
(dp363
g53
(dp364
g61
I4
ssg62
g358
sg55
(lp365
S'set([])'
p366
asbasbasbag48
(g64
g50
NtRp367
(dp368
g53
(dp369
sg62
g250
sg55
(lp370
g48
(g69
g50
NtRp371
(dp372
g53
(dp373
g73
g74
ssg62
g367
sg55
(lp374
S'debugging'
p375
asbag48
(g69
g50
NtRp376
(dp377
g53
(dp378
g80
g81
ssg62
g367
sg55
(lp379
S':'
asbag48
(g69
g50
NtRp380
(dp381
g53
(dp382
sg62
g367
sg55
(lp383
g48
(g49
g50
NtRp384
(dp385
g53
(dp386
g61
I4
ssg62
g380
sg55
(lp387
g91
asbasbasbag48
(g64
g50
NtRp388
(dp389
g53
(dp390
sg62
g250
sg55
(lp391
g48
(g69
g50
NtRp392
(dp393
g53
(dp394
g73
g74
ssg62
g388
sg55
(lp395
S'gluon_parent'
p396
asbag48
(g69
g50
NtRp397
(dp398
g53
(dp399
g80
g81
ssg62
g388
sg55
(lp400
S':'
asbag48
(g69
g50
NtRp401
(dp402
g53
(dp403
sg62
g388
sg55
(lp404
g48
(g49
g50
NtRp405
(dp406
g53
(dp407
g61
I4
ssg62
g401
sg55
(lp408
S'C:\\Users\\Gary\\Desktop\\web2py'
p409
asbasbasbag48
(g64
g50
NtRp410
(dp411
g53
(dp412
sg62
g250
sg55
(lp413
g48
(g69
g50
NtRp414
(dp415
g53
(dp416
g73
g74
ssg62
g410
sg55
(lp417
S'http_accept'
p418
asbag48
(g69
g50
NtRp419
(dp420
g53
(dp421
g80
g81
ssg62
g410
sg55
(lp422
S':'
asbag48
(g69
g50
NtRp423
(dp424
g53
(dp425
sg62
g410
sg55
(lp426
g48
(g49
g50
NtRp427
(dp428
g53
(dp429
g61
I4
ssg62
g423
sg55
(lp430
S'text/html,application/xhtml+xml,application/xml;q=0.9,*/*;q=0.8'
p431
asbasbasbag48
(g64
g50
NtRp432
(dp433
g53
(dp434
sg62
g250
sg55
(lp435
g48
(g69
g50
NtRp436
(dp437
g53
(dp438
g73
g74
ssg62
g432
sg55
(lp439
S'http_accept_charset'
p440
asbag48
(g69
g50
NtRp441
(dp442
g53
(dp443
g80
g81
ssg62
g432
sg55
(lp444
S':'
asbag48
(g69
g50
NtRp445
(dp446
g53
(dp447
sg62
g432
sg55
(lp448
g48
(g49
g50
NtRp449
(dp450
g53
(dp451
g61
I4
ssg62
g445
sg55
(lp452
S'ISO-8859-1,utf-8;q=0.7,*;q=0.3'
p453
asbasbasbag48
(g64
g50
NtRp454
(dp455
g53
(dp456
sg62
g250
sg55
(lp457
g48
(g69
g50
NtRp458
(dp459
g53
(dp460
g73
g74
ssg62
g454
sg55
(lp461
S'http_accept_encoding'
p462
asbag48
(g69
g50
NtRp463
(dp464
g53
(dp465
g80
g81
ssg62
g454
sg55
(lp466
S':'
asbag48
(g69
g50
NtRp467
(dp468
g53
(dp469
sg62
g454
sg55
(lp470
g48
(g49
g50
NtRp471
(dp472
g53
(dp473
g61
I4
ssg62
g467
sg55
(lp474
S'gzip,deflate,sdch'
p475
asbasbasbag48
(g64
g50
NtRp476
(dp477
g53
(dp478
sg62
g250
sg55
(lp479
g48
(g69
g50
NtRp480
(dp481
g53
(dp482
g73
g74
ssg62
g476
sg55
(lp483
S'http_accept_language'
p484
asbag48
(g69
g50
NtRp485
(dp486
g53
(dp487
g80
g81
ssg62
g476
sg55
(lp488
S':'
asbag48
(g69
g50
NtRp489
(dp490
g53
(dp491
sg62
g476
sg55
(lp492
g48
(g49
g50
NtRp493
(dp494
g53
(dp495
g61
I4
ssg62
g489
sg55
(lp496
S'es-ES,es;q=0.8'
p497
asbasbasbag48
(g64
g50
NtRp498
(dp499
g53
(dp500
sg62
g250
sg55
(lp501
g48
(g69
g50
NtRp502
(dp503
g53
(dp504
g73
g74
ssg62
g498
sg55
(lp505
S'http_connection'
p506
asbag48
(g69
g50
NtRp507
(dp508
g53
(dp509
g80
g81
ssg62
g498
sg55
(lp510
S':'
asbag48
(g69
g50
NtRp511
(dp512
g53
(dp513
sg62
g498
sg55
(lp514
g48
(g49
g50
NtRp515
(dp516
g53
(dp517
g61
I4
ssg62
g511
sg55
(lp518
S'keep-alive'
p519
asbasbasbag48
(g64
g50
NtRp520
(dp521
g53
(dp522
sg62
g250
sg55
(lp523
g48
(g69
g50
NtRp524
(dp525
g53
(dp526
g73
g74
ssg62
g520
sg55
(lp527
S'http_cookie'
p528
asbag48
(g69
g50
NtRp529
(dp530
g53
(dp531
g80
g81
ssg62
g520
sg55
(lp532
S':'
asbag48
(g69
g50
NtRp533
(dp534
g53
(dp535
sg62
g520
sg55
(lp536
g48
(g49
g50
NtRp537
(dp538
g53
(dp539
g61
I4
ssg62
g533
sg55
(lp540
S'__utma_a2a=4767789439.1350865281.1319308355.1319308355.1319308355.2'
p541
asbasbasbag48
(g64
g50
NtRp542
(dp543
g53
(dp544
sg62
g250
sg55
(lp545
g48
(g69
g50
NtRp546
(dp547
g53
(dp548
g73
g74
ssg62
g542
sg55
(lp549
S'http_host'
p550
asbag48
(g69
g50
NtRp551
(dp552
g53
(dp553
g80
g81
ssg62
g542
sg55
(lp554
S':'
asbag48
(g69
g50
NtRp555
(dp556
g53
(dp557
sg62
g542
sg55
(lp558
g48
(g49
g50
NtRp559
(dp560
g53
(dp561
g61
I4
ssg62
g555
sg55
(lp562
S'127.0.0.1:8000'
p563
asbasbasbag48
(g64
g50
NtRp564
(dp565
g53
(dp566
sg62
g250
sg55
(lp567
g48
(g69
g50
NtRp568
(dp569
g53
(dp570
g73
g74
ssg62
g564
sg55
(lp571
S'http_user_agent'
p572
asbag48
(g69
g50
NtRp573
(dp574
g53
(dp575
g80
g81
ssg62
g564
sg55
(lp576
S':'
asbag48
(g69
g50
NtRp577
(dp578
g53
(dp579
sg62
g564
sg55
(lp580
g48
(g49
g50
NtRp581
(dp582
g53
(dp583
g61
I4
ssg62
g577
sg55
(lp584
S'Mozilla/5.0 (Windows NT 6.1; WOW64) AppleWebKit/535.2 (KHTML, like Gecko) Chrome/15.0.874.121 Safari/535.2'
p585
asbasbasbag48
(g64
g50
NtRp586
(dp587
g53
(dp588
sg62
g250
sg55
(lp589
g48
(g69
g50
NtRp590
(dp591
g53
(dp592
g73
g74
ssg62
g586
sg55
(lp593
S'is_jython'
p594
asbag48
(g69
g50
NtRp595
(dp596
g53
(dp597
g80
g81
ssg62
g586
sg55
(lp598
S':'
asbag48
(g69
g50
NtRp599
(dp600
g53
(dp601
sg62
g586
sg55
(lp602
g48
(g49
g50
NtRp603
(dp604
g53
(dp605
g61
I4
ssg62
g599
sg55
(lp606
g91
asbasbasbag48
(g64
g50
NtRp607
(dp608
g53
(dp609
sg62
g250
sg55
(lp610
g48
(g69
g50
NtRp611
(dp612
g53
(dp613
g73
g74
ssg62
g607
sg55
(lp614
S'path_info'
p615
asbag48
(g69
g50
NtRp616
(dp617
g53
(dp618
g80
g81
ssg62
g607
sg55
(lp619
S':'
asbag48
(g69
g50
NtRp620
(dp621
g53
(dp622
sg62
g607
sg55
(lp623
g48
(g49
g50
NtRp624
(dp625
g53
(dp626
g61
I4
ssg62
g620
sg55
(lp627
S'/Casa_de_Apuestas/default/prueba_xml'
p628
asbasbasbag48
(g64
g50
NtRp629
(dp630
g53
(dp631
sg62
g250
sg55
(lp632
g48
(g69
g50
NtRp633
(dp634
g53
(dp635
g73
g74
ssg62
g629
sg55
(lp636
S'query_string'
p637
asbag48
(g69
g50
NtRp638
(dp639
g53
(dp640
g80
g81
ssg62
g629
sg55
(lp641
S':'
asbag48
(g69
g50
NtRp642
(dp643
g53
(dp644
sg62
g629
sg55
(lp645
g48
(g49
g50
NtRp646
(dp647
g53
(dp648
g61
I4
ssg62
g642
sg55
(lp649
S''
asbasbasbag48
(g64
g50
NtRp650
(dp651
g53
(dp652
sg62
g250
sg55
(lp653
g48
(g69
g50
NtRp654
(dp655
g53
(dp656
g73
g74
ssg62
g650
sg55
(lp657
S'remote_addr'
p658
asbag48
(g69
g50
NtRp659
(dp660
g53
(dp661
g80
g81
ssg62
g650
sg55
(lp662
S':'
asbag48
(g69
g50
NtRp663
(dp664
g53
(dp665
sg62
g650
sg55
(lp666
g48
(g49
g50
NtRp667
(dp668
g53
(dp669
g61
I4
ssg62
g663
sg55
(lp670
g181
asbasbasbag48
(g64
g50
NtRp671
(dp672
g53
(dp673
sg62
g250
sg55
(lp674
g48
(g69
g50
NtRp675
(dp676
g53
(dp677
g73
g74
ssg62
g671
sg55
(lp678
S'remote_port'
p679
asbag48
(g69
g50
NtRp680
(dp681
g53
(dp682
g80
g81
ssg62
g671
sg55
(lp683
S':'
asbag48
(g69
g50
NtRp684
(dp685
g53
(dp686
sg62
g671
sg55
(lp687
g48
(g49
g50
NtRp688
(dp689
g53
(dp690
g61
I4
ssg62
g684
sg55
(lp691
S'59415'
p692
asbasbasbag48
(g64
g50
NtRp693
(dp694
g53
(dp695
sg62
g250
sg55
(lp696
g48
(g69
g50
NtRp697
(dp698
g53
(dp699
g73
g74
ssg62
g693
sg55
(lp700
S'request_method'
p701
asbag48
(g69
g50
NtRp702
(dp703
g53
(dp704
g80
g81
ssg62
g693
sg55
(lp705
S':'
asbag48
(g69
g50
NtRp706
(dp707
g53
(dp708
sg62
g693
sg55
(lp709
g48
(g49
g50
NtRp710
(dp711
g53
(dp712
g61
I4
ssg62
g706
sg55
(lp713
S'GET'
p714
asbasbasbag48
(g64
g50
NtRp715
(dp716
g53
(dp717
sg62
g250
sg55
(lp718
g48
(g69
g50
NtRp719
(dp720
g53
(dp721
g73
g74
ssg62
g715
sg55
(lp722
S'script_name'
p723
asbag48
(g69
g50
NtRp724
(dp725
g53
(dp726
g80
g81
ssg62
g715
sg55
(lp727
S':'
asbag48
(g69
g50
NtRp728
(dp729
g53
(dp730
sg62
g715
sg55
(lp731
g48
(g49
g50
NtRp732
(dp733
g53
(dp734
g61
I4
ssg62
g728
sg55
(lp735
S''
asbasbasbag48
(g64
g50
NtRp736
(dp737
g53
(dp738
sg62
g250
sg55
(lp739
g48
(g69
g50
NtRp740
(dp741
g53
(dp742
g73
g74
ssg62
g736
sg55
(lp743
S'server_name'
p744
asbag48
(g69
g50
NtRp745
(dp746
g53
(dp747
g80
g81
ssg62
g736
sg55
(lp748
S':'
asbag48
(g69
g50
NtRp749
(dp750
g53
(dp751
sg62
g736
sg55
(lp752
g48
(g49
g50
NtRp753
(dp754
g53
(dp755
g61
I4
ssg62
g749
sg55
(lp756
S'GABM'
p757
asbasbasbag48
(g64
g50
NtRp758
(dp759
g53
(dp760
sg62
g250
sg55
(lp761
g48
(g69
g50
NtRp762
(dp763
g53
(dp764
g73
g74
ssg62
g758
sg55
(lp765
S'server_port'
p766
asbag48
(g69
g50
NtRp767
(dp768
g53
(dp769
g80
g81
ssg62
g758
sg55
(lp770
S':'
asbag48
(g69
g50
NtRp771
(dp772
g53
(dp773
sg62
g758
sg55
(lp774
g48
(g49
g50
NtRp775
(dp776
g53
(dp777
g61
I4
ssg62
g771
sg55
(lp778
S'8000'
p779
asbasbasbag48
(g64
g50
NtRp780
(dp781
g53
(dp782
sg62
g250
sg55
(lp783
g48
(g69
g50
NtRp784
(dp785
g53
(dp786
g73
g74
ssg62
g780
sg55
(lp787
S'server_protocol'
p788
asbag48
(g69
g50
NtRp789
(dp790
g53
(dp791
g80
g81
ssg62
g780
sg55
(lp792
S':'
asbag48
(g69
g50
NtRp793
(dp794
g53
(dp795
sg62
g780
sg55
(lp796
g48
(g49
g50
NtRp797
(dp798
g53
(dp799
g61
I4
ssg62
g793
sg55
(lp800
S'HTTP/1.1'
p801
asbasbasbag48
(g64
g50
NtRp802
(dp803
g53
(dp804
sg62
g250
sg55
(lp805
g48
(g69
g50
NtRp806
(dp807
g53
(dp808
g73
g74
ssg62
g802
sg55
(lp809
S'server_software'
p810
asbag48
(g69
g50
NtRp811
(dp812
g53
(dp813
g80
g81
ssg62
g802
sg55
(lp814
S':'
asbag48
(g69
g50
NtRp815
(dp816
g53
(dp817
sg62
g802
sg55
(lp818
g48
(g49
g50
NtRp819
(dp820
g53
(dp821
g61
I4
ssg62
g815
sg55
(lp822
S'Rocket 1.2.4'
p823
asbasbasbag48
(g64
g50
NtRp824
(dp825
g53
(dp826
sg62
g250
sg55
(lp827
g48
(g69
g50
NtRp828
(dp829
g53
(dp830
g73
g74
ssg62
g824
sg55
(lp831
S'web2py_crontype'
p832
asbag48
(g69
g50
NtRp833
(dp834
g53
(dp835
g80
g81
ssg62
g824
sg55
(lp836
S':'
asbag48
(g69
g50
NtRp837
(dp838
g53
(dp839
sg62
g824
sg55
(lp840
g48
(g49
g50
NtRp841
(dp842
g53
(dp843
g61
I4
ssg62
g837
sg55
(lp844
S'hard'
p845
asbasbasbag48
(g64
g50
NtRp846
(dp847
g53
(dp848
sg62
g250
sg55
(lp849
g48
(g69
g50
NtRp850
(dp851
g53
(dp852
g73
g74
ssg62
g846
sg55
(lp853
S'web2py_path'
p854
asbag48
(g69
g50
NtRp855
(dp856
g53
(dp857
g80
g81
ssg62
g846
sg55
(lp858
S':'
asbag48
(g69
g50
NtRp859
(dp860
g53
(dp861
sg62
g846
sg55
(lp862
g48
(g49
g50
NtRp863
(dp864
g53
(dp865
g61
I4
ssg62
g859
sg55
(lp866
g297
asbasbasbag48
(g64
g50
NtRp867
(dp868
g53
(dp869
sg62
g250
sg55
(lp870
g48
(g69
g50
NtRp871
(dp872
g53
(dp873
g73
g74
ssg62
g867
sg55
(lp874
S'web2py_version'
p875
asbag48
(g69
g50
NtRp876
(dp877
g53
(dp878
g80
g81
ssg62
g867
sg55
(lp879
S':'
asbag48
(g69
g50
NtRp880
(dp881
g53
(dp882
sg62
g867
sg55
(lp883
g48
(g49
g50
NtRp884
(dp885
g53
(dp886
g61
I4
ssg62
g880
sg55
(lp887
g48
(g57
g50
NtRp888
(dp889
g53
(dp890
g61
I3
ssg62
Nsg55
(lp891
g48
(g64
g50
NtRp892
(dp893
g53
(dp894
sg62
g888
sg55
(lp895
g48
(g69
g50
NtRp896
(dp897
g53
(dp898
sg62
g892
sg55
(lp899
g48
(g49
g50
NtRp900
(dp901
g53
(dp902
g61
I3
ssg62
g896
sg55
(lp903
S'1'
asbasbasbag48
(g64
g50
NtRp904
(dp905
g53
(dp906
sg62
g888
sg55
(lp907
g48
(g69
g50
NtRp908
(dp909
g53
(dp910
sg62
g904
sg55
(lp911
g48
(g49
g50
NtRp912
(dp913
g53
(dp914
g61
I3
ssg62
g908
sg55
(lp915
S'99'
p916
asbasbasbag48
(g64
g50
NtRp917
(dp918
g53
(dp919
sg62
g888
sg55
(lp920
g48
(g69
g50
NtRp921
(dp922
g53
(dp923
sg62
g917
sg55
(lp924
g48
(g49
g50
NtRp925
(dp926
g53
(dp927
g61
I3
ssg62
g921
sg55
(lp928
S'2'
asbasbasbag48
(g64
g50
NtRp929
(dp930
g53
(dp931
sg62
g888
sg55
(lp932
g48
(g69
g50
NtRp933
(dp934
g53
(dp935
sg62
g929
sg55
(lp936
g48
(g49
g50
NtRp937
(dp938
g53
(dp939
g61
I3
ssg62
g933
sg55
(lp940
S'datetime.datetime(2011, 9, 26, 6, 55, 33)'
p941
asbasbasbag48
(g64
g50
NtRp942
(dp943
g53
(dp944
sg62
g888
sg55
(lp945
g48
(g69
g50
NtRp946
(dp947
g53
(dp948
sg62
g942
sg55
(lp949
g48
(g49
g50
NtRp950
(dp951
g53
(dp952
g61
I3
ssg62
g946
sg55
(lp953
S'stable'
p954
asbasbasbasbasbasbasbag48
(g64
g50
NtRp955
(dp956
g53
(dp957
sg62
g250
sg55
(lp958
g48
(g69
g50
NtRp959
(dp960
g53
(dp961
g73
g74
ssg62
g955
sg55
(lp962
S'wsgi_errors'
p963
asbag48
(g69
g50
NtRp964
(dp965
g53
(dp966
g80
g81
ssg62
g955
sg55
(lp967
S':'
asbag48
(g69
g50
NtRp968
(dp969
g53
(dp970
sg62
g955
sg55
(lp971
g48
(g49
g50
NtRp972
(dp973
g53
(dp974
g61
I4
ssg62
g968
sg55
(lp975
S"<open file '<stderr>', mode 'w' at 0x004200B0>"
p976
asbasbasbag48
(g64
g50
NtRp977
(dp978
g53
(dp979
sg62
g250
sg55
(lp980
g48
(g69
g50
NtRp981
(dp982
g53
(dp983
g73
g74
ssg62
g977
sg55
(lp984
S'wsgi_file_wrapper'
p985
asbag48
(g69
g50
NtRp986
(dp987
g53
(dp988
g80
g81
ssg62
g977
sg55
(lp989
S':'
asbag48
(g69
g50
NtRp990
(dp991
g53
(dp992
sg62
g977
sg55
(lp993
g48
(g49
g50
NtRp994
(dp995
g53
(dp996
g61
I4
ssg62
g990
sg55
(lp997
S'<class wsgiref.util.FileWrapper at 0x0303FC90>'
p998
asbasbasbag48
(g64
g50
NtRp999
(dp1000
g53
(dp1001
sg62
g250
sg55
(lp1002
g48
(g69
g50
NtRp1003
(dp1004
g53
(dp1005
g73
g74
ssg62
g999
sg55
(lp1006
S'wsgi_input'
p1007
asbag48
(g69
g50
NtRp1008
(dp1009
g53
(dp1010
g80
g81
ssg62
g999
sg55
(lp1011
S':'
asbag48
(g69
g50
NtRp1012
(dp1013
g53
(dp1014
sg62
g999
sg55
(lp1015
g48
(g49
g50
NtRp1016
(dp1017
g53
(dp1018
g61
I4
ssg62
g1012
sg55
(lp1019
S'<socket._fileobject object at 0x06EECD30>'
p1020
asbasbasbag48
(g64
g50
NtRp1021
(dp1022
g53
(dp1023
sg62
g250
sg55
(lp1024
g48
(g69
g50
NtRp1025
(dp1026
g53
(dp1027
g73
g74
ssg62
g1021
sg55
(lp1028
S'wsgi_multiprocess'
p1029
asbag48
(g69
g50
NtRp1030
(dp1031
g53
(dp1032
g80
g81
ssg62
g1021
sg55
(lp1033
S':'
asbag48
(g69
g50
NtRp1034
(dp1035
g53
(dp1036
sg62
g1021
sg55
(lp1037
g48
(g49
g50
NtRp1038
(dp1039
g53
(dp1040
g61
I4
ssg62
g1034
sg55
(lp1041
g91
asbasbasbag48
(g64
g50
NtRp1042
(dp1043
g53
(dp1044
sg62
g250
sg55
(lp1045
g48
(g69
g50
NtRp1046
(dp1047
g53
(dp1048
g73
g74
ssg62
g1042
sg55
(lp1049
S'wsgi_multithread'
p1050
asbag48
(g69
g50
NtRp1051
(dp1052
g53
(dp1053
g80
g81
ssg62
g1042
sg55
(lp1054
S':'
asbag48
(g69
g50
NtRp1055
(dp1056
g53
(dp1057
sg62
g1042
sg55
(lp1058
g48
(g49
g50
NtRp1059
(dp1060
g53
(dp1061
g61
I4
ssg62
g1055
sg55
(lp1062
S'True'
p1063
asbasbasbag48
(g64
g50
NtRp1064
(dp1065
g53
(dp1066
sg62
g250
sg55
(lp1067
g48
(g69
g50
NtRp1068
(dp1069
g53
(dp1070
g73
g74
ssg62
g1064
sg55
(lp1071
S'wsgi_run_once'
p1072
asbag48
(g69
g50
NtRp1073
(dp1074
g53
(dp1075
g80
g81
ssg62
g1064
sg55
(lp1076
S':'
asbag48
(g69
g50
NtRp1077
(dp1078
g53
(dp1079
sg62
g1064
sg55
(lp1080
g48
(g49
g50
NtRp1081
(dp1082
g53
(dp1083
g61
I4
ssg62
g1077
sg55
(lp1084
g91
asbasbasbag48
(g64
g50
NtRp1085
(dp1086
g53
(dp1087
sg62
g250
sg55
(lp1088
g48
(g69
g50
NtRp1089
(dp1090
g53
(dp1091
g73
g74
ssg62
g1085
sg55
(lp1092
S'wsgi_url_scheme'
p1093
asbag48
(g69
g50
NtRp1094
(dp1095
g53
(dp1096
g80
g81
ssg62
g1085
sg55
(lp1097
S':'
asbag48
(g69
g50
NtRp1098
(dp1099
g53
(dp1100
sg62
g1085
sg55
(lp1101
g48
(g49
g50
NtRp1102
(dp1103
g53
(dp1104
g61
I4
ssg62
g1098
sg55
(lp1105
S'http'
p1106
asbasbasbag48
(g64
g50
NtRp1107
(dp1108
g53
(dp1109
sg62
g250
sg55
(lp1110
g48
(g69
g50
NtRp1111
(dp1112
g53
(dp1113
g73
g74
ssg62
g1107
sg55
(lp1114
S'wsgi_version'
p1115
asbag48
(g69
g50
NtRp1116
(dp1117
g53
(dp1118
g80
g81
ssg62
g1107
sg55
(lp1119
S':'
asbag48
(g69
g50
NtRp1120
(dp1121
g53
(dp1122
sg62
g1107
sg55
(lp1123
g48
(g49
g50
NtRp1124
(dp1125
g53
(dp1126
g61
I4
ssg62
g1120
sg55
(lp1127
g48
(g57
g50
NtRp1128
(dp1129
g53
(dp1130
g61
I3
ssg62
Nsg55
(lp1131
g48
(g64
g50
NtRp1132
(dp1133
g53
(dp1134
sg62
g1128
sg55
(lp1135
g48
(g69
g50
NtRp1136
(dp1137
g53
(dp1138
sg62
g1132
sg55
(lp1139
g48
(g49
g50
NtRp1140
(dp1141
g53
(dp1142
g61
I3
ssg62
g1136
sg55
(lp1143
S'1'
asbasbasbag48
(g64
g50
NtRp1144
(dp1145
g53
(dp1146
sg62
g1128
sg55
(lp1147
g48
(g69
g50
NtRp1148
(dp1149
g53
(dp1150
sg62
g1144
sg55
(lp1151
g48
(g49
g50
NtRp1152
(dp1153
g53
(dp1154
g61
I3
ssg62
g1148
sg55
(lp1155
S'0'
asbasbasbasbasbasbasbasbasbasbasbag48
(g64
g50
NtRp1156
(dp1157
g53
(dp1158
sg62
g58
sg55
(lp1159
g48
(g69
g50
NtRp1160
(dp1161
g53
(dp1162
g73
g74
ssg62
g1156
sg55
(lp1163
S'extension'
p1164
asbag48
(g69
g50
NtRp1165
(dp1166
g53
(dp1167
g80
g81
ssg62
g1156
sg55
(lp1168
S':'
asbag48
(g69
g50
NtRp1169
(dp1170
g53
(dp1171
sg62
g1156
sg55
(lp1172
g48
(g49
g50
NtRp1173
(dp1174
g53
(dp1175
g61
I5
ssg62
g1169
sg55
(lp1176
S'html'
p1177
asbasbasbag48
(g64
g50
NtRp1178
(dp1179
g53
(dp1180
sg62
g58
sg55
(lp1181
g48
(g69
g50
NtRp1182
(dp1183
g53
(dp1184
g73
g74
ssg62
g1178
sg55
(lp1185
S'folder'
p1186
asbag48
(g69
g50
NtRp1187
(dp1188
g53
(dp1189
g80
g81
ssg62
g1178
sg55
(lp1190
S':'
asbag48
(g69
g50
NtRp1191
(dp1192
g53
(dp1193
sg62
g1178
sg55
(lp1194
g48
(g49
g50
NtRp1195
(dp1196
g53
(dp1197
g61
I5
ssg62
g1191
sg55
(lp1198
S'C:\\Users\\Gary\\Desktop\\web2py\\applications\\Casa_de_Apuestas\\'
p1199
asbasbasbag48
(g64
g50
NtRp1200
(dp1201
g53
(dp1202
sg62
g58
sg55
(lp1203
g48
(g69
g50
NtRp1204
(dp1205
g53
(dp1206
g73
g74
ssg62
g1200
sg55
(lp1207
S'function'
p1208
asbag48
(g69
g50
NtRp1209
(dp1210
g53
(dp1211
g80
g81
ssg62
g1200
sg55
(lp1212
S':'
asbag48
(g69
g50
NtRp1213
(dp1214
g53
(dp1215
sg62
g1200
sg55
(lp1216
g48
(g49
g50
NtRp1217
(dp1218
g53
(dp1219
g61
I5
ssg62
g1213
sg55
(lp1220
S'prueba_xml'
p1221
asbasbasbag48
(g64
g50
NtRp1222
(dp1223
g53
(dp1224
sg62
g58
sg55
(lp1225
g48
(g69
g50
NtRp1226
(dp1227
g53
(dp1228
g73
g74
ssg62
g1222
sg55
(lp1229
S'get_vars'
p1230
asbag48
(g69
g50
NtRp1231
(dp1232
g53
(dp1233
g80
g81
ssg62
g1222
sg55
(lp1234
S':'
asbag48
(g69
g50
NtRp1235
(dp1236
g53
(dp1237
sg62
g1222
sg55
(lp1238
g48
(g49
g50
NtRp1239
(dp1240
g53
(dp1241
g61
I5
ssg62
g1235
sg55
(lp1242
g48
(g57
g50
NtRp1243
(dp1244
g53
(dp1245
g61
I4
ssg62
Nsg55
(lp1246
sbasbasbasbag48
(g64
g50
NtRp1247
(dp1248
g53
(dp1249
sg62
g58
sg55
(lp1250
g48
(g69
g50
NtRp1251
(dp1252
g53
(dp1253
g73
g74
ssg62
g1247
sg55
(lp1254
S'global_settings'
p1255
asbag48
(g69
g50
NtRp1256
(dp1257
g53
(dp1258
g80
g81
ssg62
g1247
sg55
(lp1259
S':'
asbag48
(g69
g50
NtRp1260
(dp1261
g53
(dp1262
sg62
g1247
sg55
(lp1263
g48
(g49
g50
NtRp1264
(dp1265
g53
(dp1266
g61
I5
ssg62
g1260
sg55
(lp1267
g48
(g57
g50
NtRp1268
(dp1269
g53
(dp1270
g61
I4
ssg62
Nsg55
(lp1271
g48
(g64
g50
NtRp1272
(dp1273
g53
(dp1274
sg62
g1268
sg55
(lp1275
g48
(g69
g50
NtRp1276
(dp1277
g53
(dp1278
g73
g74
ssg62
g1272
sg55
(lp1279
g262
asbag48
(g69
g50
NtRp1280
(dp1281
g53
(dp1282
g80
g81
ssg62
g1272
sg55
(lp1283
S':'
asbag48
(g69
g50
NtRp1284
(dp1285
g53
(dp1286
sg62
g1272
sg55
(lp1287
g48
(g49
g50
NtRp1288
(dp1289
g53
(dp1290
g61
I4
ssg62
g1284
sg55
(lp1291
S"set(['C:\\\\Users\\\\Gary\\\\Desktop\\\\web2py\\\\applications\\\\Casa_de_Apuestas\\\\', 'C:\\\\Users\\\\Gary\\\\Desktop\\\\web2py\\\\applications\\\\welcome\\\\', 'C:\\\\Users\\\\Gary\\\\Desktop\\\\web2py\\\\applications\\\\admin\\\\'])"
p1292
asbasbasbag48
(g64
g50
NtRp1293
(dp1294
g53
(dp1295
sg62
g1268
sg55
(lp1296
g48
(g69
g50
NtRp1297
(dp1298
g53
(dp1299
g73
g74
ssg62
g1293
sg55
(lp1300
g284
asbag48
(g69
g50
NtRp1301
(dp1302
g53
(dp1303
g80
g81
ssg62
g1293
sg55
(lp1304
S':'
asbag48
(g69
g50
NtRp1305
(dp1306
g53
(dp1307
sg62
g1293
sg55
(lp1308
g48
(g49
g50
NtRp1309
(dp1310
g53
(dp1311
g61
I4
ssg62
g1305
sg55
(lp1312
g297
asbasbasbag48
(g64
g50
NtRp1313
(dp1314
g53
(dp1315
sg62
g1268
sg55
(lp1316
g48
(g69
g50
NtRp1317
(dp1318
g53
(dp1319
g73
g74
ssg62
g1313
sg55
(lp1320
g306
asbag48
(g69
g50
NtRp1321
(dp1322
g53
(dp1323
g80
g81
ssg62
g1313
sg55
(lp1324
S':'
asbag48
(g69
g50
NtRp1325
(dp1326
g53
(dp1327
sg62
g1313
sg55
(lp1328
g48
(g49
g50
NtRp1329
(dp1330
g53
(dp1331
g61
I4
ssg62
g1325
sg55
(lp1332
g48
(g57
g50
NtRp1333
(dp1334
g53
(dp1335
g61
I3
ssg62
Nsg55
(lp1336
sbasbasbasbag48
(g64
g50
NtRp1337
(dp1338
g53
(dp1339
sg62
g1268
sg55
(lp1340
g48
(g69
g50
NtRp1341
(dp1342
g53
(dp1343
g73
g74
ssg62
g1337
sg55
(lp1344
g331
asbag48
(g69
g50
NtRp1345
(dp1346
g53
(dp1347
g80
g81
ssg62
g1337
sg55
(lp1348
S':'
asbag48
(g69
g50
NtRp1349
(dp1350
g53
(dp1351
sg62
g1337
sg55
(lp1352
g48
(g49
g50
NtRp1353
(dp1354
g53
(dp1355
g61
I4
ssg62
g1349
sg55
(lp1356
S"<Values at 0x32a2e90: {'verbose': False, 'ip': '127.0.0.1', 'shutdown_timeout': 5, 'taskbar': False, 'nocron': False, 'pid_filename': 'httpserver.pid', 'maxthreads': None, 'softcron': False, 'server_name': 'GABM', 'bpython': False, 'nogui': False, 'port': 8000, 'extcron': False, 'debuglevel': 30, 'test': None, 'folder': 'C:\\\\Users\\\\Gary\\\\Desktop\\\\web2py', 'config': '', 'import_models': False, 'winservice': '', 'shell': None, 'run': '', 'log_filename': 'httpserver.log', 'args': [''], 'ssl_ca_certificate': None, 'scheduler': None, 'profiler_filename': None, 'ssl_private_key': '', 'password': '<ask>', 'request_queue_size': 5, 'ssl_certificate': '', 'cronjob': False, 'plain': False, 'quiet': False, 'interfaces': None, 'minthreads': None, 'timeout': 10, 'numthreads': None, 'nobanner': False}>"
p1357
asbasbasbag48
(g64
g50
NtRp1358
(dp1359
g53
(dp1360
sg62
g1268
sg55
(lp1361
g48
(g69
g50
NtRp1362
(dp1363
g53
(dp1364
g73
g74
ssg62
g1358
sg55
(lp1365
g353
asbag48
(g69
g50
NtRp1366
(dp1367
g53
(dp1368
g80
g81
ssg62
g1358
sg55
(lp1369
S':'
asbag48
(g69
g50
NtRp1370
(dp1371
g53
(dp1372
sg62
g1358
sg55
(lp1373
g48
(g49
g50
NtRp1374
(dp1375
g53
(dp1376
g61
I4
ssg62
g1370
sg55
(lp1377
S'set([])'
p1378
asbasbasbag48
(g64
g50
NtRp1379
(dp1380
g53
(dp1381
sg62
g1268
sg55
(lp1382
g48
(g69
g50
NtRp1383
(dp1384
g53
(dp1385
g73
g74
ssg62
g1379
sg55
(lp1386
g375
asbag48
(g69
g50
NtRp1387
(dp1388
g53
(dp1389
g80
g81
ssg62
g1379
sg55
(lp1390
S':'
asbag48
(g69
g50
NtRp1391
(dp1392
g53
(dp1393
sg62
g1379
sg55
(lp1394
g48
(g49
g50
NtRp1395
(dp1396
g53
(dp1397
g61
I4
ssg62
g1391
sg55
(lp1398
g91
asbasbasbag48
(g64
g50
NtRp1399
(dp1400
g53
(dp1401
sg62
g1268
sg55
(lp1402
g48
(g69
g50
NtRp1403
(dp1404
g53
(dp1405
g73
g74
ssg62
g1399
sg55
(lp1406
g396
asbag48
(g69
g50
NtRp1407
(dp1408
g53
(dp1409
g80
g81
ssg62
g1399
sg55
(lp1410
S':'
asbag48
(g69
g50
NtRp1411
(dp1412
g53
(dp1413
sg62
g1399
sg55
(lp1414
g48
(g49
g50
NtRp1415
(dp1416
g53
(dp1417
g61
I4
ssg62
g1411
sg55
(lp1418
g409
asbasbasbag48
(g64
g50
NtRp1419
(dp1420
g53
(dp1421
sg62
g1268
sg55
(lp1422
g48
(g69
g50
NtRp1423
(dp1424
g53
(dp1425
g73
g74
ssg62
g1419
sg55
(lp1426
g594
asbag48
(g69
g50
NtRp1427
(dp1428
g53
(dp1429
g80
g81
ssg62
g1419
sg55
(lp1430
S':'
asbag48
(g69
g50
NtRp1431
(dp1432
g53
(dp1433
sg62
g1419
sg55
(lp1434
g48
(g49
g50
NtRp1435
(dp1436
g53
(dp1437
g61
I4
ssg62
g1431
sg55
(lp1438
g91
asbasbasbag48
(g64
g50
NtRp1439
(dp1440
g53
(dp1441
sg62
g1268
sg55
(lp1442
g48
(g69
g50
NtRp1443
(dp1444
g53
(dp1445
g73
g74
ssg62
g1439
sg55
(lp1446
g832
asbag48
(g69
g50
NtRp1447
(dp1448
g53
(dp1449
g80
g81
ssg62
g1439
sg55
(lp1450
S':'
asbag48
(g69
g50
NtRp1451
(dp1452
g53
(dp1453
sg62
g1439
sg55
(lp1454
g48
(g49
g50
NtRp1455
(dp1456
g53
(dp1457
g61
I4
ssg62
g1451
sg55
(lp1458
g845
asbasbasbag48
(g64
g50
NtRp1459
(dp1460
g53
(dp1461
sg62
g1268
sg55
(lp1462
g48
(g69
g50
NtRp1463
(dp1464
g53
(dp1465
g73
g74
ssg62
g1459
sg55
(lp1466
g875
asbag48
(g69
g50
NtRp1467
(dp1468
g53
(dp1469
g80
g81
ssg62
g1459
sg55
(lp1470
S':'
asbag48
(g69
g50
NtRp1471
(dp1472
g53
(dp1473
sg62
g1459
sg55
(lp1474
g48
(g49
g50
NtRp1475
(dp1476
g53
(dp1477
g61
I4
ssg62
g1471
sg55
(lp1478
g48
(g57
g50
NtRp1479
(dp1480
g53
(dp1481
g61
I3
ssg62
Nsg55
(lp1482
g48
(g64
g50
NtRp1483
(dp1484
g53
(dp1485
sg62
g1479
sg55
(lp1486
g48
(g69
g50
NtRp1487
(dp1488
g53
(dp1489
sg62
g1483
sg55
(lp1490
g48
(g49
g50
NtRp1491
(dp1492
g53
(dp1493
g61
I3
ssg62
g1487
sg55
(lp1494
S'1'
asbasbasbag48
(g64
g50
NtRp1495
(dp1496
g53
(dp1497
sg62
g1479
sg55
(lp1498
g48
(g69
g50
NtRp1499
(dp1500
g53
(dp1501
sg62
g1495
sg55
(lp1502
g48
(g49
g50
NtRp1503
(dp1504
g53
(dp1505
g61
I3
ssg62
g1499
sg55
(lp1506
S'99'
p1507
asbasbasbag48
(g64
g50
NtRp1508
(dp1509
g53
(dp1510
sg62
g1479
sg55
(lp1511
g48
(g69
g50
NtRp1512
(dp1513
g53
(dp1514
sg62
g1508
sg55
(lp1515
g48
(g49
g50
NtRp1516
(dp1517
g53
(dp1518
g61
I3
ssg62
g1512
sg55
(lp1519
S'2'
asbasbasbag48
(g64
g50
NtRp1520
(dp1521
g53
(dp1522
sg62
g1479
sg55
(lp1523
g48
(g69
g50
NtRp1524
(dp1525
g53
(dp1526
sg62
g1520
sg55
(lp1527
g48
(g49
g50
NtRp1528
(dp1529
g53
(dp1530
g61
I3
ssg62
g1524
sg55
(lp1531
S'datetime.datetime(2011, 9, 26, 6, 55, 33)'
p1532
asbasbasbag48
(g64
g50
NtRp1533
(dp1534
g53
(dp1535
sg62
g1479
sg55
(lp1536
g48
(g69
g50
NtRp1537
(dp1538
g53
(dp1539
sg62
g1533
sg55
(lp1540
g48
(g49
g50
NtRp1541
(dp1542
g53
(dp1543
g61
I3
ssg62
g1537
sg55
(lp1544
g954
asbasbasbasbasbasbasbasbasbasbasbag48
(g64
g50
NtRp1545
(dp1546
g53
(dp1547
sg62
g58
sg55
(lp1548
g48
(g69
g50
NtRp1549
(dp1550
g53
(dp1551
g73
g74
ssg62
g1545
sg55
(lp1552
S'is_https'
p1553
asbag48
(g69
g50
NtRp1554
(dp1555
g53
(dp1556
g80
g81
ssg62
g1545
sg55
(lp1557
S':'
asbag48
(g69
g50
NtRp1558
(dp1559
g53
(dp1560
sg62
g1545
sg55
(lp1561
g48
(g49
g50
NtRp1562
(dp1563
g53
(dp1564
g61
I5
ssg62
g1558
sg55
(lp1565
g91
asbasbasbag48
(g64
g50
NtRp1566
(dp1567
g53
(dp1568
sg62
g58
sg55
(lp1569
g48
(g69
g50
NtRp1570
(dp1571
g53
(dp1572
g73
g74
ssg62
g1566
sg55
(lp1573
S'is_local'
p1574
asbag48
(g69
g50
NtRp1575
(dp1576
g53
(dp1577
g80
g81
ssg62
g1566
sg55
(lp1578
S':'
asbag48
(g69
g50
NtRp1579
(dp1580
g53
(dp1581
sg62
g1566
sg55
(lp1582
g48
(g49
g50
NtRp1583
(dp1584
g53
(dp1585
g61
I5
ssg62
g1579
sg55
(lp1586
g1063
asbasbasbag48
(g64
g50
NtRp1587
(dp1588
g53
(dp1589
sg62
g58
sg55
(lp1590
g48
(g69
g50
NtRp1591
(dp1592
g53
(dp1593
g73
g74
ssg62
g1587
sg55
(lp1594
S'is_restful'
p1595
asbag48
(g69
g50
NtRp1596
(dp1597
g53
(dp1598
g80
g81
ssg62
g1587
sg55
(lp1599
S':'
asbag48
(g69
g50
NtRp1600
(dp1601
g53
(dp1602
sg62
g1587
sg55
(lp1603
g48
(g49
g50
NtRp1604
(dp1605
g53
(dp1606
g61
I5
ssg62
g1600
sg55
(lp1607
g91
asbasbasbag48
(g64
g50
NtRp1608
(dp1609
g53
(dp1610
sg62
g58
sg55
(lp1611
g48
(g69
g50
NtRp1612
(dp1613
g53
(dp1614
g73
g74
ssg62
g1608
sg55
(lp1615
S'now'
p1616
asbag48
(g69
g50
NtRp1617
(dp1618
g53
(dp1619
g80
g81
ssg62
g1608
sg55
(lp1620
S':'
asbag48
(g69
g50
NtRp1621
(dp1622
g53
(dp1623
sg62
g1608
sg55
(lp1624
g48
(g49
g50
NtRp1625
(dp1626
g53
(dp1627
g61
I5
ssg62
g1621
sg55
(lp1628
S'datetime.datetime(2011, 11, 18, 23, 30, 51, 330000)'
p1629
asbasbasbag48
(g64
g50
NtRp1630
(dp1631
g53
(dp1632
sg62
g58
sg55
(lp1633
g48
(g69
g50
NtRp1634
(dp1635
g53
(dp1636
g73
g74
ssg62
g1630
sg55
(lp1637
S'post_vars'
p1638
asbag48
(g69
g50
NtRp1639
(dp1640
g53
(dp1641
g80
g81
ssg62
g1630
sg55
(lp1642
S':'
asbag48
(g69
g50
NtRp1643
(dp1644
g53
(dp1645
sg62
g1630
sg55
(lp1646
g48
(g49
g50
NtRp1647
(dp1648
g53
(dp1649
g61
I5
ssg62
g1643
sg55
(lp1650
g48
(g57
g50
NtRp1651
(dp1652
g53
(dp1653
g61
I4
ssg62
Nsg55
(lp1654
sbasbasbasbag48
(g64
g50
NtRp1655
(dp1656
g53
(dp1657
sg62
g58
sg55
(lp1658
g48
(g69
g50
NtRp1659
(dp1660
g53
(dp1661
g73
g74
ssg62
g1655
sg55
(lp1662
S'url'
p1663
asbag48
(g69
g50
NtRp1664
(dp1665
g53
(dp1666
g80
g81
ssg62
g1655
sg55
(lp1667
S':'
asbag48
(g69
g50
NtRp1668
(dp1669
g53
(dp1670
sg62
g1655
sg55
(lp1671
g48
(g49
g50
NtRp1672
(dp1673
g53
(dp1674
g61
I5
ssg62
g1668
sg55
(lp1675
S'/Casa_de_Apuestas/default/prueba_xml'
p1676
asbasbasbag48
(g64
g50
NtRp1677
(dp1678
g53
(dp1679
sg62
g58
sg55
(lp1680
g48
(g69
g50
NtRp1681
(dp1682
g53
(dp1683
g73
g74
ssg62
g1677
sg55
(lp1684
S'utcnow'
p1685
asbag48
(g69
g50
NtRp1686
(dp1687
g53
(dp1688
g80
g81
ssg62
g1677
sg55
(lp1689
S':'
asbag48
(g69
g50
NtRp1690
(dp1691
g53
(dp1692
sg62
g1677
sg55
(lp1693
g48
(g49
g50
NtRp1694
(dp1695
g53
(dp1696
g61
I5
ssg62
g1690
sg55
(lp1697
S'datetime.datetime(2011, 11, 19, 4, 0, 51, 330000)'
p1698
asbasbasbag48
(g64
g50
NtRp1699
(dp1700
g53
(dp1701
sg62
g58
sg55
(lp1702
g48
(g69
g50
NtRp1703
(dp1704
g53
(dp1705
g73
g74
ssg62
g1699
sg55
(lp1706
S'uuid'
p1707
asbag48
(g69
g50
NtRp1708
(dp1709
g53
(dp1710
g80
g81
ssg62
g1699
sg55
(lp1711
S':'
asbag48
(g69
g50
NtRp1712
(dp1713
g53
(dp1714
sg62
g1699
sg55
(lp1715
g48
(g49
g50
NtRp1716
(dp1717
g53
(dp1718
g61
I5
ssg62
g1712
sg55
(lp1719
S'Casa_de_Apuestas/127.0.0.1.2011-11-18.23-30-51.c6bac9e5-c83c-4058-a9ef-6f439a375881'
p1720
asbasbasbag48
(g64
g50
NtRp1721
(dp1722
g53
(dp1723
sg62
g58
sg55
(lp1724
g48
(g69
g50
NtRp1725
(dp1726
g53
(dp1727
g73
g74
ssg62
g1721
sg55
(lp1728
S'vars'
p1729
asbag48
(g69
g50
NtRp1730
(dp1731
g53
(dp1732
g80
g81
ssg62
g1721
sg55
(lp1733
S':'
asbag48
(g69
g50
NtRp1734
(dp1735
g53
(dp1736
sg62
g1721
sg55
(lp1737
g48
(g49
g50
NtRp1738
(dp1739
g53
(dp1740
g61
I5
ssg62
g1734
sg55
(lp1741
g48
(g57
g50
NtRp1742
(dp1743
g53
(dp1744
g61
I4
ssg62
Nsg55
(lp1745
sbasbasbasbag48
(g64
g50
NtRp1746
(dp1747
g53
(dp1748
sg62
g58
sg55
(lp1749
g48
(g69
g50
NtRp1750
(dp1751
g53
(dp1752
g73
g74
ssg62
g1746
sg55
(lp1753
S'wsgi'
p1754
asbag48
(g69
g50
NtRp1755
(dp1756
g53
(dp1757
g80
g81
ssg62
g1746
sg55
(lp1758
S':'
asbag48
(g69
g50
NtRp1759
(dp1760
g53
(dp1761
sg62
g1746
sg55
(lp1762
g48
(g49
g50
NtRp1763
(dp1764
g53
(dp1765
g61
I5
ssg62
g1759
sg55
(lp1766
g48
(g57
g50
NtRp1767
(dp1768
g53
(dp1769
g61
I4
ssg62
Nsg55
(lp1770
g48
(g64
g50
NtRp1771
(dp1772
g53
(dp1773
sg62
g1767
sg55
(lp1774
g48
(g69
g50
NtRp1775
(dp1776
g53
(dp1777
g73
g74
ssg62
g1771
sg55
(lp1778
S'environ'
p1779
asbag48
(g69
g50
NtRp1780
(dp1781
g53
(dp1782
g80
g81
ssg62
g1771
sg55
(lp1783
S':'
asbag48
(g69
g50
NtRp1784
(dp1785
g53
(dp1786
sg62
g1771
sg55
(lp1787
g48
(g49
g50
NtRp1788
(dp1789
g53
(dp1790
g61
I4
ssg62
g1784
sg55
(lp1791
g48
(g57
g50
NtRp1792
(dp1793
g53
(dp1794
g61
I3
ssg62
Nsg55
(lp1795
g48
(g64
g50
NtRp1796
(dp1797
g53
(dp1798
sg62
g1792
sg55
(lp1799
g48
(g69
g50
NtRp1800
(dp1801
g53
(dp1802
g73
g74
ssg62
g1796
sg55
(lp1803
S'HTTP_ACCEPT'
p1804
asbag48
(g69
g50
NtRp1805
(dp1806
g53
(dp1807
g80
g81
ssg62
g1796
sg55
(lp1808
S':'
asbag48
(g69
g50
NtRp1809
(dp1810
g53
(dp1811
sg62
g1796
sg55
(lp1812
g48
(g49
g50
NtRp1813
(dp1814
g53
(dp1815
g61
I3
ssg62
g1809
sg55
(lp1816
g431
asbasbasbag48
(g64
g50
NtRp1817
(dp1818
g53
(dp1819
sg62
g1792
sg55
(lp1820
g48
(g69
g50
NtRp1821
(dp1822
g53
(dp1823
g73
g74
ssg62
g1817
sg55
(lp1824
S'HTTP_ACCEPT_CHARSET'
p1825
asbag48
(g69
g50
NtRp1826
(dp1827
g53
(dp1828
g80
g81
ssg62
g1817
sg55
(lp1829
S':'
asbag48
(g69
g50
NtRp1830
(dp1831
g53
(dp1832
sg62
g1817
sg55
(lp1833
g48
(g49
g50
NtRp1834
(dp1835
g53
(dp1836
g61
I3
ssg62
g1830
sg55
(lp1837
g453
asbasbasbag48
(g64
g50
NtRp1838
(dp1839
g53
(dp1840
sg62
g1792
sg55
(lp1841
g48
(g69
g50
NtRp1842
(dp1843
g53
(dp1844
g73
g74
ssg62
g1838
sg55
(lp1845
S'HTTP_ACCEPT_ENCODING'
p1846
asbag48
(g69
g50
NtRp1847
(dp1848
g53
(dp1849
g80
g81
ssg62
g1838
sg55
(lp1850
S':'
asbag48
(g69
g50
NtRp1851
(dp1852
g53
(dp1853
sg62
g1838
sg55
(lp1854
g48
(g49
g50
NtRp1855
(dp1856
g53
(dp1857
g61
I3
ssg62
g1851
sg55
(lp1858
g475
asbasbasbag48
(g64
g50
NtRp1859
(dp1860
g53
(dp1861
sg62
g1792
sg55
(lp1862
g48
(g69
g50
NtRp1863
(dp1864
g53
(dp1865
g73
g74
ssg62
g1859
sg55
(lp1866
S'HTTP_ACCEPT_LANGUAGE'
p1867
asbag48
(g69
g50
NtRp1868
(dp1869
g53
(dp1870
g80
g81
ssg62
g1859
sg55
(lp1871
S':'
asbag48
(g69
g50
NtRp1872
(dp1873
g53
(dp1874
sg62
g1859
sg55
(lp1875
g48
(g49
g50
NtRp1876
(dp1877
g53
(dp1878
g61
I3
ssg62
g1872
sg55
(lp1879
g497
asbasbasbag48
(g64
g50
NtRp1880
(dp1881
g53
(dp1882
sg62
g1792
sg55
(lp1883
g48
(g69
g50
NtRp1884
(dp1885
g53
(dp1886
g73
g74
ssg62
g1880
sg55
(lp1887
S'HTTP_CONNECTION'
p1888
asbag48
(g69
g50
NtRp1889
(dp1890
g53
(dp1891
g80
g81
ssg62
g1880
sg55
(lp1892
S':'
asbag48
(g69
g50
NtRp1893
(dp1894
g53
(dp1895
sg62
g1880
sg55
(lp1896
g48
(g49
g50
NtRp1897
(dp1898
g53
(dp1899
g61
I3
ssg62
g1893
sg55
(lp1900
g519
asbasbasbag48
(g64
g50
NtRp1901
(dp1902
g53
(dp1903
sg62
g1792
sg55
(lp1904
g48
(g69
g50
NtRp1905
(dp1906
g53
(dp1907
g73
g74
ssg62
g1901
sg55
(lp1908
S'HTTP_COOKIE'
p1909
asbag48
(g69
g50
NtRp1910
(dp1911
g53
(dp1912
g80
g81
ssg62
g1901
sg55
(lp1913
S':'
asbag48
(g69
g50
NtRp1914
(dp1915
g53
(dp1916
sg62
g1901
sg55
(lp1917
g48
(g49
g50
NtRp1918
(dp1919
g53
(dp1920
g61
I3
ssg62
g1914
sg55
(lp1921
g541
asbasbasbag48
(g64
g50
NtRp1922
(dp1923
g53
(dp1924
sg62
g1792
sg55
(lp1925
g48
(g69
g50
NtRp1926
(dp1927
g53
(dp1928
g73
g74
ssg62
g1922
sg55
(lp1929
S'HTTP_HOST'
p1930
asbag48
(g69
g50
NtRp1931
(dp1932
g53
(dp1933
g80
g81
ssg62
g1922
sg55
(lp1934
S':'
asbag48
(g69
g50
NtRp1935
(dp1936
g53
(dp1937
sg62
g1922
sg55
(lp1938
g48
(g49
g50
NtRp1939
(dp1940
g53
(dp1941
g61
I3
ssg62
g1935
sg55
(lp1942
g563
asbasbasbag48
(g64
g50
NtRp1943
(dp1944
g53
(dp1945
sg62
g1792
sg55
(lp1946
g48
(g69
g50
NtRp1947
(dp1948
g53
(dp1949
g73
g74
ssg62
g1943
sg55
(lp1950
S'HTTP_USER_AGENT'
p1951
asbag48
(g69
g50
NtRp1952
(dp1953
g53
(dp1954
g80
g81
ssg62
g1943
sg55
(lp1955
S':'
asbag48
(g69
g50
NtRp1956
(dp1957
g53
(dp1958
sg62
g1943
sg55
(lp1959
g48
(g49
g50
NtRp1960
(dp1961
g53
(dp1962
g61
I3
ssg62
g1956
sg55
(lp1963
g585
asbasbasbag48
(g64
g50
NtRp1964
(dp1965
g53
(dp1966
sg62
g1792
sg55
(lp1967
g48
(g69
g50
NtRp1968
(dp1969
g53
(dp1970
g73
g74
ssg62
g1964
sg55
(lp1971
S'PATH_INFO'
p1972
asbag48
(g69
g50
NtRp1973
(dp1974
g53
(dp1975
g80
g81
ssg62
g1964
sg55
(lp1976
S':'
asbag48
(g69
g50
NtRp1977
(dp1978
g53
(dp1979
sg62
g1964
sg55
(lp1980
g48
(g49
g50
NtRp1981
(dp1982
g53
(dp1983
g61
I3
ssg62
g1977
sg55
(lp1984
g628
asbasbasbag48
(g64
g50
NtRp1985
(dp1986
g53
(dp1987
sg62
g1792
sg55
(lp1988
g48
(g69
g50
NtRp1989
(dp1990
g53
(dp1991
g73
g74
ssg62
g1985
sg55
(lp1992
S'QUERY_STRING'
p1993
asbag48
(g69
g50
NtRp1994
(dp1995
g53
(dp1996
g80
g81
ssg62
g1985
sg55
(lp1997
S':'
asbag48
(g69
g50
NtRp1998
(dp1999
g53
(dp2000
sg62
g1985
sg55
(lp2001
g48
(g49
g50
NtRp2002
(dp2003
g53
(dp2004
g61
I3
ssg62
g1998
sg55
(lp2005
S''
asbasbasbag48
(g64
g50
NtRp2006
(dp2007
g53
(dp2008
sg62
g1792
sg55
(lp2009
g48
(g69
g50
NtRp2010
(dp2011
g53
(dp2012
g73
g74
ssg62
g2006
sg55
(lp2013
S'REMOTE_ADDR'
p2014
asbag48
(g69
g50
NtRp2015
(dp2016
g53
(dp2017
g80
g81
ssg62
g2006
sg55
(lp2018
S':'
asbag48
(g69
g50
NtRp2019
(dp2020
g53
(dp2021
sg62
g2006
sg55
(lp2022
g48
(g49
g50
NtRp2023
(dp2024
g53
(dp2025
g61
I3
ssg62
g2019
sg55
(lp2026
g181
asbasbasbag48
(g64
g50
NtRp2027
(dp2028
g53
(dp2029
sg62
g1792
sg55
(lp2030
g48
(g69
g50
NtRp2031
(dp2032
g53
(dp2033
g73
g74
ssg62
g2027
sg55
(lp2034
S'REMOTE_PORT'
p2035
asbag48
(g69
g50
NtRp2036
(dp2037
g53
(dp2038
g80
g81
ssg62
g2027
sg55
(lp2039
S':'
asbag48
(g69
g50
NtRp2040
(dp2041
g53
(dp2042
sg62
g2027
sg55
(lp2043
g48
(g49
g50
NtRp2044
(dp2045
g53
(dp2046
g61
I3
ssg62
g2040
sg55
(lp2047
g692
asbasbasbag48
(g64
g50
NtRp2048
(dp2049
g53
(dp2050
sg62
g1792
sg55
(lp2051
g48
(g69
g50
NtRp2052
(dp2053
g53
(dp2054
g73
g74
ssg62
g2048
sg55
(lp2055
S'REQUEST_METHOD'
p2056
asbag48
(g69
g50
NtRp2057
(dp2058
g53
(dp2059
g80
g81
ssg62
g2048
sg55
(lp2060
S':'
asbag48
(g69
g50
NtRp2061
(dp2062
g53
(dp2063
sg62
g2048
sg55
(lp2064
g48
(g49
g50
NtRp2065
(dp2066
g53
(dp2067
g61
I3
ssg62
g2061
sg55
(lp2068
g714
asbasbasbag48
(g64
g50
NtRp2069
(dp2070
g53
(dp2071
sg62
g1792
sg55
(lp2072
g48
(g69
g50
NtRp2073
(dp2074
g53
(dp2075
g73
g74
ssg62
g2069
sg55
(lp2076
S'SCRIPT_NAME'
p2077
asbag48
(g69
g50
NtRp2078
(dp2079
g53
(dp2080
g80
g81
ssg62
g2069
sg55
(lp2081
S':'
asbag48
(g69
g50
NtRp2082
(dp2083
g53
(dp2084
sg62
g2069
sg55
(lp2085
g48
(g49
g50
NtRp2086
(dp2087
g53
(dp2088
g61
I3
ssg62
g2082
sg55
(lp2089
S''
asbasbasbag48
(g64
g50
NtRp2090
(dp2091
g53
(dp2092
sg62
g1792
sg55
(lp2093
g48
(g69
g50
NtRp2094
(dp2095
g53
(dp2096
g73
g74
ssg62
g2090
sg55
(lp2097
S'SERVER_NAME'
p2098
asbag48
(g69
g50
NtRp2099
(dp2100
g53
(dp2101
g80
g81
ssg62
g2090
sg55
(lp2102
S':'
asbag48
(g69
g50
NtRp2103
(dp2104
g53
(dp2105
sg62
g2090
sg55
(lp2106
g48
(g49
g50
NtRp2107
(dp2108
g53
(dp2109
g61
I3
ssg62
g2103
sg55
(lp2110
g757
asbasbasbag48
(g64
g50
NtRp2111
(dp2112
g53
(dp2113
sg62
g1792
sg55
(lp2114
g48
(g69
g50
NtRp2115
(dp2116
g53
(dp2117
g73
g74
ssg62
g2111
sg55
(lp2118
S'SERVER_PORT'
p2119
asbag48
(g69
g50
NtRp2120
(dp2121
g53
(dp2122
g80
g81
ssg62
g2111
sg55
(lp2123
S':'
asbag48
(g69
g50
NtRp2124
(dp2125
g53
(dp2126
sg62
g2111
sg55
(lp2127
g48
(g49
g50
NtRp2128
(dp2129
g53
(dp2130
g61
I3
ssg62
g2124
sg55
(lp2131
g779
asbasbasbag48
(g64
g50
NtRp2132
(dp2133
g53
(dp2134
sg62
g1792
sg55
(lp2135
g48
(g69
g50
NtRp2136
(dp2137
g53
(dp2138
g73
g74
ssg62
g2132
sg55
(lp2139
S'SERVER_PROTOCOL'
p2140
asbag48
(g69
g50
NtRp2141
(dp2142
g53
(dp2143
g80
g81
ssg62
g2132
sg55
(lp2144
S':'
asbag48
(g69
g50
NtRp2145
(dp2146
g53
(dp2147
sg62
g2132
sg55
(lp2148
g48
(g49
g50
NtRp2149
(dp2150
g53
(dp2151
g61
I3
ssg62
g2145
sg55
(lp2152
g801
asbasbasbag48
(g64
g50
NtRp2153
(dp2154
g53
(dp2155
sg62
g1792
sg55
(lp2156
g48
(g69
g50
NtRp2157
(dp2158
g53
(dp2159
g73
g74
ssg62
g2153
sg55
(lp2160
S'SERVER_SOFTWARE'
p2161
asbag48
(g69
g50
NtRp2162
(dp2163
g53
(dp2164
g80
g81
ssg62
g2153
sg55
(lp2165
S':'
asbag48
(g69
g50
NtRp2166
(dp2167
g53
(dp2168
sg62
g2153
sg55
(lp2169
g48
(g49
g50
NtRp2170
(dp2171
g53
(dp2172
g61
I3
ssg62
g2166
sg55
(lp2173
g823
asbasbasbag48
(g64
g50
NtRp2174
(dp2175
g53
(dp2176
sg62
g1792
sg55
(lp2177
g48
(g69
g50
NtRp2178
(dp2179
g53
(dp2180
g73
g74
ssg62
g2174
sg55
(lp2181
S'wsgi.errors'
p2182
asbag48
(g69
g50
NtRp2183
(dp2184
g53
(dp2185
g80
g81
ssg62
g2174
sg55
(lp2186
S':'
asbag48
(g69
g50
NtRp2187
(dp2188
g53
(dp2189
sg62
g2174
sg55
(lp2190
g48
(g49
g50
NtRp2191
(dp2192
g53
(dp2193
g61
I3
ssg62
g2187
sg55
(lp2194
S"<open file '<stderr>', mode 'w' at 0x004200B0>"
p2195
asbasbasbag48
(g64
g50
NtRp2196
(dp2197
g53
(dp2198
sg62
g1792
sg55
(lp2199
g48
(g69
g50
NtRp2200
(dp2201
g53
(dp2202
g73
g74
ssg62
g2196
sg55
(lp2203
S'wsgi.file_wrapper'
p2204
asbag48
(g69
g50
NtRp2205
(dp2206
g53
(dp2207
g80
g81
ssg62
g2196
sg55
(lp2208
S':'
asbag48
(g69
g50
NtRp2209
(dp2210
g53
(dp2211
sg62
g2196
sg55
(lp2212
g48
(g49
g50
NtRp2213
(dp2214
g53
(dp2215
g61
I3
ssg62
g2209
sg55
(lp2216
S'<class wsgiref.util.FileWrapper at 0x0303FC90>'
p2217
asbasbasbag48
(g64
g50
NtRp2218
(dp2219
g53
(dp2220
sg62
g1792
sg55
(lp2221
g48
(g69
g50
NtRp2222
(dp2223
g53
(dp2224
g73
g74
ssg62
g2218
sg55
(lp2225
S'wsgi.input'
p2226
asbag48
(g69
g50
NtRp2227
(dp2228
g53
(dp2229
g80
g81
ssg62
g2218
sg55
(lp2230
S':'
asbag48
(g69
g50
NtRp2231
(dp2232
g53
(dp2233
sg62
g2218
sg55
(lp2234
g48
(g49
g50
NtRp2235
(dp2236
g53
(dp2237
g61
I3
ssg62
g2231
sg55
(lp2238
S'<cStringIO.StringO object at 0x0783B360>'
p2239
asbasbasbag48
(g64
g50
NtRp2240
(dp2241
g53
(dp2242
sg62
g1792
sg55
(lp2243
g48
(g69
g50
NtRp2244
(dp2245
g53
(dp2246
g73
g74
ssg62
g2240
sg55
(lp2247
S'wsgi.multiprocess'
p2248
asbag48
(g69
g50
NtRp2249
(dp2250
g53
(dp2251
g80
g81
ssg62
g2240
sg55
(lp2252
S':'
asbag48
(g69
g50
NtRp2253
(dp2254
g53
(dp2255
sg62
g2240
sg55
(lp2256
g48
(g49
g50
NtRp2257
(dp2258
g53
(dp2259
g61
I3
ssg62
g2253
sg55
(lp2260
g91
asbasbasbag48
(g64
g50
NtRp2261
(dp2262
g53
(dp2263
sg62
g1792
sg55
(lp2264
g48
(g69
g50
NtRp2265
(dp2266
g53
(dp2267
g73
g74
ssg62
g2261
sg55
(lp2268
S'wsgi.multithread'
p2269
asbag48
(g69
g50
NtRp2270
(dp2271
g53
(dp2272
g80
g81
ssg62
g2261
sg55
(lp2273
S':'
asbag48
(g69
g50
NtRp2274
(dp2275
g53
(dp2276
sg62
g2261
sg55
(lp2277
g48
(g49
g50
NtRp2278
(dp2279
g53
(dp2280
g61
I3
ssg62
g2274
sg55
(lp2281
g1063
asbasbasbag48
(g64
g50
NtRp2282
(dp2283
g53
(dp2284
sg62
g1792
sg55
(lp2285
g48
(g69
g50
NtRp2286
(dp2287
g53
(dp2288
g73
g74
ssg62
g2282
sg55
(lp2289
S'wsgi.run_once'
p2290
asbag48
(g69
g50
NtRp2291
(dp2292
g53
(dp2293
g80
g81
ssg62
g2282
sg55
(lp2294
S':'
asbag48
(g69
g50
NtRp2295
(dp2296
g53
(dp2297
sg62
g2282
sg55
(lp2298
g48
(g49
g50
NtRp2299
(dp2300
g53
(dp2301
g61
I3
ssg62
g2295
sg55
(lp2302
g91
asbasbasbag48
(g64
g50
NtRp2303
(dp2304
g53
(dp2305
sg62
g1792
sg55
(lp2306
g48
(g69
g50
NtRp2307
(dp2308
g53
(dp2309
g73
g74
ssg62
g2303
sg55
(lp2310
S'wsgi.url_scheme'
p2311
asbag48
(g69
g50
NtRp2312
(dp2313
g53
(dp2314
g80
g81
ssg62
g2303
sg55
(lp2315
S':'
asbag48
(g69
g50
NtRp2316
(dp2317
g53
(dp2318
sg62
g2303
sg55
(lp2319
g48
(g49
g50
NtRp2320
(dp2321
g53
(dp2322
g61
I3
ssg62
g2316
sg55
(lp2323
g1106
asbasbasbag48
(g64
g50
NtRp2324
(dp2325
g53
(dp2326
sg62
g1792
sg55
(lp2327
g48
(g69
g50
NtRp2328
(dp2329
g53
(dp2330
g73
g74
ssg62
g2324
sg55
(lp2331
S'wsgi.version'
p2332
asbag48
(g69
g50
NtRp2333
(dp2334
g53
(dp2335
g80
g81
ssg62
g2324
sg55
(lp2336
S':'
asbag48
(g69
g50
NtRp2337
(dp2338
g53
(dp2339
sg62
g2324
sg55
(lp2340
g48
(g49
g50
NtRp2341
(dp2342
g53
(dp2343
g61
I3
ssg62
g2337
sg55
(lp2344
S'1'
asbasbasbasbasbasbasbasbasbasbasbasbasbsS'frames'
p2345
(lp2346
(dp2347
S'file'
p2348
S'C:\\Users\\Gary\\Desktop\\web2py\\gluon\\restricted.py'
p2349
sS'dump'
p2350
(dp2351
sS'lnum'
p2352
I194
sS'lines'
p2353
(dp2354
sS'call'
p2355
S"(code='# -*- coding: utf-8 -*-\\n### required - do no del...rm)\\n\\nresponse._vars=response._caller(prueba_xml)\\n', environment={'A': <class 'gluon.html.A'>, 'Auth': <class 'gluon.tools.Auth'>, 'B': <class 'gluon.html.B'>, 'BEAUTIFY': <class 'gluon.html.BEAUTIFY'>, 'BODY': <class 'gluon.html.BODY'>, 'BR': <class 'gluon.html.BR'>, 'BUTTON': <class 'gluon.html.BUTTON'>, 'CAT': <class 'gluon.html.CAT'>, 'CENTER': <class 'gluon.html.CENTER'>, 'CLEANUP': <class 'gluon.validators.CLEANUP'>, ...}, layer=r'C:\\Users\\Gary\\Desktop\\web2py\\applications\\Casa_de_Apuestas\\controllers/default.py')"
p2356
sS'func'
p2357
S'restricted'
p2358
sa(dp2359
g2348
S'C:\\Users\\Gary\\Desktop\\web2py\\applications\\Casa_de_Apuestas\\controllers\\default.py'
p2360
sg2350
(dp2361
sg2352
I110
sg2353
(dp2362
I99
S"    form = crud.update(db.maquinas,request.args(0),next=URL('mostrarMaquina'))"
p2363
sI100
S'    return dict(form=form)'
p2364
sI101
S''
sI102
S'def mostrarUsuario():'
p2365
sI103
S'    usuarios= db().select(db.auth_user.ALL, orderby=db.auth_user.id)'
p2366
sI104
S'    return dict(usuarios=usuarios)'
p2367
sI105
S''
sI106
S'def showUsuario():'
p2368
sI107
S"    form = crud.update(db.auth_user,request.args(0),next=URL('mostrarUsuario'))"
p2369
sI108
S'    return dict(form=form)'
p2370
ssg2355
S'()'
p2371
sg2357
S'<module>'
p2372
sa(dp2373
g2348
S'C:\\Users\\Gary\\Desktop\\web2py\\gluon\\globals.py'
p2374
sg2350
(dp2375
sg2352
I149
sg2353
(dp2376
sg2355
S'(f=<function prueba_xml at 0x076E04B0>)'
p2377
sg2357
S'<lambda>'
p2378
sa(dp2379
g2348
S'C:\\Users\\Gary\\Desktop\\web2py\\applications\\Casa_de_Apuestas\\controllers\\default.py'
p2380
sg2350
(dp2381
sg2352
I66
sg2353
(dp2382
I64
S'    codificador.update(generar_xml(db().select(db.participantes.ALL)))'
p2383
sI65
S'    #return generar_xml(db().select(db.participantes.ALL))'
p2384
sI66
S'    return dict(var=codificador.hexdigest(), var1=codificador1.hexdigest())'
p2385
sI67
S''
sI68
S'def mostrarCategoria():'
p2386
sI69
S'    categorias= db().select(db.categorias.ALL, orderby=db.categorias.id)'
p2387
sI70
S'    return dict(categorias=categorias)'
p2388
sI61
S'    codificador = hashlib.md5()'
p2389
sI62
S"    response.headers['Content-Type']='application/xml'"
p2390
sI63
S'    #a = generar_xml(db().select(db.participantes.ALL));'
p2391
ssg2355
S'()'
p2392
sg2357
S'prueba_xml'
p2393
sasS'pyver'
p2394
S'Python 2.5.4: C:\\Users\\Gary\\Desktop\\web2py\\web2py.exe'
p2395
sS'session'
p2396
g48
(g49
g50
NtRp2397
(dp2398
g53
(dp2399
sg55
(lp2400
g48
(g57
g50
NtRp2401
(dp2402
g53
(dp2403
g61
I5
ssg62
Nsg55
(lp2404
sbasbsS'etype'
p2405
S"<type 'exceptions.NameError'>"
p2406
sS'date'
p2407
S'Fri Nov 18 23:30:51 2011'
p2408
sS'response'
p2409
g48
(g49
g50
NtRp2410
(dp2411
g53
(dp2412
sg55
(lp2413
g48
(g57
g50
NtRp2414
(dp2415
g53
(dp2416
g61
I5
ssg62
Nsg55
(lp2417
g48
(g64
g50
NtRp2418
(dp2419
g53
(dp2420
sg62
g2414
sg55
(lp2421
g48
(g69
g50
NtRp2422
(dp2423
g53
(dp2424
g73
g74
ssg62
g2418
sg55
(lp2425
g146
asbag48
(g69
g50
NtRp2426
(dp2427
g53
(dp2428
g80
g81
ssg62
g2418
sg55
(lp2429
S':'
asbag48
(g69
g50
NtRp2430
(dp2431
g53
(dp2432
sg62
g2418
sg55
(lp2433
g48
(g49
g50
NtRp2434
(dp2435
g53
(dp2436
g61
I5
ssg62
g2430
sg55
(lp2437
S'<cStringIO.StringO object at 0x06DFD4A0>'
p2438
asbasbasbag48
(g64
g50
NtRp2439
(dp2440
g53
(dp2441
sg62
g2414
sg55
(lp2442
g48
(g69
g50
NtRp2443
(dp2444
g53
(dp2445
g73
g74
ssg62
g2439
sg55
(lp2446
g212
asbag48
(g69
g50
NtRp2447
(dp2448
g53
(dp2449
g80
g81
ssg62
g2439
sg55
(lp2450
S':'
asbag48
(g69
g50
NtRp2451
(dp2452
g53
(dp2453
sg62
g2439
sg55
(lp2454
g48
(g49
g50
NtRp2455
(dp2456
g53
(dp2457
g61
I5
ssg62
g2451
sg55
(lp2458
g48
(g57
g50
NtRp2459
(dp2460
g53
(dp2461
g61
I4
ssg62
Nsg55
(lp2462
g48
(g64
g50
NtRp2463
(dp2464
g53
(dp2465
sg62
g2459
sg55
(lp2466
g48
(g69
g50
NtRp2467
(dp2468
g53
(dp2469
g73
g74
ssg62
g2463
sg55
(lp2470
S'session_id_casa_de_apuestas'
p2471
asbag48
(g69
g50
NtRp2472
(dp2473
g53
(dp2474
g80
g81
ssg62
g2463
sg55
(lp2475
S':'
asbag48
(g69
g50
NtRp2476
(dp2477
g53
(dp2478
sg62
g2463
sg55
(lp2479
g48
(g49
g50
NtRp2480
(dp2481
g53
(dp2482
g61
I4
ssg62
g2476
sg55
(lp2483
g48
(g57
g50
NtRp2484
(dp2485
g53
(dp2486
g61
I3
ssg62
Nsg55
(lp2487
g48
(g64
g50
NtRp2488
(dp2489
g53
(dp2490
sg62
g2484
sg55
(lp2491
g48
(g69
g50
NtRp2492
(dp2493
g53
(dp2494
g73
g74
ssg62
g2488
sg55
(lp2495
S'comment'
p2496
asbag48
(g69
g50
NtRp2497
(dp2498
g53
(dp2499
g80
g81
ssg62
g2488
sg55
(lp2500
S':'
asbag48
(g69
g50
NtRp2501
(dp2502
g53
(dp2503
sg62
g2488
sg55
(lp2504
g48
(g49
g50
NtRp2505
(dp2506
g53
(dp2507
g61
I3
ssg62
g2501
sg55
(lp2508
S''
asbasbasbag48
(g64
g50
NtRp2509
(dp2510
g53
(dp2511
sg62
g2484
sg55
(lp2512
g48
(g69
g50
NtRp2513
(dp2514
g53
(dp2515
g73
g74
ssg62
g2509
sg55
(lp2516
S'domain'
p2517
asbag48
(g69
g50
NtRp2518
(dp2519
g53
(dp2520
g80
g81
ssg62
g2509
sg55
(lp2521
S':'
asbag48
(g69
g50
NtRp2522
(dp2523
g53
(dp2524
sg62
g2509
sg55
(lp2525
g48
(g49
g50
NtRp2526
(dp2527
g53
(dp2528
g61
I3
ssg62
g2522
sg55
(lp2529
S''
asbasbasbag48
(g64
g50
NtRp2530
(dp2531
g53
(dp2532
sg62
g2484
sg55
(lp2533
g48
(g69
g50
NtRp2534
(dp2535
g53
(dp2536
g73
g74
ssg62
g2530
sg55
(lp2537
S'expires'
p2538
asbag48
(g69
g50
NtRp2539
(dp2540
g53
(dp2541
g80
g81
ssg62
g2530
sg55
(lp2542
S':'
asbag48
(g69
g50
NtRp2543
(dp2544
g53
(dp2545
sg62
g2530
sg55
(lp2546
g48
(g49
g50
NtRp2547
(dp2548
g53
(dp2549
g61
I3
ssg62
g2543
sg55
(lp2550
S''
asbasbasbag48
(g64
g50
NtRp2551
(dp2552
g53
(dp2553
sg62
g2484
sg55
(lp2554
g48
(g69
g50
NtRp2555
(dp2556
g53
(dp2557
g73
g74
ssg62
g2551
sg55
(lp2558
S'max-age'
p2559
asbag48
(g69
g50
NtRp2560
(dp2561
g53
(dp2562
g80
g81
ssg62
g2551
sg55
(lp2563
S':'
asbag48
(g69
g50
NtRp2564
(dp2565
g53
(dp2566
sg62
g2551
sg55
(lp2567
g48
(g49
g50
NtRp2568
(dp2569
g53
(dp2570
g61
I3
ssg62
g2564
sg55
(lp2571
S''
asbasbasbag48
(g64
g50
NtRp2572
(dp2573
g53
(dp2574
sg62
g2484
sg55
(lp2575
g48
(g69
g50
NtRp2576
(dp2577
g53
(dp2578
g73
g74
ssg62
g2572
sg55
(lp2579
S'path'
p2580
asbag48
(g69
g50
NtRp2581
(dp2582
g53
(dp2583
g80
g81
ssg62
g2572
sg55
(lp2584
S':'
asbag48
(g69
g50
NtRp2585
(dp2586
g53
(dp2587
sg62
g2572
sg55
(lp2588
g48
(g49
g50
NtRp2589
(dp2590
g53
(dp2591
g61
I3
ssg62
g2585
sg55
(lp2592
S'/'
asbasbasbag48
(g64
g50
NtRp2593
(dp2594
g53
(dp2595
sg62
g2484
sg55
(lp2596
g48
(g69
g50
NtRp2597
(dp2598
g53
(dp2599
g73
g74
ssg62
g2593
sg55
(lp2600
S'secure'
p2601
asbag48
(g69
g50
NtRp2602
(dp2603
g53
(dp2604
g80
g81
ssg62
g2593
sg55
(lp2605
S':'
asbag48
(g69
g50
NtRp2606
(dp2607
g53
(dp2608
sg62
g2593
sg55
(lp2609
g48
(g49
g50
NtRp2610
(dp2611
g53
(dp2612
g61
I3
ssg62
g2606
sg55
(lp2613
S''
asbasbasbag48
(g64
g50
NtRp2614
(dp2615
g53
(dp2616
sg62
g2484
sg55
(lp2617
g48
(g69
g50
NtRp2618
(dp2619
g53
(dp2620
g73
g74
ssg62
g2614
sg55
(lp2621
S'version'
p2622
asbag48
(g69
g50
NtRp2623
(dp2624
g53
(dp2625
g80
g81
ssg62
g2614
sg55
(lp2626
S':'
asbag48
(g69
g50
NtRp2627
(dp2628
g53
(dp2629
sg62
g2614
sg55
(lp2630
g48
(g49
g50
NtRp2631
(dp2632
g53
(dp2633
g61
I3
ssg62
g2627
sg55
(lp2634
S''
asbasbasbasbasbasbasbasbasbasbasbag48
(g64
g50
NtRp2635
(dp2636
g53
(dp2637
sg62
g2414
sg55
(lp2638
g48
(g69
g50
NtRp2639
(dp2640
g53
(dp2641
g73
g74
ssg62
g2635
sg55
(lp2642
S'files'
p2643
asbag48
(g69
g50
NtRp2644
(dp2645
g53
(dp2646
g80
g81
ssg62
g2635
sg55
(lp2647
S':'
asbag48
(g69
g50
NtRp2648
(dp2649
g53
(dp2650
sg62
g2635
sg55
(lp2651
g48
(g49
g50
NtRp2652
(dp2653
g53
(dp2654
g61
I5
ssg62
g2648
sg55
(lp2655
g48
(g57
g50
NtRp2656
(dp2657
g53
(dp2658
g61
I4
ssg62
Nsg55
(lp2659
sbasbasbasbag48
(g64
g50
NtRp2660
(dp2661
g53
(dp2662
sg62
g2414
sg55
(lp2663
g48
(g69
g50
NtRp2664
(dp2665
g53
(dp2666
g73
g74
ssg62
g2660
sg55
(lp2667
S'flash'
p2668
asbag48
(g69
g50
NtRp2669
(dp2670
g53
(dp2671
g80
g81
ssg62
g2660
sg55
(lp2672
S':'
asbag48
(g69
g50
NtRp2673
(dp2674
g53
(dp2675
sg62
g2660
sg55
(lp2676
g48
(g49
g50
NtRp2677
(dp2678
g53
(dp2679
g61
I5
ssg62
g2673
sg55
(lp2680
S''
asbasbasbag48
(g64
g50
NtRp2681
(dp2682
g53
(dp2683
sg62
g2414
sg55
(lp2684
g48
(g69
g50
NtRp2685
(dp2686
g53
(dp2687
g73
g74
ssg62
g2681
sg55
(lp2688
S'generic_patterns'
p2689
asbag48
(g69
g50
NtRp2690
(dp2691
g53
(dp2692
g80
g81
ssg62
g2681
sg55
(lp2693
S':'
asbag48
(g69
g50
NtRp2694
(dp2695
g53
(dp2696
sg62
g2681
sg55
(lp2697
g48
(g49
g50
NtRp2698
(dp2699
g53
(dp2700
g61
I5
ssg62
g2694
sg55
(lp2701
g48
(g57
g50
NtRp2702
(dp2703
g53
(dp2704
g61
I4
ssg62
Nsg55
(lp2705
g48
(g64
g50
NtRp2706
(dp2707
g53
(dp2708
sg62
g2702
sg55
(lp2709
g48
(g69
g50
NtRp2710
(dp2711
g53
(dp2712
sg62
g2706
sg55
(lp2713
g48
(g49
g50
NtRp2714
(dp2715
g53
(dp2716
g61
I4
ssg62
g2710
sg55
(lp2717
S'*'
asbasbasbasbasbasbasbag48
(g64
g50
NtRp2718
(dp2719
g53
(dp2720
sg62
g2414
sg55
(lp2721
g48
(g69
g50
NtRp2722
(dp2723
g53
(dp2724
g73
g74
ssg62
g2718
sg55
(lp2725
S'headers'
p2726
asbag48
(g69
g50
NtRp2727
(dp2728
g53
(dp2729
g80
g81
ssg62
g2718
sg55
(lp2730
S':'
asbag48
(g69
g50
NtRp2731
(dp2732
g53
(dp2733
sg62
g2718
sg55
(lp2734
g48
(g49
g50
NtRp2735
(dp2736
g53
(dp2737
g61
I5
ssg62
g2731
sg55
(lp2738
g48
(g57
g50
NtRp2739
(dp2740
g53
(dp2741
g61
I4
ssg62
Nsg55
(lp2742
g48
(g64
g50
NtRp2743
(dp2744
g53
(dp2745
sg62
g2739
sg55
(lp2746
g48
(g69
g50
NtRp2747
(dp2748
g53
(dp2749
g73
g74
ssg62
g2743
sg55
(lp2750
S'Cache-Control'
p2751
asbag48
(g69
g50
NtRp2752
(dp2753
g53
(dp2754
g80
g81
ssg62
g2743
sg55
(lp2755
S':'
asbag48
(g69
g50
NtRp2756
(dp2757
g53
(dp2758
sg62
g2743
sg55
(lp2759
g48
(g49
g50
NtRp2760
(dp2761
g53
(dp2762
g61
I4
ssg62
g2756
sg55
(lp2763
S'no-store, no-cache, must-revalidate, post-check=0, pre-check=0'
p2764
asbasbasbag48
(g64
g50
NtRp2765
(dp2766
g53
(dp2767
sg62
g2739
sg55
(lp2768
g48
(g69
g50
NtRp2769
(dp2770
g53
(dp2771
g73
g74
ssg62
g2765
sg55
(lp2772
S'Content-Type'
p2773
asbag48
(g69
g50
NtRp2774
(dp2775
g53
(dp2776
g80
g81
ssg62
g2765
sg55
(lp2777
S':'
asbag48
(g69
g50
NtRp2778
(dp2779
g53
(dp2780
sg62
g2765
sg55
(lp2781
g48
(g49
g50
NtRp2782
(dp2783
g53
(dp2784
g61
I4
ssg62
g2778
sg55
(lp2785
S'application/xml'
p2786
asbasbasbag48
(g64
g50
NtRp2787
(dp2788
g53
(dp2789
sg62
g2739
sg55
(lp2790
g48
(g69
g50
NtRp2791
(dp2792
g53
(dp2793
g73
g74
ssg62
g2787
sg55
(lp2794
S'Expires'
p2795
asbag48
(g69
g50
NtRp2796
(dp2797
g53
(dp2798
g80
g81
ssg62
g2787
sg55
(lp2799
S':'
asbag48
(g69
g50
NtRp2800
(dp2801
g53
(dp2802
sg62
g2787
sg55
(lp2803
g48
(g49
g50
NtRp2804
(dp2805
g53
(dp2806
g61
I4
ssg62
g2800
sg55
(lp2807
S'Sat, 19 Nov 2011 04:00:51 GMT'
p2808
asbasbasbag48
(g64
g50
NtRp2809
(dp2810
g53
(dp2811
sg62
g2739
sg55
(lp2812
g48
(g69
g50
NtRp2813
(dp2814
g53
(dp2815
g73
g74
ssg62
g2809
sg55
(lp2816
S'Pragma'
p2817
asbag48
(g69
g50
NtRp2818
(dp2819
g53
(dp2820
g80
g81
ssg62
g2809
sg55
(lp2821
S':'
asbag48
(g69
g50
NtRp2822
(dp2823
g53
(dp2824
sg62
g2809
sg55
(lp2825
g48
(g49
g50
NtRp2826
(dp2827
g53
(dp2828
g61
I4
ssg62
g2822
sg55
(lp2829
S'no-cache'
p2830
asbasbasbag48
(g64
g50
NtRp2831
(dp2832
g53
(dp2833
sg62
g2739
sg55
(lp2834
g48
(g69
g50
NtRp2835
(dp2836
g53
(dp2837
g73
g74
ssg62
g2831
sg55
(lp2838
S'X-Powered-By'
p2839
asbag48
(g69
g50
NtRp2840
(dp2841
g53
(dp2842
g80
g81
ssg62
g2831
sg55
(lp2843
S':'
asbag48
(g69
g50
NtRp2844
(dp2845
g53
(dp2846
sg62
g2831
sg55
(lp2847
g48
(g49
g50
NtRp2848
(dp2849
g53
(dp2850
g61
I4
ssg62
g2844
sg55
(lp2851
S'web2py'
p2852
asbasbasbasbasbasbasbag48
(g64
g50
NtRp2853
(dp2854
g53
(dp2855
sg62
g2414
sg55
(lp2856
g48
(g69
g50
NtRp2857
(dp2858
g53
(dp2859
g73
g74
ssg62
g2853
sg55
(lp2860
S'menu'
p2861
asbag48
(g69
g50
NtRp2862
(dp2863
g53
(dp2864
g80
g81
ssg62
g2853
sg55
(lp2865
S':'
asbag48
(g69
g50
NtRp2866
(dp2867
g53
(dp2868
sg62
g2853
sg55
(lp2869
g48
(g49
g50
NtRp2870
(dp2871
g53
(dp2872
g61
I5
ssg62
g2866
sg55
(lp2873
g48
(g57
g50
NtRp2874
(dp2875
g53
(dp2876
g61
I4
ssg62
Nsg55
(lp2877
g48
(g64
g50
NtRp2878
(dp2879
g53
(dp2880
sg62
g2874
sg55
(lp2881
g48
(g69
g50
NtRp2882
(dp2883
g53
(dp2884
sg62
g2878
sg55
(lp2885
g48
(g49
g50
NtRp2886
(dp2887
g53
(dp2888
g61
I4
ssg62
g2882
sg55
(lp2889
g48
(g57
g50
NtRp2890
(dp2891
g53
(dp2892
g61
I3
ssg62
Nsg55
(lp2893
g48
(g64
g50
NtRp2894
(dp2895
g53
(dp2896
sg62
g2890
sg55
(lp2897
g48
(g69
g50
NtRp2898
(dp2899
g53
(dp2900
sg62
g2894
sg55
(lp2901
g48
(g49
g50
NtRp2902
(dp2903
g53
(dp2904
g61
I3
ssg62
g2898
sg55
(lp2905
cgluon.languages
lazyT_unpickle
p2906
(S't\x06\x00\x00\x00Indice'
tRp2907
asbasbasbag48
(g64
g50
NtRp2908
(dp2909
g53
(dp2910
sg62
g2890
sg55
(lp2911
g48
(g69
g50
NtRp2912
(dp2913
g53
(dp2914
sg62
g2908
sg55
(lp2915
g48
(g49
g50
NtRp2916
(dp2917
g53
(dp2918
g61
I3
ssg62
g2912
sg55
(lp2919
g91
asbasbasbag48
(g64
g50
NtRp2920
(dp2921
g53
(dp2922
sg62
g2890
sg55
(lp2923
g48
(g69
g50
NtRp2924
(dp2925
g53
(dp2926
sg62
g2920
sg55
(lp2927
g48
(g49
g50
NtRp2928
(dp2929
g53
(dp2930
g61
I3
ssg62
g2924
sg55
(lp2931
S'/Casa_de_Apuestas/default/index'
p2932
asbasbasbag48
(g64
g50
NtRp2933
(dp2934
g53
(dp2935
sg62
g2890
sg55
(lp2936
g48
(g69
g50
NtRp2937
(dp2938
g53
(dp2939
sg62
g2933
sg55
(lp2940
g48
(g49
g50
NtRp2941
(dp2942
g53
(dp2943
g61
I3
ssg62
g2937
sg55
(lp2944
g48
(g57
g50
NtRp2945
(dp2946
g53
(dp2947
g61
I2
ssg62
Nsg55
(lp2948
sbasbasbasbasbasbasbasbasbasbasbasbag48
(g64
g50
NtRp2949
(dp2950
g53
(dp2951
sg62
g2414
sg55
(lp2952
g48
(g69
g50
NtRp2953
(dp2954
g53
(dp2955
g73
g74
ssg62
g2949
sg55
(lp2956
S'meta'
p2957
asbag48
(g69
g50
NtRp2958
(dp2959
g53
(dp2960
g80
g81
ssg62
g2949
sg55
(lp2961
S':'
asbag48
(g69
g50
NtRp2962
(dp2963
g53
(dp2964
sg62
g2949
sg55
(lp2965
g48
(g49
g50
NtRp2966
(dp2967
g53
(dp2968
g61
I5
ssg62
g2962
sg55
(lp2969
g48
(g57
g50
NtRp2970
(dp2971
g53
(dp2972
g61
I4
ssg62
Nsg55
(lp2973
g48
(g64
g50
NtRp2974
(dp2975
g53
(dp2976
sg62
g2970
sg55
(lp2977
g48
(g69
g50
NtRp2978
(dp2979
g53
(dp2980
g73
g74
ssg62
g2974
sg55
(lp2981
S'author'
p2982
asbag48
(g69
g50
NtRp2983
(dp2984
g53
(dp2985
g80
g81
ssg62
g2974
sg55
(lp2986
S':'
asbag48
(g69
g50
NtRp2987
(dp2988
g53
(dp2989
sg62
g2974
sg55
(lp2990
g48
(g49
g50
NtRp2991
(dp2992
g53
(dp2993
g61
I4
ssg62
g2987
sg55
(lp2994
S'JSG Systems <jsg@example.com>'
p2995
asbasbasbag48
(g64
g50
NtRp2996
(dp2997
g53
(dp2998
sg62
g2970
sg55
(lp2999
g48
(g69
g50
NtRp3000
(dp3001
g53
(dp3002
g73
g74
ssg62
g2996
sg55
(lp3003
S'description'
p3004
asbag48
(g69
g50
NtRp3005
(dp3006
g53
(dp3007
g80
g81
ssg62
g2996
sg55
(lp3008
S':'
asbag48
(g69
g50
NtRp3009
(dp3010
g53
(dp3011
sg62
g2996
sg55
(lp3012
g48
(g49
g50
NtRp3013
(dp3014
g53
(dp3015
g61
I4
ssg62
g3009
sg55
(lp3016
S''
asbasbasbag48
(g64
g50
NtRp3017
(dp3018
g53
(dp3019
sg62
g2970
sg55
(lp3020
g48
(g69
g50
NtRp3021
(dp3022
g53
(dp3023
g73
g74
ssg62
g3017
sg55
(lp3024
S'keywords'
p3025
asbag48
(g69
g50
NtRp3026
(dp3027
g53
(dp3028
g80
g81
ssg62
g3017
sg55
(lp3029
S':'
asbag48
(g69
g50
NtRp3030
(dp3031
g53
(dp3032
sg62
g3017
sg55
(lp3033
g48
(g49
g50
NtRp3034
(dp3035
g53
(dp3036
g61
I4
ssg62
g3030
sg55
(lp3037
S'casa, apuestas'
p3038
asbasbasbasbasbasbasbag48
(g64
g50
NtRp3039
(dp3040
g53
(dp3041
sg62
g2414
sg55
(lp3042
g48
(g69
g50
NtRp3043
(dp3044
g53
(dp3045
g73
g74
ssg62
g3039
sg55
(lp3046
S'postprocessing'
p3047
asbag48
(g69
g50
NtRp3048
(dp3049
g53
(dp3050
g80
g81
ssg62
g3039
sg55
(lp3051
S':'
asbag48
(g69
g50
NtRp3052
(dp3053
g53
(dp3054
sg62
g3039
sg55
(lp3055
g48
(g49
g50
NtRp3056
(dp3057
g53
(dp3058
g61
I5
ssg62
g3052
sg55
(lp3059
g48
(g57
g50
NtRp3060
(dp3061
g53
(dp3062
g61
I4
ssg62
Nsg55
(lp3063
sbasbasbasbag48
(g64
g50
NtRp3064
(dp3065
g53
(dp3066
sg62
g2414
sg55
(lp3067
g48
(g69
g50
NtRp3068
(dp3069
g53
(dp3070
g73
g74
ssg62
g3064
sg55
(lp3071
S'session_filename'
p3072
asbag48
(g69
g50
NtRp3073
(dp3074
g53
(dp3075
g80
g81
ssg62
g3064
sg55
(lp3076
S':'
asbag48
(g69
g50
NtRp3077
(dp3078
g53
(dp3079
sg62
g3064
sg55
(lp3080
g48
(g49
g50
NtRp3081
(dp3082
g53
(dp3083
g61
I5
ssg62
g3077
sg55
(lp3084
S'C:\\Users\\Gary\\Desktop\\web2py\\applications\\Casa_de_Apuestas\\sessions\\127.0.0.1-3bb56384-50cb-46d0-9f3f-09544aefc800'
p3085
asbasbasbag48
(g64
g50
NtRp3086
(dp3087
g53
(dp3088
sg62
g2414
sg55
(lp3089
g48
(g69
g50
NtRp3090
(dp3091
g53
(dp3092
g73
g74
ssg62
g3086
sg55
(lp3093
S'session_id'
p3094
asbag48
(g69
g50
NtRp3095
(dp3096
g53
(dp3097
g80
g81
ssg62
g3086
sg55
(lp3098
S':'
asbag48
(g69
g50
NtRp3099
(dp3100
g53
(dp3101
sg62
g3086
sg55
(lp3102
g48
(g49
g50
NtRp3103
(dp3104
g53
(dp3105
g61
I5
ssg62
g3099
sg55
(lp3106
S'127.0.0.1-3bb56384-50cb-46d0-9f3f-09544aefc800'
p3107
asbasbasbag48
(g64
g50
NtRp3108
(dp3109
g53
(dp3110
sg62
g2414
sg55
(lp3111
g48
(g69
g50
NtRp3112
(dp3113
g53
(dp3114
g73
g74
ssg62
g3108
sg55
(lp3115
S'session_id_name'
p3116
asbag48
(g69
g50
NtRp3117
(dp3118
g53
(dp3119
g80
g81
ssg62
g3108
sg55
(lp3120
S':'
asbag48
(g69
g50
NtRp3121
(dp3122
g53
(dp3123
sg62
g3108
sg55
(lp3124
g48
(g49
g50
NtRp3125
(dp3126
g53
(dp3127
g61
I5
ssg62
g3121
sg55
(lp3128
g2471
asbasbasbag48
(g64
g50
NtRp3129
(dp3130
g53
(dp3131
sg62
g2414
sg55
(lp3132
g48
(g69
g50
NtRp3133
(dp3134
g53
(dp3135
g73
g74
ssg62
g3129
sg55
(lp3136
S'session_new'
p3137
asbag48
(g69
g50
NtRp3138
(dp3139
g53
(dp3140
g80
g81
ssg62
g3129
sg55
(lp3141
S':'
asbag48
(g69
g50
NtRp3142
(dp3143
g53
(dp3144
sg62
g3129
sg55
(lp3145
g48
(g49
g50
NtRp3146
(dp3147
g53
(dp3148
g61
I5
ssg62
g3142
sg55
(lp3149
g1063
asbasbasbag48
(g64
g50
NtRp3150
(dp3151
g53
(dp3152
sg62
g2414
sg55
(lp3153
g48
(g69
g50
NtRp3154
(dp3155
g53
(dp3156
g73
g74
ssg62
g3150
sg55
(lp3157
S'status'
p3158
asbag48
(g69
g50
NtRp3159
(dp3160
g53
(dp3161
g80
g81
ssg62
g3150
sg55
(lp3162
S':'
asbag48
(g69
g50
NtRp3163
(dp3164
g53
(dp3165
sg62
g3150
sg55
(lp3166
g48
(g49
g50
NtRp3167
(dp3168
g53
(dp3169
g61
I5
ssg62
g3163
sg55
(lp3170
S'200'
p3171
asbasbasbag48
(g64
g50
NtRp3172
(dp3173
g53
(dp3174
sg62
g2414
sg55
(lp3175
g48
(g69
g50
NtRp3176
(dp3177
g53
(dp3178
g73
g74
ssg62
g3172
sg55
(lp3179
S'subtitle'
p3180
asbag48
(g69
g50
NtRp3181
(dp3182
g53
(dp3183
g80
g81
ssg62
g3172
sg55
(lp3184
S':'
asbag48
(g69
g50
NtRp3185
(dp3186
g53
(dp3187
sg62
g3172
sg55
(lp3188
g48
(g49
g50
NtRp3189
(dp3190
g53
(dp3191
g61
I5
ssg62
g3185
sg55
(lp3192
S''
asbasbasbag48
(g64
g50
NtRp3193
(dp3194
g53
(dp3195
sg62
g2414
sg55
(lp3196
g48
(g69
g50
NtRp3197
(dp3198
g53
(dp3199
g73
g74
ssg62
g3193
sg55
(lp3200
S'title'
p3201
asbag48
(g69
g50
NtRp3202
(dp3203
g53
(dp3204
g80
g81
ssg62
g3193
sg55
(lp3205
S':'
asbag48
(g69
g50
NtRp3206
(dp3207
g53
(dp3208
sg62
g3193
sg55
(lp3209
g48
(g49
g50
NtRp3210
(dp3211
g53
(dp3212
g61
I5
ssg62
g3206
sg55
(lp3213
S'Casa de Apuestas'
p3214
asbasbasbag48
(g64
g50
NtRp3215
(dp3216
g53
(dp3217
sg62
g2414
sg55
(lp3218
g48
(g69
g50
NtRp3219
(dp3220
g53
(dp3221
g73
g74
ssg62
g3215
sg55
(lp3222
g1707
asbag48
(g69
g50
NtRp3223
(dp3224
g53
(dp3225
g80
g81
ssg62
g3215
sg55
(lp3226
S':'
asbag48
(g69
g50
NtRp3227
(dp3228
g53
(dp3229
sg62
g3215
sg55
(lp3230
g48
(g49
g50
NtRp3231
(dp3232
g53
(dp3233
g61
I5
ssg62
g3227
sg55
(lp3234
g1720
asbasbasbag48
(g64
g50
NtRp3235
(dp3236
g53
(dp3237
sg62
g2414
sg55
(lp3238
g48
(g69
g50
NtRp3239
(dp3240
g53
(dp3241
g73
g74
ssg62
g3235
sg55
(lp3242
S'view'
p3243
asbag48
(g69
g50
NtRp3244
(dp3245
g53
(dp3246
g80
g81
ssg62
g3235
sg55
(lp3247
S':'
asbag48
(g69
g50
NtRp3248
(dp3249
g53
(dp3250
sg62
g3235
sg55
(lp3251
g48
(g49
g50
NtRp3252
(dp3253
g53
(dp3254
g61
I5
ssg62
g3248
sg55
(lp3255
S'default/prueba_xml.html'
p3256
asbasbasbasbasbsS'locals'
p3257
(dp3258
S'hashlib'
p3259
S"<module 'hashlib' from 'C:\\Users\\Gary\\Desktop\\web2py\\library.zip\\hashlib.pyc'>"
p3260
sS'codificador'
p3261
S'<md5 HASH object @ 07106220>'
p3262
sssS'traceback'
p3263
S'Traceback (most recent call last):\n  File "gluon/restricted.py", line 194, in restricted\n  File "C:\\Users\\Gary\\Desktop\\web2py\\applications\\Casa_de_Apuestas\\controllers/default.py", line 110, in <module>\n  File "gluon/globals.py", line 149, in <lambda>\n  File "C:\\Users\\Gary\\Desktop\\web2py\\applications\\Casa_de_Apuestas\\controllers/default.py", line 66, in prueba_xml\nNameError: global name \'codificador1\' is not defined\n'
p3264
s.