(dp1
S'output'
p2
S''
sS'layer'
p3
S'C:\\Python32\\web2py_win\\web2py\\applications\\Casa_de_Apuestas\\controllers/default.py'
p4
sS'code'
p5
S"# -*- coding: utf-8 -*-\n### required - do no delete\nfrom Servicio import *\nservice = Servicio(db, crud)\n\ndef user(): return dict(form=auth())\ndef download(): return response.download(request,db)\ndef call(): return service()\n\n### end requires\n\n@auth.requires_login()\ndef index():\n    return dict()\n\ndef error():\n    return dict()\n\ndef maquinas():\n    form = crud.update(db.maquinas, request.args(0),next=URL('maquinas'))\n    maquinas = db().select(db.maquinas.ALL)\n    coordenadas = False\n    if (request.args(0)):\n        for i, maquina in enumerate(maquinas):\n            if (i == request.args(0)):\n                break\n        coordenadas = dict(lon=maquina.longitud,lat=maquina.latitud)                    \n    return dict(form=form, maquinas=maquinas, coordenadas=coordenadas)\n\ndef crearCategoria():\n    return service.crearCategoria()\n\ndef crearEvento():\n    return service.crearEvento()\n\ndef crearParticipante():\n    return service.crearParticipante()\n\ndef crearEventoParticipantes():\n    return service.crearEventoParticipante()\n\ndef crearUsuario():\n    return service.crearUsuario()\n    \n\ndef mostrarCategoria():\n    return service.mostrarCategoria()\n\ndef mostrarEvento():\n    return service.mostrarEvento()\n\ndef mostrarParticipante():\n    return service.mostrarParticipante()\n\ndef mostrarEventosParticipantes():\n    return service.mostrarEventosParticipantes()\n    \ndef mostrarUsuario():\n    return service.mostrarUsuario() \n    \ndef showEvento():\n    return service.showEvento(request)\n\ndef showCategoria():\n    return service.showCategoria(request)\n\ndef showParticipante():\n    return service.showParticipante(request)\n\ndef showEventosParticipantes():\n    return service.showEventoParticipante(request)\n    \ndef showUsuario():\n    return service.showUsuario(request)\n\n\ndef verResultado1():\n    import datetime\n    fechaActual=datetime.datetime.now()\n    eventos =db(db.eventos.fecha <fechaActual).select()\n    return dict(eventos=eventos)\n        \ndef verResultado2():\n    resultados= db((db.resultados.eventos_id==request.args(0))& (db.resultados.participantes_id==db.participantes.id)).select()\n    evento=db(db.eventos.id==request.args(0)).select()\n    return dict(resultados=resultados,evento=evento)\n    \ndef mostrar():\n    from DAOCasadeApuestas import *\n    dao = DAOCasadeApuestas()\n    dao2 = DAOCasadeApuestas()\n    dao3 = DAOCasadeApuestas()\n    dao4 = DAOCasadeApuestas()\n    dao5 = DAOCasadeApuestas()\n    q = dao.generarArchivoActualizacionMD5(dao.generarMensajeMD5(db().select(db.eventos.ALL)), dao2.generarMensajeMD5(db().select(db.categorias.ALL)), dao3.generarMensajeMD5(db().select(db.participantes.ALL)), dao4.generarMensajeMD5(db().select(db.eventosparticipantes.ALL)), dao5.generarMensajeMD5(db().select(db.auth_user.ALL)))\n    s = dao.generarArchivoActualizacionXML(dao.generarFormatoXml(db().select(db.eventos.ALL)), dao2.generarFormatoXml(db().select(db.categorias.ALL)), dao3.generarFormatoXml(db().select(db.participantes.ALL)), dao4.generarFormatoXml(db().select(db.eventosparticipantes.ALL)), dao5.generarFormatoXml(db().select(db.auth_user.ALL)))\n    return dict(q = q, s = s)   \n    \ndef verProximosEventos1():\n    import datetime\n    fechaActual=datetime.datetime.now()\n    eventos =db(db.eventos.fecha>fechaActual).select()\n    return dict(eventos=eventos)\n    \ndef verProximosEventos2():\n    evento_participante= db((db.eventosparticipantes.eventos_id==request.args(0))& (db.participantes.id==db.eventosparticipantes.participantes_id)).select()\n    evento = db(db.eventos.id==request.args(0)).select()\n    categoria = db((db.categorias.id==db.eventos.categoria_id)& (db.eventos.id==request.args(0))).select()\n    return dict(evento_participante=evento_participante,evento=evento,categoria=categoria)\n\ndef listaEventos():\n    eventos = db().select(db.eventos.ALL)\n    return dict(eventos=eventos) \n\ndef asignarResultado():\n    iden = 'NO'\n    if (response.args(0)):\n        iden = request.args(0)\n    return dict(iden=iden)\n\nresponse._vars=response._caller(asignarResultado)\n"
p6
sS'snapshot'
p7
(dp8
S'exception'
p9
(dp10
S'__hash__'
p11
S"<method-wrapper '__hash__' of exceptions.TypeError object at 0x070A1300>"
p12
sS'__setattr__'
p13
S"<method-wrapper '__setattr__' of exceptions.TypeError object at 0x070A1300>"
p14
sS'__reduce_ex__'
p15
S'<built-in method __reduce_ex__ of exceptions.TypeError object at 0x070A1300>'
p16
sS'__getslice__'
p17
S"<method-wrapper '__getslice__' of exceptions.TypeError object at 0x070A1300>"
p18
sS'__getitem__'
p19
S"<method-wrapper '__getitem__' of exceptions.TypeError object at 0x070A1300>"
p20
sS'__setstate__'
p21
S'<built-in method __setstate__ of exceptions.TypeError object at 0x070A1300>'
p22
sS'__reduce__'
p23
S'<built-in method __reduce__ of exceptions.TypeError object at 0x070A1300>'
p24
sS'__str__'
p25
S"<method-wrapper '__str__' of exceptions.TypeError object at 0x070A1300>"
p26
sS'args'
p27
S'("\'NoneType\' object is not callable",)'
p28
sS'__getattribute__'
p29
S"<method-wrapper '__getattribute__' of exceptions.TypeError object at 0x070A1300>"
p30
sS'__class__'
p31
S"<type 'exceptions.TypeError'>"
p32
sS'__delattr__'
p33
S"<method-wrapper '__delattr__' of exceptions.TypeError object at 0x070A1300>"
p34
sS'__repr__'
p35
S"<method-wrapper '__repr__' of exceptions.TypeError object at 0x070A1300>"
p36
sS'__dict__'
p37
S'{}'
p38
sS'__doc__'
p39
S"'Inappropriate argument type.'"
p40
sS'__init__'
p41
S"<method-wrapper '__init__' of exceptions.TypeError object at 0x070A1300>"
p42
sS'__new__'
p43
S'<built-in method __new__ of type object at 0x1E1CCD78>'
p44
ssS'evalue'
p45
S"'NoneType' object is not callable"
p46
sS'request'
p47
ccopy_reg
_reconstructor
p48
(cgluon.html
BEAUTIFY
p49
c__builtin__
object
p50
NtRp51
(dp52
S'attributes'
p53
(dp54
sS'components'
p55
(lp56
g48
(cgluon.html
TABLE
p57
g50
NtRp58
(dp59
g53
(dp60
S'level'
p61
I5
ssS'parent'
p62
Nsg55
(lp63
g48
(cgluon.html
TR
p64
g50
NtRp65
(dp66
g53
(dp67
sg62
g58
sg55
(lp68
g48
(cgluon.html
TD
p69
g50
NtRp70
(dp71
g53
(dp72
S'_style'
p73
S'font-weight:bold;'
p74
ssg62
g65
sg55
(lp75
S'ajax'
p76
asbag48
(g69
g50
NtRp77
(dp78
g53
(dp79
S'_valign'
p80
S'top'
p81
ssg62
g65
sg55
(lp82
S':'
asbag48
(g69
g50
NtRp83
(dp84
g53
(dp85
sg62
g65
sg55
(lp86
g48
(g49
g50
NtRp87
(dp88
g53
(dp89
g61
I5
ssg62
g83
sg55
(lp90
S'False'
p91
asbasbasbag48
(g64
g50
NtRp92
(dp93
g53
(dp94
sg62
g58
sg55
(lp95
g48
(g69
g50
NtRp96
(dp97
g53
(dp98
g73
g74
ssg62
g92
sg55
(lp99
S'application'
p100
asbag48
(g69
g50
NtRp101
(dp102
g53
(dp103
g80
g81
ssg62
g92
sg55
(lp104
S':'
asbag48
(g69
g50
NtRp105
(dp106
g53
(dp107
sg62
g92
sg55
(lp108
g48
(g49
g50
NtRp109
(dp110
g53
(dp111
g61
I5
ssg62
g105
sg55
(lp112
S'Casa_de_Apuestas'
p113
asbasbasbag48
(g64
g50
NtRp114
(dp115
g53
(dp116
sg62
g58
sg55
(lp117
g48
(g69
g50
NtRp118
(dp119
g53
(dp120
g73
g74
ssg62
g114
sg55
(lp121
g27
asbag48
(g69
g50
NtRp122
(dp123
g53
(dp124
g80
g81
ssg62
g114
sg55
(lp125
S':'
asbag48
(g69
g50
NtRp126
(dp127
g53
(dp128
sg62
g114
sg55
(lp129
g48
(g49
g50
NtRp130
(dp131
g53
(dp132
g61
I5
ssg62
g126
sg55
(lp133
g48
(g57
g50
NtRp134
(dp135
g53
(dp136
g61
I4
ssg62
Nsg55
(lp137
g48
(g64
g50
NtRp138
(dp139
g53
(dp140
sg62
g134
sg55
(lp141
g48
(g69
g50
NtRp142
(dp143
g53
(dp144
sg62
g138
sg55
(lp145
g48
(g49
g50
NtRp146
(dp147
g53
(dp148
g61
I4
ssg62
g142
sg55
(lp149
S'13'
p150
asbasbasbasbasbasbasbag48
(g64
g50
NtRp151
(dp152
g53
(dp153
sg62
g58
sg55
(lp154
g48
(g69
g50
NtRp155
(dp156
g53
(dp157
g73
g74
ssg62
g151
sg55
(lp158
S'body'
p159
asbag48
(g69
g50
NtRp160
(dp161
g53
(dp162
g80
g81
ssg62
g151
sg55
(lp163
S':'
asbag48
(g69
g50
NtRp164
(dp165
g53
(dp166
sg62
g151
sg55
(lp167
g48
(g49
g50
NtRp168
(dp169
g53
(dp170
g61
I5
ssg62
g164
sg55
(lp171
S'<cStringIO.StringO object at 0x06D38C00>'
p172
asbasbasbag48
(g64
g50
NtRp173
(dp174
g53
(dp175
sg62
g58
sg55
(lp176
g48
(g69
g50
NtRp177
(dp178
g53
(dp179
g73
g74
ssg62
g173
sg55
(lp180
S'client'
p181
asbag48
(g69
g50
NtRp182
(dp183
g53
(dp184
g80
g81
ssg62
g173
sg55
(lp185
S':'
asbag48
(g69
g50
NtRp186
(dp187
g53
(dp188
sg62
g173
sg55
(lp189
g48
(g49
g50
NtRp190
(dp191
g53
(dp192
g61
I5
ssg62
g186
sg55
(lp193
S'127.0.0.1'
p194
asbasbasbag48
(g64
g50
NtRp195
(dp196
g53
(dp197
sg62
g58
sg55
(lp198
g48
(g69
g50
NtRp199
(dp200
g53
(dp201
g73
g74
ssg62
g195
sg55
(lp202
S'controller'
p203
asbag48
(g69
g50
NtRp204
(dp205
g53
(dp206
g80
g81
ssg62
g195
sg55
(lp207
S':'
asbag48
(g69
g50
NtRp208
(dp209
g53
(dp210
sg62
g195
sg55
(lp211
g48
(g49
g50
NtRp212
(dp213
g53
(dp214
g61
I5
ssg62
g208
sg55
(lp215
S'default'
p216
asbasbasbag48
(g64
g50
NtRp217
(dp218
g53
(dp219
sg62
g58
sg55
(lp220
g48
(g69
g50
NtRp221
(dp222
g53
(dp223
g73
g74
ssg62
g217
sg55
(lp224
S'cookies'
p225
asbag48
(g69
g50
NtRp226
(dp227
g53
(dp228
g80
g81
ssg62
g217
sg55
(lp229
S':'
asbag48
(g69
g50
NtRp230
(dp231
g53
(dp232
sg62
g217
sg55
(lp233
g48
(g49
g50
NtRp234
(dp235
g53
(dp236
g61
I5
ssg62
g230
sg55
(lp237
g48
(g57
g50
NtRp238
(dp239
g53
(dp240
g61
I4
ssg62
Nsg55
(lp241
g48
(g64
g50
NtRp242
(dp243
g53
(dp244
sg62
g238
sg55
(lp245
g48
(g69
g50
NtRp246
(dp247
g53
(dp248
g73
g74
ssg62
g242
sg55
(lp249
S'session_id_admin'
p250
asbag48
(g69
g50
NtRp251
(dp252
g53
(dp253
g80
g81
ssg62
g242
sg55
(lp254
S':'
asbag48
(g69
g50
NtRp255
(dp256
g53
(dp257
sg62
g242
sg55
(lp258
g48
(g49
g50
NtRp259
(dp260
g53
(dp261
g61
I4
ssg62
g255
sg55
(lp262
g48
(g57
g50
NtRp263
(dp264
g53
(dp265
g61
I3
ssg62
Nsg55
(lp266
g48
(g64
g50
NtRp267
(dp268
g53
(dp269
sg62
g263
sg55
(lp270
g48
(g69
g50
NtRp271
(dp272
g53
(dp273
g73
g74
ssg62
g267
sg55
(lp274
S'comment'
p275
asbag48
(g69
g50
NtRp276
(dp277
g53
(dp278
g80
g81
ssg62
g267
sg55
(lp279
S':'
asbag48
(g69
g50
NtRp280
(dp281
g53
(dp282
sg62
g267
sg55
(lp283
g48
(g49
g50
NtRp284
(dp285
g53
(dp286
g61
I3
ssg62
g280
sg55
(lp287
S''
asbasbasbag48
(g64
g50
NtRp288
(dp289
g53
(dp290
sg62
g263
sg55
(lp291
g48
(g69
g50
NtRp292
(dp293
g53
(dp294
g73
g74
ssg62
g288
sg55
(lp295
S'domain'
p296
asbag48
(g69
g50
NtRp297
(dp298
g53
(dp299
g80
g81
ssg62
g288
sg55
(lp300
S':'
asbag48
(g69
g50
NtRp301
(dp302
g53
(dp303
sg62
g288
sg55
(lp304
g48
(g49
g50
NtRp305
(dp306
g53
(dp307
g61
I3
ssg62
g301
sg55
(lp308
S''
asbasbasbag48
(g64
g50
NtRp309
(dp310
g53
(dp311
sg62
g263
sg55
(lp312
g48
(g69
g50
NtRp313
(dp314
g53
(dp315
g73
g74
ssg62
g309
sg55
(lp316
S'expires'
p317
asbag48
(g69
g50
NtRp318
(dp319
g53
(dp320
g80
g81
ssg62
g309
sg55
(lp321
S':'
asbag48
(g69
g50
NtRp322
(dp323
g53
(dp324
sg62
g309
sg55
(lp325
g48
(g49
g50
NtRp326
(dp327
g53
(dp328
g61
I3
ssg62
g322
sg55
(lp329
S''
asbasbasbag48
(g64
g50
NtRp330
(dp331
g53
(dp332
sg62
g263
sg55
(lp333
g48
(g69
g50
NtRp334
(dp335
g53
(dp336
g73
g74
ssg62
g330
sg55
(lp337
S'max-age'
p338
asbag48
(g69
g50
NtRp339
(dp340
g53
(dp341
g80
g81
ssg62
g330
sg55
(lp342
S':'
asbag48
(g69
g50
NtRp343
(dp344
g53
(dp345
sg62
g330
sg55
(lp346
g48
(g49
g50
NtRp347
(dp348
g53
(dp349
g61
I3
ssg62
g343
sg55
(lp350
S''
asbasbasbag48
(g64
g50
NtRp351
(dp352
g53
(dp353
sg62
g263
sg55
(lp354
g48
(g69
g50
NtRp355
(dp356
g53
(dp357
g73
g74
ssg62
g351
sg55
(lp358
S'path'
p359
asbag48
(g69
g50
NtRp360
(dp361
g53
(dp362
g80
g81
ssg62
g351
sg55
(lp363
S':'
asbag48
(g69
g50
NtRp364
(dp365
g53
(dp366
sg62
g351
sg55
(lp367
g48
(g49
g50
NtRp368
(dp369
g53
(dp370
g61
I3
ssg62
g364
sg55
(lp371
S''
asbasbasbag48
(g64
g50
NtRp372
(dp373
g53
(dp374
sg62
g263
sg55
(lp375
g48
(g69
g50
NtRp376
(dp377
g53
(dp378
g73
g74
ssg62
g372
sg55
(lp379
S'secure'
p380
asbag48
(g69
g50
NtRp381
(dp382
g53
(dp383
g80
g81
ssg62
g372
sg55
(lp384
S':'
asbag48
(g69
g50
NtRp385
(dp386
g53
(dp387
sg62
g372
sg55
(lp388
g48
(g49
g50
NtRp389
(dp390
g53
(dp391
g61
I3
ssg62
g385
sg55
(lp392
S''
asbasbasbag48
(g64
g50
NtRp393
(dp394
g53
(dp395
sg62
g263
sg55
(lp396
g48
(g69
g50
NtRp397
(dp398
g53
(dp399
g73
g74
ssg62
g393
sg55
(lp400
S'version'
p401
asbag48
(g69
g50
NtRp402
(dp403
g53
(dp404
g80
g81
ssg62
g393
sg55
(lp405
S':'
asbag48
(g69
g50
NtRp406
(dp407
g53
(dp408
sg62
g393
sg55
(lp409
g48
(g49
g50
NtRp410
(dp411
g53
(dp412
g61
I3
ssg62
g406
sg55
(lp413
S''
asbasbasbasbasbasbasbag48
(g64
g50
NtRp414
(dp415
g53
(dp416
sg62
g238
sg55
(lp417
g48
(g69
g50
NtRp418
(dp419
g53
(dp420
g73
g74
ssg62
g414
sg55
(lp421
S'session_id_casa_de_apuestas'
p422
asbag48
(g69
g50
NtRp423
(dp424
g53
(dp425
g80
g81
ssg62
g414
sg55
(lp426
S':'
asbag48
(g69
g50
NtRp427
(dp428
g53
(dp429
sg62
g414
sg55
(lp430
g48
(g49
g50
NtRp431
(dp432
g53
(dp433
g61
I4
ssg62
g427
sg55
(lp434
g48
(g57
g50
NtRp435
(dp436
g53
(dp437
g61
I3
ssg62
Nsg55
(lp438
g48
(g64
g50
NtRp439
(dp440
g53
(dp441
sg62
g435
sg55
(lp442
g48
(g69
g50
NtRp443
(dp444
g53
(dp445
g73
g74
ssg62
g439
sg55
(lp446
g275
asbag48
(g69
g50
NtRp447
(dp448
g53
(dp449
g80
g81
ssg62
g439
sg55
(lp450
S':'
asbag48
(g69
g50
NtRp451
(dp452
g53
(dp453
sg62
g439
sg55
(lp454
g48
(g49
g50
NtRp455
(dp456
g53
(dp457
g61
I3
ssg62
g451
sg55
(lp458
S''
asbasbasbag48
(g64
g50
NtRp459
(dp460
g53
(dp461
sg62
g435
sg55
(lp462
g48
(g69
g50
NtRp463
(dp464
g53
(dp465
g73
g74
ssg62
g459
sg55
(lp466
g296
asbag48
(g69
g50
NtRp467
(dp468
g53
(dp469
g80
g81
ssg62
g459
sg55
(lp470
S':'
asbag48
(g69
g50
NtRp471
(dp472
g53
(dp473
sg62
g459
sg55
(lp474
g48
(g49
g50
NtRp475
(dp476
g53
(dp477
g61
I3
ssg62
g471
sg55
(lp478
S''
asbasbasbag48
(g64
g50
NtRp479
(dp480
g53
(dp481
sg62
g435
sg55
(lp482
g48
(g69
g50
NtRp483
(dp484
g53
(dp485
g73
g74
ssg62
g479
sg55
(lp486
g317
asbag48
(g69
g50
NtRp487
(dp488
g53
(dp489
g80
g81
ssg62
g479
sg55
(lp490
S':'
asbag48
(g69
g50
NtRp491
(dp492
g53
(dp493
sg62
g479
sg55
(lp494
g48
(g49
g50
NtRp495
(dp496
g53
(dp497
g61
I3
ssg62
g491
sg55
(lp498
S''
asbasbasbag48
(g64
g50
NtRp499
(dp500
g53
(dp501
sg62
g435
sg55
(lp502
g48
(g69
g50
NtRp503
(dp504
g53
(dp505
g73
g74
ssg62
g499
sg55
(lp506
g338
asbag48
(g69
g50
NtRp507
(dp508
g53
(dp509
g80
g81
ssg62
g499
sg55
(lp510
S':'
asbag48
(g69
g50
NtRp511
(dp512
g53
(dp513
sg62
g499
sg55
(lp514
g48
(g49
g50
NtRp515
(dp516
g53
(dp517
g61
I3
ssg62
g511
sg55
(lp518
S''
asbasbasbag48
(g64
g50
NtRp519
(dp520
g53
(dp521
sg62
g435
sg55
(lp522
g48
(g69
g50
NtRp523
(dp524
g53
(dp525
g73
g74
ssg62
g519
sg55
(lp526
g359
asbag48
(g69
g50
NtRp527
(dp528
g53
(dp529
g80
g81
ssg62
g519
sg55
(lp530
S':'
asbag48
(g69
g50
NtRp531
(dp532
g53
(dp533
sg62
g519
sg55
(lp534
g48
(g49
g50
NtRp535
(dp536
g53
(dp537
g61
I3
ssg62
g531
sg55
(lp538
S''
asbasbasbag48
(g64
g50
NtRp539
(dp540
g53
(dp541
sg62
g435
sg55
(lp542
g48
(g69
g50
NtRp543
(dp544
g53
(dp545
g73
g74
ssg62
g539
sg55
(lp546
g380
asbag48
(g69
g50
NtRp547
(dp548
g53
(dp549
g80
g81
ssg62
g539
sg55
(lp550
S':'
asbag48
(g69
g50
NtRp551
(dp552
g53
(dp553
sg62
g539
sg55
(lp554
g48
(g49
g50
NtRp555
(dp556
g53
(dp557
g61
I3
ssg62
g551
sg55
(lp558
S''
asbasbasbag48
(g64
g50
NtRp559
(dp560
g53
(dp561
sg62
g435
sg55
(lp562
g48
(g69
g50
NtRp563
(dp564
g53
(dp565
g73
g74
ssg62
g559
sg55
(lp566
g401
asbag48
(g69
g50
NtRp567
(dp568
g53
(dp569
g80
g81
ssg62
g559
sg55
(lp570
S':'
asbag48
(g69
g50
NtRp571
(dp572
g53
(dp573
sg62
g559
sg55
(lp574
g48
(g49
g50
NtRp575
(dp576
g53
(dp577
g61
I3
ssg62
g571
sg55
(lp578
S''
asbasbasbasbasbasbasbag48
(g64
g50
NtRp579
(dp580
g53
(dp581
sg62
g238
sg55
(lp582
g48
(g69
g50
NtRp583
(dp584
g53
(dp585
g73
g74
ssg62
g579
sg55
(lp586
S'session_id_welcome'
p587
asbag48
(g69
g50
NtRp588
(dp589
g53
(dp590
g80
g81
ssg62
g579
sg55
(lp591
S':'
asbag48
(g69
g50
NtRp592
(dp593
g53
(dp594
sg62
g579
sg55
(lp595
g48
(g49
g50
NtRp596
(dp597
g53
(dp598
g61
I4
ssg62
g592
sg55
(lp599
g48
(g57
g50
NtRp600
(dp601
g53
(dp602
g61
I3
ssg62
Nsg55
(lp603
g48
(g64
g50
NtRp604
(dp605
g53
(dp606
sg62
g600
sg55
(lp607
g48
(g69
g50
NtRp608
(dp609
g53
(dp610
g73
g74
ssg62
g604
sg55
(lp611
g275
asbag48
(g69
g50
NtRp612
(dp613
g53
(dp614
g80
g81
ssg62
g604
sg55
(lp615
S':'
asbag48
(g69
g50
NtRp616
(dp617
g53
(dp618
sg62
g604
sg55
(lp619
g48
(g49
g50
NtRp620
(dp621
g53
(dp622
g61
I3
ssg62
g616
sg55
(lp623
S''
asbasbasbag48
(g64
g50
NtRp624
(dp625
g53
(dp626
sg62
g600
sg55
(lp627
g48
(g69
g50
NtRp628
(dp629
g53
(dp630
g73
g74
ssg62
g624
sg55
(lp631
g296
asbag48
(g69
g50
NtRp632
(dp633
g53
(dp634
g80
g81
ssg62
g624
sg55
(lp635
S':'
asbag48
(g69
g50
NtRp636
(dp637
g53
(dp638
sg62
g624
sg55
(lp639
g48
(g49
g50
NtRp640
(dp641
g53
(dp642
g61
I3
ssg62
g636
sg55
(lp643
S''
asbasbasbag48
(g64
g50
NtRp644
(dp645
g53
(dp646
sg62
g600
sg55
(lp647
g48
(g69
g50
NtRp648
(dp649
g53
(dp650
g73
g74
ssg62
g644
sg55
(lp651
g317
asbag48
(g69
g50
NtRp652
(dp653
g53
(dp654
g80
g81
ssg62
g644
sg55
(lp655
S':'
asbag48
(g69
g50
NtRp656
(dp657
g53
(dp658
sg62
g644
sg55
(lp659
g48
(g49
g50
NtRp660
(dp661
g53
(dp662
g61
I3
ssg62
g656
sg55
(lp663
S''
asbasbasbag48
(g64
g50
NtRp664
(dp665
g53
(dp666
sg62
g600
sg55
(lp667
g48
(g69
g50
NtRp668
(dp669
g53
(dp670
g73
g74
ssg62
g664
sg55
(lp671
g338
asbag48
(g69
g50
NtRp672
(dp673
g53
(dp674
g80
g81
ssg62
g664
sg55
(lp675
S':'
asbag48
(g69
g50
NtRp676
(dp677
g53
(dp678
sg62
g664
sg55
(lp679
g48
(g49
g50
NtRp680
(dp681
g53
(dp682
g61
I3
ssg62
g676
sg55
(lp683
S''
asbasbasbag48
(g64
g50
NtRp684
(dp685
g53
(dp686
sg62
g600
sg55
(lp687
g48
(g69
g50
NtRp688
(dp689
g53
(dp690
g73
g74
ssg62
g684
sg55
(lp691
g359
asbag48
(g69
g50
NtRp692
(dp693
g53
(dp694
g80
g81
ssg62
g684
sg55
(lp695
S':'
asbag48
(g69
g50
NtRp696
(dp697
g53
(dp698
sg62
g684
sg55
(lp699
g48
(g49
g50
NtRp700
(dp701
g53
(dp702
g61
I3
ssg62
g696
sg55
(lp703
S''
asbasbasbag48
(g64
g50
NtRp704
(dp705
g53
(dp706
sg62
g600
sg55
(lp707
g48
(g69
g50
NtRp708
(dp709
g53
(dp710
g73
g74
ssg62
g704
sg55
(lp711
g380
asbag48
(g69
g50
NtRp712
(dp713
g53
(dp714
g80
g81
ssg62
g704
sg55
(lp715
S':'
asbag48
(g69
g50
NtRp716
(dp717
g53
(dp718
sg62
g704
sg55
(lp719
g48
(g49
g50
NtRp720
(dp721
g53
(dp722
g61
I3
ssg62
g716
sg55
(lp723
S''
asbasbasbag48
(g64
g50
NtRp724
(dp725
g53
(dp726
sg62
g600
sg55
(lp727
g48
(g69
g50
NtRp728
(dp729
g53
(dp730
g73
g74
ssg62
g724
sg55
(lp731
g401
asbag48
(g69
g50
NtRp732
(dp733
g53
(dp734
g80
g81
ssg62
g724
sg55
(lp735
S':'
asbag48
(g69
g50
NtRp736
(dp737
g53
(dp738
sg62
g724
sg55
(lp739
g48
(g49
g50
NtRp740
(dp741
g53
(dp742
g61
I3
ssg62
g736
sg55
(lp743
S''
asbasbasbasbasbasbasbasbasbasbasbag48
(g64
g50
NtRp744
(dp745
g53
(dp746
sg62
g58
sg55
(lp747
g48
(g69
g50
NtRp748
(dp749
g53
(dp750
g73
g74
ssg62
g744
sg55
(lp751
S'env'
p752
asbag48
(g69
g50
NtRp753
(dp754
g53
(dp755
g80
g81
ssg62
g744
sg55
(lp756
S':'
asbag48
(g69
g50
NtRp757
(dp758
g53
(dp759
sg62
g744
sg55
(lp760
g48
(g49
g50
NtRp761
(dp762
g53
(dp763
g61
I5
ssg62
g757
sg55
(lp764
g48
(g57
g50
NtRp765
(dp766
g53
(dp767
g61
I4
ssg62
Nsg55
(lp768
g48
(g64
g50
NtRp769
(dp770
g53
(dp771
sg62
g765
sg55
(lp772
g48
(g69
g50
NtRp773
(dp774
g53
(dp775
g73
g74
ssg62
g769
sg55
(lp776
S'app_folders'
p777
asbag48
(g69
g50
NtRp778
(dp779
g53
(dp780
g80
g81
ssg62
g769
sg55
(lp781
S':'
asbag48
(g69
g50
NtRp782
(dp783
g53
(dp784
sg62
g769
sg55
(lp785
g48
(g49
g50
NtRp786
(dp787
g53
(dp788
g61
I4
ssg62
g782
sg55
(lp789
S"set(['C:\\\\Python32\\\\web2py_win\\\\web2py\\\\applications\\\\admin\\\\', 'C:\\\\Python32\\\\web2py_win\\\\web2py\\\\applications\\\\welcome\\\\', 'C:\\\\Python32\\\\web2py_win\\\\web2py\\\\applications\\\\Casa_de_Apuestas\\\\'])"
p790
asbasbasbag48
(g64
g50
NtRp791
(dp792
g53
(dp793
sg62
g765
sg55
(lp794
g48
(g69
g50
NtRp795
(dp796
g53
(dp797
g73
g74
ssg62
g791
sg55
(lp798
S'applications_parent'
p799
asbag48
(g69
g50
NtRp800
(dp801
g53
(dp802
g80
g81
ssg62
g791
sg55
(lp803
S':'
asbag48
(g69
g50
NtRp804
(dp805
g53
(dp806
sg62
g791
sg55
(lp807
g48
(g49
g50
NtRp808
(dp809
g53
(dp810
g61
I4
ssg62
g804
sg55
(lp811
S'C:\\Python32\\web2py_win\\web2py'
p812
asbasbasbag48
(g64
g50
NtRp813
(dp814
g53
(dp815
sg62
g765
sg55
(lp816
g48
(g69
g50
NtRp817
(dp818
g53
(dp819
g73
g74
ssg62
g813
sg55
(lp820
S'cmd_args'
p821
asbag48
(g69
g50
NtRp822
(dp823
g53
(dp824
g80
g81
ssg62
g813
sg55
(lp825
S':'
asbag48
(g69
g50
NtRp826
(dp827
g53
(dp828
sg62
g813
sg55
(lp829
g48
(g49
g50
NtRp830
(dp831
g53
(dp832
g61
I4
ssg62
g826
sg55
(lp833
g48
(g57
g50
NtRp834
(dp835
g53
(dp836
g61
I3
ssg62
Nsg55
(lp837
sbasbasbasbag48
(g64
g50
NtRp838
(dp839
g53
(dp840
sg62
g765
sg55
(lp841
g48
(g69
g50
NtRp842
(dp843
g53
(dp844
g73
g74
ssg62
g838
sg55
(lp845
S'cmd_options'
p846
asbag48
(g69
g50
NtRp847
(dp848
g53
(dp849
g80
g81
ssg62
g838
sg55
(lp850
S':'
asbag48
(g69
g50
NtRp851
(dp852
g53
(dp853
sg62
g838
sg55
(lp854
g48
(g49
g50
NtRp855
(dp856
g53
(dp857
g61
I4
ssg62
g851
sg55
(lp858
S"<Values at 0x2675fa8: {'verbose': False, 'ip': '127.0.0.1', 'shutdown_timeout': 5, 'taskbar': False, 'nocron': False, 'pid_filename': 'httpserver.pid', 'maxthreads': None, 'softcron': False, 'server_name': 'hector-vaio', 'bpython': False, 'nogui': False, 'port': 8000, 'extcron': False, 'debuglevel': 30, 'test': None, 'folder': 'C:\\\\Python32\\\\web2py_win\\\\web2py', 'config': '', 'import_models': False, 'winservice': '', 'shell': None, 'run': '', 'log_filename': 'httpserver.log', 'args': [''], 'ssl_ca_certificate': None, 'scheduler': None, 'profiler_filename': None, 'ssl_private_key': '', 'password': '<ask>', 'request_queue_size': 5, 'ssl_certificate': '', 'cronjob': False, 'plain': False, 'quiet': False, 'interfaces': None, 'minthreads': None, 'timeout': 10, 'numthreads': None, 'nobanner': False}>"
p859
asbasbasbag48
(g64
g50
NtRp860
(dp861
g53
(dp862
sg62
g765
sg55
(lp863
g48
(g69
g50
NtRp864
(dp865
g53
(dp866
g73
g74
ssg62
g860
sg55
(lp867
S'db_sessions'
p868
asbag48
(g69
g50
NtRp869
(dp870
g53
(dp871
g80
g81
ssg62
g860
sg55
(lp872
S':'
asbag48
(g69
g50
NtRp873
(dp874
g53
(dp875
sg62
g860
sg55
(lp876
g48
(g49
g50
NtRp877
(dp878
g53
(dp879
g61
I4
ssg62
g873
sg55
(lp880
S'set([])'
p881
asbasbasbag48
(g64
g50
NtRp882
(dp883
g53
(dp884
sg62
g765
sg55
(lp885
g48
(g69
g50
NtRp886
(dp887
g53
(dp888
g73
g74
ssg62
g882
sg55
(lp889
S'debugging'
p890
asbag48
(g69
g50
NtRp891
(dp892
g53
(dp893
g80
g81
ssg62
g882
sg55
(lp894
S':'
asbag48
(g69
g50
NtRp895
(dp896
g53
(dp897
sg62
g882
sg55
(lp898
g48
(g49
g50
NtRp899
(dp900
g53
(dp901
g61
I4
ssg62
g895
sg55
(lp902
g91
asbasbasbag48
(g64
g50
NtRp903
(dp904
g53
(dp905
sg62
g765
sg55
(lp906
g48
(g69
g50
NtRp907
(dp908
g53
(dp909
g73
g74
ssg62
g903
sg55
(lp910
S'gluon_parent'
p911
asbag48
(g69
g50
NtRp912
(dp913
g53
(dp914
g80
g81
ssg62
g903
sg55
(lp915
S':'
asbag48
(g69
g50
NtRp916
(dp917
g53
(dp918
sg62
g903
sg55
(lp919
g48
(g49
g50
NtRp920
(dp921
g53
(dp922
g61
I4
ssg62
g916
sg55
(lp923
S'C:\\Python32\\web2py_win\\web2py'
p924
asbasbasbag48
(g64
g50
NtRp925
(dp926
g53
(dp927
sg62
g765
sg55
(lp928
g48
(g69
g50
NtRp929
(dp930
g53
(dp931
g73
g74
ssg62
g925
sg55
(lp932
S'http_accept'
p933
asbag48
(g69
g50
NtRp934
(dp935
g53
(dp936
g80
g81
ssg62
g925
sg55
(lp937
S':'
asbag48
(g69
g50
NtRp938
(dp939
g53
(dp940
sg62
g925
sg55
(lp941
g48
(g49
g50
NtRp942
(dp943
g53
(dp944
g61
I4
ssg62
g938
sg55
(lp945
S'text/html,application/xhtml+xml,application/xml;q=0.9,*/*;q=0.8'
p946
asbasbasbag48
(g64
g50
NtRp947
(dp948
g53
(dp949
sg62
g765
sg55
(lp950
g48
(g69
g50
NtRp951
(dp952
g53
(dp953
g73
g74
ssg62
g947
sg55
(lp954
S'http_accept_charset'
p955
asbag48
(g69
g50
NtRp956
(dp957
g53
(dp958
g80
g81
ssg62
g947
sg55
(lp959
S':'
asbag48
(g69
g50
NtRp960
(dp961
g53
(dp962
sg62
g947
sg55
(lp963
g48
(g49
g50
NtRp964
(dp965
g53
(dp966
g61
I4
ssg62
g960
sg55
(lp967
S'ISO-8859-1,utf-8;q=0.7,*;q=0.3'
p968
asbasbasbag48
(g64
g50
NtRp969
(dp970
g53
(dp971
sg62
g765
sg55
(lp972
g48
(g69
g50
NtRp973
(dp974
g53
(dp975
g73
g74
ssg62
g969
sg55
(lp976
S'http_accept_encoding'
p977
asbag48
(g69
g50
NtRp978
(dp979
g53
(dp980
g80
g81
ssg62
g969
sg55
(lp981
S':'
asbag48
(g69
g50
NtRp982
(dp983
g53
(dp984
sg62
g969
sg55
(lp985
g48
(g49
g50
NtRp986
(dp987
g53
(dp988
g61
I4
ssg62
g982
sg55
(lp989
S'gzip,deflate,sdch'
p990
asbasbasbag48
(g64
g50
NtRp991
(dp992
g53
(dp993
sg62
g765
sg55
(lp994
g48
(g69
g50
NtRp995
(dp996
g53
(dp997
g73
g74
ssg62
g991
sg55
(lp998
S'http_accept_language'
p999
asbag48
(g69
g50
NtRp1000
(dp1001
g53
(dp1002
g80
g81
ssg62
g991
sg55
(lp1003
S':'
asbag48
(g69
g50
NtRp1004
(dp1005
g53
(dp1006
sg62
g991
sg55
(lp1007
g48
(g49
g50
NtRp1008
(dp1009
g53
(dp1010
g61
I4
ssg62
g1004
sg55
(lp1011
S'en-US,en;q=0.8'
p1012
asbasbasbag48
(g64
g50
NtRp1013
(dp1014
g53
(dp1015
sg62
g765
sg55
(lp1016
g48
(g69
g50
NtRp1017
(dp1018
g53
(dp1019
g73
g74
ssg62
g1013
sg55
(lp1020
S'http_connection'
p1021
asbag48
(g69
g50
NtRp1022
(dp1023
g53
(dp1024
g80
g81
ssg62
g1013
sg55
(lp1025
S':'
asbag48
(g69
g50
NtRp1026
(dp1027
g53
(dp1028
sg62
g1013
sg55
(lp1029
g48
(g49
g50
NtRp1030
(dp1031
g53
(dp1032
g61
I4
ssg62
g1026
sg55
(lp1033
S'keep-alive'
p1034
asbasbasbag48
(g64
g50
NtRp1035
(dp1036
g53
(dp1037
sg62
g765
sg55
(lp1038
g48
(g69
g50
NtRp1039
(dp1040
g53
(dp1041
g73
g74
ssg62
g1035
sg55
(lp1042
S'http_cookie'
p1043
asbag48
(g69
g50
NtRp1044
(dp1045
g53
(dp1046
g80
g81
ssg62
g1035
sg55
(lp1047
S':'
asbag48
(g69
g50
NtRp1048
(dp1049
g53
(dp1050
sg62
g1035
sg55
(lp1051
g48
(g49
g50
NtRp1052
(dp1053
g53
(dp1054
g61
I4
ssg62
g1048
sg55
(lp1055
S'session_id_welcome=127.0.0.1-1aeae175-31a6-4c44-be03-8683ce66e974; session_id_admin=127.0.0.1-cea169ba-71eb-49e5-ad58-f13ca2a4ef9e; session_id_casa_de_apuestas=127.0.0.1-f2b73c5c-dc8e-4a91-88f1-8ab0d38c3580'
p1056
asbasbasbag48
(g64
g50
NtRp1057
(dp1058
g53
(dp1059
sg62
g765
sg55
(lp1060
g48
(g69
g50
NtRp1061
(dp1062
g53
(dp1063
g73
g74
ssg62
g1057
sg55
(lp1064
S'http_host'
p1065
asbag48
(g69
g50
NtRp1066
(dp1067
g53
(dp1068
g80
g81
ssg62
g1057
sg55
(lp1069
S':'
asbag48
(g69
g50
NtRp1070
(dp1071
g53
(dp1072
sg62
g1057
sg55
(lp1073
g48
(g49
g50
NtRp1074
(dp1075
g53
(dp1076
g61
I4
ssg62
g1070
sg55
(lp1077
S'127.0.0.1:8000'
p1078
asbasbasbag48
(g64
g50
NtRp1079
(dp1080
g53
(dp1081
sg62
g765
sg55
(lp1082
g48
(g69
g50
NtRp1083
(dp1084
g53
(dp1085
g73
g74
ssg62
g1079
sg55
(lp1086
S'http_referer'
p1087
asbag48
(g69
g50
NtRp1088
(dp1089
g53
(dp1090
g80
g81
ssg62
g1079
sg55
(lp1091
S':'
asbag48
(g69
g50
NtRp1092
(dp1093
g53
(dp1094
sg62
g1079
sg55
(lp1095
g48
(g49
g50
NtRp1096
(dp1097
g53
(dp1098
g61
I4
ssg62
g1092
sg55
(lp1099
S'http://127.0.0.1:8000/Casa_de_Apuestas/default/listaEventos'
p1100
asbasbasbag48
(g64
g50
NtRp1101
(dp1102
g53
(dp1103
sg62
g765
sg55
(lp1104
g48
(g69
g50
NtRp1105
(dp1106
g53
(dp1107
g73
g74
ssg62
g1101
sg55
(lp1108
S'http_user_agent'
p1109
asbag48
(g69
g50
NtRp1110
(dp1111
g53
(dp1112
g80
g81
ssg62
g1101
sg55
(lp1113
S':'
asbag48
(g69
g50
NtRp1114
(dp1115
g53
(dp1116
sg62
g1101
sg55
(lp1117
g48
(g49
g50
NtRp1118
(dp1119
g53
(dp1120
g61
I4
ssg62
g1114
sg55
(lp1121
S'Mozilla/5.0 (Windows NT 6.1) AppleWebKit/535.2 (KHTML, like Gecko) Chrome/15.0.874.121 Safari/535.2'
p1122
asbasbasbag48
(g64
g50
NtRp1123
(dp1124
g53
(dp1125
sg62
g765
sg55
(lp1126
g48
(g69
g50
NtRp1127
(dp1128
g53
(dp1129
g73
g74
ssg62
g1123
sg55
(lp1130
S'is_jython'
p1131
asbag48
(g69
g50
NtRp1132
(dp1133
g53
(dp1134
g80
g81
ssg62
g1123
sg55
(lp1135
S':'
asbag48
(g69
g50
NtRp1136
(dp1137
g53
(dp1138
sg62
g1123
sg55
(lp1139
g48
(g49
g50
NtRp1140
(dp1141
g53
(dp1142
g61
I4
ssg62
g1136
sg55
(lp1143
g91
asbasbasbag48
(g64
g50
NtRp1144
(dp1145
g53
(dp1146
sg62
g765
sg55
(lp1147
g48
(g69
g50
NtRp1148
(dp1149
g53
(dp1150
g73
g74
ssg62
g1144
sg55
(lp1151
S'path_info'
p1152
asbag48
(g69
g50
NtRp1153
(dp1154
g53
(dp1155
g80
g81
ssg62
g1144
sg55
(lp1156
S':'
asbag48
(g69
g50
NtRp1157
(dp1158
g53
(dp1159
sg62
g1144
sg55
(lp1160
g48
(g49
g50
NtRp1161
(dp1162
g53
(dp1163
g61
I4
ssg62
g1157
sg55
(lp1164
S'/Casa_de_Apuestas/default/asignarResultado/13'
p1165
asbasbasbag48
(g64
g50
NtRp1166
(dp1167
g53
(dp1168
sg62
g765
sg55
(lp1169
g48
(g69
g50
NtRp1170
(dp1171
g53
(dp1172
g73
g74
ssg62
g1166
sg55
(lp1173
S'query_string'
p1174
asbag48
(g69
g50
NtRp1175
(dp1176
g53
(dp1177
g80
g81
ssg62
g1166
sg55
(lp1178
S':'
asbag48
(g69
g50
NtRp1179
(dp1180
g53
(dp1181
sg62
g1166
sg55
(lp1182
g48
(g49
g50
NtRp1183
(dp1184
g53
(dp1185
g61
I4
ssg62
g1179
sg55
(lp1186
S''
asbasbasbag48
(g64
g50
NtRp1187
(dp1188
g53
(dp1189
sg62
g765
sg55
(lp1190
g48
(g69
g50
NtRp1191
(dp1192
g53
(dp1193
g73
g74
ssg62
g1187
sg55
(lp1194
S'remote_addr'
p1195
asbag48
(g69
g50
NtRp1196
(dp1197
g53
(dp1198
g80
g81
ssg62
g1187
sg55
(lp1199
S':'
asbag48
(g69
g50
NtRp1200
(dp1201
g53
(dp1202
sg62
g1187
sg55
(lp1203
g48
(g49
g50
NtRp1204
(dp1205
g53
(dp1206
g61
I4
ssg62
g1200
sg55
(lp1207
g194
asbasbasbag48
(g64
g50
NtRp1208
(dp1209
g53
(dp1210
sg62
g765
sg55
(lp1211
g48
(g69
g50
NtRp1212
(dp1213
g53
(dp1214
g73
g74
ssg62
g1208
sg55
(lp1215
S'remote_port'
p1216
asbag48
(g69
g50
NtRp1217
(dp1218
g53
(dp1219
g80
g81
ssg62
g1208
sg55
(lp1220
S':'
asbag48
(g69
g50
NtRp1221
(dp1222
g53
(dp1223
sg62
g1208
sg55
(lp1224
g48
(g49
g50
NtRp1225
(dp1226
g53
(dp1227
g61
I4
ssg62
g1221
sg55
(lp1228
S'60521'
p1229
asbasbasbag48
(g64
g50
NtRp1230
(dp1231
g53
(dp1232
sg62
g765
sg55
(lp1233
g48
(g69
g50
NtRp1234
(dp1235
g53
(dp1236
g73
g74
ssg62
g1230
sg55
(lp1237
S'request_method'
p1238
asbag48
(g69
g50
NtRp1239
(dp1240
g53
(dp1241
g80
g81
ssg62
g1230
sg55
(lp1242
S':'
asbag48
(g69
g50
NtRp1243
(dp1244
g53
(dp1245
sg62
g1230
sg55
(lp1246
g48
(g49
g50
NtRp1247
(dp1248
g53
(dp1249
g61
I4
ssg62
g1243
sg55
(lp1250
S'GET'
p1251
asbasbasbag48
(g64
g50
NtRp1252
(dp1253
g53
(dp1254
sg62
g765
sg55
(lp1255
g48
(g69
g50
NtRp1256
(dp1257
g53
(dp1258
g73
g74
ssg62
g1252
sg55
(lp1259
S'script_name'
p1260
asbag48
(g69
g50
NtRp1261
(dp1262
g53
(dp1263
g80
g81
ssg62
g1252
sg55
(lp1264
S':'
asbag48
(g69
g50
NtRp1265
(dp1266
g53
(dp1267
sg62
g1252
sg55
(lp1268
g48
(g49
g50
NtRp1269
(dp1270
g53
(dp1271
g61
I4
ssg62
g1265
sg55
(lp1272
S''
asbasbasbag48
(g64
g50
NtRp1273
(dp1274
g53
(dp1275
sg62
g765
sg55
(lp1276
g48
(g69
g50
NtRp1277
(dp1278
g53
(dp1279
g73
g74
ssg62
g1273
sg55
(lp1280
S'server_name'
p1281
asbag48
(g69
g50
NtRp1282
(dp1283
g53
(dp1284
g80
g81
ssg62
g1273
sg55
(lp1285
S':'
asbag48
(g69
g50
NtRp1286
(dp1287
g53
(dp1288
sg62
g1273
sg55
(lp1289
g48
(g49
g50
NtRp1290
(dp1291
g53
(dp1292
g61
I4
ssg62
g1286
sg55
(lp1293
S'hector-vaio'
p1294
asbasbasbag48
(g64
g50
NtRp1295
(dp1296
g53
(dp1297
sg62
g765
sg55
(lp1298
g48
(g69
g50
NtRp1299
(dp1300
g53
(dp1301
g73
g74
ssg62
g1295
sg55
(lp1302
S'server_port'
p1303
asbag48
(g69
g50
NtRp1304
(dp1305
g53
(dp1306
g80
g81
ssg62
g1295
sg55
(lp1307
S':'
asbag48
(g69
g50
NtRp1308
(dp1309
g53
(dp1310
sg62
g1295
sg55
(lp1311
g48
(g49
g50
NtRp1312
(dp1313
g53
(dp1314
g61
I4
ssg62
g1308
sg55
(lp1315
S'8000'
p1316
asbasbasbag48
(g64
g50
NtRp1317
(dp1318
g53
(dp1319
sg62
g765
sg55
(lp1320
g48
(g69
g50
NtRp1321
(dp1322
g53
(dp1323
g73
g74
ssg62
g1317
sg55
(lp1324
S'server_protocol'
p1325
asbag48
(g69
g50
NtRp1326
(dp1327
g53
(dp1328
g80
g81
ssg62
g1317
sg55
(lp1329
S':'
asbag48
(g69
g50
NtRp1330
(dp1331
g53
(dp1332
sg62
g1317
sg55
(lp1333
g48
(g49
g50
NtRp1334
(dp1335
g53
(dp1336
g61
I4
ssg62
g1330
sg55
(lp1337
S'HTTP/1.1'
p1338
asbasbasbag48
(g64
g50
NtRp1339
(dp1340
g53
(dp1341
sg62
g765
sg55
(lp1342
g48
(g69
g50
NtRp1343
(dp1344
g53
(dp1345
g73
g74
ssg62
g1339
sg55
(lp1346
S'server_software'
p1347
asbag48
(g69
g50
NtRp1348
(dp1349
g53
(dp1350
g80
g81
ssg62
g1339
sg55
(lp1351
S':'
asbag48
(g69
g50
NtRp1352
(dp1353
g53
(dp1354
sg62
g1339
sg55
(lp1355
g48
(g49
g50
NtRp1356
(dp1357
g53
(dp1358
g61
I4
ssg62
g1352
sg55
(lp1359
S'Rocket 1.2.4'
p1360
asbasbasbag48
(g64
g50
NtRp1361
(dp1362
g53
(dp1363
sg62
g765
sg55
(lp1364
g48
(g69
g50
NtRp1365
(dp1366
g53
(dp1367
g73
g74
ssg62
g1361
sg55
(lp1368
S'web2py_crontype'
p1369
asbag48
(g69
g50
NtRp1370
(dp1371
g53
(dp1372
g80
g81
ssg62
g1361
sg55
(lp1373
S':'
asbag48
(g69
g50
NtRp1374
(dp1375
g53
(dp1376
sg62
g1361
sg55
(lp1377
g48
(g49
g50
NtRp1378
(dp1379
g53
(dp1380
g61
I4
ssg62
g1374
sg55
(lp1381
S'hard'
p1382
asbasbasbag48
(g64
g50
NtRp1383
(dp1384
g53
(dp1385
sg62
g765
sg55
(lp1386
g48
(g69
g50
NtRp1387
(dp1388
g53
(dp1389
g73
g74
ssg62
g1383
sg55
(lp1390
S'web2py_path'
p1391
asbag48
(g69
g50
NtRp1392
(dp1393
g53
(dp1394
g80
g81
ssg62
g1383
sg55
(lp1395
S':'
asbag48
(g69
g50
NtRp1396
(dp1397
g53
(dp1398
sg62
g1383
sg55
(lp1399
g48
(g49
g50
NtRp1400
(dp1401
g53
(dp1402
g61
I4
ssg62
g1396
sg55
(lp1403
g812
asbasbasbag48
(g64
g50
NtRp1404
(dp1405
g53
(dp1406
sg62
g765
sg55
(lp1407
g48
(g69
g50
NtRp1408
(dp1409
g53
(dp1410
g73
g74
ssg62
g1404
sg55
(lp1411
S'web2py_version'
p1412
asbag48
(g69
g50
NtRp1413
(dp1414
g53
(dp1415
g80
g81
ssg62
g1404
sg55
(lp1416
S':'
asbag48
(g69
g50
NtRp1417
(dp1418
g53
(dp1419
sg62
g1404
sg55
(lp1420
g48
(g49
g50
NtRp1421
(dp1422
g53
(dp1423
g61
I4
ssg62
g1417
sg55
(lp1424
g48
(g57
g50
NtRp1425
(dp1426
g53
(dp1427
g61
I3
ssg62
Nsg55
(lp1428
g48
(g64
g50
NtRp1429
(dp1430
g53
(dp1431
sg62
g1425
sg55
(lp1432
g48
(g69
g50
NtRp1433
(dp1434
g53
(dp1435
sg62
g1429
sg55
(lp1436
g48
(g49
g50
NtRp1437
(dp1438
g53
(dp1439
g61
I3
ssg62
g1433
sg55
(lp1440
S'1'
asbasbasbag48
(g64
g50
NtRp1441
(dp1442
g53
(dp1443
sg62
g1425
sg55
(lp1444
g48
(g69
g50
NtRp1445
(dp1446
g53
(dp1447
sg62
g1441
sg55
(lp1448
g48
(g49
g50
NtRp1449
(dp1450
g53
(dp1451
g61
I3
ssg62
g1445
sg55
(lp1452
S'99'
p1453
asbasbasbag48
(g64
g50
NtRp1454
(dp1455
g53
(dp1456
sg62
g1425
sg55
(lp1457
g48
(g69
g50
NtRp1458
(dp1459
g53
(dp1460
sg62
g1454
sg55
(lp1461
g48
(g49
g50
NtRp1462
(dp1463
g53
(dp1464
g61
I3
ssg62
g1458
sg55
(lp1465
S'2'
asbasbasbag48
(g64
g50
NtRp1466
(dp1467
g53
(dp1468
sg62
g1425
sg55
(lp1469
g48
(g69
g50
NtRp1470
(dp1471
g53
(dp1472
sg62
g1466
sg55
(lp1473
g48
(g49
g50
NtRp1474
(dp1475
g53
(dp1476
g61
I3
ssg62
g1470
sg55
(lp1477
S'datetime.datetime(2011, 9, 26, 6, 55, 33)'
p1478
asbasbasbag48
(g64
g50
NtRp1479
(dp1480
g53
(dp1481
sg62
g1425
sg55
(lp1482
g48
(g69
g50
NtRp1483
(dp1484
g53
(dp1485
sg62
g1479
sg55
(lp1486
g48
(g49
g50
NtRp1487
(dp1488
g53
(dp1489
g61
I3
ssg62
g1483
sg55
(lp1490
S'stable'
p1491
asbasbasbasbasbasbasbag48
(g64
g50
NtRp1492
(dp1493
g53
(dp1494
sg62
g765
sg55
(lp1495
g48
(g69
g50
NtRp1496
(dp1497
g53
(dp1498
g73
g74
ssg62
g1492
sg55
(lp1499
S'wsgi_errors'
p1500
asbag48
(g69
g50
NtRp1501
(dp1502
g53
(dp1503
g80
g81
ssg62
g1492
sg55
(lp1504
S':'
asbag48
(g69
g50
NtRp1505
(dp1506
g53
(dp1507
sg62
g1492
sg55
(lp1508
g48
(g49
g50
NtRp1509
(dp1510
g53
(dp1511
g61
I4
ssg62
g1505
sg55
(lp1512
S"<open file '<stderr>', mode 'w' at 0x015800B0>"
p1513
asbasbasbag48
(g64
g50
NtRp1514
(dp1515
g53
(dp1516
sg62
g765
sg55
(lp1517
g48
(g69
g50
NtRp1518
(dp1519
g53
(dp1520
g73
g74
ssg62
g1514
sg55
(lp1521
S'wsgi_file_wrapper'
p1522
asbag48
(g69
g50
NtRp1523
(dp1524
g53
(dp1525
g80
g81
ssg62
g1514
sg55
(lp1526
S':'
asbag48
(g69
g50
NtRp1527
(dp1528
g53
(dp1529
sg62
g1514
sg55
(lp1530
g48
(g49
g50
NtRp1531
(dp1532
g53
(dp1533
g61
I4
ssg62
g1527
sg55
(lp1534
S'<class wsgiref.util.FileWrapper at 0x02419AB0>'
p1535
asbasbasbag48
(g64
g50
NtRp1536
(dp1537
g53
(dp1538
sg62
g765
sg55
(lp1539
g48
(g69
g50
NtRp1540
(dp1541
g53
(dp1542
g73
g74
ssg62
g1536
sg55
(lp1543
S'wsgi_input'
p1544
asbag48
(g69
g50
NtRp1545
(dp1546
g53
(dp1547
g80
g81
ssg62
g1536
sg55
(lp1548
S':'
asbag48
(g69
g50
NtRp1549
(dp1550
g53
(dp1551
sg62
g1536
sg55
(lp1552
g48
(g49
g50
NtRp1553
(dp1554
g53
(dp1555
g61
I4
ssg62
g1549
sg55
(lp1556
S'<socket._fileobject object at 0x06666C70>'
p1557
asbasbasbag48
(g64
g50
NtRp1558
(dp1559
g53
(dp1560
sg62
g765
sg55
(lp1561
g48
(g69
g50
NtRp1562
(dp1563
g53
(dp1564
g73
g74
ssg62
g1558
sg55
(lp1565
S'wsgi_multiprocess'
p1566
asbag48
(g69
g50
NtRp1567
(dp1568
g53
(dp1569
g80
g81
ssg62
g1558
sg55
(lp1570
S':'
asbag48
(g69
g50
NtRp1571
(dp1572
g53
(dp1573
sg62
g1558
sg55
(lp1574
g48
(g49
g50
NtRp1575
(dp1576
g53
(dp1577
g61
I4
ssg62
g1571
sg55
(lp1578
g91
asbasbasbag48
(g64
g50
NtRp1579
(dp1580
g53
(dp1581
sg62
g765
sg55
(lp1582
g48
(g69
g50
NtRp1583
(dp1584
g53
(dp1585
g73
g74
ssg62
g1579
sg55
(lp1586
S'wsgi_multithread'
p1587
asbag48
(g69
g50
NtRp1588
(dp1589
g53
(dp1590
g80
g81
ssg62
g1579
sg55
(lp1591
S':'
asbag48
(g69
g50
NtRp1592
(dp1593
g53
(dp1594
sg62
g1579
sg55
(lp1595
g48
(g49
g50
NtRp1596
(dp1597
g53
(dp1598
g61
I4
ssg62
g1592
sg55
(lp1599
S'True'
p1600
asbasbasbag48
(g64
g50
NtRp1601
(dp1602
g53
(dp1603
sg62
g765
sg55
(lp1604
g48
(g69
g50
NtRp1605
(dp1606
g53
(dp1607
g73
g74
ssg62
g1601
sg55
(lp1608
S'wsgi_run_once'
p1609
asbag48
(g69
g50
NtRp1610
(dp1611
g53
(dp1612
g80
g81
ssg62
g1601
sg55
(lp1613
S':'
asbag48
(g69
g50
NtRp1614
(dp1615
g53
(dp1616
sg62
g1601
sg55
(lp1617
g48
(g49
g50
NtRp1618
(dp1619
g53
(dp1620
g61
I4
ssg62
g1614
sg55
(lp1621
g91
asbasbasbag48
(g64
g50
NtRp1622
(dp1623
g53
(dp1624
sg62
g765
sg55
(lp1625
g48
(g69
g50
NtRp1626
(dp1627
g53
(dp1628
g73
g74
ssg62
g1622
sg55
(lp1629
S'wsgi_url_scheme'
p1630
asbag48
(g69
g50
NtRp1631
(dp1632
g53
(dp1633
g80
g81
ssg62
g1622
sg55
(lp1634
S':'
asbag48
(g69
g50
NtRp1635
(dp1636
g53
(dp1637
sg62
g1622
sg55
(lp1638
g48
(g49
g50
NtRp1639
(dp1640
g53
(dp1641
g61
I4
ssg62
g1635
sg55
(lp1642
S'http'
p1643
asbasbasbag48
(g64
g50
NtRp1644
(dp1645
g53
(dp1646
sg62
g765
sg55
(lp1647
g48
(g69
g50
NtRp1648
(dp1649
g53
(dp1650
g73
g74
ssg62
g1644
sg55
(lp1651
S'wsgi_version'
p1652
asbag48
(g69
g50
NtRp1653
(dp1654
g53
(dp1655
g80
g81
ssg62
g1644
sg55
(lp1656
S':'
asbag48
(g69
g50
NtRp1657
(dp1658
g53
(dp1659
sg62
g1644
sg55
(lp1660
g48
(g49
g50
NtRp1661
(dp1662
g53
(dp1663
g61
I4
ssg62
g1657
sg55
(lp1664
g48
(g57
g50
NtRp1665
(dp1666
g53
(dp1667
g61
I3
ssg62
Nsg55
(lp1668
g48
(g64
g50
NtRp1669
(dp1670
g53
(dp1671
sg62
g1665
sg55
(lp1672
g48
(g69
g50
NtRp1673
(dp1674
g53
(dp1675
sg62
g1669
sg55
(lp1676
g48
(g49
g50
NtRp1677
(dp1678
g53
(dp1679
g61
I3
ssg62
g1673
sg55
(lp1680
S'1'
asbasbasbag48
(g64
g50
NtRp1681
(dp1682
g53
(dp1683
sg62
g1665
sg55
(lp1684
g48
(g69
g50
NtRp1685
(dp1686
g53
(dp1687
sg62
g1681
sg55
(lp1688
g48
(g49
g50
NtRp1689
(dp1690
g53
(dp1691
g61
I3
ssg62
g1685
sg55
(lp1692
S'0'
asbasbasbasbasbasbasbasbasbasbasbag48
(g64
g50
NtRp1693
(dp1694
g53
(dp1695
sg62
g58
sg55
(lp1696
g48
(g69
g50
NtRp1697
(dp1698
g53
(dp1699
g73
g74
ssg62
g1693
sg55
(lp1700
S'extension'
p1701
asbag48
(g69
g50
NtRp1702
(dp1703
g53
(dp1704
g80
g81
ssg62
g1693
sg55
(lp1705
S':'
asbag48
(g69
g50
NtRp1706
(dp1707
g53
(dp1708
sg62
g1693
sg55
(lp1709
g48
(g49
g50
NtRp1710
(dp1711
g53
(dp1712
g61
I5
ssg62
g1706
sg55
(lp1713
S'html'
p1714
asbasbasbag48
(g64
g50
NtRp1715
(dp1716
g53
(dp1717
sg62
g58
sg55
(lp1718
g48
(g69
g50
NtRp1719
(dp1720
g53
(dp1721
g73
g74
ssg62
g1715
sg55
(lp1722
S'folder'
p1723
asbag48
(g69
g50
NtRp1724
(dp1725
g53
(dp1726
g80
g81
ssg62
g1715
sg55
(lp1727
S':'
asbag48
(g69
g50
NtRp1728
(dp1729
g53
(dp1730
sg62
g1715
sg55
(lp1731
g48
(g49
g50
NtRp1732
(dp1733
g53
(dp1734
g61
I5
ssg62
g1728
sg55
(lp1735
S'C:\\Python32\\web2py_win\\web2py\\applications\\Casa_de_Apuestas\\'
p1736
asbasbasbag48
(g64
g50
NtRp1737
(dp1738
g53
(dp1739
sg62
g58
sg55
(lp1740
g48
(g69
g50
NtRp1741
(dp1742
g53
(dp1743
g73
g74
ssg62
g1737
sg55
(lp1744
S'function'
p1745
asbag48
(g69
g50
NtRp1746
(dp1747
g53
(dp1748
g80
g81
ssg62
g1737
sg55
(lp1749
S':'
asbag48
(g69
g50
NtRp1750
(dp1751
g53
(dp1752
sg62
g1737
sg55
(lp1753
g48
(g49
g50
NtRp1754
(dp1755
g53
(dp1756
g61
I5
ssg62
g1750
sg55
(lp1757
S'asignarResultado'
p1758
asbasbasbag48
(g64
g50
NtRp1759
(dp1760
g53
(dp1761
sg62
g58
sg55
(lp1762
g48
(g69
g50
NtRp1763
(dp1764
g53
(dp1765
g73
g74
ssg62
g1759
sg55
(lp1766
S'get_vars'
p1767
asbag48
(g69
g50
NtRp1768
(dp1769
g53
(dp1770
g80
g81
ssg62
g1759
sg55
(lp1771
S':'
asbag48
(g69
g50
NtRp1772
(dp1773
g53
(dp1774
sg62
g1759
sg55
(lp1775
g48
(g49
g50
NtRp1776
(dp1777
g53
(dp1778
g61
I5
ssg62
g1772
sg55
(lp1779
g48
(g57
g50
NtRp1780
(dp1781
g53
(dp1782
g61
I4
ssg62
Nsg55
(lp1783
sbasbasbasbag48
(g64
g50
NtRp1784
(dp1785
g53
(dp1786
sg62
g58
sg55
(lp1787
g48
(g69
g50
NtRp1788
(dp1789
g53
(dp1790
g73
g74
ssg62
g1784
sg55
(lp1791
S'global_settings'
p1792
asbag48
(g69
g50
NtRp1793
(dp1794
g53
(dp1795
g80
g81
ssg62
g1784
sg55
(lp1796
S':'
asbag48
(g69
g50
NtRp1797
(dp1798
g53
(dp1799
sg62
g1784
sg55
(lp1800
g48
(g49
g50
NtRp1801
(dp1802
g53
(dp1803
g61
I5
ssg62
g1797
sg55
(lp1804
g48
(g57
g50
NtRp1805
(dp1806
g53
(dp1807
g61
I4
ssg62
Nsg55
(lp1808
g48
(g64
g50
NtRp1809
(dp1810
g53
(dp1811
sg62
g1805
sg55
(lp1812
g48
(g69
g50
NtRp1813
(dp1814
g53
(dp1815
g73
g74
ssg62
g1809
sg55
(lp1816
g777
asbag48
(g69
g50
NtRp1817
(dp1818
g53
(dp1819
g80
g81
ssg62
g1809
sg55
(lp1820
S':'
asbag48
(g69
g50
NtRp1821
(dp1822
g53
(dp1823
sg62
g1809
sg55
(lp1824
g48
(g49
g50
NtRp1825
(dp1826
g53
(dp1827
g61
I4
ssg62
g1821
sg55
(lp1828
S"set(['C:\\\\Python32\\\\web2py_win\\\\web2py\\\\applications\\\\admin\\\\', 'C:\\\\Python32\\\\web2py_win\\\\web2py\\\\applications\\\\welcome\\\\', 'C:\\\\Python32\\\\web2py_win\\\\web2py\\\\applications\\\\Casa_de_Apuestas\\\\'])"
p1829
asbasbasbag48
(g64
g50
NtRp1830
(dp1831
g53
(dp1832
sg62
g1805
sg55
(lp1833
g48
(g69
g50
NtRp1834
(dp1835
g53
(dp1836
g73
g74
ssg62
g1830
sg55
(lp1837
g799
asbag48
(g69
g50
NtRp1838
(dp1839
g53
(dp1840
g80
g81
ssg62
g1830
sg55
(lp1841
S':'
asbag48
(g69
g50
NtRp1842
(dp1843
g53
(dp1844
sg62
g1830
sg55
(lp1845
g48
(g49
g50
NtRp1846
(dp1847
g53
(dp1848
g61
I4
ssg62
g1842
sg55
(lp1849
g812
asbasbasbag48
(g64
g50
NtRp1850
(dp1851
g53
(dp1852
sg62
g1805
sg55
(lp1853
g48
(g69
g50
NtRp1854
(dp1855
g53
(dp1856
g73
g74
ssg62
g1850
sg55
(lp1857
g821
asbag48
(g69
g50
NtRp1858
(dp1859
g53
(dp1860
g80
g81
ssg62
g1850
sg55
(lp1861
S':'
asbag48
(g69
g50
NtRp1862
(dp1863
g53
(dp1864
sg62
g1850
sg55
(lp1865
g48
(g49
g50
NtRp1866
(dp1867
g53
(dp1868
g61
I4
ssg62
g1862
sg55
(lp1869
g48
(g57
g50
NtRp1870
(dp1871
g53
(dp1872
g61
I3
ssg62
Nsg55
(lp1873
sbasbasbasbag48
(g64
g50
NtRp1874
(dp1875
g53
(dp1876
sg62
g1805
sg55
(lp1877
g48
(g69
g50
NtRp1878
(dp1879
g53
(dp1880
g73
g74
ssg62
g1874
sg55
(lp1881
g846
asbag48
(g69
g50
NtRp1882
(dp1883
g53
(dp1884
g80
g81
ssg62
g1874
sg55
(lp1885
S':'
asbag48
(g69
g50
NtRp1886
(dp1887
g53
(dp1888
sg62
g1874
sg55
(lp1889
g48
(g49
g50
NtRp1890
(dp1891
g53
(dp1892
g61
I4
ssg62
g1886
sg55
(lp1893
S"<Values at 0x2675fa8: {'verbose': False, 'ip': '127.0.0.1', 'shutdown_timeout': 5, 'taskbar': False, 'nocron': False, 'pid_filename': 'httpserver.pid', 'maxthreads': None, 'softcron': False, 'server_name': 'hector-vaio', 'bpython': False, 'nogui': False, 'port': 8000, 'extcron': False, 'debuglevel': 30, 'test': None, 'folder': 'C:\\\\Python32\\\\web2py_win\\\\web2py', 'config': '', 'import_models': False, 'winservice': '', 'shell': None, 'run': '', 'log_filename': 'httpserver.log', 'args': [''], 'ssl_ca_certificate': None, 'scheduler': None, 'profiler_filename': None, 'ssl_private_key': '', 'password': '<ask>', 'request_queue_size': 5, 'ssl_certificate': '', 'cronjob': False, 'plain': False, 'quiet': False, 'interfaces': None, 'minthreads': None, 'timeout': 10, 'numthreads': None, 'nobanner': False}>"
p1894
asbasbasbag48
(g64
g50
NtRp1895
(dp1896
g53
(dp1897
sg62
g1805
sg55
(lp1898
g48
(g69
g50
NtRp1899
(dp1900
g53
(dp1901
g73
g74
ssg62
g1895
sg55
(lp1902
g868
asbag48
(g69
g50
NtRp1903
(dp1904
g53
(dp1905
g80
g81
ssg62
g1895
sg55
(lp1906
S':'
asbag48
(g69
g50
NtRp1907
(dp1908
g53
(dp1909
sg62
g1895
sg55
(lp1910
g48
(g49
g50
NtRp1911
(dp1912
g53
(dp1913
g61
I4
ssg62
g1907
sg55
(lp1914
S'set([])'
p1915
asbasbasbag48
(g64
g50
NtRp1916
(dp1917
g53
(dp1918
sg62
g1805
sg55
(lp1919
g48
(g69
g50
NtRp1920
(dp1921
g53
(dp1922
g73
g74
ssg62
g1916
sg55
(lp1923
g890
asbag48
(g69
g50
NtRp1924
(dp1925
g53
(dp1926
g80
g81
ssg62
g1916
sg55
(lp1927
S':'
asbag48
(g69
g50
NtRp1928
(dp1929
g53
(dp1930
sg62
g1916
sg55
(lp1931
g48
(g49
g50
NtRp1932
(dp1933
g53
(dp1934
g61
I4
ssg62
g1928
sg55
(lp1935
g91
asbasbasbag48
(g64
g50
NtRp1936
(dp1937
g53
(dp1938
sg62
g1805
sg55
(lp1939
g48
(g69
g50
NtRp1940
(dp1941
g53
(dp1942
g73
g74
ssg62
g1936
sg55
(lp1943
g911
asbag48
(g69
g50
NtRp1944
(dp1945
g53
(dp1946
g80
g81
ssg62
g1936
sg55
(lp1947
S':'
asbag48
(g69
g50
NtRp1948
(dp1949
g53
(dp1950
sg62
g1936
sg55
(lp1951
g48
(g49
g50
NtRp1952
(dp1953
g53
(dp1954
g61
I4
ssg62
g1948
sg55
(lp1955
g924
asbasbasbag48
(g64
g50
NtRp1956
(dp1957
g53
(dp1958
sg62
g1805
sg55
(lp1959
g48
(g69
g50
NtRp1960
(dp1961
g53
(dp1962
g73
g74
ssg62
g1956
sg55
(lp1963
g1131
asbag48
(g69
g50
NtRp1964
(dp1965
g53
(dp1966
g80
g81
ssg62
g1956
sg55
(lp1967
S':'
asbag48
(g69
g50
NtRp1968
(dp1969
g53
(dp1970
sg62
g1956
sg55
(lp1971
g48
(g49
g50
NtRp1972
(dp1973
g53
(dp1974
g61
I4
ssg62
g1968
sg55
(lp1975
g91
asbasbasbag48
(g64
g50
NtRp1976
(dp1977
g53
(dp1978
sg62
g1805
sg55
(lp1979
g48
(g69
g50
NtRp1980
(dp1981
g53
(dp1982
g73
g74
ssg62
g1976
sg55
(lp1983
g1369
asbag48
(g69
g50
NtRp1984
(dp1985
g53
(dp1986
g80
g81
ssg62
g1976
sg55
(lp1987
S':'
asbag48
(g69
g50
NtRp1988
(dp1989
g53
(dp1990
sg62
g1976
sg55
(lp1991
g48
(g49
g50
NtRp1992
(dp1993
g53
(dp1994
g61
I4
ssg62
g1988
sg55
(lp1995
g1382
asbasbasbag48
(g64
g50
NtRp1996
(dp1997
g53
(dp1998
sg62
g1805
sg55
(lp1999
g48
(g69
g50
NtRp2000
(dp2001
g53
(dp2002
g73
g74
ssg62
g1996
sg55
(lp2003
g1412
asbag48
(g69
g50
NtRp2004
(dp2005
g53
(dp2006
g80
g81
ssg62
g1996
sg55
(lp2007
S':'
asbag48
(g69
g50
NtRp2008
(dp2009
g53
(dp2010
sg62
g1996
sg55
(lp2011
g48
(g49
g50
NtRp2012
(dp2013
g53
(dp2014
g61
I4
ssg62
g2008
sg55
(lp2015
g48
(g57
g50
NtRp2016
(dp2017
g53
(dp2018
g61
I3
ssg62
Nsg55
(lp2019
g48
(g64
g50
NtRp2020
(dp2021
g53
(dp2022
sg62
g2016
sg55
(lp2023
g48
(g69
g50
NtRp2024
(dp2025
g53
(dp2026
sg62
g2020
sg55
(lp2027
g48
(g49
g50
NtRp2028
(dp2029
g53
(dp2030
g61
I3
ssg62
g2024
sg55
(lp2031
S'1'
asbasbasbag48
(g64
g50
NtRp2032
(dp2033
g53
(dp2034
sg62
g2016
sg55
(lp2035
g48
(g69
g50
NtRp2036
(dp2037
g53
(dp2038
sg62
g2032
sg55
(lp2039
g48
(g49
g50
NtRp2040
(dp2041
g53
(dp2042
g61
I3
ssg62
g2036
sg55
(lp2043
S'99'
p2044
asbasbasbag48
(g64
g50
NtRp2045
(dp2046
g53
(dp2047
sg62
g2016
sg55
(lp2048
g48
(g69
g50
NtRp2049
(dp2050
g53
(dp2051
sg62
g2045
sg55
(lp2052
g48
(g49
g50
NtRp2053
(dp2054
g53
(dp2055
g61
I3
ssg62
g2049
sg55
(lp2056
S'2'
asbasbasbag48
(g64
g50
NtRp2057
(dp2058
g53
(dp2059
sg62
g2016
sg55
(lp2060
g48
(g69
g50
NtRp2061
(dp2062
g53
(dp2063
sg62
g2057
sg55
(lp2064
g48
(g49
g50
NtRp2065
(dp2066
g53
(dp2067
g61
I3
ssg62
g2061
sg55
(lp2068
S'datetime.datetime(2011, 9, 26, 6, 55, 33)'
p2069
asbasbasbag48
(g64
g50
NtRp2070
(dp2071
g53
(dp2072
sg62
g2016
sg55
(lp2073
g48
(g69
g50
NtRp2074
(dp2075
g53
(dp2076
sg62
g2070
sg55
(lp2077
g48
(g49
g50
NtRp2078
(dp2079
g53
(dp2080
g61
I3
ssg62
g2074
sg55
(lp2081
g1491
asbasbasbasbasbasbasbasbasbasbasbag48
(g64
g50
NtRp2082
(dp2083
g53
(dp2084
sg62
g58
sg55
(lp2085
g48
(g69
g50
NtRp2086
(dp2087
g53
(dp2088
g73
g74
ssg62
g2082
sg55
(lp2089
S'is_https'
p2090
asbag48
(g69
g50
NtRp2091
(dp2092
g53
(dp2093
g80
g81
ssg62
g2082
sg55
(lp2094
S':'
asbag48
(g69
g50
NtRp2095
(dp2096
g53
(dp2097
sg62
g2082
sg55
(lp2098
g48
(g49
g50
NtRp2099
(dp2100
g53
(dp2101
g61
I5
ssg62
g2095
sg55
(lp2102
g91
asbasbasbag48
(g64
g50
NtRp2103
(dp2104
g53
(dp2105
sg62
g58
sg55
(lp2106
g48
(g69
g50
NtRp2107
(dp2108
g53
(dp2109
g73
g74
ssg62
g2103
sg55
(lp2110
S'is_local'
p2111
asbag48
(g69
g50
NtRp2112
(dp2113
g53
(dp2114
g80
g81
ssg62
g2103
sg55
(lp2115
S':'
asbag48
(g69
g50
NtRp2116
(dp2117
g53
(dp2118
sg62
g2103
sg55
(lp2119
g48
(g49
g50
NtRp2120
(dp2121
g53
(dp2122
g61
I5
ssg62
g2116
sg55
(lp2123
g1600
asbasbasbag48
(g64
g50
NtRp2124
(dp2125
g53
(dp2126
sg62
g58
sg55
(lp2127
g48
(g69
g50
NtRp2128
(dp2129
g53
(dp2130
g73
g74
ssg62
g2124
sg55
(lp2131
S'is_restful'
p2132
asbag48
(g69
g50
NtRp2133
(dp2134
g53
(dp2135
g80
g81
ssg62
g2124
sg55
(lp2136
S':'
asbag48
(g69
g50
NtRp2137
(dp2138
g53
(dp2139
sg62
g2124
sg55
(lp2140
g48
(g49
g50
NtRp2141
(dp2142
g53
(dp2143
g61
I5
ssg62
g2137
sg55
(lp2144
g91
asbasbasbag48
(g64
g50
NtRp2145
(dp2146
g53
(dp2147
sg62
g58
sg55
(lp2148
g48
(g69
g50
NtRp2149
(dp2150
g53
(dp2151
g73
g74
ssg62
g2145
sg55
(lp2152
S'now'
p2153
asbag48
(g69
g50
NtRp2154
(dp2155
g53
(dp2156
g80
g81
ssg62
g2145
sg55
(lp2157
S':'
asbag48
(g69
g50
NtRp2158
(dp2159
g53
(dp2160
sg62
g2145
sg55
(lp2161
g48
(g49
g50
NtRp2162
(dp2163
g53
(dp2164
g61
I5
ssg62
g2158
sg55
(lp2165
S'datetime.datetime(2011, 12, 2, 0, 47, 47, 683000)'
p2166
asbasbasbag48
(g64
g50
NtRp2167
(dp2168
g53
(dp2169
sg62
g58
sg55
(lp2170
g48
(g69
g50
NtRp2171
(dp2172
g53
(dp2173
g73
g74
ssg62
g2167
sg55
(lp2174
S'post_vars'
p2175
asbag48
(g69
g50
NtRp2176
(dp2177
g53
(dp2178
g80
g81
ssg62
g2167
sg55
(lp2179
S':'
asbag48
(g69
g50
NtRp2180
(dp2181
g53
(dp2182
sg62
g2167
sg55
(lp2183
g48
(g49
g50
NtRp2184
(dp2185
g53
(dp2186
g61
I5
ssg62
g2180
sg55
(lp2187
g48
(g57
g50
NtRp2188
(dp2189
g53
(dp2190
g61
I4
ssg62
Nsg55
(lp2191
sbasbasbasbag48
(g64
g50
NtRp2192
(dp2193
g53
(dp2194
sg62
g58
sg55
(lp2195
g48
(g69
g50
NtRp2196
(dp2197
g53
(dp2198
g73
g74
ssg62
g2192
sg55
(lp2199
S'raw_args'
p2200
asbag48
(g69
g50
NtRp2201
(dp2202
g53
(dp2203
g80
g81
ssg62
g2192
sg55
(lp2204
S':'
asbag48
(g69
g50
NtRp2205
(dp2206
g53
(dp2207
sg62
g2192
sg55
(lp2208
g48
(g49
g50
NtRp2209
(dp2210
g53
(dp2211
g61
I5
ssg62
g2205
sg55
(lp2212
S'13'
p2213
asbasbasbag48
(g64
g50
NtRp2214
(dp2215
g53
(dp2216
sg62
g58
sg55
(lp2217
g48
(g69
g50
NtRp2218
(dp2219
g53
(dp2220
g73
g74
ssg62
g2214
sg55
(lp2221
S'url'
p2222
asbag48
(g69
g50
NtRp2223
(dp2224
g53
(dp2225
g80
g81
ssg62
g2214
sg55
(lp2226
S':'
asbag48
(g69
g50
NtRp2227
(dp2228
g53
(dp2229
sg62
g2214
sg55
(lp2230
g48
(g49
g50
NtRp2231
(dp2232
g53
(dp2233
g61
I5
ssg62
g2227
sg55
(lp2234
S'/Casa_de_Apuestas/default/asignarResultado/13'
p2235
asbasbasbag48
(g64
g50
NtRp2236
(dp2237
g53
(dp2238
sg62
g58
sg55
(lp2239
g48
(g69
g50
NtRp2240
(dp2241
g53
(dp2242
g73
g74
ssg62
g2236
sg55
(lp2243
S'utcnow'
p2244
asbag48
(g69
g50
NtRp2245
(dp2246
g53
(dp2247
g80
g81
ssg62
g2236
sg55
(lp2248
S':'
asbag48
(g69
g50
NtRp2249
(dp2250
g53
(dp2251
sg62
g2236
sg55
(lp2252
g48
(g49
g50
NtRp2253
(dp2254
g53
(dp2255
g61
I5
ssg62
g2249
sg55
(lp2256
S'datetime.datetime(2011, 12, 2, 5, 17, 47, 684000)'
p2257
asbasbasbag48
(g64
g50
NtRp2258
(dp2259
g53
(dp2260
sg62
g58
sg55
(lp2261
g48
(g69
g50
NtRp2262
(dp2263
g53
(dp2264
g73
g74
ssg62
g2258
sg55
(lp2265
S'uuid'
p2266
asbag48
(g69
g50
NtRp2267
(dp2268
g53
(dp2269
g80
g81
ssg62
g2258
sg55
(lp2270
S':'
asbag48
(g69
g50
NtRp2271
(dp2272
g53
(dp2273
sg62
g2258
sg55
(lp2274
g48
(g49
g50
NtRp2275
(dp2276
g53
(dp2277
g61
I5
ssg62
g2271
sg55
(lp2278
S'Casa_de_Apuestas/127.0.0.1.2011-12-02.00-47-47.63465ddf-bc13-49a7-bd28-f737d9dff78c'
p2279
asbasbasbag48
(g64
g50
NtRp2280
(dp2281
g53
(dp2282
sg62
g58
sg55
(lp2283
g48
(g69
g50
NtRp2284
(dp2285
g53
(dp2286
g73
g74
ssg62
g2280
sg55
(lp2287
S'vars'
p2288
asbag48
(g69
g50
NtRp2289
(dp2290
g53
(dp2291
g80
g81
ssg62
g2280
sg55
(lp2292
S':'
asbag48
(g69
g50
NtRp2293
(dp2294
g53
(dp2295
sg62
g2280
sg55
(lp2296
g48
(g49
g50
NtRp2297
(dp2298
g53
(dp2299
g61
I5
ssg62
g2293
sg55
(lp2300
g48
(g57
g50
NtRp2301
(dp2302
g53
(dp2303
g61
I4
ssg62
Nsg55
(lp2304
sbasbasbasbag48
(g64
g50
NtRp2305
(dp2306
g53
(dp2307
sg62
g58
sg55
(lp2308
g48
(g69
g50
NtRp2309
(dp2310
g53
(dp2311
g73
g74
ssg62
g2305
sg55
(lp2312
S'wsgi'
p2313
asbag48
(g69
g50
NtRp2314
(dp2315
g53
(dp2316
g80
g81
ssg62
g2305
sg55
(lp2317
S':'
asbag48
(g69
g50
NtRp2318
(dp2319
g53
(dp2320
sg62
g2305
sg55
(lp2321
g48
(g49
g50
NtRp2322
(dp2323
g53
(dp2324
g61
I5
ssg62
g2318
sg55
(lp2325
g48
(g57
g50
NtRp2326
(dp2327
g53
(dp2328
g61
I4
ssg62
Nsg55
(lp2329
g48
(g64
g50
NtRp2330
(dp2331
g53
(dp2332
sg62
g2326
sg55
(lp2333
g48
(g69
g50
NtRp2334
(dp2335
g53
(dp2336
g73
g74
ssg62
g2330
sg55
(lp2337
S'environ'
p2338
asbag48
(g69
g50
NtRp2339
(dp2340
g53
(dp2341
g80
g81
ssg62
g2330
sg55
(lp2342
S':'
asbag48
(g69
g50
NtRp2343
(dp2344
g53
(dp2345
sg62
g2330
sg55
(lp2346
g48
(g49
g50
NtRp2347
(dp2348
g53
(dp2349
g61
I4
ssg62
g2343
sg55
(lp2350
g48
(g57
g50
NtRp2351
(dp2352
g53
(dp2353
g61
I3
ssg62
Nsg55
(lp2354
g48
(g64
g50
NtRp2355
(dp2356
g53
(dp2357
sg62
g2351
sg55
(lp2358
g48
(g69
g50
NtRp2359
(dp2360
g53
(dp2361
g73
g74
ssg62
g2355
sg55
(lp2362
S'HTTP_ACCEPT'
p2363
asbag48
(g69
g50
NtRp2364
(dp2365
g53
(dp2366
g80
g81
ssg62
g2355
sg55
(lp2367
S':'
asbag48
(g69
g50
NtRp2368
(dp2369
g53
(dp2370
sg62
g2355
sg55
(lp2371
g48
(g49
g50
NtRp2372
(dp2373
g53
(dp2374
g61
I3
ssg62
g2368
sg55
(lp2375
g946
asbasbasbag48
(g64
g50
NtRp2376
(dp2377
g53
(dp2378
sg62
g2351
sg55
(lp2379
g48
(g69
g50
NtRp2380
(dp2381
g53
(dp2382
g73
g74
ssg62
g2376
sg55
(lp2383
S'HTTP_ACCEPT_CHARSET'
p2384
asbag48
(g69
g50
NtRp2385
(dp2386
g53
(dp2387
g80
g81
ssg62
g2376
sg55
(lp2388
S':'
asbag48
(g69
g50
NtRp2389
(dp2390
g53
(dp2391
sg62
g2376
sg55
(lp2392
g48
(g49
g50
NtRp2393
(dp2394
g53
(dp2395
g61
I3
ssg62
g2389
sg55
(lp2396
g968
asbasbasbag48
(g64
g50
NtRp2397
(dp2398
g53
(dp2399
sg62
g2351
sg55
(lp2400
g48
(g69
g50
NtRp2401
(dp2402
g53
(dp2403
g73
g74
ssg62
g2397
sg55
(lp2404
S'HTTP_ACCEPT_ENCODING'
p2405
asbag48
(g69
g50
NtRp2406
(dp2407
g53
(dp2408
g80
g81
ssg62
g2397
sg55
(lp2409
S':'
asbag48
(g69
g50
NtRp2410
(dp2411
g53
(dp2412
sg62
g2397
sg55
(lp2413
g48
(g49
g50
NtRp2414
(dp2415
g53
(dp2416
g61
I3
ssg62
g2410
sg55
(lp2417
g990
asbasbasbag48
(g64
g50
NtRp2418
(dp2419
g53
(dp2420
sg62
g2351
sg55
(lp2421
g48
(g69
g50
NtRp2422
(dp2423
g53
(dp2424
g73
g74
ssg62
g2418
sg55
(lp2425
S'HTTP_ACCEPT_LANGUAGE'
p2426
asbag48
(g69
g50
NtRp2427
(dp2428
g53
(dp2429
g80
g81
ssg62
g2418
sg55
(lp2430
S':'
asbag48
(g69
g50
NtRp2431
(dp2432
g53
(dp2433
sg62
g2418
sg55
(lp2434
g48
(g49
g50
NtRp2435
(dp2436
g53
(dp2437
g61
I3
ssg62
g2431
sg55
(lp2438
g1012
asbasbasbag48
(g64
g50
NtRp2439
(dp2440
g53
(dp2441
sg62
g2351
sg55
(lp2442
g48
(g69
g50
NtRp2443
(dp2444
g53
(dp2445
g73
g74
ssg62
g2439
sg55
(lp2446
S'HTTP_CONNECTION'
p2447
asbag48
(g69
g50
NtRp2448
(dp2449
g53
(dp2450
g80
g81
ssg62
g2439
sg55
(lp2451
S':'
asbag48
(g69
g50
NtRp2452
(dp2453
g53
(dp2454
sg62
g2439
sg55
(lp2455
g48
(g49
g50
NtRp2456
(dp2457
g53
(dp2458
g61
I3
ssg62
g2452
sg55
(lp2459
g1034
asbasbasbag48
(g64
g50
NtRp2460
(dp2461
g53
(dp2462
sg62
g2351
sg55
(lp2463
g48
(g69
g50
NtRp2464
(dp2465
g53
(dp2466
g73
g74
ssg62
g2460
sg55
(lp2467
S'HTTP_COOKIE'
p2468
asbag48
(g69
g50
NtRp2469
(dp2470
g53
(dp2471
g80
g81
ssg62
g2460
sg55
(lp2472
S':'
asbag48
(g69
g50
NtRp2473
(dp2474
g53
(dp2475
sg62
g2460
sg55
(lp2476
g48
(g49
g50
NtRp2477
(dp2478
g53
(dp2479
g61
I3
ssg62
g2473
sg55
(lp2480
g1056
asbasbasbag48
(g64
g50
NtRp2481
(dp2482
g53
(dp2483
sg62
g2351
sg55
(lp2484
g48
(g69
g50
NtRp2485
(dp2486
g53
(dp2487
g73
g74
ssg62
g2481
sg55
(lp2488
S'HTTP_HOST'
p2489
asbag48
(g69
g50
NtRp2490
(dp2491
g53
(dp2492
g80
g81
ssg62
g2481
sg55
(lp2493
S':'
asbag48
(g69
g50
NtRp2494
(dp2495
g53
(dp2496
sg62
g2481
sg55
(lp2497
g48
(g49
g50
NtRp2498
(dp2499
g53
(dp2500
g61
I3
ssg62
g2494
sg55
(lp2501
g1078
asbasbasbag48
(g64
g50
NtRp2502
(dp2503
g53
(dp2504
sg62
g2351
sg55
(lp2505
g48
(g69
g50
NtRp2506
(dp2507
g53
(dp2508
g73
g74
ssg62
g2502
sg55
(lp2509
S'HTTP_REFERER'
p2510
asbag48
(g69
g50
NtRp2511
(dp2512
g53
(dp2513
g80
g81
ssg62
g2502
sg55
(lp2514
S':'
asbag48
(g69
g50
NtRp2515
(dp2516
g53
(dp2517
sg62
g2502
sg55
(lp2518
g48
(g49
g50
NtRp2519
(dp2520
g53
(dp2521
g61
I3
ssg62
g2515
sg55
(lp2522
g1100
asbasbasbag48
(g64
g50
NtRp2523
(dp2524
g53
(dp2525
sg62
g2351
sg55
(lp2526
g48
(g69
g50
NtRp2527
(dp2528
g53
(dp2529
g73
g74
ssg62
g2523
sg55
(lp2530
S'HTTP_USER_AGENT'
p2531
asbag48
(g69
g50
NtRp2532
(dp2533
g53
(dp2534
g80
g81
ssg62
g2523
sg55
(lp2535
S':'
asbag48
(g69
g50
NtRp2536
(dp2537
g53
(dp2538
sg62
g2523
sg55
(lp2539
g48
(g49
g50
NtRp2540
(dp2541
g53
(dp2542
g61
I3
ssg62
g2536
sg55
(lp2543
g1122
asbasbasbag48
(g64
g50
NtRp2544
(dp2545
g53
(dp2546
sg62
g2351
sg55
(lp2547
g48
(g69
g50
NtRp2548
(dp2549
g53
(dp2550
g73
g74
ssg62
g2544
sg55
(lp2551
S'PATH_INFO'
p2552
asbag48
(g69
g50
NtRp2553
(dp2554
g53
(dp2555
g80
g81
ssg62
g2544
sg55
(lp2556
S':'
asbag48
(g69
g50
NtRp2557
(dp2558
g53
(dp2559
sg62
g2544
sg55
(lp2560
g48
(g49
g50
NtRp2561
(dp2562
g53
(dp2563
g61
I3
ssg62
g2557
sg55
(lp2564
g1165
asbasbasbag48
(g64
g50
NtRp2565
(dp2566
g53
(dp2567
sg62
g2351
sg55
(lp2568
g48
(g69
g50
NtRp2569
(dp2570
g53
(dp2571
g73
g74
ssg62
g2565
sg55
(lp2572
S'QUERY_STRING'
p2573
asbag48
(g69
g50
NtRp2574
(dp2575
g53
(dp2576
g80
g81
ssg62
g2565
sg55
(lp2577
S':'
asbag48
(g69
g50
NtRp2578
(dp2579
g53
(dp2580
sg62
g2565
sg55
(lp2581
g48
(g49
g50
NtRp2582
(dp2583
g53
(dp2584
g61
I3
ssg62
g2578
sg55
(lp2585
S''
asbasbasbag48
(g64
g50
NtRp2586
(dp2587
g53
(dp2588
sg62
g2351
sg55
(lp2589
g48
(g69
g50
NtRp2590
(dp2591
g53
(dp2592
g73
g74
ssg62
g2586
sg55
(lp2593
S'REMOTE_ADDR'
p2594
asbag48
(g69
g50
NtRp2595
(dp2596
g53
(dp2597
g80
g81
ssg62
g2586
sg55
(lp2598
S':'
asbag48
(g69
g50
NtRp2599
(dp2600
g53
(dp2601
sg62
g2586
sg55
(lp2602
g48
(g49
g50
NtRp2603
(dp2604
g53
(dp2605
g61
I3
ssg62
g2599
sg55
(lp2606
g194
asbasbasbag48
(g64
g50
NtRp2607
(dp2608
g53
(dp2609
sg62
g2351
sg55
(lp2610
g48
(g69
g50
NtRp2611
(dp2612
g53
(dp2613
g73
g74
ssg62
g2607
sg55
(lp2614
S'REMOTE_PORT'
p2615
asbag48
(g69
g50
NtRp2616
(dp2617
g53
(dp2618
g80
g81
ssg62
g2607
sg55
(lp2619
S':'
asbag48
(g69
g50
NtRp2620
(dp2621
g53
(dp2622
sg62
g2607
sg55
(lp2623
g48
(g49
g50
NtRp2624
(dp2625
g53
(dp2626
g61
I3
ssg62
g2620
sg55
(lp2627
g1229
asbasbasbag48
(g64
g50
NtRp2628
(dp2629
g53
(dp2630
sg62
g2351
sg55
(lp2631
g48
(g69
g50
NtRp2632
(dp2633
g53
(dp2634
g73
g74
ssg62
g2628
sg55
(lp2635
S'REQUEST_METHOD'
p2636
asbag48
(g69
g50
NtRp2637
(dp2638
g53
(dp2639
g80
g81
ssg62
g2628
sg55
(lp2640
S':'
asbag48
(g69
g50
NtRp2641
(dp2642
g53
(dp2643
sg62
g2628
sg55
(lp2644
g48
(g49
g50
NtRp2645
(dp2646
g53
(dp2647
g61
I3
ssg62
g2641
sg55
(lp2648
g1251
asbasbasbag48
(g64
g50
NtRp2649
(dp2650
g53
(dp2651
sg62
g2351
sg55
(lp2652
g48
(g69
g50
NtRp2653
(dp2654
g53
(dp2655
g73
g74
ssg62
g2649
sg55
(lp2656
S'SCRIPT_NAME'
p2657
asbag48
(g69
g50
NtRp2658
(dp2659
g53
(dp2660
g80
g81
ssg62
g2649
sg55
(lp2661
S':'
asbag48
(g69
g50
NtRp2662
(dp2663
g53
(dp2664
sg62
g2649
sg55
(lp2665
g48
(g49
g50
NtRp2666
(dp2667
g53
(dp2668
g61
I3
ssg62
g2662
sg55
(lp2669
S''
asbasbasbag48
(g64
g50
NtRp2670
(dp2671
g53
(dp2672
sg62
g2351
sg55
(lp2673
g48
(g69
g50
NtRp2674
(dp2675
g53
(dp2676
g73
g74
ssg62
g2670
sg55
(lp2677
S'SERVER_NAME'
p2678
asbag48
(g69
g50
NtRp2679
(dp2680
g53
(dp2681
g80
g81
ssg62
g2670
sg55
(lp2682
S':'
asbag48
(g69
g50
NtRp2683
(dp2684
g53
(dp2685
sg62
g2670
sg55
(lp2686
g48
(g49
g50
NtRp2687
(dp2688
g53
(dp2689
g61
I3
ssg62
g2683
sg55
(lp2690
g1294
asbasbasbag48
(g64
g50
NtRp2691
(dp2692
g53
(dp2693
sg62
g2351
sg55
(lp2694
g48
(g69
g50
NtRp2695
(dp2696
g53
(dp2697
g73
g74
ssg62
g2691
sg55
(lp2698
S'SERVER_PORT'
p2699
asbag48
(g69
g50
NtRp2700
(dp2701
g53
(dp2702
g80
g81
ssg62
g2691
sg55
(lp2703
S':'
asbag48
(g69
g50
NtRp2704
(dp2705
g53
(dp2706
sg62
g2691
sg55
(lp2707
g48
(g49
g50
NtRp2708
(dp2709
g53
(dp2710
g61
I3
ssg62
g2704
sg55
(lp2711
g1316
asbasbasbag48
(g64
g50
NtRp2712
(dp2713
g53
(dp2714
sg62
g2351
sg55
(lp2715
g48
(g69
g50
NtRp2716
(dp2717
g53
(dp2718
g73
g74
ssg62
g2712
sg55
(lp2719
S'SERVER_PROTOCOL'
p2720
asbag48
(g69
g50
NtRp2721
(dp2722
g53
(dp2723
g80
g81
ssg62
g2712
sg55
(lp2724
S':'
asbag48
(g69
g50
NtRp2725
(dp2726
g53
(dp2727
sg62
g2712
sg55
(lp2728
g48
(g49
g50
NtRp2729
(dp2730
g53
(dp2731
g61
I3
ssg62
g2725
sg55
(lp2732
g1338
asbasbasbag48
(g64
g50
NtRp2733
(dp2734
g53
(dp2735
sg62
g2351
sg55
(lp2736
g48
(g69
g50
NtRp2737
(dp2738
g53
(dp2739
g73
g74
ssg62
g2733
sg55
(lp2740
S'SERVER_SOFTWARE'
p2741
asbag48
(g69
g50
NtRp2742
(dp2743
g53
(dp2744
g80
g81
ssg62
g2733
sg55
(lp2745
S':'
asbag48
(g69
g50
NtRp2746
(dp2747
g53
(dp2748
sg62
g2733
sg55
(lp2749
g48
(g49
g50
NtRp2750
(dp2751
g53
(dp2752
g61
I3
ssg62
g2746
sg55
(lp2753
g1360
asbasbasbag48
(g64
g50
NtRp2754
(dp2755
g53
(dp2756
sg62
g2351
sg55
(lp2757
g48
(g69
g50
NtRp2758
(dp2759
g53
(dp2760
g73
g74
ssg62
g2754
sg55
(lp2761
S'wsgi.errors'
p2762
asbag48
(g69
g50
NtRp2763
(dp2764
g53
(dp2765
g80
g81
ssg62
g2754
sg55
(lp2766
S':'
asbag48
(g69
g50
NtRp2767
(dp2768
g53
(dp2769
sg62
g2754
sg55
(lp2770
g48
(g49
g50
NtRp2771
(dp2772
g53
(dp2773
g61
I3
ssg62
g2767
sg55
(lp2774
S"<open file '<stderr>', mode 'w' at 0x015800B0>"
p2775
asbasbasbag48
(g64
g50
NtRp2776
(dp2777
g53
(dp2778
sg62
g2351
sg55
(lp2779
g48
(g69
g50
NtRp2780
(dp2781
g53
(dp2782
g73
g74
ssg62
g2776
sg55
(lp2783
S'wsgi.file_wrapper'
p2784
asbag48
(g69
g50
NtRp2785
(dp2786
g53
(dp2787
g80
g81
ssg62
g2776
sg55
(lp2788
S':'
asbag48
(g69
g50
NtRp2789
(dp2790
g53
(dp2791
sg62
g2776
sg55
(lp2792
g48
(g49
g50
NtRp2793
(dp2794
g53
(dp2795
g61
I3
ssg62
g2789
sg55
(lp2796
S'<class wsgiref.util.FileWrapper at 0x02419AB0>'
p2797
asbasbasbag48
(g64
g50
NtRp2798
(dp2799
g53
(dp2800
sg62
g2351
sg55
(lp2801
g48
(g69
g50
NtRp2802
(dp2803
g53
(dp2804
g73
g74
ssg62
g2798
sg55
(lp2805
S'wsgi.input'
p2806
asbag48
(g69
g50
NtRp2807
(dp2808
g53
(dp2809
g80
g81
ssg62
g2798
sg55
(lp2810
S':'
asbag48
(g69
g50
NtRp2811
(dp2812
g53
(dp2813
sg62
g2798
sg55
(lp2814
g48
(g49
g50
NtRp2815
(dp2816
g53
(dp2817
g61
I3
ssg62
g2811
sg55
(lp2818
S'<cStringIO.StringO object at 0x06D38C00>'
p2819
asbasbasbag48
(g64
g50
NtRp2820
(dp2821
g53
(dp2822
sg62
g2351
sg55
(lp2823
g48
(g69
g50
NtRp2824
(dp2825
g53
(dp2826
g73
g74
ssg62
g2820
sg55
(lp2827
S'wsgi.multiprocess'
p2828
asbag48
(g69
g50
NtRp2829
(dp2830
g53
(dp2831
g80
g81
ssg62
g2820
sg55
(lp2832
S':'
asbag48
(g69
g50
NtRp2833
(dp2834
g53
(dp2835
sg62
g2820
sg55
(lp2836
g48
(g49
g50
NtRp2837
(dp2838
g53
(dp2839
g61
I3
ssg62
g2833
sg55
(lp2840
g91
asbasbasbag48
(g64
g50
NtRp2841
(dp2842
g53
(dp2843
sg62
g2351
sg55
(lp2844
g48
(g69
g50
NtRp2845
(dp2846
g53
(dp2847
g73
g74
ssg62
g2841
sg55
(lp2848
S'wsgi.multithread'
p2849
asbag48
(g69
g50
NtRp2850
(dp2851
g53
(dp2852
g80
g81
ssg62
g2841
sg55
(lp2853
S':'
asbag48
(g69
g50
NtRp2854
(dp2855
g53
(dp2856
sg62
g2841
sg55
(lp2857
g48
(g49
g50
NtRp2858
(dp2859
g53
(dp2860
g61
I3
ssg62
g2854
sg55
(lp2861
g1600
asbasbasbag48
(g64
g50
NtRp2862
(dp2863
g53
(dp2864
sg62
g2351
sg55
(lp2865
g48
(g69
g50
NtRp2866
(dp2867
g53
(dp2868
g73
g74
ssg62
g2862
sg55
(lp2869
S'wsgi.run_once'
p2870
asbag48
(g69
g50
NtRp2871
(dp2872
g53
(dp2873
g80
g81
ssg62
g2862
sg55
(lp2874
S':'
asbag48
(g69
g50
NtRp2875
(dp2876
g53
(dp2877
sg62
g2862
sg55
(lp2878
g48
(g49
g50
NtRp2879
(dp2880
g53
(dp2881
g61
I3
ssg62
g2875
sg55
(lp2882
g91
asbasbasbag48
(g64
g50
NtRp2883
(dp2884
g53
(dp2885
sg62
g2351
sg55
(lp2886
g48
(g69
g50
NtRp2887
(dp2888
g53
(dp2889
g73
g74
ssg62
g2883
sg55
(lp2890
S'wsgi.url_scheme'
p2891
asbag48
(g69
g50
NtRp2892
(dp2893
g53
(dp2894
g80
g81
ssg62
g2883
sg55
(lp2895
S':'
asbag48
(g69
g50
NtRp2896
(dp2897
g53
(dp2898
sg62
g2883
sg55
(lp2899
g48
(g49
g50
NtRp2900
(dp2901
g53
(dp2902
g61
I3
ssg62
g2896
sg55
(lp2903
g1643
asbasbasbag48
(g64
g50
NtRp2904
(dp2905
g53
(dp2906
sg62
g2351
sg55
(lp2907
g48
(g69
g50
NtRp2908
(dp2909
g53
(dp2910
g73
g74
ssg62
g2904
sg55
(lp2911
S'wsgi.version'
p2912
asbag48
(g69
g50
NtRp2913
(dp2914
g53
(dp2915
g80
g81
ssg62
g2904
sg55
(lp2916
S':'
asbag48
(g69
g50
NtRp2917
(dp2918
g53
(dp2919
sg62
g2904
sg55
(lp2920
g48
(g49
g50
NtRp2921
(dp2922
g53
(dp2923
g61
I3
ssg62
g2917
sg55
(lp2924
S'1'
asbasbasbasbasbasbasbasbasbasbasbasbasbsS'frames'
p2925
(lp2926
(dp2927
S'file'
p2928
S'C:\\Python32\\web2py_win\\web2py\\gluon\\restricted.py'
p2929
sS'dump'
p2930
(dp2931
sS'lnum'
p2932
I194
sS'lines'
p2933
(dp2934
sS'call'
p2935
S"(code='# -*- coding: utf-8 -*-\\n### required - do no del...esponse._vars=response._caller(asignarResultado)\\n', environment={'A': <class 'gluon.html.A'>, 'Auth': <class 'gluon.tools.Auth'>, 'B': <class 'gluon.html.B'>, 'BEAUTIFY': <class 'gluon.html.BEAUTIFY'>, 'BODY': <class 'gluon.html.BODY'>, 'BR': <class 'gluon.html.BR'>, 'BUTTON': <class 'gluon.html.BUTTON'>, 'CAT': <class 'gluon.html.CAT'>, 'CENTER': <class 'gluon.html.CENTER'>, 'CLEANUP': <class 'gluon.validators.CLEANUP'>, ...}, layer=r'C:\\Python32\\web2py_win\\web2py\\applications\\Casa_de_Apuestas\\controllers/default.py')"
p2936
sS'func'
p2937
S'restricted'
p2938
sa(dp2939
g2928
S'C:\\Python32\\web2py_win\\web2py\\applications\\Casa_de_Apuestas\\controllers\\default.py'
p2940
sg2930
(dp2941
sg2932
I121
sg2933
(dp2942
I110
S''
sI111
S'def listaEventos():'
p2943
sI112
S'    eventos = db().select(db.eventos.ALL)'
p2944
sI113
S'    return dict(eventos=eventos)'
p2945
sI114
S''
sI115
S'def asignarResultado():'
p2946
sI116
S"    iden = 'NO'"
p2947
sI117
S'    if (response.args(0)):'
p2948
sI118
S'        iden = request.args(0)'
p2949
sI119
S'    return dict(iden=iden)'
p2950
ssg2935
S'()'
p2951
sg2937
S'<module>'
p2952
sa(dp2953
g2928
S'C:\\Python32\\web2py_win\\web2py\\gluon\\globals.py'
p2954
sg2930
(dp2955
sg2932
I149
sg2933
(dp2956
sg2935
S'(f=<function asignarResultado at 0x07132A70>)'
p2957
sg2937
S'<lambda>'
p2958
sa(dp2959
g2928
S'C:\\Python32\\web2py_win\\web2py\\applications\\Casa_de_Apuestas\\controllers\\default.py'
p2960
sg2930
(dp2961
sg2932
I117
sg2933
(dp2962
I110
S''
sI111
S'def listaEventos():'
p2963
sI112
S'    eventos = db().select(db.eventos.ALL)'
p2964
sI113
S'    return dict(eventos=eventos)'
p2965
sI114
S''
sI115
S'def asignarResultado():'
p2966
sI116
S"    iden = 'NO'"
p2967
sI117
S'    if (response.args(0)):'
p2968
sI118
S'        iden = request.args(0)'
p2969
sI119
S'    return dict(iden=iden)'
p2970
ssg2935
S'()'
p2971
sg2937
S'asignarResultado'
p2972
sasS'pyver'
p2973
S'Python 2.5.4: C:\\Python32\\web2py_win\\web2py\\web2py.exe'
p2974
sS'session'
p2975
g48
(g49
g50
NtRp2976
(dp2977
g53
(dp2978
sg55
(lp2979
g48
(g57
g50
NtRp2980
(dp2981
g53
(dp2982
g61
I5
ssg62
Nsg55
(lp2983
g48
(g64
g50
NtRp2984
(dp2985
g53
(dp2986
sg62
g2980
sg55
(lp2987
g48
(g69
g50
NtRp2988
(dp2989
g53
(dp2990
g73
g74
ssg62
g2984
sg55
(lp2991
S'flash'
p2992
asbag48
(g69
g50
NtRp2993
(dp2994
g53
(dp2995
g80
g81
ssg62
g2984
sg55
(lp2996
S':'
asbag48
(g69
g50
NtRp2997
(dp2998
g53
(dp2999
sg62
g2984
sg55
(lp3000
g48
(g49
g50
NtRp3001
(dp3002
g53
(dp3003
g61
I5
ssg62
g2997
sg55
(lp3004
S''
asbasbasbasbasbsS'etype'
p3005
S"<type 'exceptions.TypeError'>"
p3006
sS'date'
p3007
S'Fri Dec 02 00:47:47 2011'
p3008
sS'response'
p3009
g48
(g49
g50
NtRp3010
(dp3011
g53
(dp3012
sg55
(lp3013
g48
(g57
g50
NtRp3014
(dp3015
g53
(dp3016
g61
I5
ssg62
Nsg55
(lp3017
g48
(g64
g50
NtRp3018
(dp3019
g53
(dp3020
sg62
g3014
sg55
(lp3021
g48
(g69
g50
NtRp3022
(dp3023
g53
(dp3024
g73
g74
ssg62
g3018
sg55
(lp3025
g159
asbag48
(g69
g50
NtRp3026
(dp3027
g53
(dp3028
g80
g81
ssg62
g3018
sg55
(lp3029
S':'
asbag48
(g69
g50
NtRp3030
(dp3031
g53
(dp3032
sg62
g3018
sg55
(lp3033
g48
(g49
g50
NtRp3034
(dp3035
g53
(dp3036
g61
I5
ssg62
g3030
sg55
(lp3037
S'<cStringIO.StringO object at 0x06D38B80>'
p3038
asbasbasbag48
(g64
g50
NtRp3039
(dp3040
g53
(dp3041
sg62
g3014
sg55
(lp3042
g48
(g69
g50
NtRp3043
(dp3044
g53
(dp3045
g73
g74
ssg62
g3039
sg55
(lp3046
g225
asbag48
(g69
g50
NtRp3047
(dp3048
g53
(dp3049
g80
g81
ssg62
g3039
sg55
(lp3050
S':'
asbag48
(g69
g50
NtRp3051
(dp3052
g53
(dp3053
sg62
g3039
sg55
(lp3054
g48
(g49
g50
NtRp3055
(dp3056
g53
(dp3057
g61
I5
ssg62
g3051
sg55
(lp3058
g48
(g57
g50
NtRp3059
(dp3060
g53
(dp3061
g61
I4
ssg62
Nsg55
(lp3062
g48
(g64
g50
NtRp3063
(dp3064
g53
(dp3065
sg62
g3059
sg55
(lp3066
g48
(g69
g50
NtRp3067
(dp3068
g53
(dp3069
g73
g74
ssg62
g3063
sg55
(lp3070
S'session_id_casa_de_apuestas'
p3071
asbag48
(g69
g50
NtRp3072
(dp3073
g53
(dp3074
g80
g81
ssg62
g3063
sg55
(lp3075
S':'
asbag48
(g69
g50
NtRp3076
(dp3077
g53
(dp3078
sg62
g3063
sg55
(lp3079
g48
(g49
g50
NtRp3080
(dp3081
g53
(dp3082
g61
I4
ssg62
g3076
sg55
(lp3083
g48
(g57
g50
NtRp3084
(dp3085
g53
(dp3086
g61
I3
ssg62
Nsg55
(lp3087
g48
(g64
g50
NtRp3088
(dp3089
g53
(dp3090
sg62
g3084
sg55
(lp3091
g48
(g69
g50
NtRp3092
(dp3093
g53
(dp3094
g73
g74
ssg62
g3088
sg55
(lp3095
g275
asbag48
(g69
g50
NtRp3096
(dp3097
g53
(dp3098
g80
g81
ssg62
g3088
sg55
(lp3099
S':'
asbag48
(g69
g50
NtRp3100
(dp3101
g53
(dp3102
sg62
g3088
sg55
(lp3103
g48
(g49
g50
NtRp3104
(dp3105
g53
(dp3106
g61
I3
ssg62
g3100
sg55
(lp3107
S''
asbasbasbag48
(g64
g50
NtRp3108
(dp3109
g53
(dp3110
sg62
g3084
sg55
(lp3111
g48
(g69
g50
NtRp3112
(dp3113
g53
(dp3114
g73
g74
ssg62
g3108
sg55
(lp3115
g296
asbag48
(g69
g50
NtRp3116
(dp3117
g53
(dp3118
g80
g81
ssg62
g3108
sg55
(lp3119
S':'
asbag48
(g69
g50
NtRp3120
(dp3121
g53
(dp3122
sg62
g3108
sg55
(lp3123
g48
(g49
g50
NtRp3124
(dp3125
g53
(dp3126
g61
I3
ssg62
g3120
sg55
(lp3127
S''
asbasbasbag48
(g64
g50
NtRp3128
(dp3129
g53
(dp3130
sg62
g3084
sg55
(lp3131
g48
(g69
g50
NtRp3132
(dp3133
g53
(dp3134
g73
g74
ssg62
g3128
sg55
(lp3135
g317
asbag48
(g69
g50
NtRp3136
(dp3137
g53
(dp3138
g80
g81
ssg62
g3128
sg55
(lp3139
S':'
asbag48
(g69
g50
NtRp3140
(dp3141
g53
(dp3142
sg62
g3128
sg55
(lp3143
g48
(g49
g50
NtRp3144
(dp3145
g53
(dp3146
g61
I3
ssg62
g3140
sg55
(lp3147
S''
asbasbasbag48
(g64
g50
NtRp3148
(dp3149
g53
(dp3150
sg62
g3084
sg55
(lp3151
g48
(g69
g50
NtRp3152
(dp3153
g53
(dp3154
g73
g74
ssg62
g3148
sg55
(lp3155
g338
asbag48
(g69
g50
NtRp3156
(dp3157
g53
(dp3158
g80
g81
ssg62
g3148
sg55
(lp3159
S':'
asbag48
(g69
g50
NtRp3160
(dp3161
g53
(dp3162
sg62
g3148
sg55
(lp3163
g48
(g49
g50
NtRp3164
(dp3165
g53
(dp3166
g61
I3
ssg62
g3160
sg55
(lp3167
S''
asbasbasbag48
(g64
g50
NtRp3168
(dp3169
g53
(dp3170
sg62
g3084
sg55
(lp3171
g48
(g69
g50
NtRp3172
(dp3173
g53
(dp3174
g73
g74
ssg62
g3168
sg55
(lp3175
g359
asbag48
(g69
g50
NtRp3176
(dp3177
g53
(dp3178
g80
g81
ssg62
g3168
sg55
(lp3179
S':'
asbag48
(g69
g50
NtRp3180
(dp3181
g53
(dp3182
sg62
g3168
sg55
(lp3183
g48
(g49
g50
NtRp3184
(dp3185
g53
(dp3186
g61
I3
ssg62
g3180
sg55
(lp3187
S'/'
asbasbasbag48
(g64
g50
NtRp3188
(dp3189
g53
(dp3190
sg62
g3084
sg55
(lp3191
g48
(g69
g50
NtRp3192
(dp3193
g53
(dp3194
g73
g74
ssg62
g3188
sg55
(lp3195
g380
asbag48
(g69
g50
NtRp3196
(dp3197
g53
(dp3198
g80
g81
ssg62
g3188
sg55
(lp3199
S':'
asbag48
(g69
g50
NtRp3200
(dp3201
g53
(dp3202
sg62
g3188
sg55
(lp3203
g48
(g49
g50
NtRp3204
(dp3205
g53
(dp3206
g61
I3
ssg62
g3200
sg55
(lp3207
S''
asbasbasbag48
(g64
g50
NtRp3208
(dp3209
g53
(dp3210
sg62
g3084
sg55
(lp3211
g48
(g69
g50
NtRp3212
(dp3213
g53
(dp3214
g73
g74
ssg62
g3208
sg55
(lp3215
g401
asbag48
(g69
g50
NtRp3216
(dp3217
g53
(dp3218
g80
g81
ssg62
g3208
sg55
(lp3219
S':'
asbag48
(g69
g50
NtRp3220
(dp3221
g53
(dp3222
sg62
g3208
sg55
(lp3223
g48
(g49
g50
NtRp3224
(dp3225
g53
(dp3226
g61
I3
ssg62
g3220
sg55
(lp3227
S''
asbasbasbasbasbasbasbasbasbasbasbag48
(g64
g50
NtRp3228
(dp3229
g53
(dp3230
sg62
g3014
sg55
(lp3231
g48
(g69
g50
NtRp3232
(dp3233
g53
(dp3234
g73
g74
ssg62
g3228
sg55
(lp3235
S'files'
p3236
asbag48
(g69
g50
NtRp3237
(dp3238
g53
(dp3239
g80
g81
ssg62
g3228
sg55
(lp3240
S':'
asbag48
(g69
g50
NtRp3241
(dp3242
g53
(dp3243
sg62
g3228
sg55
(lp3244
g48
(g49
g50
NtRp3245
(dp3246
g53
(dp3247
g61
I5
ssg62
g3241
sg55
(lp3248
g48
(g57
g50
NtRp3249
(dp3250
g53
(dp3251
g61
I4
ssg62
Nsg55
(lp3252
sbasbasbasbag48
(g64
g50
NtRp3253
(dp3254
g53
(dp3255
sg62
g3014
sg55
(lp3256
g48
(g69
g50
NtRp3257
(dp3258
g53
(dp3259
g73
g74
ssg62
g3253
sg55
(lp3260
S'flash'
p3261
asbag48
(g69
g50
NtRp3262
(dp3263
g53
(dp3264
g80
g81
ssg62
g3253
sg55
(lp3265
S':'
asbag48
(g69
g50
NtRp3266
(dp3267
g53
(dp3268
sg62
g3253
sg55
(lp3269
g48
(g49
g50
NtRp3270
(dp3271
g53
(dp3272
g61
I5
ssg62
g3266
sg55
(lp3273
S''
asbasbasbag48
(g64
g50
NtRp3274
(dp3275
g53
(dp3276
sg62
g3014
sg55
(lp3277
g48
(g69
g50
NtRp3278
(dp3279
g53
(dp3280
g73
g74
ssg62
g3274
sg55
(lp3281
S'generic_patterns'
p3282
asbag48
(g69
g50
NtRp3283
(dp3284
g53
(dp3285
g80
g81
ssg62
g3274
sg55
(lp3286
S':'
asbag48
(g69
g50
NtRp3287
(dp3288
g53
(dp3289
sg62
g3274
sg55
(lp3290
g48
(g49
g50
NtRp3291
(dp3292
g53
(dp3293
g61
I5
ssg62
g3287
sg55
(lp3294
g48
(g57
g50
NtRp3295
(dp3296
g53
(dp3297
g61
I4
ssg62
Nsg55
(lp3298
g48
(g64
g50
NtRp3299
(dp3300
g53
(dp3301
sg62
g3295
sg55
(lp3302
g48
(g69
g50
NtRp3303
(dp3304
g53
(dp3305
sg62
g3299
sg55
(lp3306
g48
(g49
g50
NtRp3307
(dp3308
g53
(dp3309
g61
I4
ssg62
g3303
sg55
(lp3310
S'*'
asbasbasbasbasbasbasbag48
(g64
g50
NtRp3311
(dp3312
g53
(dp3313
sg62
g3014
sg55
(lp3314
g48
(g69
g50
NtRp3315
(dp3316
g53
(dp3317
g73
g74
ssg62
g3311
sg55
(lp3318
S'headers'
p3319
asbag48
(g69
g50
NtRp3320
(dp3321
g53
(dp3322
g80
g81
ssg62
g3311
sg55
(lp3323
S':'
asbag48
(g69
g50
NtRp3324
(dp3325
g53
(dp3326
sg62
g3311
sg55
(lp3327
g48
(g49
g50
NtRp3328
(dp3329
g53
(dp3330
g61
I5
ssg62
g3324
sg55
(lp3331
g48
(g57
g50
NtRp3332
(dp3333
g53
(dp3334
g61
I4
ssg62
Nsg55
(lp3335
g48
(g64
g50
NtRp3336
(dp3337
g53
(dp3338
sg62
g3332
sg55
(lp3339
g48
(g69
g50
NtRp3340
(dp3341
g53
(dp3342
g73
g74
ssg62
g3336
sg55
(lp3343
S'Cache-Control'
p3344
asbag48
(g69
g50
NtRp3345
(dp3346
g53
(dp3347
g80
g81
ssg62
g3336
sg55
(lp3348
S':'
asbag48
(g69
g50
NtRp3349
(dp3350
g53
(dp3351
sg62
g3336
sg55
(lp3352
g48
(g49
g50
NtRp3353
(dp3354
g53
(dp3355
g61
I4
ssg62
g3349
sg55
(lp3356
S'no-store, no-cache, must-revalidate, post-check=0, pre-check=0'
p3357
asbasbasbag48
(g64
g50
NtRp3358
(dp3359
g53
(dp3360
sg62
g3332
sg55
(lp3361
g48
(g69
g50
NtRp3362
(dp3363
g53
(dp3364
g73
g74
ssg62
g3358
sg55
(lp3365
S'Content-Type'
p3366
asbag48
(g69
g50
NtRp3367
(dp3368
g53
(dp3369
g80
g81
ssg62
g3358
sg55
(lp3370
S':'
asbag48
(g69
g50
NtRp3371
(dp3372
g53
(dp3373
sg62
g3358
sg55
(lp3374
g48
(g49
g50
NtRp3375
(dp3376
g53
(dp3377
g61
I4
ssg62
g3371
sg55
(lp3378
S'text/html; charset=utf-8'
p3379
asbasbasbag48
(g64
g50
NtRp3380
(dp3381
g53
(dp3382
sg62
g3332
sg55
(lp3383
g48
(g69
g50
NtRp3384
(dp3385
g53
(dp3386
g73
g74
ssg62
g3380
sg55
(lp3387
S'Expires'
p3388
asbag48
(g69
g50
NtRp3389
(dp3390
g53
(dp3391
g80
g81
ssg62
g3380
sg55
(lp3392
S':'
asbag48
(g69
g50
NtRp3393
(dp3394
g53
(dp3395
sg62
g3380
sg55
(lp3396
g48
(g49
g50
NtRp3397
(dp3398
g53
(dp3399
g61
I4
ssg62
g3393
sg55
(lp3400
S'Fri, 02 Dec 2011 05:17:47 GMT'
p3401
asbasbasbag48
(g64
g50
NtRp3402
(dp3403
g53
(dp3404
sg62
g3332
sg55
(lp3405
g48
(g69
g50
NtRp3406
(dp3407
g53
(dp3408
g73
g74
ssg62
g3402
sg55
(lp3409
S'Pragma'
p3410
asbag48
(g69
g50
NtRp3411
(dp3412
g53
(dp3413
g80
g81
ssg62
g3402
sg55
(lp3414
S':'
asbag48
(g69
g50
NtRp3415
(dp3416
g53
(dp3417
sg62
g3402
sg55
(lp3418
g48
(g49
g50
NtRp3419
(dp3420
g53
(dp3421
g61
I4
ssg62
g3415
sg55
(lp3422
S'no-cache'
p3423
asbasbasbag48
(g64
g50
NtRp3424
(dp3425
g53
(dp3426
sg62
g3332
sg55
(lp3427
g48
(g69
g50
NtRp3428
(dp3429
g53
(dp3430
g73
g74
ssg62
g3424
sg55
(lp3431
S'X-Powered-By'
p3432
asbag48
(g69
g50
NtRp3433
(dp3434
g53
(dp3435
g80
g81
ssg62
g3424
sg55
(lp3436
S':'
asbag48
(g69
g50
NtRp3437
(dp3438
g53
(dp3439
sg62
g3424
sg55
(lp3440
g48
(g49
g50
NtRp3441
(dp3442
g53
(dp3443
g61
I4
ssg62
g3437
sg55
(lp3444
S'web2py'
p3445
asbasbasbasbasbasbasbag48
(g64
g50
NtRp3446
(dp3447
g53
(dp3448
sg62
g3014
sg55
(lp3449
g48
(g69
g50
NtRp3450
(dp3451
g53
(dp3452
g73
g74
ssg62
g3446
sg55
(lp3453
S'menu'
p3454
asbag48
(g69
g50
NtRp3455
(dp3456
g53
(dp3457
g80
g81
ssg62
g3446
sg55
(lp3458
S':'
asbag48
(g69
g50
NtRp3459
(dp3460
g53
(dp3461
sg62
g3446
sg55
(lp3462
g48
(g49
g50
NtRp3463
(dp3464
g53
(dp3465
g61
I5
ssg62
g3459
sg55
(lp3466
g48
(g57
g50
NtRp3467
(dp3468
g53
(dp3469
g61
I4
ssg62
Nsg55
(lp3470
g48
(g64
g50
NtRp3471
(dp3472
g53
(dp3473
sg62
g3467
sg55
(lp3474
g48
(g69
g50
NtRp3475
(dp3476
g53
(dp3477
sg62
g3471
sg55
(lp3478
g48
(g49
g50
NtRp3479
(dp3480
g53
(dp3481
g61
I4
ssg62
g3475
sg55
(lp3482
g48
(g57
g50
NtRp3483
(dp3484
g53
(dp3485
g61
I3
ssg62
Nsg55
(lp3486
g48
(g64
g50
NtRp3487
(dp3488
g53
(dp3489
sg62
g3483
sg55
(lp3490
g48
(g69
g50
NtRp3491
(dp3492
g53
(dp3493
sg62
g3487
sg55
(lp3494
g48
(g49
g50
NtRp3495
(dp3496
g53
(dp3497
g61
I3
ssg62
g3491
sg55
(lp3498
cgluon.languages
lazyT_unpickle
p3499
(S's\x05\x00\x00\x00Index'
tRp3500
asbasbasbag48
(g64
g50
NtRp3501
(dp3502
g53
(dp3503
sg62
g3483
sg55
(lp3504
g48
(g69
g50
NtRp3505
(dp3506
g53
(dp3507
sg62
g3501
sg55
(lp3508
g48
(g49
g50
NtRp3509
(dp3510
g53
(dp3511
g61
I3
ssg62
g3505
sg55
(lp3512
g91
asbasbasbag48
(g64
g50
NtRp3513
(dp3514
g53
(dp3515
sg62
g3483
sg55
(lp3516
g48
(g69
g50
NtRp3517
(dp3518
g53
(dp3519
sg62
g3513
sg55
(lp3520
g48
(g49
g50
NtRp3521
(dp3522
g53
(dp3523
g61
I3
ssg62
g3517
sg55
(lp3524
S'/Casa_de_Apuestas/default/index'
p3525
asbasbasbag48
(g64
g50
NtRp3526
(dp3527
g53
(dp3528
sg62
g3483
sg55
(lp3529
g48
(g69
g50
NtRp3530
(dp3531
g53
(dp3532
sg62
g3526
sg55
(lp3533
g48
(g49
g50
NtRp3534
(dp3535
g53
(dp3536
g61
I3
ssg62
g3530
sg55
(lp3537
g48
(g57
g50
NtRp3538
(dp3539
g53
(dp3540
g61
I2
ssg62
Nsg55
(lp3541
sbasbasbasbasbasbasbasbasbasbasbasbag48
(g64
g50
NtRp3542
(dp3543
g53
(dp3544
sg62
g3014
sg55
(lp3545
g48
(g69
g50
NtRp3546
(dp3547
g53
(dp3548
g73
g74
ssg62
g3542
sg55
(lp3549
S'meta'
p3550
asbag48
(g69
g50
NtRp3551
(dp3552
g53
(dp3553
g80
g81
ssg62
g3542
sg55
(lp3554
S':'
asbag48
(g69
g50
NtRp3555
(dp3556
g53
(dp3557
sg62
g3542
sg55
(lp3558
g48
(g49
g50
NtRp3559
(dp3560
g53
(dp3561
g61
I5
ssg62
g3555
sg55
(lp3562
g48
(g57
g50
NtRp3563
(dp3564
g53
(dp3565
g61
I4
ssg62
Nsg55
(lp3566
g48
(g64
g50
NtRp3567
(dp3568
g53
(dp3569
sg62
g3563
sg55
(lp3570
g48
(g69
g50
NtRp3571
(dp3572
g53
(dp3573
g73
g74
ssg62
g3567
sg55
(lp3574
S'author'
p3575
asbag48
(g69
g50
NtRp3576
(dp3577
g53
(dp3578
g80
g81
ssg62
g3567
sg55
(lp3579
S':'
asbag48
(g69
g50
NtRp3580
(dp3581
g53
(dp3582
sg62
g3567
sg55
(lp3583
g48
(g49
g50
NtRp3584
(dp3585
g53
(dp3586
g61
I4
ssg62
g3580
sg55
(lp3587
S'JSG Systems <jsg@example.com>'
p3588
asbasbasbag48
(g64
g50
NtRp3589
(dp3590
g53
(dp3591
sg62
g3563
sg55
(lp3592
g48
(g69
g50
NtRp3593
(dp3594
g53
(dp3595
g73
g74
ssg62
g3589
sg55
(lp3596
S'description'
p3597
asbag48
(g69
g50
NtRp3598
(dp3599
g53
(dp3600
g80
g81
ssg62
g3589
sg55
(lp3601
S':'
asbag48
(g69
g50
NtRp3602
(dp3603
g53
(dp3604
sg62
g3589
sg55
(lp3605
g48
(g49
g50
NtRp3606
(dp3607
g53
(dp3608
g61
I4
ssg62
g3602
sg55
(lp3609
S''
asbasbasbag48
(g64
g50
NtRp3610
(dp3611
g53
(dp3612
sg62
g3563
sg55
(lp3613
g48
(g69
g50
NtRp3614
(dp3615
g53
(dp3616
g73
g74
ssg62
g3610
sg55
(lp3617
S'keywords'
p3618
asbag48
(g69
g50
NtRp3619
(dp3620
g53
(dp3621
g80
g81
ssg62
g3610
sg55
(lp3622
S':'
asbag48
(g69
g50
NtRp3623
(dp3624
g53
(dp3625
sg62
g3610
sg55
(lp3626
g48
(g49
g50
NtRp3627
(dp3628
g53
(dp3629
g61
I4
ssg62
g3623
sg55
(lp3630
S'casa, apuestas'
p3631
asbasbasbasbasbasbasbag48
(g64
g50
NtRp3632
(dp3633
g53
(dp3634
sg62
g3014
sg55
(lp3635
g48
(g69
g50
NtRp3636
(dp3637
g53
(dp3638
g73
g74
ssg62
g3632
sg55
(lp3639
S'postprocessing'
p3640
asbag48
(g69
g50
NtRp3641
(dp3642
g53
(dp3643
g80
g81
ssg62
g3632
sg55
(lp3644
S':'
asbag48
(g69
g50
NtRp3645
(dp3646
g53
(dp3647
sg62
g3632
sg55
(lp3648
g48
(g49
g50
NtRp3649
(dp3650
g53
(dp3651
g61
I5
ssg62
g3645
sg55
(lp3652
g48
(g57
g50
NtRp3653
(dp3654
g53
(dp3655
g61
I4
ssg62
Nsg55
(lp3656
sbasbasbasbag48
(g64
g50
NtRp3657
(dp3658
g53
(dp3659
sg62
g3014
sg55
(lp3660
g48
(g69
g50
NtRp3661
(dp3662
g53
(dp3663
g73
g74
ssg62
g3657
sg55
(lp3664
S'session_file'
p3665
asbag48
(g69
g50
NtRp3666
(dp3667
g53
(dp3668
g80
g81
ssg62
g3657
sg55
(lp3669
S':'
asbag48
(g69
g50
NtRp3670
(dp3671
g53
(dp3672
sg62
g3657
sg55
(lp3673
g48
(g49
g50
NtRp3674
(dp3675
g53
(dp3676
g61
I5
ssg62
g3670
sg55
(lp3677
S"<open file 'C:\\Python32\\web2py_win\\web2py\\applications\\Casa_de_Apuestas\\sessions\\127.0.0.1-f2b73c5c-dc8e-4a91-88f1-8ab0d38c3580', mode 'rb+' at 0x05FDB218>"
p3678
asbasbasbag48
(g64
g50
NtRp3679
(dp3680
g53
(dp3681
sg62
g3014
sg55
(lp3682
g48
(g69
g50
NtRp3683
(dp3684
g53
(dp3685
g73
g74
ssg62
g3679
sg55
(lp3686
S'session_filename'
p3687
asbag48
(g69
g50
NtRp3688
(dp3689
g53
(dp3690
g80
g81
ssg62
g3679
sg55
(lp3691
S':'
asbag48
(g69
g50
NtRp3692
(dp3693
g53
(dp3694
sg62
g3679
sg55
(lp3695
g48
(g49
g50
NtRp3696
(dp3697
g53
(dp3698
g61
I5
ssg62
g3692
sg55
(lp3699
S'C:\\Python32\\web2py_win\\web2py\\applications\\Casa_de_Apuestas\\sessions\\127.0.0.1-f2b73c5c-dc8e-4a91-88f1-8ab0d38c3580'
p3700
asbasbasbag48
(g64
g50
NtRp3701
(dp3702
g53
(dp3703
sg62
g3014
sg55
(lp3704
g48
(g69
g50
NtRp3705
(dp3706
g53
(dp3707
g73
g74
ssg62
g3701
sg55
(lp3708
S'session_id'
p3709
asbag48
(g69
g50
NtRp3710
(dp3711
g53
(dp3712
g80
g81
ssg62
g3701
sg55
(lp3713
S':'
asbag48
(g69
g50
NtRp3714
(dp3715
g53
(dp3716
sg62
g3701
sg55
(lp3717
g48
(g49
g50
NtRp3718
(dp3719
g53
(dp3720
g61
I5
ssg62
g3714
sg55
(lp3721
S'127.0.0.1-f2b73c5c-dc8e-4a91-88f1-8ab0d38c3580'
p3722
asbasbasbag48
(g64
g50
NtRp3723
(dp3724
g53
(dp3725
sg62
g3014
sg55
(lp3726
g48
(g69
g50
NtRp3727
(dp3728
g53
(dp3729
g73
g74
ssg62
g3723
sg55
(lp3730
S'session_id_name'
p3731
asbag48
(g69
g50
NtRp3732
(dp3733
g53
(dp3734
g80
g81
ssg62
g3723
sg55
(lp3735
S':'
asbag48
(g69
g50
NtRp3736
(dp3737
g53
(dp3738
sg62
g3723
sg55
(lp3739
g48
(g49
g50
NtRp3740
(dp3741
g53
(dp3742
g61
I5
ssg62
g3736
sg55
(lp3743
g3071
asbasbasbag48
(g64
g50
NtRp3744
(dp3745
g53
(dp3746
sg62
g3014
sg55
(lp3747
g48
(g69
g50
NtRp3748
(dp3749
g53
(dp3750
g73
g74
ssg62
g3744
sg55
(lp3751
S'session_locked'
p3752
asbag48
(g69
g50
NtRp3753
(dp3754
g53
(dp3755
g80
g81
ssg62
g3744
sg55
(lp3756
S':'
asbag48
(g69
g50
NtRp3757
(dp3758
g53
(dp3759
sg62
g3744
sg55
(lp3760
g48
(g49
g50
NtRp3761
(dp3762
g53
(dp3763
g61
I5
ssg62
g3757
sg55
(lp3764
g1600
asbasbasbag48
(g64
g50
NtRp3765
(dp3766
g53
(dp3767
sg62
g3014
sg55
(lp3768
g48
(g69
g50
NtRp3769
(dp3770
g53
(dp3771
g73
g74
ssg62
g3765
sg55
(lp3772
S'session_new'
p3773
asbag48
(g69
g50
NtRp3774
(dp3775
g53
(dp3776
g80
g81
ssg62
g3765
sg55
(lp3777
S':'
asbag48
(g69
g50
NtRp3778
(dp3779
g53
(dp3780
sg62
g3765
sg55
(lp3781
g48
(g49
g50
NtRp3782
(dp3783
g53
(dp3784
g61
I5
ssg62
g3778
sg55
(lp3785
g91
asbasbasbag48
(g64
g50
NtRp3786
(dp3787
g53
(dp3788
sg62
g3014
sg55
(lp3789
g48
(g69
g50
NtRp3790
(dp3791
g53
(dp3792
g73
g74
ssg62
g3786
sg55
(lp3793
S'status'
p3794
asbag48
(g69
g50
NtRp3795
(dp3796
g53
(dp3797
g80
g81
ssg62
g3786
sg55
(lp3798
S':'
asbag48
(g69
g50
NtRp3799
(dp3800
g53
(dp3801
sg62
g3786
sg55
(lp3802
g48
(g49
g50
NtRp3803
(dp3804
g53
(dp3805
g61
I5
ssg62
g3799
sg55
(lp3806
S'200'
p3807
asbasbasbag48
(g64
g50
NtRp3808
(dp3809
g53
(dp3810
sg62
g3014
sg55
(lp3811
g48
(g69
g50
NtRp3812
(dp3813
g53
(dp3814
g73
g74
ssg62
g3808
sg55
(lp3815
S'subtitle'
p3816
asbag48
(g69
g50
NtRp3817
(dp3818
g53
(dp3819
g80
g81
ssg62
g3808
sg55
(lp3820
S':'
asbag48
(g69
g50
NtRp3821
(dp3822
g53
(dp3823
sg62
g3808
sg55
(lp3824
g48
(g49
g50
NtRp3825
(dp3826
g53
(dp3827
g61
I5
ssg62
g3821
sg55
(lp3828
S''
asbasbasbag48
(g64
g50
NtRp3829
(dp3830
g53
(dp3831
sg62
g3014
sg55
(lp3832
g48
(g69
g50
NtRp3833
(dp3834
g53
(dp3835
g73
g74
ssg62
g3829
sg55
(lp3836
S'title'
p3837
asbag48
(g69
g50
NtRp3838
(dp3839
g53
(dp3840
g80
g81
ssg62
g3829
sg55
(lp3841
S':'
asbag48
(g69
g50
NtRp3842
(dp3843
g53
(dp3844
sg62
g3829
sg55
(lp3845
g48
(g49
g50
NtRp3846
(dp3847
g53
(dp3848
g61
I5
ssg62
g3842
sg55
(lp3849
S'Casa de Apuestas'
p3850
asbasbasbag48
(g64
g50
NtRp3851
(dp3852
g53
(dp3853
sg62
g3014
sg55
(lp3854
g48
(g69
g50
NtRp3855
(dp3856
g53
(dp3857
g73
g74
ssg62
g3851
sg55
(lp3858
g2266
asbag48
(g69
g50
NtRp3859
(dp3860
g53
(dp3861
g80
g81
ssg62
g3851
sg55
(lp3862
S':'
asbag48
(g69
g50
NtRp3863
(dp3864
g53
(dp3865
sg62
g3851
sg55
(lp3866
g48
(g49
g50
NtRp3867
(dp3868
g53
(dp3869
g61
I5
ssg62
g3863
sg55
(lp3870
g2279
asbasbasbag48
(g64
g50
NtRp3871
(dp3872
g53
(dp3873
sg62
g3014
sg55
(lp3874
g48
(g69
g50
NtRp3875
(dp3876
g53
(dp3877
g73
g74
ssg62
g3871
sg55
(lp3878
S'view'
p3879
asbag48
(g69
g50
NtRp3880
(dp3881
g53
(dp3882
g80
g81
ssg62
g3871
sg55
(lp3883
S':'
asbag48
(g69
g50
NtRp3884
(dp3885
g53
(dp3886
sg62
g3871
sg55
(lp3887
g48
(g49
g50
NtRp3888
(dp3889
g53
(dp3890
g61
I5
ssg62
g3884
sg55
(lp3891
S'default/asignarResultado.html'
p3892
asbasbasbasbasbsS'locals'
p3893
(dp3894
S'iden'
p3895
S"'NO'"
p3896
sssS'traceback'
p3897
S'Traceback (most recent call last):\n  File "gluon/restricted.py", line 194, in restricted\n  File "C:\\Python32\\web2py_win\\web2py\\applications\\Casa_de_Apuestas\\controllers/default.py", line 121, in <module>\n  File "gluon/globals.py", line 149, in <lambda>\n  File "C:\\Python32\\web2py_win\\web2py\\applications\\Casa_de_Apuestas\\controllers/default.py", line 117, in asignarResultado\nTypeError: \'NoneType\' object is not callable\n'
p3898
s.