(dp1
S'output'
p2
S''
sS'layer'
p3
S'C:\\Python32\\web2py_win\\web2py\\applications\\Casa_de_Apuestas\\controllers/default.py'
p4
sS'code'
p5
S'# -*- coding: utf-8 -*-\n### required - do no delete\n"""\nEste Modulo corresponde al de controladores segun MVC, los metodos aqui contenidos\nson los encargados de invocar a las vistas, eso esta configurado en el framework\n"""\nfrom Servicio import *\nservice = Servicio(db, crud)\nfrom log import *\nlog = log()\n\ndef user(): return dict(form=auth())\ndef download(): return response.download(request,db)\ndef call(): return service()\n\n### end requires\n\n@auth.requires_login()\ndef index():\n    return dict()\n\ndef error():\n    return dict()\n\ndef maquinas():\n    form = crud.update(db.maquinas, request.args(0),next=URL(\'maquinas\'))\n    maquinas = db().select(db.maquinas.ALL)\n    coordenadas = False\n    if (request.args(0)):\n        for i, maquina in enumerate(maquinas):\n            if (i == request.args(0)):\n                break\n        coordenadas = dict(lon=maquina.longitud,lat=maquina.latitud)                    \n    return dict(form=form, maquinas=maquinas, coordenadas=coordenadas)\n\ndef crearCategoria():\n        categorias = db().select(db.categorias.ALL)\n        form = crud.create(db.categorias)\n        #if form.accepts(request.vars, formname=None):\n        if form.process().accepted:\n            db.commit()        \n            from log import *\n            log = log()\n            log.logear("Categoria creada: "+form.vars.nombre)\n        return response.render(dict(form=form, categorias=categorias))\n\ndef obtenerCategoria():\n        if not request.vars.categorias:\n            return \'\'\n        patron = request.vars.categorias.capitalize() + \'%\'\n        seleccionado = db(db.categorias.nombre.like(patron)).select()\n        return \'\'.join([DIV(k.nombre,\n                     _onclick="jQuery(\'#categorias\').val(\'%s\')" % k.nombre +\n                     ";document.getElementById(\'sugerencias\').innerHTML = \'\';" +\n                     "document.getElementById(\'eventos_categoria_id\').value=\'%s\';" % str(k.categoria_id),\n                     _onmouseover="this.style.backgroundColor=\'yellow\'",\n                     _onmouseout="this.style.backgroundColor=\'white\'"\n                     ).xml() for k in seleccionado])\n\ndef crearEvento():\n        eventos = db().select(db.eventos.ALL)\n        form = crud.create(db.eventos)\n#        if form.accepts(request.vars, formname=None):\n#        if form.process().accepted:\n#            db.commit()        \n#            from log import *       #Hay que buscar la libreria de log propia de web2py que la de gary buggea\n#            log = log()\n#            log.logear("Evento creado: "+form.vars.nombre)\n        return response.render(dict(form=form,eventos=eventos))\n\ndef crearParticipante():\n        participantes = db().select(db.participantes.ALL)\n        form = crud.create(db.participantes)\n        #if form.accepts(request.vars, formname=None):\n#        if form.process().accepted:\n#            db.commit()        \n#            from log import *\n#            log = log()\n#            log.logear("Participante creado: "+form.vars.nombre)\n        return response.render(dict(form=form,participantes=participantes))\n\ndef crearEventoParticipante():\n        eventosparticipantes = db().select(db.eventosparticipantes.ALL)\n        form = crud.create(db.eventosparticipantes)\n        #if form.accepts(request.vars, formname=None):\n        if form.process().accepted:\n            db.commit()        \n            from log import *\n            log = log()\n            log.logear("EventoParticipante creado: "+form.vars.nombre)\n        return response.render(dict(form=form,eventosparticipantes=eventosparticipantes))\n\ndef crearUsuario():\n        usuarios = db().select(db.auth_user.ALL)\n        form = crud.create(db.auth_user)\n        #if form.accepts(request.vars, formname=None):\n        if form.process().accepted:\n            db.commit()        \n            from log import *\n            log = log()\n            log.logear("Usuario creado: "+form.vars.nombre)\n        return response.render(dict(form=form,usuarios=usuarios))\n    \n\ndef mostrarCategoria():\n        categorias = db().select(db.categorias.ALL, orderby = db.categorias.id)\n        return response.render(dict(categorias = categorias))\n\ndef mostrarEvento():\n        eventos = db().select(db.eventos.ALL, orderby = db.eventos.id)\n        return response.render(dict(eventos = eventos))\n\ndef mostrarParticipante():\n        participantes = db().select(db.participantes.ALL, orderby = db.participantes.id)\n        return response.render(dict(participantes = participantes))\n\ndef mostrarEventosParticipantes():\n        eventosparticipantes = db().select(db.eventosparticipantes.ALL,orderby = db.eventosparticipantes.id)\n        return response.render(dict(eventosparticipantes= eventosparticipantes))\n    \ndef mostrarUsuario():\n        usuarios = db().select(db.auth_user.ALL, orderby = db.auth_user.id)\n        return response.render(dict(usuarios = usuarios))\n    \n    \n    \ndef showEvento():\n        form = crud.update(db.eventos, request.args(0),next = URL(\'mostrarEvento\'))\n        #if form.accepts(request.vars, formname=None):\n        if form.process().accepted:\n            db.commit()        \n            from log import *\n            log = log()\n            log.logear("Evento modificado: "+form.vars.nombre)           \n        return response.render(dict(form = form))\n\ndef showCategoria():\n        form =crud.update(db.categorias, request.args(0), next = URL(\'mostrarCategoria\'))\n        #if form.accepts(request.vars, formname=None):\n        if form.process().accepted:\n            db.commit()        \n            from log import *\n            log = log()\n            log.logear("Categoria modificada: "+form.vars.nombre)          \n        return response.render(dict(form = form))\n\ndef showParticipante():\n        form = crud.update(db.participantes, request.args(0),next = URL(\'mostrarParticipante\'))\n        #if form.accepts(request.vars, formname=None):\n        if form.process().accepted:\n            db.commit()        \n            from log import *\n            log = log()\n            log.logear("Participante modificado: "+form.vars.nombre)            \n        return response.render(dict(form = form)) \n\ndef showEventosParticipantes():\n    return service.showEventoParticipante(request)\n    \ndef showUsuario():\n        form = crud.update(db.auth_user, request.args(0), next = URL(\'mostrarUsuario\'))\n        #if form.accepts(request.vars, formname=None):\n        if form.process().accepted:\n            db.commit()        \n            from log import *\n            log = log()\n            log.logear("Usuario modificado: "+form.vars.nombre)           \n        return response.render(dict(form = form))\n\n\ndef verResultado1():\n    import datetime\n    fechaActual=datetime.datetime.now()\n    eventos =db(db.eventos.fecha <fechaActual).select()\n    return dict(eventos=eventos)\n        \ndef verResultado2():\n    resultados= db((db.resultados.eventos_id==request.args(0))& (db.resultados.participantes_id==db.participantes.id)).select()\n    evento=db(db.eventos.id==request.args(0)).select()\n    return dict(resultados=resultados,evento=evento)\n    \ndef mostrar():\n    from DAOCasadeApuestas import *\n    dao = DAOCasadeApuestas()\n    dao2 = DAOCasadeApuestas()\n    dao3 = DAOCasadeApuestas()\n    dao4 = DAOCasadeApuestas()\n    dao5 = DAOCasadeApuestas()\n    q = dao.generarArchivoActualizacionMD5(dao.generarMensajeMD5(db().select(db.eventos.ALL)), dao2.generarMensajeMD5(db().select(db.categorias.ALL)), dao3.generarMensajeMD5(db().select(db.participantes.ALL)), dao4.generarMensajeMD5(db().select(db.eventosparticipantes.ALL)), dao5.generarMensajeMD5(db().select(db.auth_user.ALL)))\n    s = dao.generarArchivoActualizacionXML(dao.generarFormatoXml(db().select(db.eventos.ALL)), dao2.generarFormatoXml(db().select(db.categorias.ALL)), dao3.generarFormatoXml(db().select(db.participantes.ALL)), dao4.generarFormatoXml(db().select(db.eventosparticipantes.ALL)), dao5.generarFormatoXml(db().select(db.auth_user.ALL)))\n    return response.render(dict(q = q, s = s))   \n    \ndef verProximosEventos1():\n    import datetime\n    fechaActual=datetime.datetime.now()\n    eventos =db(db.eventos.fecha>fechaActual).select()\n    return dict(eventos=eventos)\n    \ndef verProximosEventos2():\n    evento_participante= db((db.eventosparticipantes.eventos_id==request.args(0))& (db.participantes.id==db.eventosparticipantes.participantes_id)).select()\n    evento = db(db.eventos.id==request.args(0)).select()\n    categoria = db((db.categorias.id==db.eventos.categoria_id)& (db.eventos.id==request.args(0))).select()\n    return dict(evento_participante=evento_participante,evento=evento,categoria=categoria)\n    \ndef indexPublico():\n    return dict()\n\nresponse._vars=response._caller(obtenerCategoria)\n'
p6
sS'snapshot'
p7
(dp8
S'exception'
p9
(dp10
S'__hash__'
p11
S"<method-wrapper '__hash__' of exceptions.KeyError object at 0x05AA1DC8>"
p12
sS'__setattr__'
p13
S"<method-wrapper '__setattr__' of exceptions.KeyError object at 0x05AA1DC8>"
p14
sS'__reduce_ex__'
p15
S'<built-in method __reduce_ex__ of exceptions.KeyError object at 0x05AA1DC8>'
p16
sS'__getslice__'
p17
S"<method-wrapper '__getslice__' of exceptions.KeyError object at 0x05AA1DC8>"
p18
sS'__getitem__'
p19
S"<method-wrapper '__getitem__' of exceptions.KeyError object at 0x05AA1DC8>"
p20
sS'__setstate__'
p21
S'<built-in method __setstate__ of exceptions.KeyError object at 0x05AA1DC8>'
p22
sS'__reduce__'
p23
S'<built-in method __reduce__ of exceptions.KeyError object at 0x05AA1DC8>'
p24
sS'__str__'
p25
S"<method-wrapper '__str__' of exceptions.KeyError object at 0x05AA1DC8>"
p26
sS'args'
p27
S"('categoria_id',)"
p28
sS'__getattribute__'
p29
S"<method-wrapper '__getattribute__' of exceptions.KeyError object at 0x05AA1DC8>"
p30
sS'__class__'
p31
S"<type 'exceptions.KeyError'>"
p32
sS'__delattr__'
p33
S"<method-wrapper '__delattr__' of exceptions.KeyError object at 0x05AA1DC8>"
p34
sS'__repr__'
p35
S"<method-wrapper '__repr__' of exceptions.KeyError object at 0x05AA1DC8>"
p36
sS'__dict__'
p37
S'{}'
p38
sS'__doc__'
p39
S"'Mapping key not found.'"
p40
sS'__init__'
p41
S"<method-wrapper '__init__' of exceptions.KeyError object at 0x05AA1DC8>"
p42
sS'__new__'
p43
S'<built-in method __new__ of type object at 0x1E1CDFB8>'
p44
ssS'evalue'
p45
S"'categoria_id'"
p46
sS'request'
p47
ccopy_reg
_reconstructor
p48
(cgluon.html
BEAUTIFY
p49
c__builtin__
object
p50
NtRp51
(dp52
S'attributes'
p53
(dp54
sS'components'
p55
(lp56
g48
(cgluon.html
TABLE
p57
g50
NtRp58
(dp59
g53
(dp60
S'level'
p61
I5
ssS'parent'
p62
Nsg55
(lp63
g48
(cgluon.html
TR
p64
g50
NtRp65
(dp66
g53
(dp67
sg62
g58
sg55
(lp68
g48
(cgluon.html
TD
p69
g50
NtRp70
(dp71
g53
(dp72
S'_style'
p73
S'font-weight:bold;'
p74
ssg62
g65
sg55
(lp75
S'ajax'
p76
asbag48
(g69
g50
NtRp77
(dp78
g53
(dp79
S'_valign'
p80
S'top'
p81
ssg62
g65
sg55
(lp82
S':'
asbag48
(g69
g50
NtRp83
(dp84
g53
(dp85
sg62
g65
sg55
(lp86
g48
(g49
g50
NtRp87
(dp88
g53
(dp89
g61
I5
ssg62
g83
sg55
(lp90
S'True'
p91
asbasbasbag48
(g64
g50
NtRp92
(dp93
g53
(dp94
sg62
g58
sg55
(lp95
g48
(g69
g50
NtRp96
(dp97
g53
(dp98
g73
g74
ssg62
g92
sg55
(lp99
S'application'
p100
asbag48
(g69
g50
NtRp101
(dp102
g53
(dp103
g80
g81
ssg62
g92
sg55
(lp104
S':'
asbag48
(g69
g50
NtRp105
(dp106
g53
(dp107
sg62
g92
sg55
(lp108
g48
(g49
g50
NtRp109
(dp110
g53
(dp111
g61
I5
ssg62
g105
sg55
(lp112
S'Casa_de_Apuestas'
p113
asbasbasbag48
(g64
g50
NtRp114
(dp115
g53
(dp116
sg62
g58
sg55
(lp117
g48
(g69
g50
NtRp118
(dp119
g53
(dp120
g73
g74
ssg62
g114
sg55
(lp121
g27
asbag48
(g69
g50
NtRp122
(dp123
g53
(dp124
g80
g81
ssg62
g114
sg55
(lp125
S':'
asbag48
(g69
g50
NtRp126
(dp127
g53
(dp128
sg62
g114
sg55
(lp129
g48
(g49
g50
NtRp130
(dp131
g53
(dp132
g61
I5
ssg62
g126
sg55
(lp133
g48
(g57
g50
NtRp134
(dp135
g53
(dp136
g61
I4
ssg62
Nsg55
(lp137
sbasbasbasbag48
(g64
g50
NtRp138
(dp139
g53
(dp140
sg62
g58
sg55
(lp141
g48
(g69
g50
NtRp142
(dp143
g53
(dp144
g73
g74
ssg62
g138
sg55
(lp145
S'body'
p146
asbag48
(g69
g50
NtRp147
(dp148
g53
(dp149
g80
g81
ssg62
g138
sg55
(lp150
S':'
asbag48
(g69
g50
NtRp151
(dp152
g53
(dp153
sg62
g138
sg55
(lp154
g48
(g49
g50
NtRp155
(dp156
g53
(dp157
g61
I5
ssg62
g151
sg55
(lp158
S"<open file '<fdopen>', mode 'w+b' at 0x0595C020>"
p159
asbasbasbag48
(g64
g50
NtRp160
(dp161
g53
(dp162
sg62
g58
sg55
(lp163
g48
(g69
g50
NtRp164
(dp165
g53
(dp166
g73
g74
ssg62
g160
sg55
(lp167
S'client'
p168
asbag48
(g69
g50
NtRp169
(dp170
g53
(dp171
g80
g81
ssg62
g160
sg55
(lp172
S':'
asbag48
(g69
g50
NtRp173
(dp174
g53
(dp175
sg62
g160
sg55
(lp176
g48
(g49
g50
NtRp177
(dp178
g53
(dp179
g61
I5
ssg62
g173
sg55
(lp180
S'127.0.0.1'
p181
asbasbasbag48
(g64
g50
NtRp182
(dp183
g53
(dp184
sg62
g58
sg55
(lp185
g48
(g69
g50
NtRp186
(dp187
g53
(dp188
g73
g74
ssg62
g182
sg55
(lp189
S'controller'
p190
asbag48
(g69
g50
NtRp191
(dp192
g53
(dp193
g80
g81
ssg62
g182
sg55
(lp194
S':'
asbag48
(g69
g50
NtRp195
(dp196
g53
(dp197
sg62
g182
sg55
(lp198
g48
(g49
g50
NtRp199
(dp200
g53
(dp201
g61
I5
ssg62
g195
sg55
(lp202
S'default'
p203
asbasbasbag48
(g64
g50
NtRp204
(dp205
g53
(dp206
sg62
g58
sg55
(lp207
g48
(g69
g50
NtRp208
(dp209
g53
(dp210
g73
g74
ssg62
g204
sg55
(lp211
S'cookies'
p212
asbag48
(g69
g50
NtRp213
(dp214
g53
(dp215
g80
g81
ssg62
g204
sg55
(lp216
S':'
asbag48
(g69
g50
NtRp217
(dp218
g53
(dp219
sg62
g204
sg55
(lp220
g48
(g49
g50
NtRp221
(dp222
g53
(dp223
g61
I5
ssg62
g217
sg55
(lp224
g48
(g57
g50
NtRp225
(dp226
g53
(dp227
g61
I4
ssg62
Nsg55
(lp228
g48
(g64
g50
NtRp229
(dp230
g53
(dp231
sg62
g225
sg55
(lp232
g48
(g69
g50
NtRp233
(dp234
g53
(dp235
g73
g74
ssg62
g229
sg55
(lp236
S'session_id_admin'
p237
asbag48
(g69
g50
NtRp238
(dp239
g53
(dp240
g80
g81
ssg62
g229
sg55
(lp241
S':'
asbag48
(g69
g50
NtRp242
(dp243
g53
(dp244
sg62
g229
sg55
(lp245
g48
(g49
g50
NtRp246
(dp247
g53
(dp248
g61
I4
ssg62
g242
sg55
(lp249
g48
(g57
g50
NtRp250
(dp251
g53
(dp252
g61
I3
ssg62
Nsg55
(lp253
g48
(g64
g50
NtRp254
(dp255
g53
(dp256
sg62
g250
sg55
(lp257
g48
(g69
g50
NtRp258
(dp259
g53
(dp260
g73
g74
ssg62
g254
sg55
(lp261
S'comment'
p262
asbag48
(g69
g50
NtRp263
(dp264
g53
(dp265
g80
g81
ssg62
g254
sg55
(lp266
S':'
asbag48
(g69
g50
NtRp267
(dp268
g53
(dp269
sg62
g254
sg55
(lp270
g48
(g49
g50
NtRp271
(dp272
g53
(dp273
g61
I3
ssg62
g267
sg55
(lp274
S''
asbasbasbag48
(g64
g50
NtRp275
(dp276
g53
(dp277
sg62
g250
sg55
(lp278
g48
(g69
g50
NtRp279
(dp280
g53
(dp281
g73
g74
ssg62
g275
sg55
(lp282
S'domain'
p283
asbag48
(g69
g50
NtRp284
(dp285
g53
(dp286
g80
g81
ssg62
g275
sg55
(lp287
S':'
asbag48
(g69
g50
NtRp288
(dp289
g53
(dp290
sg62
g275
sg55
(lp291
g48
(g49
g50
NtRp292
(dp293
g53
(dp294
g61
I3
ssg62
g288
sg55
(lp295
S''
asbasbasbag48
(g64
g50
NtRp296
(dp297
g53
(dp298
sg62
g250
sg55
(lp299
g48
(g69
g50
NtRp300
(dp301
g53
(dp302
g73
g74
ssg62
g296
sg55
(lp303
S'expires'
p304
asbag48
(g69
g50
NtRp305
(dp306
g53
(dp307
g80
g81
ssg62
g296
sg55
(lp308
S':'
asbag48
(g69
g50
NtRp309
(dp310
g53
(dp311
sg62
g296
sg55
(lp312
g48
(g49
g50
NtRp313
(dp314
g53
(dp315
g61
I3
ssg62
g309
sg55
(lp316
S''
asbasbasbag48
(g64
g50
NtRp317
(dp318
g53
(dp319
sg62
g250
sg55
(lp320
g48
(g69
g50
NtRp321
(dp322
g53
(dp323
g73
g74
ssg62
g317
sg55
(lp324
S'max-age'
p325
asbag48
(g69
g50
NtRp326
(dp327
g53
(dp328
g80
g81
ssg62
g317
sg55
(lp329
S':'
asbag48
(g69
g50
NtRp330
(dp331
g53
(dp332
sg62
g317
sg55
(lp333
g48
(g49
g50
NtRp334
(dp335
g53
(dp336
g61
I3
ssg62
g330
sg55
(lp337
S''
asbasbasbag48
(g64
g50
NtRp338
(dp339
g53
(dp340
sg62
g250
sg55
(lp341
g48
(g69
g50
NtRp342
(dp343
g53
(dp344
g73
g74
ssg62
g338
sg55
(lp345
S'path'
p346
asbag48
(g69
g50
NtRp347
(dp348
g53
(dp349
g80
g81
ssg62
g338
sg55
(lp350
S':'
asbag48
(g69
g50
NtRp351
(dp352
g53
(dp353
sg62
g338
sg55
(lp354
g48
(g49
g50
NtRp355
(dp356
g53
(dp357
g61
I3
ssg62
g351
sg55
(lp358
S''
asbasbasbag48
(g64
g50
NtRp359
(dp360
g53
(dp361
sg62
g250
sg55
(lp362
g48
(g69
g50
NtRp363
(dp364
g53
(dp365
g73
g74
ssg62
g359
sg55
(lp366
S'secure'
p367
asbag48
(g69
g50
NtRp368
(dp369
g53
(dp370
g80
g81
ssg62
g359
sg55
(lp371
S':'
asbag48
(g69
g50
NtRp372
(dp373
g53
(dp374
sg62
g359
sg55
(lp375
g48
(g49
g50
NtRp376
(dp377
g53
(dp378
g61
I3
ssg62
g372
sg55
(lp379
S''
asbasbasbag48
(g64
g50
NtRp380
(dp381
g53
(dp382
sg62
g250
sg55
(lp383
g48
(g69
g50
NtRp384
(dp385
g53
(dp386
g73
g74
ssg62
g380
sg55
(lp387
S'version'
p388
asbag48
(g69
g50
NtRp389
(dp390
g53
(dp391
g80
g81
ssg62
g380
sg55
(lp392
S':'
asbag48
(g69
g50
NtRp393
(dp394
g53
(dp395
sg62
g380
sg55
(lp396
g48
(g49
g50
NtRp397
(dp398
g53
(dp399
g61
I3
ssg62
g393
sg55
(lp400
S''
asbasbasbasbasbasbasbag48
(g64
g50
NtRp401
(dp402
g53
(dp403
sg62
g225
sg55
(lp404
g48
(g69
g50
NtRp405
(dp406
g53
(dp407
g73
g74
ssg62
g401
sg55
(lp408
S'session_id_casa_de_apuestas'
p409
asbag48
(g69
g50
NtRp410
(dp411
g53
(dp412
g80
g81
ssg62
g401
sg55
(lp413
S':'
asbag48
(g69
g50
NtRp414
(dp415
g53
(dp416
sg62
g401
sg55
(lp417
g48
(g49
g50
NtRp418
(dp419
g53
(dp420
g61
I4
ssg62
g414
sg55
(lp421
g48
(g57
g50
NtRp422
(dp423
g53
(dp424
g61
I3
ssg62
Nsg55
(lp425
g48
(g64
g50
NtRp426
(dp427
g53
(dp428
sg62
g422
sg55
(lp429
g48
(g69
g50
NtRp430
(dp431
g53
(dp432
g73
g74
ssg62
g426
sg55
(lp433
g262
asbag48
(g69
g50
NtRp434
(dp435
g53
(dp436
g80
g81
ssg62
g426
sg55
(lp437
S':'
asbag48
(g69
g50
NtRp438
(dp439
g53
(dp440
sg62
g426
sg55
(lp441
g48
(g49
g50
NtRp442
(dp443
g53
(dp444
g61
I3
ssg62
g438
sg55
(lp445
S''
asbasbasbag48
(g64
g50
NtRp446
(dp447
g53
(dp448
sg62
g422
sg55
(lp449
g48
(g69
g50
NtRp450
(dp451
g53
(dp452
g73
g74
ssg62
g446
sg55
(lp453
g283
asbag48
(g69
g50
NtRp454
(dp455
g53
(dp456
g80
g81
ssg62
g446
sg55
(lp457
S':'
asbag48
(g69
g50
NtRp458
(dp459
g53
(dp460
sg62
g446
sg55
(lp461
g48
(g49
g50
NtRp462
(dp463
g53
(dp464
g61
I3
ssg62
g458
sg55
(lp465
S''
asbasbasbag48
(g64
g50
NtRp466
(dp467
g53
(dp468
sg62
g422
sg55
(lp469
g48
(g69
g50
NtRp470
(dp471
g53
(dp472
g73
g74
ssg62
g466
sg55
(lp473
g304
asbag48
(g69
g50
NtRp474
(dp475
g53
(dp476
g80
g81
ssg62
g466
sg55
(lp477
S':'
asbag48
(g69
g50
NtRp478
(dp479
g53
(dp480
sg62
g466
sg55
(lp481
g48
(g49
g50
NtRp482
(dp483
g53
(dp484
g61
I3
ssg62
g478
sg55
(lp485
S''
asbasbasbag48
(g64
g50
NtRp486
(dp487
g53
(dp488
sg62
g422
sg55
(lp489
g48
(g69
g50
NtRp490
(dp491
g53
(dp492
g73
g74
ssg62
g486
sg55
(lp493
g325
asbag48
(g69
g50
NtRp494
(dp495
g53
(dp496
g80
g81
ssg62
g486
sg55
(lp497
S':'
asbag48
(g69
g50
NtRp498
(dp499
g53
(dp500
sg62
g486
sg55
(lp501
g48
(g49
g50
NtRp502
(dp503
g53
(dp504
g61
I3
ssg62
g498
sg55
(lp505
S''
asbasbasbag48
(g64
g50
NtRp506
(dp507
g53
(dp508
sg62
g422
sg55
(lp509
g48
(g69
g50
NtRp510
(dp511
g53
(dp512
g73
g74
ssg62
g506
sg55
(lp513
g346
asbag48
(g69
g50
NtRp514
(dp515
g53
(dp516
g80
g81
ssg62
g506
sg55
(lp517
S':'
asbag48
(g69
g50
NtRp518
(dp519
g53
(dp520
sg62
g506
sg55
(lp521
g48
(g49
g50
NtRp522
(dp523
g53
(dp524
g61
I3
ssg62
g518
sg55
(lp525
S''
asbasbasbag48
(g64
g50
NtRp526
(dp527
g53
(dp528
sg62
g422
sg55
(lp529
g48
(g69
g50
NtRp530
(dp531
g53
(dp532
g73
g74
ssg62
g526
sg55
(lp533
g367
asbag48
(g69
g50
NtRp534
(dp535
g53
(dp536
g80
g81
ssg62
g526
sg55
(lp537
S':'
asbag48
(g69
g50
NtRp538
(dp539
g53
(dp540
sg62
g526
sg55
(lp541
g48
(g49
g50
NtRp542
(dp543
g53
(dp544
g61
I3
ssg62
g538
sg55
(lp545
S''
asbasbasbag48
(g64
g50
NtRp546
(dp547
g53
(dp548
sg62
g422
sg55
(lp549
g48
(g69
g50
NtRp550
(dp551
g53
(dp552
g73
g74
ssg62
g546
sg55
(lp553
g388
asbag48
(g69
g50
NtRp554
(dp555
g53
(dp556
g80
g81
ssg62
g546
sg55
(lp557
S':'
asbag48
(g69
g50
NtRp558
(dp559
g53
(dp560
sg62
g546
sg55
(lp561
g48
(g49
g50
NtRp562
(dp563
g53
(dp564
g61
I3
ssg62
g558
sg55
(lp565
S''
asbasbasbasbasbasbasbag48
(g64
g50
NtRp566
(dp567
g53
(dp568
sg62
g225
sg55
(lp569
g48
(g69
g50
NtRp570
(dp571
g53
(dp572
g73
g74
ssg62
g566
sg55
(lp573
S'session_id_welcome'
p574
asbag48
(g69
g50
NtRp575
(dp576
g53
(dp577
g80
g81
ssg62
g566
sg55
(lp578
S':'
asbag48
(g69
g50
NtRp579
(dp580
g53
(dp581
sg62
g566
sg55
(lp582
g48
(g49
g50
NtRp583
(dp584
g53
(dp585
g61
I4
ssg62
g579
sg55
(lp586
g48
(g57
g50
NtRp587
(dp588
g53
(dp589
g61
I3
ssg62
Nsg55
(lp590
g48
(g64
g50
NtRp591
(dp592
g53
(dp593
sg62
g587
sg55
(lp594
g48
(g69
g50
NtRp595
(dp596
g53
(dp597
g73
g74
ssg62
g591
sg55
(lp598
g262
asbag48
(g69
g50
NtRp599
(dp600
g53
(dp601
g80
g81
ssg62
g591
sg55
(lp602
S':'
asbag48
(g69
g50
NtRp603
(dp604
g53
(dp605
sg62
g591
sg55
(lp606
g48
(g49
g50
NtRp607
(dp608
g53
(dp609
g61
I3
ssg62
g603
sg55
(lp610
S''
asbasbasbag48
(g64
g50
NtRp611
(dp612
g53
(dp613
sg62
g587
sg55
(lp614
g48
(g69
g50
NtRp615
(dp616
g53
(dp617
g73
g74
ssg62
g611
sg55
(lp618
g283
asbag48
(g69
g50
NtRp619
(dp620
g53
(dp621
g80
g81
ssg62
g611
sg55
(lp622
S':'
asbag48
(g69
g50
NtRp623
(dp624
g53
(dp625
sg62
g611
sg55
(lp626
g48
(g49
g50
NtRp627
(dp628
g53
(dp629
g61
I3
ssg62
g623
sg55
(lp630
S''
asbasbasbag48
(g64
g50
NtRp631
(dp632
g53
(dp633
sg62
g587
sg55
(lp634
g48
(g69
g50
NtRp635
(dp636
g53
(dp637
g73
g74
ssg62
g631
sg55
(lp638
g304
asbag48
(g69
g50
NtRp639
(dp640
g53
(dp641
g80
g81
ssg62
g631
sg55
(lp642
S':'
asbag48
(g69
g50
NtRp643
(dp644
g53
(dp645
sg62
g631
sg55
(lp646
g48
(g49
g50
NtRp647
(dp648
g53
(dp649
g61
I3
ssg62
g643
sg55
(lp650
S''
asbasbasbag48
(g64
g50
NtRp651
(dp652
g53
(dp653
sg62
g587
sg55
(lp654
g48
(g69
g50
NtRp655
(dp656
g53
(dp657
g73
g74
ssg62
g651
sg55
(lp658
g325
asbag48
(g69
g50
NtRp659
(dp660
g53
(dp661
g80
g81
ssg62
g651
sg55
(lp662
S':'
asbag48
(g69
g50
NtRp663
(dp664
g53
(dp665
sg62
g651
sg55
(lp666
g48
(g49
g50
NtRp667
(dp668
g53
(dp669
g61
I3
ssg62
g663
sg55
(lp670
S''
asbasbasbag48
(g64
g50
NtRp671
(dp672
g53
(dp673
sg62
g587
sg55
(lp674
g48
(g69
g50
NtRp675
(dp676
g53
(dp677
g73
g74
ssg62
g671
sg55
(lp678
g346
asbag48
(g69
g50
NtRp679
(dp680
g53
(dp681
g80
g81
ssg62
g671
sg55
(lp682
S':'
asbag48
(g69
g50
NtRp683
(dp684
g53
(dp685
sg62
g671
sg55
(lp686
g48
(g49
g50
NtRp687
(dp688
g53
(dp689
g61
I3
ssg62
g683
sg55
(lp690
S''
asbasbasbag48
(g64
g50
NtRp691
(dp692
g53
(dp693
sg62
g587
sg55
(lp694
g48
(g69
g50
NtRp695
(dp696
g53
(dp697
g73
g74
ssg62
g691
sg55
(lp698
g367
asbag48
(g69
g50
NtRp699
(dp700
g53
(dp701
g80
g81
ssg62
g691
sg55
(lp702
S':'
asbag48
(g69
g50
NtRp703
(dp704
g53
(dp705
sg62
g691
sg55
(lp706
g48
(g49
g50
NtRp707
(dp708
g53
(dp709
g61
I3
ssg62
g703
sg55
(lp710
S''
asbasbasbag48
(g64
g50
NtRp711
(dp712
g53
(dp713
sg62
g587
sg55
(lp714
g48
(g69
g50
NtRp715
(dp716
g53
(dp717
g73
g74
ssg62
g711
sg55
(lp718
g388
asbag48
(g69
g50
NtRp719
(dp720
g53
(dp721
g80
g81
ssg62
g711
sg55
(lp722
S':'
asbag48
(g69
g50
NtRp723
(dp724
g53
(dp725
sg62
g711
sg55
(lp726
g48
(g49
g50
NtRp727
(dp728
g53
(dp729
g61
I3
ssg62
g723
sg55
(lp730
S''
asbasbasbasbasbasbasbasbasbasbasbag48
(g64
g50
NtRp731
(dp732
g53
(dp733
sg62
g58
sg55
(lp734
g48
(g69
g50
NtRp735
(dp736
g53
(dp737
g73
g74
ssg62
g731
sg55
(lp738
S'env'
p739
asbag48
(g69
g50
NtRp740
(dp741
g53
(dp742
g80
g81
ssg62
g731
sg55
(lp743
S':'
asbag48
(g69
g50
NtRp744
(dp745
g53
(dp746
sg62
g731
sg55
(lp747
g48
(g49
g50
NtRp748
(dp749
g53
(dp750
g61
I5
ssg62
g744
sg55
(lp751
g48
(g57
g50
NtRp752
(dp753
g53
(dp754
g61
I4
ssg62
Nsg55
(lp755
g48
(g64
g50
NtRp756
(dp757
g53
(dp758
sg62
g752
sg55
(lp759
g48
(g69
g50
NtRp760
(dp761
g53
(dp762
g73
g74
ssg62
g756
sg55
(lp763
S'app_folders'
p764
asbag48
(g69
g50
NtRp765
(dp766
g53
(dp767
g80
g81
ssg62
g756
sg55
(lp768
S':'
asbag48
(g69
g50
NtRp769
(dp770
g53
(dp771
sg62
g756
sg55
(lp772
g48
(g49
g50
NtRp773
(dp774
g53
(dp775
g61
I4
ssg62
g769
sg55
(lp776
S"set(['C:\\\\Python32\\\\web2py_win\\\\web2py\\\\applications\\\\admin\\\\', 'C:\\\\Python32\\\\web2py_win\\\\web2py\\\\applications\\\\welcome\\\\', 'C:\\\\Python32\\\\web2py_win\\\\web2py\\\\applications\\\\Casa_de_Apuestas\\\\'])"
p777
asbasbasbag48
(g64
g50
NtRp778
(dp779
g53
(dp780
sg62
g752
sg55
(lp781
g48
(g69
g50
NtRp782
(dp783
g53
(dp784
g73
g74
ssg62
g778
sg55
(lp785
S'applications_parent'
p786
asbag48
(g69
g50
NtRp787
(dp788
g53
(dp789
g80
g81
ssg62
g778
sg55
(lp790
S':'
asbag48
(g69
g50
NtRp791
(dp792
g53
(dp793
sg62
g778
sg55
(lp794
g48
(g49
g50
NtRp795
(dp796
g53
(dp797
g61
I4
ssg62
g791
sg55
(lp798
S'C:\\Python32\\web2py_win\\web2py'
p799
asbasbasbag48
(g64
g50
NtRp800
(dp801
g53
(dp802
sg62
g752
sg55
(lp803
g48
(g69
g50
NtRp804
(dp805
g53
(dp806
g73
g74
ssg62
g800
sg55
(lp807
S'cmd_args'
p808
asbag48
(g69
g50
NtRp809
(dp810
g53
(dp811
g80
g81
ssg62
g800
sg55
(lp812
S':'
asbag48
(g69
g50
NtRp813
(dp814
g53
(dp815
sg62
g800
sg55
(lp816
g48
(g49
g50
NtRp817
(dp818
g53
(dp819
g61
I4
ssg62
g813
sg55
(lp820
g48
(g57
g50
NtRp821
(dp822
g53
(dp823
g61
I3
ssg62
Nsg55
(lp824
sbasbasbasbag48
(g64
g50
NtRp825
(dp826
g53
(dp827
sg62
g752
sg55
(lp828
g48
(g69
g50
NtRp829
(dp830
g53
(dp831
g73
g74
ssg62
g825
sg55
(lp832
S'cmd_options'
p833
asbag48
(g69
g50
NtRp834
(dp835
g53
(dp836
g80
g81
ssg62
g825
sg55
(lp837
S':'
asbag48
(g69
g50
NtRp838
(dp839
g53
(dp840
sg62
g825
sg55
(lp841
g48
(g49
g50
NtRp842
(dp843
g53
(dp844
g61
I4
ssg62
g838
sg55
(lp845
S"<Values at 0x2645fa8: {'verbose': False, 'ip': '127.0.0.1', 'shutdown_timeout': 5, 'taskbar': False, 'nocron': False, 'pid_filename': 'httpserver.pid', 'maxthreads': None, 'softcron': False, 'server_name': 'hector-vaio', 'bpython': False, 'nogui': False, 'port': 8000, 'extcron': False, 'debuglevel': 30, 'test': None, 'folder': 'C:\\\\Python32\\\\web2py_win\\\\web2py', 'config': '', 'import_models': False, 'winservice': '', 'shell': None, 'run': '', 'log_filename': 'httpserver.log', 'args': [''], 'ssl_ca_certificate': None, 'scheduler': None, 'profiler_filename': None, 'ssl_private_key': '', 'password': '<ask>', 'request_queue_size': 5, 'ssl_certificate': '', 'cronjob': False, 'plain': False, 'quiet': False, 'interfaces': None, 'minthreads': None, 'timeout': 10, 'numthreads': None, 'nobanner': False}>"
p846
asbasbasbag48
(g64
g50
NtRp847
(dp848
g53
(dp849
sg62
g752
sg55
(lp850
g48
(g69
g50
NtRp851
(dp852
g53
(dp853
g73
g74
ssg62
g847
sg55
(lp854
S'content_length'
p855
asbag48
(g69
g50
NtRp856
(dp857
g53
(dp858
g80
g81
ssg62
g847
sg55
(lp859
S':'
asbag48
(g69
g50
NtRp860
(dp861
g53
(dp862
sg62
g847
sg55
(lp863
g48
(g49
g50
NtRp864
(dp865
g53
(dp866
g61
I4
ssg62
g860
sg55
(lp867
S'12'
p868
asbasbasbag48
(g64
g50
NtRp869
(dp870
g53
(dp871
sg62
g752
sg55
(lp872
g48
(g69
g50
NtRp873
(dp874
g53
(dp875
g73
g74
ssg62
g869
sg55
(lp876
S'content_type'
p877
asbag48
(g69
g50
NtRp878
(dp879
g53
(dp880
g80
g81
ssg62
g869
sg55
(lp881
S':'
asbag48
(g69
g50
NtRp882
(dp883
g53
(dp884
sg62
g869
sg55
(lp885
g48
(g49
g50
NtRp886
(dp887
g53
(dp888
g61
I4
ssg62
g882
sg55
(lp889
S'application/x-www-form-urlencoded'
p890
asbasbasbag48
(g64
g50
NtRp891
(dp892
g53
(dp893
sg62
g752
sg55
(lp894
g48
(g69
g50
NtRp895
(dp896
g53
(dp897
g73
g74
ssg62
g891
sg55
(lp898
S'db_sessions'
p899
asbag48
(g69
g50
NtRp900
(dp901
g53
(dp902
g80
g81
ssg62
g891
sg55
(lp903
S':'
asbag48
(g69
g50
NtRp904
(dp905
g53
(dp906
sg62
g891
sg55
(lp907
g48
(g49
g50
NtRp908
(dp909
g53
(dp910
g61
I4
ssg62
g904
sg55
(lp911
S'set([])'
p912
asbasbasbag48
(g64
g50
NtRp913
(dp914
g53
(dp915
sg62
g752
sg55
(lp916
g48
(g69
g50
NtRp917
(dp918
g53
(dp919
g73
g74
ssg62
g913
sg55
(lp920
S'debugging'
p921
asbag48
(g69
g50
NtRp922
(dp923
g53
(dp924
g80
g81
ssg62
g913
sg55
(lp925
S':'
asbag48
(g69
g50
NtRp926
(dp927
g53
(dp928
sg62
g913
sg55
(lp929
g48
(g49
g50
NtRp930
(dp931
g53
(dp932
g61
I4
ssg62
g926
sg55
(lp933
S'False'
p934
asbasbasbag48
(g64
g50
NtRp935
(dp936
g53
(dp937
sg62
g752
sg55
(lp938
g48
(g69
g50
NtRp939
(dp940
g53
(dp941
g73
g74
ssg62
g935
sg55
(lp942
S'gluon_parent'
p943
asbag48
(g69
g50
NtRp944
(dp945
g53
(dp946
g80
g81
ssg62
g935
sg55
(lp947
S':'
asbag48
(g69
g50
NtRp948
(dp949
g53
(dp950
sg62
g935
sg55
(lp951
g48
(g49
g50
NtRp952
(dp953
g53
(dp954
g61
I4
ssg62
g948
sg55
(lp955
S'C:\\Python32\\web2py_win\\web2py'
p956
asbasbasbag48
(g64
g50
NtRp957
(dp958
g53
(dp959
sg62
g752
sg55
(lp960
g48
(g69
g50
NtRp961
(dp962
g53
(dp963
g73
g74
ssg62
g957
sg55
(lp964
S'http_accept'
p965
asbag48
(g69
g50
NtRp966
(dp967
g53
(dp968
g80
g81
ssg62
g957
sg55
(lp969
S':'
asbag48
(g69
g50
NtRp970
(dp971
g53
(dp972
sg62
g957
sg55
(lp973
g48
(g49
g50
NtRp974
(dp975
g53
(dp976
g61
I4
ssg62
g970
sg55
(lp977
S'*/*'
p978
asbasbasbag48
(g64
g50
NtRp979
(dp980
g53
(dp981
sg62
g752
sg55
(lp982
g48
(g69
g50
NtRp983
(dp984
g53
(dp985
g73
g74
ssg62
g979
sg55
(lp986
S'http_accept_charset'
p987
asbag48
(g69
g50
NtRp988
(dp989
g53
(dp990
g80
g81
ssg62
g979
sg55
(lp991
S':'
asbag48
(g69
g50
NtRp992
(dp993
g53
(dp994
sg62
g979
sg55
(lp995
g48
(g49
g50
NtRp996
(dp997
g53
(dp998
g61
I4
ssg62
g992
sg55
(lp999
S'ISO-8859-1,utf-8;q=0.7,*;q=0.3'
p1000
asbasbasbag48
(g64
g50
NtRp1001
(dp1002
g53
(dp1003
sg62
g752
sg55
(lp1004
g48
(g69
g50
NtRp1005
(dp1006
g53
(dp1007
g73
g74
ssg62
g1001
sg55
(lp1008
S'http_accept_encoding'
p1009
asbag48
(g69
g50
NtRp1010
(dp1011
g53
(dp1012
g80
g81
ssg62
g1001
sg55
(lp1013
S':'
asbag48
(g69
g50
NtRp1014
(dp1015
g53
(dp1016
sg62
g1001
sg55
(lp1017
g48
(g49
g50
NtRp1018
(dp1019
g53
(dp1020
g61
I4
ssg62
g1014
sg55
(lp1021
S'gzip,deflate,sdch'
p1022
asbasbasbag48
(g64
g50
NtRp1023
(dp1024
g53
(dp1025
sg62
g752
sg55
(lp1026
g48
(g69
g50
NtRp1027
(dp1028
g53
(dp1029
g73
g74
ssg62
g1023
sg55
(lp1030
S'http_accept_language'
p1031
asbag48
(g69
g50
NtRp1032
(dp1033
g53
(dp1034
g80
g81
ssg62
g1023
sg55
(lp1035
S':'
asbag48
(g69
g50
NtRp1036
(dp1037
g53
(dp1038
sg62
g1023
sg55
(lp1039
g48
(g49
g50
NtRp1040
(dp1041
g53
(dp1042
g61
I4
ssg62
g1036
sg55
(lp1043
S'en-US,en;q=0.8'
p1044
asbasbasbag48
(g64
g50
NtRp1045
(dp1046
g53
(dp1047
sg62
g752
sg55
(lp1048
g48
(g69
g50
NtRp1049
(dp1050
g53
(dp1051
g73
g74
ssg62
g1045
sg55
(lp1052
S'http_connection'
p1053
asbag48
(g69
g50
NtRp1054
(dp1055
g53
(dp1056
g80
g81
ssg62
g1045
sg55
(lp1057
S':'
asbag48
(g69
g50
NtRp1058
(dp1059
g53
(dp1060
sg62
g1045
sg55
(lp1061
g48
(g49
g50
NtRp1062
(dp1063
g53
(dp1064
g61
I4
ssg62
g1058
sg55
(lp1065
S'keep-alive'
p1066
asbasbasbag48
(g64
g50
NtRp1067
(dp1068
g53
(dp1069
sg62
g752
sg55
(lp1070
g48
(g69
g50
NtRp1071
(dp1072
g53
(dp1073
g73
g74
ssg62
g1067
sg55
(lp1074
S'http_content_length'
p1075
asbag48
(g69
g50
NtRp1076
(dp1077
g53
(dp1078
g80
g81
ssg62
g1067
sg55
(lp1079
S':'
asbag48
(g69
g50
NtRp1080
(dp1081
g53
(dp1082
sg62
g1067
sg55
(lp1083
g48
(g49
g50
NtRp1084
(dp1085
g53
(dp1086
g61
I4
ssg62
g1080
sg55
(lp1087
g868
asbasbasbag48
(g64
g50
NtRp1088
(dp1089
g53
(dp1090
sg62
g752
sg55
(lp1091
g48
(g69
g50
NtRp1092
(dp1093
g53
(dp1094
g73
g74
ssg62
g1088
sg55
(lp1095
S'http_content_type'
p1096
asbag48
(g69
g50
NtRp1097
(dp1098
g53
(dp1099
g80
g81
ssg62
g1088
sg55
(lp1100
S':'
asbag48
(g69
g50
NtRp1101
(dp1102
g53
(dp1103
sg62
g1088
sg55
(lp1104
g48
(g49
g50
NtRp1105
(dp1106
g53
(dp1107
g61
I4
ssg62
g1101
sg55
(lp1108
g890
asbasbasbag48
(g64
g50
NtRp1109
(dp1110
g53
(dp1111
sg62
g752
sg55
(lp1112
g48
(g69
g50
NtRp1113
(dp1114
g53
(dp1115
g73
g74
ssg62
g1109
sg55
(lp1116
S'http_cookie'
p1117
asbag48
(g69
g50
NtRp1118
(dp1119
g53
(dp1120
g80
g81
ssg62
g1109
sg55
(lp1121
S':'
asbag48
(g69
g50
NtRp1122
(dp1123
g53
(dp1124
sg62
g1109
sg55
(lp1125
g48
(g49
g50
NtRp1126
(dp1127
g53
(dp1128
g61
I4
ssg62
g1122
sg55
(lp1129
S'session_id_welcome=127.0.0.1-671e80ad-e8dc-47cf-a377-c16f9ab5092a; session_id_admin=127.0.0.1-c85da381-e43b-47d7-bf48-ee877406b52c; session_id_casa_de_apuestas=127.0.0.1-65396f84-b88a-420e-b156-5296560680a0'
p1130
asbasbasbag48
(g64
g50
NtRp1131
(dp1132
g53
(dp1133
sg62
g752
sg55
(lp1134
g48
(g69
g50
NtRp1135
(dp1136
g53
(dp1137
g73
g74
ssg62
g1131
sg55
(lp1138
S'http_host'
p1139
asbag48
(g69
g50
NtRp1140
(dp1141
g53
(dp1142
g80
g81
ssg62
g1131
sg55
(lp1143
S':'
asbag48
(g69
g50
NtRp1144
(dp1145
g53
(dp1146
sg62
g1131
sg55
(lp1147
g48
(g49
g50
NtRp1148
(dp1149
g53
(dp1150
g61
I4
ssg62
g1144
sg55
(lp1151
S'127.0.0.1:8000'
p1152
asbasbasbag48
(g64
g50
NtRp1153
(dp1154
g53
(dp1155
sg62
g752
sg55
(lp1156
g48
(g69
g50
NtRp1157
(dp1158
g53
(dp1159
g73
g74
ssg62
g1153
sg55
(lp1160
S'http_origin'
p1161
asbag48
(g69
g50
NtRp1162
(dp1163
g53
(dp1164
g80
g81
ssg62
g1153
sg55
(lp1165
S':'
asbag48
(g69
g50
NtRp1166
(dp1167
g53
(dp1168
sg62
g1153
sg55
(lp1169
g48
(g49
g50
NtRp1170
(dp1171
g53
(dp1172
g61
I4
ssg62
g1166
sg55
(lp1173
S'http://127.0.0.1:8000'
p1174
asbasbasbag48
(g64
g50
NtRp1175
(dp1176
g53
(dp1177
sg62
g752
sg55
(lp1178
g48
(g69
g50
NtRp1179
(dp1180
g53
(dp1181
g73
g74
ssg62
g1175
sg55
(lp1182
S'http_referer'
p1183
asbag48
(g69
g50
NtRp1184
(dp1185
g53
(dp1186
g80
g81
ssg62
g1175
sg55
(lp1187
S':'
asbag48
(g69
g50
NtRp1188
(dp1189
g53
(dp1190
sg62
g1175
sg55
(lp1191
g48
(g49
g50
NtRp1192
(dp1193
g53
(dp1194
g61
I4
ssg62
g1188
sg55
(lp1195
S'http://127.0.0.1:8000/Casa_de_Apuestas/default/crearEvento'
p1196
asbasbasbag48
(g64
g50
NtRp1197
(dp1198
g53
(dp1199
sg62
g752
sg55
(lp1200
g48
(g69
g50
NtRp1201
(dp1202
g53
(dp1203
g73
g74
ssg62
g1197
sg55
(lp1204
S'http_user_agent'
p1205
asbag48
(g69
g50
NtRp1206
(dp1207
g53
(dp1208
g80
g81
ssg62
g1197
sg55
(lp1209
S':'
asbag48
(g69
g50
NtRp1210
(dp1211
g53
(dp1212
sg62
g1197
sg55
(lp1213
g48
(g49
g50
NtRp1214
(dp1215
g53
(dp1216
g61
I4
ssg62
g1210
sg55
(lp1217
S'Mozilla/5.0 (Windows NT 6.1) AppleWebKit/535.7 (KHTML, like Gecko) Chrome/16.0.912.63 Safari/535.7'
p1218
asbasbasbag48
(g64
g50
NtRp1219
(dp1220
g53
(dp1221
sg62
g752
sg55
(lp1222
g48
(g69
g50
NtRp1223
(dp1224
g53
(dp1225
g73
g74
ssg62
g1219
sg55
(lp1226
S'http_x_requested_with'
p1227
asbag48
(g69
g50
NtRp1228
(dp1229
g53
(dp1230
g80
g81
ssg62
g1219
sg55
(lp1231
S':'
asbag48
(g69
g50
NtRp1232
(dp1233
g53
(dp1234
sg62
g1219
sg55
(lp1235
g48
(g49
g50
NtRp1236
(dp1237
g53
(dp1238
g61
I4
ssg62
g1232
sg55
(lp1239
S'XMLHttpRequest'
p1240
asbasbasbag48
(g64
g50
NtRp1241
(dp1242
g53
(dp1243
sg62
g752
sg55
(lp1244
g48
(g69
g50
NtRp1245
(dp1246
g53
(dp1247
g73
g74
ssg62
g1241
sg55
(lp1248
S'is_jython'
p1249
asbag48
(g69
g50
NtRp1250
(dp1251
g53
(dp1252
g80
g81
ssg62
g1241
sg55
(lp1253
S':'
asbag48
(g69
g50
NtRp1254
(dp1255
g53
(dp1256
sg62
g1241
sg55
(lp1257
g48
(g49
g50
NtRp1258
(dp1259
g53
(dp1260
g61
I4
ssg62
g1254
sg55
(lp1261
g934
asbasbasbag48
(g64
g50
NtRp1262
(dp1263
g53
(dp1264
sg62
g752
sg55
(lp1265
g48
(g69
g50
NtRp1266
(dp1267
g53
(dp1268
g73
g74
ssg62
g1262
sg55
(lp1269
S'path_info'
p1270
asbag48
(g69
g50
NtRp1271
(dp1272
g53
(dp1273
g80
g81
ssg62
g1262
sg55
(lp1274
S':'
asbag48
(g69
g50
NtRp1275
(dp1276
g53
(dp1277
sg62
g1262
sg55
(lp1278
g48
(g49
g50
NtRp1279
(dp1280
g53
(dp1281
g61
I4
ssg62
g1275
sg55
(lp1282
S'/Casa_de_Apuestas/default/obtenerCategoria'
p1283
asbasbasbag48
(g64
g50
NtRp1284
(dp1285
g53
(dp1286
sg62
g752
sg55
(lp1287
g48
(g69
g50
NtRp1288
(dp1289
g53
(dp1290
g73
g74
ssg62
g1284
sg55
(lp1291
S'query_string'
p1292
asbag48
(g69
g50
NtRp1293
(dp1294
g53
(dp1295
g80
g81
ssg62
g1284
sg55
(lp1296
S':'
asbag48
(g69
g50
NtRp1297
(dp1298
g53
(dp1299
sg62
g1284
sg55
(lp1300
g48
(g49
g50
NtRp1301
(dp1302
g53
(dp1303
g61
I4
ssg62
g1297
sg55
(lp1304
S''
asbasbasbag48
(g64
g50
NtRp1305
(dp1306
g53
(dp1307
sg62
g752
sg55
(lp1308
g48
(g69
g50
NtRp1309
(dp1310
g53
(dp1311
g73
g74
ssg62
g1305
sg55
(lp1312
S'remote_addr'
p1313
asbag48
(g69
g50
NtRp1314
(dp1315
g53
(dp1316
g80
g81
ssg62
g1305
sg55
(lp1317
S':'
asbag48
(g69
g50
NtRp1318
(dp1319
g53
(dp1320
sg62
g1305
sg55
(lp1321
g48
(g49
g50
NtRp1322
(dp1323
g53
(dp1324
g61
I4
ssg62
g1318
sg55
(lp1325
g181
asbasbasbag48
(g64
g50
NtRp1326
(dp1327
g53
(dp1328
sg62
g752
sg55
(lp1329
g48
(g69
g50
NtRp1330
(dp1331
g53
(dp1332
g73
g74
ssg62
g1326
sg55
(lp1333
S'remote_port'
p1334
asbag48
(g69
g50
NtRp1335
(dp1336
g53
(dp1337
g80
g81
ssg62
g1326
sg55
(lp1338
S':'
asbag48
(g69
g50
NtRp1339
(dp1340
g53
(dp1341
sg62
g1326
sg55
(lp1342
g48
(g49
g50
NtRp1343
(dp1344
g53
(dp1345
g61
I4
ssg62
g1339
sg55
(lp1346
S'54171'
p1347
asbasbasbag48
(g64
g50
NtRp1348
(dp1349
g53
(dp1350
sg62
g752
sg55
(lp1351
g48
(g69
g50
NtRp1352
(dp1353
g53
(dp1354
g73
g74
ssg62
g1348
sg55
(lp1355
S'request_method'
p1356
asbag48
(g69
g50
NtRp1357
(dp1358
g53
(dp1359
g80
g81
ssg62
g1348
sg55
(lp1360
S':'
asbag48
(g69
g50
NtRp1361
(dp1362
g53
(dp1363
sg62
g1348
sg55
(lp1364
g48
(g49
g50
NtRp1365
(dp1366
g53
(dp1367
g61
I4
ssg62
g1361
sg55
(lp1368
S'POST'
p1369
asbasbasbag48
(g64
g50
NtRp1370
(dp1371
g53
(dp1372
sg62
g752
sg55
(lp1373
g48
(g69
g50
NtRp1374
(dp1375
g53
(dp1376
g73
g74
ssg62
g1370
sg55
(lp1377
S'script_name'
p1378
asbag48
(g69
g50
NtRp1379
(dp1380
g53
(dp1381
g80
g81
ssg62
g1370
sg55
(lp1382
S':'
asbag48
(g69
g50
NtRp1383
(dp1384
g53
(dp1385
sg62
g1370
sg55
(lp1386
g48
(g49
g50
NtRp1387
(dp1388
g53
(dp1389
g61
I4
ssg62
g1383
sg55
(lp1390
S''
asbasbasbag48
(g64
g50
NtRp1391
(dp1392
g53
(dp1393
sg62
g752
sg55
(lp1394
g48
(g69
g50
NtRp1395
(dp1396
g53
(dp1397
g73
g74
ssg62
g1391
sg55
(lp1398
S'server_name'
p1399
asbag48
(g69
g50
NtRp1400
(dp1401
g53
(dp1402
g80
g81
ssg62
g1391
sg55
(lp1403
S':'
asbag48
(g69
g50
NtRp1404
(dp1405
g53
(dp1406
sg62
g1391
sg55
(lp1407
g48
(g49
g50
NtRp1408
(dp1409
g53
(dp1410
g61
I4
ssg62
g1404
sg55
(lp1411
S'hector-vaio'
p1412
asbasbasbag48
(g64
g50
NtRp1413
(dp1414
g53
(dp1415
sg62
g752
sg55
(lp1416
g48
(g69
g50
NtRp1417
(dp1418
g53
(dp1419
g73
g74
ssg62
g1413
sg55
(lp1420
S'server_port'
p1421
asbag48
(g69
g50
NtRp1422
(dp1423
g53
(dp1424
g80
g81
ssg62
g1413
sg55
(lp1425
S':'
asbag48
(g69
g50
NtRp1426
(dp1427
g53
(dp1428
sg62
g1413
sg55
(lp1429
g48
(g49
g50
NtRp1430
(dp1431
g53
(dp1432
g61
I4
ssg62
g1426
sg55
(lp1433
S'8000'
p1434
asbasbasbag48
(g64
g50
NtRp1435
(dp1436
g53
(dp1437
sg62
g752
sg55
(lp1438
g48
(g69
g50
NtRp1439
(dp1440
g53
(dp1441
g73
g74
ssg62
g1435
sg55
(lp1442
S'server_protocol'
p1443
asbag48
(g69
g50
NtRp1444
(dp1445
g53
(dp1446
g80
g81
ssg62
g1435
sg55
(lp1447
S':'
asbag48
(g69
g50
NtRp1448
(dp1449
g53
(dp1450
sg62
g1435
sg55
(lp1451
g48
(g49
g50
NtRp1452
(dp1453
g53
(dp1454
g61
I4
ssg62
g1448
sg55
(lp1455
S'HTTP/1.1'
p1456
asbasbasbag48
(g64
g50
NtRp1457
(dp1458
g53
(dp1459
sg62
g752
sg55
(lp1460
g48
(g69
g50
NtRp1461
(dp1462
g53
(dp1463
g73
g74
ssg62
g1457
sg55
(lp1464
S'server_software'
p1465
asbag48
(g69
g50
NtRp1466
(dp1467
g53
(dp1468
g80
g81
ssg62
g1457
sg55
(lp1469
S':'
asbag48
(g69
g50
NtRp1470
(dp1471
g53
(dp1472
sg62
g1457
sg55
(lp1473
g48
(g49
g50
NtRp1474
(dp1475
g53
(dp1476
g61
I4
ssg62
g1470
sg55
(lp1477
S'Rocket 1.2.4'
p1478
asbasbasbag48
(g64
g50
NtRp1479
(dp1480
g53
(dp1481
sg62
g752
sg55
(lp1482
g48
(g69
g50
NtRp1483
(dp1484
g53
(dp1485
g73
g74
ssg62
g1479
sg55
(lp1486
S'web2py_crontype'
p1487
asbag48
(g69
g50
NtRp1488
(dp1489
g53
(dp1490
g80
g81
ssg62
g1479
sg55
(lp1491
S':'
asbag48
(g69
g50
NtRp1492
(dp1493
g53
(dp1494
sg62
g1479
sg55
(lp1495
g48
(g49
g50
NtRp1496
(dp1497
g53
(dp1498
g61
I4
ssg62
g1492
sg55
(lp1499
S'hard'
p1500
asbasbasbag48
(g64
g50
NtRp1501
(dp1502
g53
(dp1503
sg62
g752
sg55
(lp1504
g48
(g69
g50
NtRp1505
(dp1506
g53
(dp1507
g73
g74
ssg62
g1501
sg55
(lp1508
S'web2py_path'
p1509
asbag48
(g69
g50
NtRp1510
(dp1511
g53
(dp1512
g80
g81
ssg62
g1501
sg55
(lp1513
S':'
asbag48
(g69
g50
NtRp1514
(dp1515
g53
(dp1516
sg62
g1501
sg55
(lp1517
g48
(g49
g50
NtRp1518
(dp1519
g53
(dp1520
g61
I4
ssg62
g1514
sg55
(lp1521
g799
asbasbasbag48
(g64
g50
NtRp1522
(dp1523
g53
(dp1524
sg62
g752
sg55
(lp1525
g48
(g69
g50
NtRp1526
(dp1527
g53
(dp1528
g73
g74
ssg62
g1522
sg55
(lp1529
S'web2py_version'
p1530
asbag48
(g69
g50
NtRp1531
(dp1532
g53
(dp1533
g80
g81
ssg62
g1522
sg55
(lp1534
S':'
asbag48
(g69
g50
NtRp1535
(dp1536
g53
(dp1537
sg62
g1522
sg55
(lp1538
g48
(g49
g50
NtRp1539
(dp1540
g53
(dp1541
g61
I4
ssg62
g1535
sg55
(lp1542
g48
(g57
g50
NtRp1543
(dp1544
g53
(dp1545
g61
I3
ssg62
Nsg55
(lp1546
g48
(g64
g50
NtRp1547
(dp1548
g53
(dp1549
sg62
g1543
sg55
(lp1550
g48
(g69
g50
NtRp1551
(dp1552
g53
(dp1553
sg62
g1547
sg55
(lp1554
g48
(g49
g50
NtRp1555
(dp1556
g53
(dp1557
g61
I3
ssg62
g1551
sg55
(lp1558
S'1'
asbasbasbag48
(g64
g50
NtRp1559
(dp1560
g53
(dp1561
sg62
g1543
sg55
(lp1562
g48
(g69
g50
NtRp1563
(dp1564
g53
(dp1565
sg62
g1559
sg55
(lp1566
g48
(g49
g50
NtRp1567
(dp1568
g53
(dp1569
g61
I3
ssg62
g1563
sg55
(lp1570
S'99'
p1571
asbasbasbag48
(g64
g50
NtRp1572
(dp1573
g53
(dp1574
sg62
g1543
sg55
(lp1575
g48
(g69
g50
NtRp1576
(dp1577
g53
(dp1578
sg62
g1572
sg55
(lp1579
g48
(g49
g50
NtRp1580
(dp1581
g53
(dp1582
g61
I3
ssg62
g1576
sg55
(lp1583
S'2'
asbasbasbag48
(g64
g50
NtRp1584
(dp1585
g53
(dp1586
sg62
g1543
sg55
(lp1587
g48
(g69
g50
NtRp1588
(dp1589
g53
(dp1590
sg62
g1584
sg55
(lp1591
g48
(g49
g50
NtRp1592
(dp1593
g53
(dp1594
g61
I3
ssg62
g1588
sg55
(lp1595
S'datetime.datetime(2011, 9, 26, 6, 55, 33)'
p1596
asbasbasbag48
(g64
g50
NtRp1597
(dp1598
g53
(dp1599
sg62
g1543
sg55
(lp1600
g48
(g69
g50
NtRp1601
(dp1602
g53
(dp1603
sg62
g1597
sg55
(lp1604
g48
(g49
g50
NtRp1605
(dp1606
g53
(dp1607
g61
I3
ssg62
g1601
sg55
(lp1608
S'stable'
p1609
asbasbasbasbasbasbasbag48
(g64
g50
NtRp1610
(dp1611
g53
(dp1612
sg62
g752
sg55
(lp1613
g48
(g69
g50
NtRp1614
(dp1615
g53
(dp1616
g73
g74
ssg62
g1610
sg55
(lp1617
S'wsgi_errors'
p1618
asbag48
(g69
g50
NtRp1619
(dp1620
g53
(dp1621
g80
g81
ssg62
g1610
sg55
(lp1622
S':'
asbag48
(g69
g50
NtRp1623
(dp1624
g53
(dp1625
sg62
g1610
sg55
(lp1626
g48
(g49
g50
NtRp1627
(dp1628
g53
(dp1629
g61
I4
ssg62
g1623
sg55
(lp1630
S"<open file '<stderr>', mode 'w' at 0x015100B0>"
p1631
asbasbasbag48
(g64
g50
NtRp1632
(dp1633
g53
(dp1634
sg62
g752
sg55
(lp1635
g48
(g69
g50
NtRp1636
(dp1637
g53
(dp1638
g73
g74
ssg62
g1632
sg55
(lp1639
S'wsgi_file_wrapper'
p1640
asbag48
(g69
g50
NtRp1641
(dp1642
g53
(dp1643
g80
g81
ssg62
g1632
sg55
(lp1644
S':'
asbag48
(g69
g50
NtRp1645
(dp1646
g53
(dp1647
sg62
g1632
sg55
(lp1648
g48
(g49
g50
NtRp1649
(dp1650
g53
(dp1651
g61
I4
ssg62
g1645
sg55
(lp1652
S'<class wsgiref.util.FileWrapper at 0x023E9AB0>'
p1653
asbasbasbag48
(g64
g50
NtRp1654
(dp1655
g53
(dp1656
sg62
g752
sg55
(lp1657
g48
(g69
g50
NtRp1658
(dp1659
g53
(dp1660
g73
g74
ssg62
g1654
sg55
(lp1661
S'wsgi_input'
p1662
asbag48
(g69
g50
NtRp1663
(dp1664
g53
(dp1665
g80
g81
ssg62
g1654
sg55
(lp1666
S':'
asbag48
(g69
g50
NtRp1667
(dp1668
g53
(dp1669
sg62
g1654
sg55
(lp1670
g48
(g49
g50
NtRp1671
(dp1672
g53
(dp1673
g61
I4
ssg62
g1667
sg55
(lp1674
S'<socket._fileobject object at 0x05BC0730>'
p1675
asbasbasbag48
(g64
g50
NtRp1676
(dp1677
g53
(dp1678
sg62
g752
sg55
(lp1679
g48
(g69
g50
NtRp1680
(dp1681
g53
(dp1682
g73
g74
ssg62
g1676
sg55
(lp1683
S'wsgi_multiprocess'
p1684
asbag48
(g69
g50
NtRp1685
(dp1686
g53
(dp1687
g80
g81
ssg62
g1676
sg55
(lp1688
S':'
asbag48
(g69
g50
NtRp1689
(dp1690
g53
(dp1691
sg62
g1676
sg55
(lp1692
g48
(g49
g50
NtRp1693
(dp1694
g53
(dp1695
g61
I4
ssg62
g1689
sg55
(lp1696
g934
asbasbasbag48
(g64
g50
NtRp1697
(dp1698
g53
(dp1699
sg62
g752
sg55
(lp1700
g48
(g69
g50
NtRp1701
(dp1702
g53
(dp1703
g73
g74
ssg62
g1697
sg55
(lp1704
S'wsgi_multithread'
p1705
asbag48
(g69
g50
NtRp1706
(dp1707
g53
(dp1708
g80
g81
ssg62
g1697
sg55
(lp1709
S':'
asbag48
(g69
g50
NtRp1710
(dp1711
g53
(dp1712
sg62
g1697
sg55
(lp1713
g48
(g49
g50
NtRp1714
(dp1715
g53
(dp1716
g61
I4
ssg62
g1710
sg55
(lp1717
g91
asbasbasbag48
(g64
g50
NtRp1718
(dp1719
g53
(dp1720
sg62
g752
sg55
(lp1721
g48
(g69
g50
NtRp1722
(dp1723
g53
(dp1724
g73
g74
ssg62
g1718
sg55
(lp1725
S'wsgi_run_once'
p1726
asbag48
(g69
g50
NtRp1727
(dp1728
g53
(dp1729
g80
g81
ssg62
g1718
sg55
(lp1730
S':'
asbag48
(g69
g50
NtRp1731
(dp1732
g53
(dp1733
sg62
g1718
sg55
(lp1734
g48
(g49
g50
NtRp1735
(dp1736
g53
(dp1737
g61
I4
ssg62
g1731
sg55
(lp1738
g934
asbasbasbag48
(g64
g50
NtRp1739
(dp1740
g53
(dp1741
sg62
g752
sg55
(lp1742
g48
(g69
g50
NtRp1743
(dp1744
g53
(dp1745
g73
g74
ssg62
g1739
sg55
(lp1746
S'wsgi_url_scheme'
p1747
asbag48
(g69
g50
NtRp1748
(dp1749
g53
(dp1750
g80
g81
ssg62
g1739
sg55
(lp1751
S':'
asbag48
(g69
g50
NtRp1752
(dp1753
g53
(dp1754
sg62
g1739
sg55
(lp1755
g48
(g49
g50
NtRp1756
(dp1757
g53
(dp1758
g61
I4
ssg62
g1752
sg55
(lp1759
S'http'
p1760
asbasbasbag48
(g64
g50
NtRp1761
(dp1762
g53
(dp1763
sg62
g752
sg55
(lp1764
g48
(g69
g50
NtRp1765
(dp1766
g53
(dp1767
g73
g74
ssg62
g1761
sg55
(lp1768
S'wsgi_version'
p1769
asbag48
(g69
g50
NtRp1770
(dp1771
g53
(dp1772
g80
g81
ssg62
g1761
sg55
(lp1773
S':'
asbag48
(g69
g50
NtRp1774
(dp1775
g53
(dp1776
sg62
g1761
sg55
(lp1777
g48
(g49
g50
NtRp1778
(dp1779
g53
(dp1780
g61
I4
ssg62
g1774
sg55
(lp1781
g48
(g57
g50
NtRp1782
(dp1783
g53
(dp1784
g61
I3
ssg62
Nsg55
(lp1785
g48
(g64
g50
NtRp1786
(dp1787
g53
(dp1788
sg62
g1782
sg55
(lp1789
g48
(g69
g50
NtRp1790
(dp1791
g53
(dp1792
sg62
g1786
sg55
(lp1793
g48
(g49
g50
NtRp1794
(dp1795
g53
(dp1796
g61
I3
ssg62
g1790
sg55
(lp1797
S'1'
asbasbasbag48
(g64
g50
NtRp1798
(dp1799
g53
(dp1800
sg62
g1782
sg55
(lp1801
g48
(g69
g50
NtRp1802
(dp1803
g53
(dp1804
sg62
g1798
sg55
(lp1805
g48
(g49
g50
NtRp1806
(dp1807
g53
(dp1808
g61
I3
ssg62
g1802
sg55
(lp1809
S'0'
asbasbasbasbasbasbasbasbasbasbasbag48
(g64
g50
NtRp1810
(dp1811
g53
(dp1812
sg62
g58
sg55
(lp1813
g48
(g69
g50
NtRp1814
(dp1815
g53
(dp1816
g73
g74
ssg62
g1810
sg55
(lp1817
S'extension'
p1818
asbag48
(g69
g50
NtRp1819
(dp1820
g53
(dp1821
g80
g81
ssg62
g1810
sg55
(lp1822
S':'
asbag48
(g69
g50
NtRp1823
(dp1824
g53
(dp1825
sg62
g1810
sg55
(lp1826
g48
(g49
g50
NtRp1827
(dp1828
g53
(dp1829
g61
I5
ssg62
g1823
sg55
(lp1830
S'html'
p1831
asbasbasbag48
(g64
g50
NtRp1832
(dp1833
g53
(dp1834
sg62
g58
sg55
(lp1835
g48
(g69
g50
NtRp1836
(dp1837
g53
(dp1838
g73
g74
ssg62
g1832
sg55
(lp1839
S'folder'
p1840
asbag48
(g69
g50
NtRp1841
(dp1842
g53
(dp1843
g80
g81
ssg62
g1832
sg55
(lp1844
S':'
asbag48
(g69
g50
NtRp1845
(dp1846
g53
(dp1847
sg62
g1832
sg55
(lp1848
g48
(g49
g50
NtRp1849
(dp1850
g53
(dp1851
g61
I5
ssg62
g1845
sg55
(lp1852
S'C:\\Python32\\web2py_win\\web2py\\applications\\Casa_de_Apuestas\\'
p1853
asbasbasbag48
(g64
g50
NtRp1854
(dp1855
g53
(dp1856
sg62
g58
sg55
(lp1857
g48
(g69
g50
NtRp1858
(dp1859
g53
(dp1860
g73
g74
ssg62
g1854
sg55
(lp1861
S'function'
p1862
asbag48
(g69
g50
NtRp1863
(dp1864
g53
(dp1865
g80
g81
ssg62
g1854
sg55
(lp1866
S':'
asbag48
(g69
g50
NtRp1867
(dp1868
g53
(dp1869
sg62
g1854
sg55
(lp1870
g48
(g49
g50
NtRp1871
(dp1872
g53
(dp1873
g61
I5
ssg62
g1867
sg55
(lp1874
S'obtenerCategoria'
p1875
asbasbasbag48
(g64
g50
NtRp1876
(dp1877
g53
(dp1878
sg62
g58
sg55
(lp1879
g48
(g69
g50
NtRp1880
(dp1881
g53
(dp1882
g73
g74
ssg62
g1876
sg55
(lp1883
S'get_vars'
p1884
asbag48
(g69
g50
NtRp1885
(dp1886
g53
(dp1887
g80
g81
ssg62
g1876
sg55
(lp1888
S':'
asbag48
(g69
g50
NtRp1889
(dp1890
g53
(dp1891
sg62
g1876
sg55
(lp1892
g48
(g49
g50
NtRp1893
(dp1894
g53
(dp1895
g61
I5
ssg62
g1889
sg55
(lp1896
g48
(g57
g50
NtRp1897
(dp1898
g53
(dp1899
g61
I4
ssg62
Nsg55
(lp1900
sbasbasbasbag48
(g64
g50
NtRp1901
(dp1902
g53
(dp1903
sg62
g58
sg55
(lp1904
g48
(g69
g50
NtRp1905
(dp1906
g53
(dp1907
g73
g74
ssg62
g1901
sg55
(lp1908
S'global_settings'
p1909
asbag48
(g69
g50
NtRp1910
(dp1911
g53
(dp1912
g80
g81
ssg62
g1901
sg55
(lp1913
S':'
asbag48
(g69
g50
NtRp1914
(dp1915
g53
(dp1916
sg62
g1901
sg55
(lp1917
g48
(g49
g50
NtRp1918
(dp1919
g53
(dp1920
g61
I5
ssg62
g1914
sg55
(lp1921
g48
(g57
g50
NtRp1922
(dp1923
g53
(dp1924
g61
I4
ssg62
Nsg55
(lp1925
g48
(g64
g50
NtRp1926
(dp1927
g53
(dp1928
sg62
g1922
sg55
(lp1929
g48
(g69
g50
NtRp1930
(dp1931
g53
(dp1932
g73
g74
ssg62
g1926
sg55
(lp1933
g764
asbag48
(g69
g50
NtRp1934
(dp1935
g53
(dp1936
g80
g81
ssg62
g1926
sg55
(lp1937
S':'
asbag48
(g69
g50
NtRp1938
(dp1939
g53
(dp1940
sg62
g1926
sg55
(lp1941
g48
(g49
g50
NtRp1942
(dp1943
g53
(dp1944
g61
I4
ssg62
g1938
sg55
(lp1945
S"set(['C:\\\\Python32\\\\web2py_win\\\\web2py\\\\applications\\\\admin\\\\', 'C:\\\\Python32\\\\web2py_win\\\\web2py\\\\applications\\\\welcome\\\\', 'C:\\\\Python32\\\\web2py_win\\\\web2py\\\\applications\\\\Casa_de_Apuestas\\\\'])"
p1946
asbasbasbag48
(g64
g50
NtRp1947
(dp1948
g53
(dp1949
sg62
g1922
sg55
(lp1950
g48
(g69
g50
NtRp1951
(dp1952
g53
(dp1953
g73
g74
ssg62
g1947
sg55
(lp1954
g786
asbag48
(g69
g50
NtRp1955
(dp1956
g53
(dp1957
g80
g81
ssg62
g1947
sg55
(lp1958
S':'
asbag48
(g69
g50
NtRp1959
(dp1960
g53
(dp1961
sg62
g1947
sg55
(lp1962
g48
(g49
g50
NtRp1963
(dp1964
g53
(dp1965
g61
I4
ssg62
g1959
sg55
(lp1966
g799
asbasbasbag48
(g64
g50
NtRp1967
(dp1968
g53
(dp1969
sg62
g1922
sg55
(lp1970
g48
(g69
g50
NtRp1971
(dp1972
g53
(dp1973
g73
g74
ssg62
g1967
sg55
(lp1974
g808
asbag48
(g69
g50
NtRp1975
(dp1976
g53
(dp1977
g80
g81
ssg62
g1967
sg55
(lp1978
S':'
asbag48
(g69
g50
NtRp1979
(dp1980
g53
(dp1981
sg62
g1967
sg55
(lp1982
g48
(g49
g50
NtRp1983
(dp1984
g53
(dp1985
g61
I4
ssg62
g1979
sg55
(lp1986
g48
(g57
g50
NtRp1987
(dp1988
g53
(dp1989
g61
I3
ssg62
Nsg55
(lp1990
sbasbasbasbag48
(g64
g50
NtRp1991
(dp1992
g53
(dp1993
sg62
g1922
sg55
(lp1994
g48
(g69
g50
NtRp1995
(dp1996
g53
(dp1997
g73
g74
ssg62
g1991
sg55
(lp1998
g833
asbag48
(g69
g50
NtRp1999
(dp2000
g53
(dp2001
g80
g81
ssg62
g1991
sg55
(lp2002
S':'
asbag48
(g69
g50
NtRp2003
(dp2004
g53
(dp2005
sg62
g1991
sg55
(lp2006
g48
(g49
g50
NtRp2007
(dp2008
g53
(dp2009
g61
I4
ssg62
g2003
sg55
(lp2010
S"<Values at 0x2645fa8: {'verbose': False, 'ip': '127.0.0.1', 'shutdown_timeout': 5, 'taskbar': False, 'nocron': False, 'pid_filename': 'httpserver.pid', 'maxthreads': None, 'softcron': False, 'server_name': 'hector-vaio', 'bpython': False, 'nogui': False, 'port': 8000, 'extcron': False, 'debuglevel': 30, 'test': None, 'folder': 'C:\\\\Python32\\\\web2py_win\\\\web2py', 'config': '', 'import_models': False, 'winservice': '', 'shell': None, 'run': '', 'log_filename': 'httpserver.log', 'args': [''], 'ssl_ca_certificate': None, 'scheduler': None, 'profiler_filename': None, 'ssl_private_key': '', 'password': '<ask>', 'request_queue_size': 5, 'ssl_certificate': '', 'cronjob': False, 'plain': False, 'quiet': False, 'interfaces': None, 'minthreads': None, 'timeout': 10, 'numthreads': None, 'nobanner': False}>"
p2011
asbasbasbag48
(g64
g50
NtRp2012
(dp2013
g53
(dp2014
sg62
g1922
sg55
(lp2015
g48
(g69
g50
NtRp2016
(dp2017
g53
(dp2018
g73
g74
ssg62
g2012
sg55
(lp2019
g899
asbag48
(g69
g50
NtRp2020
(dp2021
g53
(dp2022
g80
g81
ssg62
g2012
sg55
(lp2023
S':'
asbag48
(g69
g50
NtRp2024
(dp2025
g53
(dp2026
sg62
g2012
sg55
(lp2027
g48
(g49
g50
NtRp2028
(dp2029
g53
(dp2030
g61
I4
ssg62
g2024
sg55
(lp2031
S'set([])'
p2032
asbasbasbag48
(g64
g50
NtRp2033
(dp2034
g53
(dp2035
sg62
g1922
sg55
(lp2036
g48
(g69
g50
NtRp2037
(dp2038
g53
(dp2039
g73
g74
ssg62
g2033
sg55
(lp2040
g921
asbag48
(g69
g50
NtRp2041
(dp2042
g53
(dp2043
g80
g81
ssg62
g2033
sg55
(lp2044
S':'
asbag48
(g69
g50
NtRp2045
(dp2046
g53
(dp2047
sg62
g2033
sg55
(lp2048
g48
(g49
g50
NtRp2049
(dp2050
g53
(dp2051
g61
I4
ssg62
g2045
sg55
(lp2052
g934
asbasbasbag48
(g64
g50
NtRp2053
(dp2054
g53
(dp2055
sg62
g1922
sg55
(lp2056
g48
(g69
g50
NtRp2057
(dp2058
g53
(dp2059
g73
g74
ssg62
g2053
sg55
(lp2060
g943
asbag48
(g69
g50
NtRp2061
(dp2062
g53
(dp2063
g80
g81
ssg62
g2053
sg55
(lp2064
S':'
asbag48
(g69
g50
NtRp2065
(dp2066
g53
(dp2067
sg62
g2053
sg55
(lp2068
g48
(g49
g50
NtRp2069
(dp2070
g53
(dp2071
g61
I4
ssg62
g2065
sg55
(lp2072
g956
asbasbasbag48
(g64
g50
NtRp2073
(dp2074
g53
(dp2075
sg62
g1922
sg55
(lp2076
g48
(g69
g50
NtRp2077
(dp2078
g53
(dp2079
g73
g74
ssg62
g2073
sg55
(lp2080
g1249
asbag48
(g69
g50
NtRp2081
(dp2082
g53
(dp2083
g80
g81
ssg62
g2073
sg55
(lp2084
S':'
asbag48
(g69
g50
NtRp2085
(dp2086
g53
(dp2087
sg62
g2073
sg55
(lp2088
g48
(g49
g50
NtRp2089
(dp2090
g53
(dp2091
g61
I4
ssg62
g2085
sg55
(lp2092
g934
asbasbasbag48
(g64
g50
NtRp2093
(dp2094
g53
(dp2095
sg62
g1922
sg55
(lp2096
g48
(g69
g50
NtRp2097
(dp2098
g53
(dp2099
g73
g74
ssg62
g2093
sg55
(lp2100
g1487
asbag48
(g69
g50
NtRp2101
(dp2102
g53
(dp2103
g80
g81
ssg62
g2093
sg55
(lp2104
S':'
asbag48
(g69
g50
NtRp2105
(dp2106
g53
(dp2107
sg62
g2093
sg55
(lp2108
g48
(g49
g50
NtRp2109
(dp2110
g53
(dp2111
g61
I4
ssg62
g2105
sg55
(lp2112
g1500
asbasbasbag48
(g64
g50
NtRp2113
(dp2114
g53
(dp2115
sg62
g1922
sg55
(lp2116
g48
(g69
g50
NtRp2117
(dp2118
g53
(dp2119
g73
g74
ssg62
g2113
sg55
(lp2120
g1530
asbag48
(g69
g50
NtRp2121
(dp2122
g53
(dp2123
g80
g81
ssg62
g2113
sg55
(lp2124
S':'
asbag48
(g69
g50
NtRp2125
(dp2126
g53
(dp2127
sg62
g2113
sg55
(lp2128
g48
(g49
g50
NtRp2129
(dp2130
g53
(dp2131
g61
I4
ssg62
g2125
sg55
(lp2132
g48
(g57
g50
NtRp2133
(dp2134
g53
(dp2135
g61
I3
ssg62
Nsg55
(lp2136
g48
(g64
g50
NtRp2137
(dp2138
g53
(dp2139
sg62
g2133
sg55
(lp2140
g48
(g69
g50
NtRp2141
(dp2142
g53
(dp2143
sg62
g2137
sg55
(lp2144
g48
(g49
g50
NtRp2145
(dp2146
g53
(dp2147
g61
I3
ssg62
g2141
sg55
(lp2148
S'1'
asbasbasbag48
(g64
g50
NtRp2149
(dp2150
g53
(dp2151
sg62
g2133
sg55
(lp2152
g48
(g69
g50
NtRp2153
(dp2154
g53
(dp2155
sg62
g2149
sg55
(lp2156
g48
(g49
g50
NtRp2157
(dp2158
g53
(dp2159
g61
I3
ssg62
g2153
sg55
(lp2160
S'99'
p2161
asbasbasbag48
(g64
g50
NtRp2162
(dp2163
g53
(dp2164
sg62
g2133
sg55
(lp2165
g48
(g69
g50
NtRp2166
(dp2167
g53
(dp2168
sg62
g2162
sg55
(lp2169
g48
(g49
g50
NtRp2170
(dp2171
g53
(dp2172
g61
I3
ssg62
g2166
sg55
(lp2173
S'2'
asbasbasbag48
(g64
g50
NtRp2174
(dp2175
g53
(dp2176
sg62
g2133
sg55
(lp2177
g48
(g69
g50
NtRp2178
(dp2179
g53
(dp2180
sg62
g2174
sg55
(lp2181
g48
(g49
g50
NtRp2182
(dp2183
g53
(dp2184
g61
I3
ssg62
g2178
sg55
(lp2185
S'datetime.datetime(2011, 9, 26, 6, 55, 33)'
p2186
asbasbasbag48
(g64
g50
NtRp2187
(dp2188
g53
(dp2189
sg62
g2133
sg55
(lp2190
g48
(g69
g50
NtRp2191
(dp2192
g53
(dp2193
sg62
g2187
sg55
(lp2194
g48
(g49
g50
NtRp2195
(dp2196
g53
(dp2197
g61
I3
ssg62
g2191
sg55
(lp2198
g1609
asbasbasbasbasbasbasbasbasbasbasbag48
(g64
g50
NtRp2199
(dp2200
g53
(dp2201
sg62
g58
sg55
(lp2202
g48
(g69
g50
NtRp2203
(dp2204
g53
(dp2205
g73
g74
ssg62
g2199
sg55
(lp2206
S'is_https'
p2207
asbag48
(g69
g50
NtRp2208
(dp2209
g53
(dp2210
g80
g81
ssg62
g2199
sg55
(lp2211
S':'
asbag48
(g69
g50
NtRp2212
(dp2213
g53
(dp2214
sg62
g2199
sg55
(lp2215
g48
(g49
g50
NtRp2216
(dp2217
g53
(dp2218
g61
I5
ssg62
g2212
sg55
(lp2219
g934
asbasbasbag48
(g64
g50
NtRp2220
(dp2221
g53
(dp2222
sg62
g58
sg55
(lp2223
g48
(g69
g50
NtRp2224
(dp2225
g53
(dp2226
g73
g74
ssg62
g2220
sg55
(lp2227
S'is_local'
p2228
asbag48
(g69
g50
NtRp2229
(dp2230
g53
(dp2231
g80
g81
ssg62
g2220
sg55
(lp2232
S':'
asbag48
(g69
g50
NtRp2233
(dp2234
g53
(dp2235
sg62
g2220
sg55
(lp2236
g48
(g49
g50
NtRp2237
(dp2238
g53
(dp2239
g61
I5
ssg62
g2233
sg55
(lp2240
g91
asbasbasbag48
(g64
g50
NtRp2241
(dp2242
g53
(dp2243
sg62
g58
sg55
(lp2244
g48
(g69
g50
NtRp2245
(dp2246
g53
(dp2247
g73
g74
ssg62
g2241
sg55
(lp2248
S'is_restful'
p2249
asbag48
(g69
g50
NtRp2250
(dp2251
g53
(dp2252
g80
g81
ssg62
g2241
sg55
(lp2253
S':'
asbag48
(g69
g50
NtRp2254
(dp2255
g53
(dp2256
sg62
g2241
sg55
(lp2257
g48
(g49
g50
NtRp2258
(dp2259
g53
(dp2260
g61
I5
ssg62
g2254
sg55
(lp2261
g934
asbasbasbag48
(g64
g50
NtRp2262
(dp2263
g53
(dp2264
sg62
g58
sg55
(lp2265
g48
(g69
g50
NtRp2266
(dp2267
g53
(dp2268
g73
g74
ssg62
g2262
sg55
(lp2269
S'now'
p2270
asbag48
(g69
g50
NtRp2271
(dp2272
g53
(dp2273
g80
g81
ssg62
g2262
sg55
(lp2274
S':'
asbag48
(g69
g50
NtRp2275
(dp2276
g53
(dp2277
sg62
g2262
sg55
(lp2278
g48
(g49
g50
NtRp2279
(dp2280
g53
(dp2281
g61
I5
ssg62
g2275
sg55
(lp2282
S'datetime.datetime(2011, 12, 30, 22, 53, 8, 512000)'
p2283
asbasbasbag48
(g64
g50
NtRp2284
(dp2285
g53
(dp2286
sg62
g58
sg55
(lp2287
g48
(g69
g50
NtRp2288
(dp2289
g53
(dp2290
g73
g74
ssg62
g2284
sg55
(lp2291
S'post_vars'
p2292
asbag48
(g69
g50
NtRp2293
(dp2294
g53
(dp2295
g80
g81
ssg62
g2284
sg55
(lp2296
S':'
asbag48
(g69
g50
NtRp2297
(dp2298
g53
(dp2299
sg62
g2284
sg55
(lp2300
g48
(g49
g50
NtRp2301
(dp2302
g53
(dp2303
g61
I5
ssg62
g2297
sg55
(lp2304
g48
(g57
g50
NtRp2305
(dp2306
g53
(dp2307
g61
I4
ssg62
Nsg55
(lp2308
g48
(g64
g50
NtRp2309
(dp2310
g53
(dp2311
sg62
g2305
sg55
(lp2312
g48
(g69
g50
NtRp2313
(dp2314
g53
(dp2315
g73
g74
ssg62
g2309
sg55
(lp2316
S'categorias'
p2317
asbag48
(g69
g50
NtRp2318
(dp2319
g53
(dp2320
g80
g81
ssg62
g2309
sg55
(lp2321
S':'
asbag48
(g69
g50
NtRp2322
(dp2323
g53
(dp2324
sg62
g2309
sg55
(lp2325
g48
(g49
g50
NtRp2326
(dp2327
g53
(dp2328
g61
I4
ssg62
g2322
sg55
(lp2329
S'B'
asbasbasbasbasbasbasbag48
(g64
g50
NtRp2330
(dp2331
g53
(dp2332
sg62
g58
sg55
(lp2333
g48
(g69
g50
NtRp2334
(dp2335
g53
(dp2336
g73
g74
ssg62
g2330
sg55
(lp2337
S'url'
p2338
asbag48
(g69
g50
NtRp2339
(dp2340
g53
(dp2341
g80
g81
ssg62
g2330
sg55
(lp2342
S':'
asbag48
(g69
g50
NtRp2343
(dp2344
g53
(dp2345
sg62
g2330
sg55
(lp2346
g48
(g49
g50
NtRp2347
(dp2348
g53
(dp2349
g61
I5
ssg62
g2343
sg55
(lp2350
S'/Casa_de_Apuestas/default/obtenerCategoria'
p2351
asbasbasbag48
(g64
g50
NtRp2352
(dp2353
g53
(dp2354
sg62
g58
sg55
(lp2355
g48
(g69
g50
NtRp2356
(dp2357
g53
(dp2358
g73
g74
ssg62
g2352
sg55
(lp2359
S'utcnow'
p2360
asbag48
(g69
g50
NtRp2361
(dp2362
g53
(dp2363
g80
g81
ssg62
g2352
sg55
(lp2364
S':'
asbag48
(g69
g50
NtRp2365
(dp2366
g53
(dp2367
sg62
g2352
sg55
(lp2368
g48
(g49
g50
NtRp2369
(dp2370
g53
(dp2371
g61
I5
ssg62
g2365
sg55
(lp2372
S'datetime.datetime(2011, 12, 31, 3, 23, 8, 512000)'
p2373
asbasbasbag48
(g64
g50
NtRp2374
(dp2375
g53
(dp2376
sg62
g58
sg55
(lp2377
g48
(g69
g50
NtRp2378
(dp2379
g53
(dp2380
g73
g74
ssg62
g2374
sg55
(lp2381
S'uuid'
p2382
asbag48
(g69
g50
NtRp2383
(dp2384
g53
(dp2385
g80
g81
ssg62
g2374
sg55
(lp2386
S':'
asbag48
(g69
g50
NtRp2387
(dp2388
g53
(dp2389
sg62
g2374
sg55
(lp2390
g48
(g49
g50
NtRp2391
(dp2392
g53
(dp2393
g61
I5
ssg62
g2387
sg55
(lp2394
S'Casa_de_Apuestas/127.0.0.1.2011-12-30.22-53-08.cc84103d-22c0-46ee-ab9e-3d9c3256ef9d'
p2395
asbasbasbag48
(g64
g50
NtRp2396
(dp2397
g53
(dp2398
sg62
g58
sg55
(lp2399
g48
(g69
g50
NtRp2400
(dp2401
g53
(dp2402
g73
g74
ssg62
g2396
sg55
(lp2403
S'vars'
p2404
asbag48
(g69
g50
NtRp2405
(dp2406
g53
(dp2407
g80
g81
ssg62
g2396
sg55
(lp2408
S':'
asbag48
(g69
g50
NtRp2409
(dp2410
g53
(dp2411
sg62
g2396
sg55
(lp2412
g48
(g49
g50
NtRp2413
(dp2414
g53
(dp2415
g61
I5
ssg62
g2409
sg55
(lp2416
g48
(g57
g50
NtRp2417
(dp2418
g53
(dp2419
g61
I4
ssg62
Nsg55
(lp2420
g48
(g64
g50
NtRp2421
(dp2422
g53
(dp2423
sg62
g2417
sg55
(lp2424
g48
(g69
g50
NtRp2425
(dp2426
g53
(dp2427
g73
g74
ssg62
g2421
sg55
(lp2428
g2317
asbag48
(g69
g50
NtRp2429
(dp2430
g53
(dp2431
g80
g81
ssg62
g2421
sg55
(lp2432
S':'
asbag48
(g69
g50
NtRp2433
(dp2434
g53
(dp2435
sg62
g2421
sg55
(lp2436
g48
(g49
g50
NtRp2437
(dp2438
g53
(dp2439
g61
I4
ssg62
g2433
sg55
(lp2440
S'B'
asbasbasbasbasbasbasbag48
(g64
g50
NtRp2441
(dp2442
g53
(dp2443
sg62
g58
sg55
(lp2444
g48
(g69
g50
NtRp2445
(dp2446
g53
(dp2447
g73
g74
ssg62
g2441
sg55
(lp2448
S'wsgi'
p2449
asbag48
(g69
g50
NtRp2450
(dp2451
g53
(dp2452
g80
g81
ssg62
g2441
sg55
(lp2453
S':'
asbag48
(g69
g50
NtRp2454
(dp2455
g53
(dp2456
sg62
g2441
sg55
(lp2457
g48
(g49
g50
NtRp2458
(dp2459
g53
(dp2460
g61
I5
ssg62
g2454
sg55
(lp2461
g48
(g57
g50
NtRp2462
(dp2463
g53
(dp2464
g61
I4
ssg62
Nsg55
(lp2465
g48
(g64
g50
NtRp2466
(dp2467
g53
(dp2468
sg62
g2462
sg55
(lp2469
g48
(g69
g50
NtRp2470
(dp2471
g53
(dp2472
g73
g74
ssg62
g2466
sg55
(lp2473
S'environ'
p2474
asbag48
(g69
g50
NtRp2475
(dp2476
g53
(dp2477
g80
g81
ssg62
g2466
sg55
(lp2478
S':'
asbag48
(g69
g50
NtRp2479
(dp2480
g53
(dp2481
sg62
g2466
sg55
(lp2482
g48
(g49
g50
NtRp2483
(dp2484
g53
(dp2485
g61
I4
ssg62
g2479
sg55
(lp2486
g48
(g57
g50
NtRp2487
(dp2488
g53
(dp2489
g61
I3
ssg62
Nsg55
(lp2490
g48
(g64
g50
NtRp2491
(dp2492
g53
(dp2493
sg62
g2487
sg55
(lp2494
g48
(g69
g50
NtRp2495
(dp2496
g53
(dp2497
g73
g74
ssg62
g2491
sg55
(lp2498
S'CONTENT_LENGTH'
p2499
asbag48
(g69
g50
NtRp2500
(dp2501
g53
(dp2502
g80
g81
ssg62
g2491
sg55
(lp2503
S':'
asbag48
(g69
g50
NtRp2504
(dp2505
g53
(dp2506
sg62
g2491
sg55
(lp2507
g48
(g49
g50
NtRp2508
(dp2509
g53
(dp2510
g61
I3
ssg62
g2504
sg55
(lp2511
g868
asbasbasbag48
(g64
g50
NtRp2512
(dp2513
g53
(dp2514
sg62
g2487
sg55
(lp2515
g48
(g69
g50
NtRp2516
(dp2517
g53
(dp2518
g73
g74
ssg62
g2512
sg55
(lp2519
S'CONTENT_TYPE'
p2520
asbag48
(g69
g50
NtRp2521
(dp2522
g53
(dp2523
g80
g81
ssg62
g2512
sg55
(lp2524
S':'
asbag48
(g69
g50
NtRp2525
(dp2526
g53
(dp2527
sg62
g2512
sg55
(lp2528
g48
(g49
g50
NtRp2529
(dp2530
g53
(dp2531
g61
I3
ssg62
g2525
sg55
(lp2532
g890
asbasbasbag48
(g64
g50
NtRp2533
(dp2534
g53
(dp2535
sg62
g2487
sg55
(lp2536
g48
(g69
g50
NtRp2537
(dp2538
g53
(dp2539
g73
g74
ssg62
g2533
sg55
(lp2540
S'HTTP_ACCEPT'
p2541
asbag48
(g69
g50
NtRp2542
(dp2543
g53
(dp2544
g80
g81
ssg62
g2533
sg55
(lp2545
S':'
asbag48
(g69
g50
NtRp2546
(dp2547
g53
(dp2548
sg62
g2533
sg55
(lp2549
g48
(g49
g50
NtRp2550
(dp2551
g53
(dp2552
g61
I3
ssg62
g2546
sg55
(lp2553
g978
asbasbasbag48
(g64
g50
NtRp2554
(dp2555
g53
(dp2556
sg62
g2487
sg55
(lp2557
g48
(g69
g50
NtRp2558
(dp2559
g53
(dp2560
g73
g74
ssg62
g2554
sg55
(lp2561
S'HTTP_ACCEPT_CHARSET'
p2562
asbag48
(g69
g50
NtRp2563
(dp2564
g53
(dp2565
g80
g81
ssg62
g2554
sg55
(lp2566
S':'
asbag48
(g69
g50
NtRp2567
(dp2568
g53
(dp2569
sg62
g2554
sg55
(lp2570
g48
(g49
g50
NtRp2571
(dp2572
g53
(dp2573
g61
I3
ssg62
g2567
sg55
(lp2574
g1000
asbasbasbag48
(g64
g50
NtRp2575
(dp2576
g53
(dp2577
sg62
g2487
sg55
(lp2578
g48
(g69
g50
NtRp2579
(dp2580
g53
(dp2581
g73
g74
ssg62
g2575
sg55
(lp2582
S'HTTP_ACCEPT_ENCODING'
p2583
asbag48
(g69
g50
NtRp2584
(dp2585
g53
(dp2586
g80
g81
ssg62
g2575
sg55
(lp2587
S':'
asbag48
(g69
g50
NtRp2588
(dp2589
g53
(dp2590
sg62
g2575
sg55
(lp2591
g48
(g49
g50
NtRp2592
(dp2593
g53
(dp2594
g61
I3
ssg62
g2588
sg55
(lp2595
g1022
asbasbasbag48
(g64
g50
NtRp2596
(dp2597
g53
(dp2598
sg62
g2487
sg55
(lp2599
g48
(g69
g50
NtRp2600
(dp2601
g53
(dp2602
g73
g74
ssg62
g2596
sg55
(lp2603
S'HTTP_ACCEPT_LANGUAGE'
p2604
asbag48
(g69
g50
NtRp2605
(dp2606
g53
(dp2607
g80
g81
ssg62
g2596
sg55
(lp2608
S':'
asbag48
(g69
g50
NtRp2609
(dp2610
g53
(dp2611
sg62
g2596
sg55
(lp2612
g48
(g49
g50
NtRp2613
(dp2614
g53
(dp2615
g61
I3
ssg62
g2609
sg55
(lp2616
g1044
asbasbasbag48
(g64
g50
NtRp2617
(dp2618
g53
(dp2619
sg62
g2487
sg55
(lp2620
g48
(g69
g50
NtRp2621
(dp2622
g53
(dp2623
g73
g74
ssg62
g2617
sg55
(lp2624
S'HTTP_CONNECTION'
p2625
asbag48
(g69
g50
NtRp2626
(dp2627
g53
(dp2628
g80
g81
ssg62
g2617
sg55
(lp2629
S':'
asbag48
(g69
g50
NtRp2630
(dp2631
g53
(dp2632
sg62
g2617
sg55
(lp2633
g48
(g49
g50
NtRp2634
(dp2635
g53
(dp2636
g61
I3
ssg62
g2630
sg55
(lp2637
g1066
asbasbasbag48
(g64
g50
NtRp2638
(dp2639
g53
(dp2640
sg62
g2487
sg55
(lp2641
g48
(g69
g50
NtRp2642
(dp2643
g53
(dp2644
g73
g74
ssg62
g2638
sg55
(lp2645
S'HTTP_CONTENT_LENGTH'
p2646
asbag48
(g69
g50
NtRp2647
(dp2648
g53
(dp2649
g80
g81
ssg62
g2638
sg55
(lp2650
S':'
asbag48
(g69
g50
NtRp2651
(dp2652
g53
(dp2653
sg62
g2638
sg55
(lp2654
g48
(g49
g50
NtRp2655
(dp2656
g53
(dp2657
g61
I3
ssg62
g2651
sg55
(lp2658
g868
asbasbasbag48
(g64
g50
NtRp2659
(dp2660
g53
(dp2661
sg62
g2487
sg55
(lp2662
g48
(g69
g50
NtRp2663
(dp2664
g53
(dp2665
g73
g74
ssg62
g2659
sg55
(lp2666
S'HTTP_CONTENT_TYPE'
p2667
asbag48
(g69
g50
NtRp2668
(dp2669
g53
(dp2670
g80
g81
ssg62
g2659
sg55
(lp2671
S':'
asbag48
(g69
g50
NtRp2672
(dp2673
g53
(dp2674
sg62
g2659
sg55
(lp2675
g48
(g49
g50
NtRp2676
(dp2677
g53
(dp2678
g61
I3
ssg62
g2672
sg55
(lp2679
g890
asbasbasbag48
(g64
g50
NtRp2680
(dp2681
g53
(dp2682
sg62
g2487
sg55
(lp2683
g48
(g69
g50
NtRp2684
(dp2685
g53
(dp2686
g73
g74
ssg62
g2680
sg55
(lp2687
S'HTTP_COOKIE'
p2688
asbag48
(g69
g50
NtRp2689
(dp2690
g53
(dp2691
g80
g81
ssg62
g2680
sg55
(lp2692
S':'
asbag48
(g69
g50
NtRp2693
(dp2694
g53
(dp2695
sg62
g2680
sg55
(lp2696
g48
(g49
g50
NtRp2697
(dp2698
g53
(dp2699
g61
I3
ssg62
g2693
sg55
(lp2700
g1130
asbasbasbag48
(g64
g50
NtRp2701
(dp2702
g53
(dp2703
sg62
g2487
sg55
(lp2704
g48
(g69
g50
NtRp2705
(dp2706
g53
(dp2707
g73
g74
ssg62
g2701
sg55
(lp2708
S'HTTP_HOST'
p2709
asbag48
(g69
g50
NtRp2710
(dp2711
g53
(dp2712
g80
g81
ssg62
g2701
sg55
(lp2713
S':'
asbag48
(g69
g50
NtRp2714
(dp2715
g53
(dp2716
sg62
g2701
sg55
(lp2717
g48
(g49
g50
NtRp2718
(dp2719
g53
(dp2720
g61
I3
ssg62
g2714
sg55
(lp2721
g1152
asbasbasbag48
(g64
g50
NtRp2722
(dp2723
g53
(dp2724
sg62
g2487
sg55
(lp2725
g48
(g69
g50
NtRp2726
(dp2727
g53
(dp2728
g73
g74
ssg62
g2722
sg55
(lp2729
S'HTTP_ORIGIN'
p2730
asbag48
(g69
g50
NtRp2731
(dp2732
g53
(dp2733
g80
g81
ssg62
g2722
sg55
(lp2734
S':'
asbag48
(g69
g50
NtRp2735
(dp2736
g53
(dp2737
sg62
g2722
sg55
(lp2738
g48
(g49
g50
NtRp2739
(dp2740
g53
(dp2741
g61
I3
ssg62
g2735
sg55
(lp2742
g1174
asbasbasbag48
(g64
g50
NtRp2743
(dp2744
g53
(dp2745
sg62
g2487
sg55
(lp2746
g48
(g69
g50
NtRp2747
(dp2748
g53
(dp2749
g73
g74
ssg62
g2743
sg55
(lp2750
S'HTTP_REFERER'
p2751
asbag48
(g69
g50
NtRp2752
(dp2753
g53
(dp2754
g80
g81
ssg62
g2743
sg55
(lp2755
S':'
asbag48
(g69
g50
NtRp2756
(dp2757
g53
(dp2758
sg62
g2743
sg55
(lp2759
g48
(g49
g50
NtRp2760
(dp2761
g53
(dp2762
g61
I3
ssg62
g2756
sg55
(lp2763
g1196
asbasbasbag48
(g64
g50
NtRp2764
(dp2765
g53
(dp2766
sg62
g2487
sg55
(lp2767
g48
(g69
g50
NtRp2768
(dp2769
g53
(dp2770
g73
g74
ssg62
g2764
sg55
(lp2771
S'HTTP_USER_AGENT'
p2772
asbag48
(g69
g50
NtRp2773
(dp2774
g53
(dp2775
g80
g81
ssg62
g2764
sg55
(lp2776
S':'
asbag48
(g69
g50
NtRp2777
(dp2778
g53
(dp2779
sg62
g2764
sg55
(lp2780
g48
(g49
g50
NtRp2781
(dp2782
g53
(dp2783
g61
I3
ssg62
g2777
sg55
(lp2784
g1218
asbasbasbag48
(g64
g50
NtRp2785
(dp2786
g53
(dp2787
sg62
g2487
sg55
(lp2788
g48
(g69
g50
NtRp2789
(dp2790
g53
(dp2791
g73
g74
ssg62
g2785
sg55
(lp2792
S'HTTP_X_REQUESTED_WITH'
p2793
asbag48
(g69
g50
NtRp2794
(dp2795
g53
(dp2796
g80
g81
ssg62
g2785
sg55
(lp2797
S':'
asbag48
(g69
g50
NtRp2798
(dp2799
g53
(dp2800
sg62
g2785
sg55
(lp2801
g48
(g49
g50
NtRp2802
(dp2803
g53
(dp2804
g61
I3
ssg62
g2798
sg55
(lp2805
g1240
asbasbasbag48
(g64
g50
NtRp2806
(dp2807
g53
(dp2808
sg62
g2487
sg55
(lp2809
g48
(g69
g50
NtRp2810
(dp2811
g53
(dp2812
g73
g74
ssg62
g2806
sg55
(lp2813
S'PATH_INFO'
p2814
asbag48
(g69
g50
NtRp2815
(dp2816
g53
(dp2817
g80
g81
ssg62
g2806
sg55
(lp2818
S':'
asbag48
(g69
g50
NtRp2819
(dp2820
g53
(dp2821
sg62
g2806
sg55
(lp2822
g48
(g49
g50
NtRp2823
(dp2824
g53
(dp2825
g61
I3
ssg62
g2819
sg55
(lp2826
g1283
asbasbasbag48
(g64
g50
NtRp2827
(dp2828
g53
(dp2829
sg62
g2487
sg55
(lp2830
g48
(g69
g50
NtRp2831
(dp2832
g53
(dp2833
g73
g74
ssg62
g2827
sg55
(lp2834
S'QUERY_STRING'
p2835
asbag48
(g69
g50
NtRp2836
(dp2837
g53
(dp2838
g80
g81
ssg62
g2827
sg55
(lp2839
S':'
asbag48
(g69
g50
NtRp2840
(dp2841
g53
(dp2842
sg62
g2827
sg55
(lp2843
g48
(g49
g50
NtRp2844
(dp2845
g53
(dp2846
g61
I3
ssg62
g2840
sg55
(lp2847
S''
asbasbasbag48
(g64
g50
NtRp2848
(dp2849
g53
(dp2850
sg62
g2487
sg55
(lp2851
g48
(g69
g50
NtRp2852
(dp2853
g53
(dp2854
g73
g74
ssg62
g2848
sg55
(lp2855
S'REMOTE_ADDR'
p2856
asbag48
(g69
g50
NtRp2857
(dp2858
g53
(dp2859
g80
g81
ssg62
g2848
sg55
(lp2860
S':'
asbag48
(g69
g50
NtRp2861
(dp2862
g53
(dp2863
sg62
g2848
sg55
(lp2864
g48
(g49
g50
NtRp2865
(dp2866
g53
(dp2867
g61
I3
ssg62
g2861
sg55
(lp2868
g181
asbasbasbag48
(g64
g50
NtRp2869
(dp2870
g53
(dp2871
sg62
g2487
sg55
(lp2872
g48
(g69
g50
NtRp2873
(dp2874
g53
(dp2875
g73
g74
ssg62
g2869
sg55
(lp2876
S'REMOTE_PORT'
p2877
asbag48
(g69
g50
NtRp2878
(dp2879
g53
(dp2880
g80
g81
ssg62
g2869
sg55
(lp2881
S':'
asbag48
(g69
g50
NtRp2882
(dp2883
g53
(dp2884
sg62
g2869
sg55
(lp2885
g48
(g49
g50
NtRp2886
(dp2887
g53
(dp2888
g61
I3
ssg62
g2882
sg55
(lp2889
g1347
asbasbasbag48
(g64
g50
NtRp2890
(dp2891
g53
(dp2892
sg62
g2487
sg55
(lp2893
g48
(g69
g50
NtRp2894
(dp2895
g53
(dp2896
g73
g74
ssg62
g2890
sg55
(lp2897
S'REQUEST_METHOD'
p2898
asbag48
(g69
g50
NtRp2899
(dp2900
g53
(dp2901
g80
g81
ssg62
g2890
sg55
(lp2902
S':'
asbag48
(g69
g50
NtRp2903
(dp2904
g53
(dp2905
sg62
g2890
sg55
(lp2906
g48
(g49
g50
NtRp2907
(dp2908
g53
(dp2909
g61
I3
ssg62
g2903
sg55
(lp2910
g1369
asbasbasbag48
(g64
g50
NtRp2911
(dp2912
g53
(dp2913
sg62
g2487
sg55
(lp2914
g48
(g69
g50
NtRp2915
(dp2916
g53
(dp2917
g73
g74
ssg62
g2911
sg55
(lp2918
S'SCRIPT_NAME'
p2919
asbag48
(g69
g50
NtRp2920
(dp2921
g53
(dp2922
g80
g81
ssg62
g2911
sg55
(lp2923
S':'
asbag48
(g69
g50
NtRp2924
(dp2925
g53
(dp2926
sg62
g2911
sg55
(lp2927
g48
(g49
g50
NtRp2928
(dp2929
g53
(dp2930
g61
I3
ssg62
g2924
sg55
(lp2931
S''
asbasbasbag48
(g64
g50
NtRp2932
(dp2933
g53
(dp2934
sg62
g2487
sg55
(lp2935
g48
(g69
g50
NtRp2936
(dp2937
g53
(dp2938
g73
g74
ssg62
g2932
sg55
(lp2939
S'SERVER_NAME'
p2940
asbag48
(g69
g50
NtRp2941
(dp2942
g53
(dp2943
g80
g81
ssg62
g2932
sg55
(lp2944
S':'
asbag48
(g69
g50
NtRp2945
(dp2946
g53
(dp2947
sg62
g2932
sg55
(lp2948
g48
(g49
g50
NtRp2949
(dp2950
g53
(dp2951
g61
I3
ssg62
g2945
sg55
(lp2952
g1412
asbasbasbag48
(g64
g50
NtRp2953
(dp2954
g53
(dp2955
sg62
g2487
sg55
(lp2956
g48
(g69
g50
NtRp2957
(dp2958
g53
(dp2959
g73
g74
ssg62
g2953
sg55
(lp2960
S'SERVER_PORT'
p2961
asbag48
(g69
g50
NtRp2962
(dp2963
g53
(dp2964
g80
g81
ssg62
g2953
sg55
(lp2965
S':'
asbag48
(g69
g50
NtRp2966
(dp2967
g53
(dp2968
sg62
g2953
sg55
(lp2969
g48
(g49
g50
NtRp2970
(dp2971
g53
(dp2972
g61
I3
ssg62
g2966
sg55
(lp2973
g1434
asbasbasbag48
(g64
g50
NtRp2974
(dp2975
g53
(dp2976
sg62
g2487
sg55
(lp2977
g48
(g69
g50
NtRp2978
(dp2979
g53
(dp2980
g73
g74
ssg62
g2974
sg55
(lp2981
S'SERVER_PROTOCOL'
p2982
asbag48
(g69
g50
NtRp2983
(dp2984
g53
(dp2985
g80
g81
ssg62
g2974
sg55
(lp2986
S':'
asbag48
(g69
g50
NtRp2987
(dp2988
g53
(dp2989
sg62
g2974
sg55
(lp2990
g48
(g49
g50
NtRp2991
(dp2992
g53
(dp2993
g61
I3
ssg62
g2987
sg55
(lp2994
g1456
asbasbasbag48
(g64
g50
NtRp2995
(dp2996
g53
(dp2997
sg62
g2487
sg55
(lp2998
g48
(g69
g50
NtRp2999
(dp3000
g53
(dp3001
g73
g74
ssg62
g2995
sg55
(lp3002
S'SERVER_SOFTWARE'
p3003
asbag48
(g69
g50
NtRp3004
(dp3005
g53
(dp3006
g80
g81
ssg62
g2995
sg55
(lp3007
S':'
asbag48
(g69
g50
NtRp3008
(dp3009
g53
(dp3010
sg62
g2995
sg55
(lp3011
g48
(g49
g50
NtRp3012
(dp3013
g53
(dp3014
g61
I3
ssg62
g3008
sg55
(lp3015
g1478
asbasbasbag48
(g64
g50
NtRp3016
(dp3017
g53
(dp3018
sg62
g2487
sg55
(lp3019
g48
(g69
g50
NtRp3020
(dp3021
g53
(dp3022
g73
g74
ssg62
g3016
sg55
(lp3023
S'wsgi.errors'
p3024
asbag48
(g69
g50
NtRp3025
(dp3026
g53
(dp3027
g80
g81
ssg62
g3016
sg55
(lp3028
S':'
asbag48
(g69
g50
NtRp3029
(dp3030
g53
(dp3031
sg62
g3016
sg55
(lp3032
g48
(g49
g50
NtRp3033
(dp3034
g53
(dp3035
g61
I3
ssg62
g3029
sg55
(lp3036
S"<open file '<stderr>', mode 'w' at 0x015100B0>"
p3037
asbasbasbag48
(g64
g50
NtRp3038
(dp3039
g53
(dp3040
sg62
g2487
sg55
(lp3041
g48
(g69
g50
NtRp3042
(dp3043
g53
(dp3044
g73
g74
ssg62
g3038
sg55
(lp3045
S'wsgi.file_wrapper'
p3046
asbag48
(g69
g50
NtRp3047
(dp3048
g53
(dp3049
g80
g81
ssg62
g3038
sg55
(lp3050
S':'
asbag48
(g69
g50
NtRp3051
(dp3052
g53
(dp3053
sg62
g3038
sg55
(lp3054
g48
(g49
g50
NtRp3055
(dp3056
g53
(dp3057
g61
I3
ssg62
g3051
sg55
(lp3058
S'<class wsgiref.util.FileWrapper at 0x023E9AB0>'
p3059
asbasbasbag48
(g64
g50
NtRp3060
(dp3061
g53
(dp3062
sg62
g2487
sg55
(lp3063
g48
(g69
g50
NtRp3064
(dp3065
g53
(dp3066
g73
g74
ssg62
g3060
sg55
(lp3067
S'wsgi.input'
p3068
asbag48
(g69
g50
NtRp3069
(dp3070
g53
(dp3071
g80
g81
ssg62
g3060
sg55
(lp3072
S':'
asbag48
(g69
g50
NtRp3073
(dp3074
g53
(dp3075
sg62
g3060
sg55
(lp3076
g48
(g49
g50
NtRp3077
(dp3078
g53
(dp3079
g61
I3
ssg62
g3073
sg55
(lp3080
S"<open file '<fdopen>', mode 'w+b' at 0x0595C020>"
p3081
asbasbasbag48
(g64
g50
NtRp3082
(dp3083
g53
(dp3084
sg62
g2487
sg55
(lp3085
g48
(g69
g50
NtRp3086
(dp3087
g53
(dp3088
g73
g74
ssg62
g3082
sg55
(lp3089
S'wsgi.multiprocess'
p3090
asbag48
(g69
g50
NtRp3091
(dp3092
g53
(dp3093
g80
g81
ssg62
g3082
sg55
(lp3094
S':'
asbag48
(g69
g50
NtRp3095
(dp3096
g53
(dp3097
sg62
g3082
sg55
(lp3098
g48
(g49
g50
NtRp3099
(dp3100
g53
(dp3101
g61
I3
ssg62
g3095
sg55
(lp3102
g934
asbasbasbag48
(g64
g50
NtRp3103
(dp3104
g53
(dp3105
sg62
g2487
sg55
(lp3106
g48
(g69
g50
NtRp3107
(dp3108
g53
(dp3109
g73
g74
ssg62
g3103
sg55
(lp3110
S'wsgi.multithread'
p3111
asbag48
(g69
g50
NtRp3112
(dp3113
g53
(dp3114
g80
g81
ssg62
g3103
sg55
(lp3115
S':'
asbag48
(g69
g50
NtRp3116
(dp3117
g53
(dp3118
sg62
g3103
sg55
(lp3119
g48
(g49
g50
NtRp3120
(dp3121
g53
(dp3122
g61
I3
ssg62
g3116
sg55
(lp3123
g91
asbasbasbag48
(g64
g50
NtRp3124
(dp3125
g53
(dp3126
sg62
g2487
sg55
(lp3127
g48
(g69
g50
NtRp3128
(dp3129
g53
(dp3130
g73
g74
ssg62
g3124
sg55
(lp3131
S'wsgi.run_once'
p3132
asbag48
(g69
g50
NtRp3133
(dp3134
g53
(dp3135
g80
g81
ssg62
g3124
sg55
(lp3136
S':'
asbag48
(g69
g50
NtRp3137
(dp3138
g53
(dp3139
sg62
g3124
sg55
(lp3140
g48
(g49
g50
NtRp3141
(dp3142
g53
(dp3143
g61
I3
ssg62
g3137
sg55
(lp3144
g934
asbasbasbag48
(g64
g50
NtRp3145
(dp3146
g53
(dp3147
sg62
g2487
sg55
(lp3148
g48
(g69
g50
NtRp3149
(dp3150
g53
(dp3151
g73
g74
ssg62
g3145
sg55
(lp3152
S'wsgi.url_scheme'
p3153
asbag48
(g69
g50
NtRp3154
(dp3155
g53
(dp3156
g80
g81
ssg62
g3145
sg55
(lp3157
S':'
asbag48
(g69
g50
NtRp3158
(dp3159
g53
(dp3160
sg62
g3145
sg55
(lp3161
g48
(g49
g50
NtRp3162
(dp3163
g53
(dp3164
g61
I3
ssg62
g3158
sg55
(lp3165
g1760
asbasbasbag48
(g64
g50
NtRp3166
(dp3167
g53
(dp3168
sg62
g2487
sg55
(lp3169
g48
(g69
g50
NtRp3170
(dp3171
g53
(dp3172
g73
g74
ssg62
g3166
sg55
(lp3173
S'wsgi.version'
p3174
asbag48
(g69
g50
NtRp3175
(dp3176
g53
(dp3177
g80
g81
ssg62
g3166
sg55
(lp3178
S':'
asbag48
(g69
g50
NtRp3179
(dp3180
g53
(dp3181
sg62
g3166
sg55
(lp3182
g48
(g49
g50
NtRp3183
(dp3184
g53
(dp3185
g61
I3
ssg62
g3179
sg55
(lp3186
S'1'
asbasbasbasbasbasbasbasbasbasbasbasbasbsS'frames'
p3187
(lp3188
(dp3189
S'file'
p3190
S'C:\\Python32\\web2py_win\\web2py\\gluon\\restricted.py'
p3191
sS'dump'
p3192
(dp3193
sS'lnum'
p3194
I194
sS'lines'
p3195
(dp3196
sS'call'
p3197
S"(code='# -*- coding: utf-8 -*-\\n### required - do no del...esponse._vars=response._caller(obtenerCategoria)\\n', environment={'A': <class 'gluon.html.A'>, 'Auth': <class 'gluon.tools.Auth'>, 'B': <class 'gluon.html.B'>, 'BEAUTIFY': <class 'gluon.html.BEAUTIFY'>, 'BODY': <class 'gluon.html.BODY'>, 'BR': <class 'gluon.html.BR'>, 'BUTTON': <class 'gluon.html.BUTTON'>, 'CAT': <class 'gluon.html.CAT'>, 'CENTER': <class 'gluon.html.CENTER'>, 'CLEANUP': <class 'gluon.validators.CLEANUP'>, ...}, layer=r'C:\\Python32\\web2py_win\\web2py\\applications\\Casa_de_Apuestas\\controllers/default.py')"
p3198
sS'func'
p3199
S'restricted'
p3200
sa(dp3201
g3190
S'C:\\Python32\\web2py_win\\web2py\\applications\\Casa_de_Apuestas\\controllers\\default.py'
p3202
sg3192
(dp3203
sg3194
I208
sg3195
(dp3204
I197
S'    return dict(eventos=eventos)'
p3205
sI198
S''
sI199
S'def verProximosEventos2():'
p3206
sI200
S'    evento_participante= db((db.eventosparticipantes.eventos_id==request.args(0))& (db.participantes.id==db.eventosparticipantes.participantes_id)).select()'
p3207
sI201
S'    evento = db(db.eventos.id==request.args(0)).select()'
p3208
sI202
S'    categoria = db((db.categorias.id==db.eventos.categoria_id)& (db.eventos.id==request.args(0))).select()'
p3209
sI203
S'    return dict(evento_participante=evento_participante,evento=evento,categoria=categoria)'
p3210
sI204
S''
sI205
S'def indexPublico():'
p3211
sI206
S'    return dict()'
p3212
ssg3197
S'()'
p3213
sg3199
S'<module>'
p3214
sa(dp3215
g3190
S'C:\\Python32\\web2py_win\\web2py\\gluon\\globals.py'
p3216
sg3192
(dp3217
sg3194
I149
sg3195
(dp3218
sg3197
S'(f=<function obtenerCategoria at 0x0595DEB0>)'
p3219
sg3199
S'<lambda>'
p3220
sa(dp3221
g3190
S'C:\\Python32\\web2py_win\\web2py\\applications\\Casa_de_Apuestas\\controllers\\default.py'
p3222
sg3192
(dp3223
sg3194
I58
sg3195
(dp3224
I53
S'                     _onclick="jQuery(\'#categorias\').val(\'%s\')" % k.nombre +'
p3225
sI54
S'                     ";document.getElementById(\'sugerencias\').innerHTML = \'\';" +'
p3226
sI55
S'                     "document.getElementById(\'eventos_categoria_id\').value=\'%s\';" % str(k.categoria_id),'
p3227
sI56
S'                     _onmouseover="this.style.backgroundColor=\'yellow\'",'
p3228
sI57
S'                     _onmouseout="this.style.backgroundColor=\'white\'"'
p3229
sI58
S'                     ).xml() for k in seleccionado])'
p3230
sI59
S''
sI60
S'def crearEvento():'
p3231
sI61
S'        eventos = db().select(db.eventos.ALL)'
p3232
sI62
S'        form = crud.create(db.eventos)'
p3233
ssg3197
S'()'
p3234
sg3199
S'obtenerCategoria'
p3235
sa(dp3236
g3190
S'C:\\Python32\\web2py_win\\web2py\\gluon\\dal.py'
p3237
sg3192
(dp3238
sg3194
I3851
sg3195
(dp3239
sg3197
S"(self=<Row {'eventos': <gluon.dal.Set object at 0x05B2...lete_record': <function <lambda> at 0x0595D5B0>}>, key='categoria_id')"
p3240
sg3199
S'__getattr__'
p3241
sa(dp3242
g3190
S'C:\\Python32\\web2py_win\\web2py\\gluon\\dal.py'
p3243
sg3192
(dp3244
sg3194
I3842
sg3195
(dp3245
sg3197
S"(self=<Row {'eventos': <gluon.dal.Set object at 0x05B2...lete_record': <function <lambda> at 0x0595D5B0>}>, key='categoria_id')"
p3246
sg3199
g19
sasS'pyver'
p3247
S'Python 2.5.4: C:\\Python32\\web2py_win\\web2py\\web2py.exe'
p3248
sS'session'
p3249
g48
(g49
g50
NtRp3250
(dp3251
g53
(dp3252
sg55
(lp3253
g48
(g57
g50
NtRp3254
(dp3255
g53
(dp3256
g61
I5
ssg62
Nsg55
(lp3257
g48
(g64
g50
NtRp3258
(dp3259
g53
(dp3260
sg62
g3254
sg55
(lp3261
g48
(g69
g50
NtRp3262
(dp3263
g53
(dp3264
g73
g74
ssg62
g3258
sg55
(lp3265
S'last_query'
p3266
asbag48
(g69
g50
NtRp3267
(dp3268
g53
(dp3269
g80
g81
ssg62
g3258
sg55
(lp3270
S':'
asbag48
(g69
g50
NtRp3271
(dp3272
g53
(dp3273
sg62
g3258
sg55
(lp3274
g48
(g49
g50
NtRp3275
(dp3276
g53
(dp3277
g61
I5
ssg62
g3271
sg55
(lp3278
S'db.participantes.id>0'
p3279
asbasbasbasbasbsS'etype'
p3280
S"<type 'exceptions.KeyError'>"
p3281
sS'date'
p3282
S'Fri Dec 30 22:53:08 2011'
p3283
sS'response'
p3284
g48
(g49
g50
NtRp3285
(dp3286
g53
(dp3287
sg55
(lp3288
g48
(g57
g50
NtRp3289
(dp3290
g53
(dp3291
g61
I5
ssg62
Nsg55
(lp3292
g48
(g64
g50
NtRp3293
(dp3294
g53
(dp3295
sg62
g3289
sg55
(lp3296
g48
(g69
g50
NtRp3297
(dp3298
g53
(dp3299
g73
g74
ssg62
g3293
sg55
(lp3300
g146
asbag48
(g69
g50
NtRp3301
(dp3302
g53
(dp3303
g80
g81
ssg62
g3293
sg55
(lp3304
S':'
asbag48
(g69
g50
NtRp3305
(dp3306
g53
(dp3307
sg62
g3293
sg55
(lp3308
g48
(g49
g50
NtRp3309
(dp3310
g53
(dp3311
g61
I5
ssg62
g3305
sg55
(lp3312
S'<cStringIO.StringO object at 0x058BFD00>'
p3313
asbasbasbag48
(g64
g50
NtRp3314
(dp3315
g53
(dp3316
sg62
g3289
sg55
(lp3317
g48
(g69
g50
NtRp3318
(dp3319
g53
(dp3320
g73
g74
ssg62
g3314
sg55
(lp3321
g212
asbag48
(g69
g50
NtRp3322
(dp3323
g53
(dp3324
g80
g81
ssg62
g3314
sg55
(lp3325
S':'
asbag48
(g69
g50
NtRp3326
(dp3327
g53
(dp3328
sg62
g3314
sg55
(lp3329
g48
(g49
g50
NtRp3330
(dp3331
g53
(dp3332
g61
I5
ssg62
g3326
sg55
(lp3333
g48
(g57
g50
NtRp3334
(dp3335
g53
(dp3336
g61
I4
ssg62
Nsg55
(lp3337
g48
(g64
g50
NtRp3338
(dp3339
g53
(dp3340
sg62
g3334
sg55
(lp3341
g48
(g69
g50
NtRp3342
(dp3343
g53
(dp3344
g73
g74
ssg62
g3338
sg55
(lp3345
S'session_id_casa_de_apuestas'
p3346
asbag48
(g69
g50
NtRp3347
(dp3348
g53
(dp3349
g80
g81
ssg62
g3338
sg55
(lp3350
S':'
asbag48
(g69
g50
NtRp3351
(dp3352
g53
(dp3353
sg62
g3338
sg55
(lp3354
g48
(g49
g50
NtRp3355
(dp3356
g53
(dp3357
g61
I4
ssg62
g3351
sg55
(lp3358
g48
(g57
g50
NtRp3359
(dp3360
g53
(dp3361
g61
I3
ssg62
Nsg55
(lp3362
g48
(g64
g50
NtRp3363
(dp3364
g53
(dp3365
sg62
g3359
sg55
(lp3366
g48
(g69
g50
NtRp3367
(dp3368
g53
(dp3369
g73
g74
ssg62
g3363
sg55
(lp3370
g262
asbag48
(g69
g50
NtRp3371
(dp3372
g53
(dp3373
g80
g81
ssg62
g3363
sg55
(lp3374
S':'
asbag48
(g69
g50
NtRp3375
(dp3376
g53
(dp3377
sg62
g3363
sg55
(lp3378
g48
(g49
g50
NtRp3379
(dp3380
g53
(dp3381
g61
I3
ssg62
g3375
sg55
(lp3382
S''
asbasbasbag48
(g64
g50
NtRp3383
(dp3384
g53
(dp3385
sg62
g3359
sg55
(lp3386
g48
(g69
g50
NtRp3387
(dp3388
g53
(dp3389
g73
g74
ssg62
g3383
sg55
(lp3390
g283
asbag48
(g69
g50
NtRp3391
(dp3392
g53
(dp3393
g80
g81
ssg62
g3383
sg55
(lp3394
S':'
asbag48
(g69
g50
NtRp3395
(dp3396
g53
(dp3397
sg62
g3383
sg55
(lp3398
g48
(g49
g50
NtRp3399
(dp3400
g53
(dp3401
g61
I3
ssg62
g3395
sg55
(lp3402
S''
asbasbasbag48
(g64
g50
NtRp3403
(dp3404
g53
(dp3405
sg62
g3359
sg55
(lp3406
g48
(g69
g50
NtRp3407
(dp3408
g53
(dp3409
g73
g74
ssg62
g3403
sg55
(lp3410
g304
asbag48
(g69
g50
NtRp3411
(dp3412
g53
(dp3413
g80
g81
ssg62
g3403
sg55
(lp3414
S':'
asbag48
(g69
g50
NtRp3415
(dp3416
g53
(dp3417
sg62
g3403
sg55
(lp3418
g48
(g49
g50
NtRp3419
(dp3420
g53
(dp3421
g61
I3
ssg62
g3415
sg55
(lp3422
S''
asbasbasbag48
(g64
g50
NtRp3423
(dp3424
g53
(dp3425
sg62
g3359
sg55
(lp3426
g48
(g69
g50
NtRp3427
(dp3428
g53
(dp3429
g73
g74
ssg62
g3423
sg55
(lp3430
g325
asbag48
(g69
g50
NtRp3431
(dp3432
g53
(dp3433
g80
g81
ssg62
g3423
sg55
(lp3434
S':'
asbag48
(g69
g50
NtRp3435
(dp3436
g53
(dp3437
sg62
g3423
sg55
(lp3438
g48
(g49
g50
NtRp3439
(dp3440
g53
(dp3441
g61
I3
ssg62
g3435
sg55
(lp3442
S''
asbasbasbag48
(g64
g50
NtRp3443
(dp3444
g53
(dp3445
sg62
g3359
sg55
(lp3446
g48
(g69
g50
NtRp3447
(dp3448
g53
(dp3449
g73
g74
ssg62
g3443
sg55
(lp3450
g346
asbag48
(g69
g50
NtRp3451
(dp3452
g53
(dp3453
g80
g81
ssg62
g3443
sg55
(lp3454
S':'
asbag48
(g69
g50
NtRp3455
(dp3456
g53
(dp3457
sg62
g3443
sg55
(lp3458
g48
(g49
g50
NtRp3459
(dp3460
g53
(dp3461
g61
I3
ssg62
g3455
sg55
(lp3462
S'/'
asbasbasbag48
(g64
g50
NtRp3463
(dp3464
g53
(dp3465
sg62
g3359
sg55
(lp3466
g48
(g69
g50
NtRp3467
(dp3468
g53
(dp3469
g73
g74
ssg62
g3463
sg55
(lp3470
g367
asbag48
(g69
g50
NtRp3471
(dp3472
g53
(dp3473
g80
g81
ssg62
g3463
sg55
(lp3474
S':'
asbag48
(g69
g50
NtRp3475
(dp3476
g53
(dp3477
sg62
g3463
sg55
(lp3478
g48
(g49
g50
NtRp3479
(dp3480
g53
(dp3481
g61
I3
ssg62
g3475
sg55
(lp3482
S''
asbasbasbag48
(g64
g50
NtRp3483
(dp3484
g53
(dp3485
sg62
g3359
sg55
(lp3486
g48
(g69
g50
NtRp3487
(dp3488
g53
(dp3489
g73
g74
ssg62
g3483
sg55
(lp3490
g388
asbag48
(g69
g50
NtRp3491
(dp3492
g53
(dp3493
g80
g81
ssg62
g3483
sg55
(lp3494
S':'
asbag48
(g69
g50
NtRp3495
(dp3496
g53
(dp3497
sg62
g3483
sg55
(lp3498
g48
(g49
g50
NtRp3499
(dp3500
g53
(dp3501
g61
I3
ssg62
g3495
sg55
(lp3502
S''
asbasbasbasbasbasbasbasbasbasbasbag48
(g64
g50
NtRp3503
(dp3504
g53
(dp3505
sg62
g3289
sg55
(lp3506
g48
(g69
g50
NtRp3507
(dp3508
g53
(dp3509
g73
g74
ssg62
g3503
sg55
(lp3510
S'files'
p3511
asbag48
(g69
g50
NtRp3512
(dp3513
g53
(dp3514
g80
g81
ssg62
g3503
sg55
(lp3515
S':'
asbag48
(g69
g50
NtRp3516
(dp3517
g53
(dp3518
sg62
g3503
sg55
(lp3519
g48
(g49
g50
NtRp3520
(dp3521
g53
(dp3522
g61
I5
ssg62
g3516
sg55
(lp3523
g48
(g57
g50
NtRp3524
(dp3525
g53
(dp3526
g61
I4
ssg62
Nsg55
(lp3527
sbasbasbasbag48
(g64
g50
NtRp3528
(dp3529
g53
(dp3530
sg62
g3289
sg55
(lp3531
g48
(g69
g50
NtRp3532
(dp3533
g53
(dp3534
g73
g74
ssg62
g3528
sg55
(lp3535
S'flash'
p3536
asbag48
(g69
g50
NtRp3537
(dp3538
g53
(dp3539
g80
g81
ssg62
g3528
sg55
(lp3540
S':'
asbag48
(g69
g50
NtRp3541
(dp3542
g53
(dp3543
sg62
g3528
sg55
(lp3544
g48
(g49
g50
NtRp3545
(dp3546
g53
(dp3547
g61
I5
ssg62
g3541
sg55
(lp3548
S''
asbasbasbag48
(g64
g50
NtRp3549
(dp3550
g53
(dp3551
sg62
g3289
sg55
(lp3552
g48
(g69
g50
NtRp3553
(dp3554
g53
(dp3555
g73
g74
ssg62
g3549
sg55
(lp3556
S'generic_patterns'
p3557
asbag48
(g69
g50
NtRp3558
(dp3559
g53
(dp3560
g80
g81
ssg62
g3549
sg55
(lp3561
S':'
asbag48
(g69
g50
NtRp3562
(dp3563
g53
(dp3564
sg62
g3549
sg55
(lp3565
g48
(g49
g50
NtRp3566
(dp3567
g53
(dp3568
g61
I5
ssg62
g3562
sg55
(lp3569
g48
(g57
g50
NtRp3570
(dp3571
g53
(dp3572
g61
I4
ssg62
Nsg55
(lp3573
g48
(g64
g50
NtRp3574
(dp3575
g53
(dp3576
sg62
g3570
sg55
(lp3577
g48
(g69
g50
NtRp3578
(dp3579
g53
(dp3580
sg62
g3574
sg55
(lp3581
g48
(g49
g50
NtRp3582
(dp3583
g53
(dp3584
g61
I4
ssg62
g3578
sg55
(lp3585
S'*'
asbasbasbasbasbasbasbag48
(g64
g50
NtRp3586
(dp3587
g53
(dp3588
sg62
g3289
sg55
(lp3589
g48
(g69
g50
NtRp3590
(dp3591
g53
(dp3592
g73
g74
ssg62
g3586
sg55
(lp3593
S'headers'
p3594
asbag48
(g69
g50
NtRp3595
(dp3596
g53
(dp3597
g80
g81
ssg62
g3586
sg55
(lp3598
S':'
asbag48
(g69
g50
NtRp3599
(dp3600
g53
(dp3601
sg62
g3586
sg55
(lp3602
g48
(g49
g50
NtRp3603
(dp3604
g53
(dp3605
g61
I5
ssg62
g3599
sg55
(lp3606
g48
(g57
g50
NtRp3607
(dp3608
g53
(dp3609
g61
I4
ssg62
Nsg55
(lp3610
g48
(g64
g50
NtRp3611
(dp3612
g53
(dp3613
sg62
g3607
sg55
(lp3614
g48
(g69
g50
NtRp3615
(dp3616
g53
(dp3617
g73
g74
ssg62
g3611
sg55
(lp3618
S'Cache-Control'
p3619
asbag48
(g69
g50
NtRp3620
(dp3621
g53
(dp3622
g80
g81
ssg62
g3611
sg55
(lp3623
S':'
asbag48
(g69
g50
NtRp3624
(dp3625
g53
(dp3626
sg62
g3611
sg55
(lp3627
g48
(g49
g50
NtRp3628
(dp3629
g53
(dp3630
g61
I4
ssg62
g3624
sg55
(lp3631
S'no-store, no-cache, must-revalidate, post-check=0, pre-check=0'
p3632
asbasbasbag48
(g64
g50
NtRp3633
(dp3634
g53
(dp3635
sg62
g3607
sg55
(lp3636
g48
(g69
g50
NtRp3637
(dp3638
g53
(dp3639
g73
g74
ssg62
g3633
sg55
(lp3640
S'Content-Type'
p3641
asbag48
(g69
g50
NtRp3642
(dp3643
g53
(dp3644
g80
g81
ssg62
g3633
sg55
(lp3645
S':'
asbag48
(g69
g50
NtRp3646
(dp3647
g53
(dp3648
sg62
g3633
sg55
(lp3649
g48
(g49
g50
NtRp3650
(dp3651
g53
(dp3652
g61
I4
ssg62
g3646
sg55
(lp3653
S'text/html; charset=utf-8'
p3654
asbasbasbag48
(g64
g50
NtRp3655
(dp3656
g53
(dp3657
sg62
g3607
sg55
(lp3658
g48
(g69
g50
NtRp3659
(dp3660
g53
(dp3661
g73
g74
ssg62
g3655
sg55
(lp3662
S'Expires'
p3663
asbag48
(g69
g50
NtRp3664
(dp3665
g53
(dp3666
g80
g81
ssg62
g3655
sg55
(lp3667
S':'
asbag48
(g69
g50
NtRp3668
(dp3669
g53
(dp3670
sg62
g3655
sg55
(lp3671
g48
(g49
g50
NtRp3672
(dp3673
g53
(dp3674
g61
I4
ssg62
g3668
sg55
(lp3675
S'Sat, 31 Dec 2011 03:23:08 GMT'
p3676
asbasbasbag48
(g64
g50
NtRp3677
(dp3678
g53
(dp3679
sg62
g3607
sg55
(lp3680
g48
(g69
g50
NtRp3681
(dp3682
g53
(dp3683
g73
g74
ssg62
g3677
sg55
(lp3684
S'Pragma'
p3685
asbag48
(g69
g50
NtRp3686
(dp3687
g53
(dp3688
g80
g81
ssg62
g3677
sg55
(lp3689
S':'
asbag48
(g69
g50
NtRp3690
(dp3691
g53
(dp3692
sg62
g3677
sg55
(lp3693
g48
(g49
g50
NtRp3694
(dp3695
g53
(dp3696
g61
I4
ssg62
g3690
sg55
(lp3697
S'no-cache'
p3698
asbasbasbag48
(g64
g50
NtRp3699
(dp3700
g53
(dp3701
sg62
g3607
sg55
(lp3702
g48
(g69
g50
NtRp3703
(dp3704
g53
(dp3705
g73
g74
ssg62
g3699
sg55
(lp3706
S'X-Powered-By'
p3707
asbag48
(g69
g50
NtRp3708
(dp3709
g53
(dp3710
g80
g81
ssg62
g3699
sg55
(lp3711
S':'
asbag48
(g69
g50
NtRp3712
(dp3713
g53
(dp3714
sg62
g3699
sg55
(lp3715
g48
(g49
g50
NtRp3716
(dp3717
g53
(dp3718
g61
I4
ssg62
g3712
sg55
(lp3719
S'web2py'
p3720
asbasbasbasbasbasbasbag48
(g64
g50
NtRp3721
(dp3722
g53
(dp3723
sg62
g3289
sg55
(lp3724
g48
(g69
g50
NtRp3725
(dp3726
g53
(dp3727
g73
g74
ssg62
g3721
sg55
(lp3728
S'menu'
p3729
asbag48
(g69
g50
NtRp3730
(dp3731
g53
(dp3732
g80
g81
ssg62
g3721
sg55
(lp3733
S':'
asbag48
(g69
g50
NtRp3734
(dp3735
g53
(dp3736
sg62
g3721
sg55
(lp3737
g48
(g49
g50
NtRp3738
(dp3739
g53
(dp3740
g61
I5
ssg62
g3734
sg55
(lp3741
g48
(g57
g50
NtRp3742
(dp3743
g53
(dp3744
g61
I4
ssg62
Nsg55
(lp3745
g48
(g64
g50
NtRp3746
(dp3747
g53
(dp3748
sg62
g3742
sg55
(lp3749
g48
(g69
g50
NtRp3750
(dp3751
g53
(dp3752
sg62
g3746
sg55
(lp3753
g48
(g49
g50
NtRp3754
(dp3755
g53
(dp3756
g61
I4
ssg62
g3750
sg55
(lp3757
g48
(g57
g50
NtRp3758
(dp3759
g53
(dp3760
g61
I3
ssg62
Nsg55
(lp3761
g48
(g64
g50
NtRp3762
(dp3763
g53
(dp3764
sg62
g3758
sg55
(lp3765
g48
(g69
g50
NtRp3766
(dp3767
g53
(dp3768
sg62
g3762
sg55
(lp3769
g48
(g49
g50
NtRp3770
(dp3771
g53
(dp3772
g61
I3
ssg62
g3766
sg55
(lp3773
cgluon.languages
lazyT_unpickle
p3774
(S's\x05\x00\x00\x00Index'
tRp3775
asbasbasbag48
(g64
g50
NtRp3776
(dp3777
g53
(dp3778
sg62
g3758
sg55
(lp3779
g48
(g69
g50
NtRp3780
(dp3781
g53
(dp3782
sg62
g3776
sg55
(lp3783
g48
(g49
g50
NtRp3784
(dp3785
g53
(dp3786
g61
I3
ssg62
g3780
sg55
(lp3787
g934
asbasbasbag48
(g64
g50
NtRp3788
(dp3789
g53
(dp3790
sg62
g3758
sg55
(lp3791
g48
(g69
g50
NtRp3792
(dp3793
g53
(dp3794
sg62
g3788
sg55
(lp3795
g48
(g49
g50
NtRp3796
(dp3797
g53
(dp3798
g61
I3
ssg62
g3792
sg55
(lp3799
S'/Casa_de_Apuestas/default/index'
p3800
asbasbasbag48
(g64
g50
NtRp3801
(dp3802
g53
(dp3803
sg62
g3758
sg55
(lp3804
g48
(g69
g50
NtRp3805
(dp3806
g53
(dp3807
sg62
g3801
sg55
(lp3808
g48
(g49
g50
NtRp3809
(dp3810
g53
(dp3811
g61
I3
ssg62
g3805
sg55
(lp3812
g48
(g57
g50
NtRp3813
(dp3814
g53
(dp3815
g61
I2
ssg62
Nsg55
(lp3816
sbasbasbasbasbasbasbasbasbasbasbasbag48
(g64
g50
NtRp3817
(dp3818
g53
(dp3819
sg62
g3289
sg55
(lp3820
g48
(g69
g50
NtRp3821
(dp3822
g53
(dp3823
g73
g74
ssg62
g3817
sg55
(lp3824
S'meta'
p3825
asbag48
(g69
g50
NtRp3826
(dp3827
g53
(dp3828
g80
g81
ssg62
g3817
sg55
(lp3829
S':'
asbag48
(g69
g50
NtRp3830
(dp3831
g53
(dp3832
sg62
g3817
sg55
(lp3833
g48
(g49
g50
NtRp3834
(dp3835
g53
(dp3836
g61
I5
ssg62
g3830
sg55
(lp3837
g48
(g57
g50
NtRp3838
(dp3839
g53
(dp3840
g61
I4
ssg62
Nsg55
(lp3841
g48
(g64
g50
NtRp3842
(dp3843
g53
(dp3844
sg62
g3838
sg55
(lp3845
g48
(g69
g50
NtRp3846
(dp3847
g53
(dp3848
g73
g74
ssg62
g3842
sg55
(lp3849
S'author'
p3850
asbag48
(g69
g50
NtRp3851
(dp3852
g53
(dp3853
g80
g81
ssg62
g3842
sg55
(lp3854
S':'
asbag48
(g69
g50
NtRp3855
(dp3856
g53
(dp3857
sg62
g3842
sg55
(lp3858
g48
(g49
g50
NtRp3859
(dp3860
g53
(dp3861
g61
I4
ssg62
g3855
sg55
(lp3862
S'JSG Systems <jsg@example.com>'
p3863
asbasbasbag48
(g64
g50
NtRp3864
(dp3865
g53
(dp3866
sg62
g3838
sg55
(lp3867
g48
(g69
g50
NtRp3868
(dp3869
g53
(dp3870
g73
g74
ssg62
g3864
sg55
(lp3871
S'description'
p3872
asbag48
(g69
g50
NtRp3873
(dp3874
g53
(dp3875
g80
g81
ssg62
g3864
sg55
(lp3876
S':'
asbag48
(g69
g50
NtRp3877
(dp3878
g53
(dp3879
sg62
g3864
sg55
(lp3880
g48
(g49
g50
NtRp3881
(dp3882
g53
(dp3883
g61
I4
ssg62
g3877
sg55
(lp3884
S''
asbasbasbag48
(g64
g50
NtRp3885
(dp3886
g53
(dp3887
sg62
g3838
sg55
(lp3888
g48
(g69
g50
NtRp3889
(dp3890
g53
(dp3891
g73
g74
ssg62
g3885
sg55
(lp3892
S'keywords'
p3893
asbag48
(g69
g50
NtRp3894
(dp3895
g53
(dp3896
g80
g81
ssg62
g3885
sg55
(lp3897
S':'
asbag48
(g69
g50
NtRp3898
(dp3899
g53
(dp3900
sg62
g3885
sg55
(lp3901
g48
(g49
g50
NtRp3902
(dp3903
g53
(dp3904
g61
I4
ssg62
g3898
sg55
(lp3905
S'casa, apuestas'
p3906
asbasbasbasbasbasbasbag48
(g64
g50
NtRp3907
(dp3908
g53
(dp3909
sg62
g3289
sg55
(lp3910
g48
(g69
g50
NtRp3911
(dp3912
g53
(dp3913
g73
g74
ssg62
g3907
sg55
(lp3914
S'postprocessing'
p3915
asbag48
(g69
g50
NtRp3916
(dp3917
g53
(dp3918
g80
g81
ssg62
g3907
sg55
(lp3919
S':'
asbag48
(g69
g50
NtRp3920
(dp3921
g53
(dp3922
sg62
g3907
sg55
(lp3923
g48
(g49
g50
NtRp3924
(dp3925
g53
(dp3926
g61
I5
ssg62
g3920
sg55
(lp3927
g48
(g57
g50
NtRp3928
(dp3929
g53
(dp3930
g61
I4
ssg62
Nsg55
(lp3931
sbasbasbasbag48
(g64
g50
NtRp3932
(dp3933
g53
(dp3934
sg62
g3289
sg55
(lp3935
g48
(g69
g50
NtRp3936
(dp3937
g53
(dp3938
g73
g74
ssg62
g3932
sg55
(lp3939
S'session_file'
p3940
asbag48
(g69
g50
NtRp3941
(dp3942
g53
(dp3943
g80
g81
ssg62
g3932
sg55
(lp3944
S':'
asbag48
(g69
g50
NtRp3945
(dp3946
g53
(dp3947
sg62
g3932
sg55
(lp3948
g48
(g49
g50
NtRp3949
(dp3950
g53
(dp3951
g61
I5
ssg62
g3945
sg55
(lp3952
S"<open file 'C:\\Python32\\web2py_win\\web2py\\applications\\Casa_de_Apuestas\\sessions\\127.0.0.1-65396f84-b88a-420e-b156-5296560680a0', mode 'rb+' at 0x0595C4E8>"
p3953
asbasbasbag48
(g64
g50
NtRp3954
(dp3955
g53
(dp3956
sg62
g3289
sg55
(lp3957
g48
(g69
g50
NtRp3958
(dp3959
g53
(dp3960
g73
g74
ssg62
g3954
sg55
(lp3961
S'session_filename'
p3962
asbag48
(g69
g50
NtRp3963
(dp3964
g53
(dp3965
g80
g81
ssg62
g3954
sg55
(lp3966
S':'
asbag48
(g69
g50
NtRp3967
(dp3968
g53
(dp3969
sg62
g3954
sg55
(lp3970
g48
(g49
g50
NtRp3971
(dp3972
g53
(dp3973
g61
I5
ssg62
g3967
sg55
(lp3974
S'C:\\Python32\\web2py_win\\web2py\\applications\\Casa_de_Apuestas\\sessions\\127.0.0.1-65396f84-b88a-420e-b156-5296560680a0'
p3975
asbasbasbag48
(g64
g50
NtRp3976
(dp3977
g53
(dp3978
sg62
g3289
sg55
(lp3979
g48
(g69
g50
NtRp3980
(dp3981
g53
(dp3982
g73
g74
ssg62
g3976
sg55
(lp3983
S'session_id'
p3984
asbag48
(g69
g50
NtRp3985
(dp3986
g53
(dp3987
g80
g81
ssg62
g3976
sg55
(lp3988
S':'
asbag48
(g69
g50
NtRp3989
(dp3990
g53
(dp3991
sg62
g3976
sg55
(lp3992
g48
(g49
g50
NtRp3993
(dp3994
g53
(dp3995
g61
I5
ssg62
g3989
sg55
(lp3996
S'127.0.0.1-65396f84-b88a-420e-b156-5296560680a0'
p3997
asbasbasbag48
(g64
g50
NtRp3998
(dp3999
g53
(dp4000
sg62
g3289
sg55
(lp4001
g48
(g69
g50
NtRp4002
(dp4003
g53
(dp4004
g73
g74
ssg62
g3998
sg55
(lp4005
S'session_id_name'
p4006
asbag48
(g69
g50
NtRp4007
(dp4008
g53
(dp4009
g80
g81
ssg62
g3998
sg55
(lp4010
S':'
asbag48
(g69
g50
NtRp4011
(dp4012
g53
(dp4013
sg62
g3998
sg55
(lp4014
g48
(g49
g50
NtRp4015
(dp4016
g53
(dp4017
g61
I5
ssg62
g4011
sg55
(lp4018
g3346
asbasbasbag48
(g64
g50
NtRp4019
(dp4020
g53
(dp4021
sg62
g3289
sg55
(lp4022
g48
(g69
g50
NtRp4023
(dp4024
g53
(dp4025
g73
g74
ssg62
g4019
sg55
(lp4026
S'session_locked'
p4027
asbag48
(g69
g50
NtRp4028
(dp4029
g53
(dp4030
g80
g81
ssg62
g4019
sg55
(lp4031
S':'
asbag48
(g69
g50
NtRp4032
(dp4033
g53
(dp4034
sg62
g4019
sg55
(lp4035
g48
(g49
g50
NtRp4036
(dp4037
g53
(dp4038
g61
I5
ssg62
g4032
sg55
(lp4039
g91
asbasbasbag48
(g64
g50
NtRp4040
(dp4041
g53
(dp4042
sg62
g3289
sg55
(lp4043
g48
(g69
g50
NtRp4044
(dp4045
g53
(dp4046
g73
g74
ssg62
g4040
sg55
(lp4047
S'session_new'
p4048
asbag48
(g69
g50
NtRp4049
(dp4050
g53
(dp4051
g80
g81
ssg62
g4040
sg55
(lp4052
S':'
asbag48
(g69
g50
NtRp4053
(dp4054
g53
(dp4055
sg62
g4040
sg55
(lp4056
g48
(g49
g50
NtRp4057
(dp4058
g53
(dp4059
g61
I5
ssg62
g4053
sg55
(lp4060
g934
asbasbasbag48
(g64
g50
NtRp4061
(dp4062
g53
(dp4063
sg62
g3289
sg55
(lp4064
g48
(g69
g50
NtRp4065
(dp4066
g53
(dp4067
g73
g74
ssg62
g4061
sg55
(lp4068
S'status'
p4069
asbag48
(g69
g50
NtRp4070
(dp4071
g53
(dp4072
g80
g81
ssg62
g4061
sg55
(lp4073
S':'
asbag48
(g69
g50
NtRp4074
(dp4075
g53
(dp4076
sg62
g4061
sg55
(lp4077
g48
(g49
g50
NtRp4078
(dp4079
g53
(dp4080
g61
I5
ssg62
g4074
sg55
(lp4081
S'200'
p4082
asbasbasbag48
(g64
g50
NtRp4083
(dp4084
g53
(dp4085
sg62
g3289
sg55
(lp4086
g48
(g69
g50
NtRp4087
(dp4088
g53
(dp4089
g73
g74
ssg62
g4083
sg55
(lp4090
S'subtitle'
p4091
asbag48
(g69
g50
NtRp4092
(dp4093
g53
(dp4094
g80
g81
ssg62
g4083
sg55
(lp4095
S':'
asbag48
(g69
g50
NtRp4096
(dp4097
g53
(dp4098
sg62
g4083
sg55
(lp4099
g48
(g49
g50
NtRp4100
(dp4101
g53
(dp4102
g61
I5
ssg62
g4096
sg55
(lp4103
S''
asbasbasbag48
(g64
g50
NtRp4104
(dp4105
g53
(dp4106
sg62
g3289
sg55
(lp4107
g48
(g69
g50
NtRp4108
(dp4109
g53
(dp4110
g73
g74
ssg62
g4104
sg55
(lp4111
S'title'
p4112
asbag48
(g69
g50
NtRp4113
(dp4114
g53
(dp4115
g80
g81
ssg62
g4104
sg55
(lp4116
S':'
asbag48
(g69
g50
NtRp4117
(dp4118
g53
(dp4119
sg62
g4104
sg55
(lp4120
g48
(g49
g50
NtRp4121
(dp4122
g53
(dp4123
g61
I5
ssg62
g4117
sg55
(lp4124
S'Casa de Apuestas'
p4125
asbasbasbag48
(g64
g50
NtRp4126
(dp4127
g53
(dp4128
sg62
g3289
sg55
(lp4129
g48
(g69
g50
NtRp4130
(dp4131
g53
(dp4132
g73
g74
ssg62
g4126
sg55
(lp4133
g2382
asbag48
(g69
g50
NtRp4134
(dp4135
g53
(dp4136
g80
g81
ssg62
g4126
sg55
(lp4137
S':'
asbag48
(g69
g50
NtRp4138
(dp4139
g53
(dp4140
sg62
g4126
sg55
(lp4141
g48
(g49
g50
NtRp4142
(dp4143
g53
(dp4144
g61
I5
ssg62
g4138
sg55
(lp4145
g2395
asbasbasbag48
(g64
g50
NtRp4146
(dp4147
g53
(dp4148
sg62
g3289
sg55
(lp4149
g48
(g69
g50
NtRp4150
(dp4151
g53
(dp4152
g73
g74
ssg62
g4146
sg55
(lp4153
S'view'
p4154
asbag48
(g69
g50
NtRp4155
(dp4156
g53
(dp4157
g80
g81
ssg62
g4146
sg55
(lp4158
S':'
asbag48
(g69
g50
NtRp4159
(dp4160
g53
(dp4161
sg62
g4146
sg55
(lp4162
g48
(g49
g50
NtRp4163
(dp4164
g53
(dp4165
g61
I5
ssg62
g4159
sg55
(lp4166
S'default/obtenerCategoria.html'
p4167
asbasbasbasbasbsS'locals'
p4168
(dp4169
S'self'
p4170
S"<Row {'eventos': <gluon.dal.Set object at 0x05B2...lete_record': <function <lambda> at 0x0595D5B0>}>"
p4171
sS'm'
S'None'
p4172
sS'key'
p4173
S"'categoria_id'"
p4174
sssS'traceback'
p4175
S'Traceback (most recent call last):\n  File "gluon/restricted.py", line 194, in restricted\n  File "C:\\Python32\\web2py_win\\web2py\\applications\\Casa_de_Apuestas\\controllers/default.py", line 208, in <module>\n  File "gluon/globals.py", line 149, in <lambda>\n  File "C:\\Python32\\web2py_win\\web2py\\applications\\Casa_de_Apuestas\\controllers/default.py", line 58, in obtenerCategoria\n  File "gluon/dal.py", line 3851, in __getattr__\n  File "gluon/dal.py", line 3842, in __getitem__\nKeyError: \'categoria_id\'\n'
p4176
s.