(dp1
S'output'
p2
S''
sS'layer'
p3
S'C:\\Users\\Gary\\Desktop\\web2py\\applications\\Casa_de_Apuestas\\controllers/appadmin.py'
p4
sS'code'
p5
S'# -*- coding: utf-8 -*-\n\n# ##########################################################\n# ## make sure administrator is on localhost\n# ###########################################################\n\nimport os\nimport socket\nimport datetime\nimport copy\nimport gluon.contenttype\nimport gluon.fileutils\n\n# ## critical --- make a copy of the environment\n\nglobal_env = copy.copy(globals())\nglobal_env[\'datetime\'] = datetime\n\nhttp_host = request.env.http_host.split(\':\')[0]\nremote_addr = request.env.remote_addr\ntry:\n    hosts = (http_host, socket.gethostname(),\n             socket.gethostbyname(http_host),\n             \'::1\',\'127.0.0.1\',\'::ffff:127.0.0.1\')\nexcept:\n    hosts = (http_host, )\n\nif request.env.http_x_forwarded_for or request.env.wsgi_url_scheme\\\n     in [\'https\', \'HTTPS\']:\n    session.secure()\nelif (remote_addr not in hosts) and (remote_addr != "127.0.0.1"):\n    raise HTTP(200, T(\'appadmin is disabled because insecure channel\'))\n\nif (request.application==\'admin\' and not session.authorized) or \\\n        (request.application!=\'admin\' and not gluon.fileutils.check_credentials(request)):\n    redirect(URL(\'admin\', \'default\', \'index\'))\n\nignore_rw = True\nresponse.view = \'appadmin.html\'\nresponse.menu = [[T(\'design\'), False, URL(\'admin\', \'default\', \'design\',\n                 args=[request.application])], [T(\'db\'), False,\n                 URL(\'index\')], [T(\'state\'), False,\n                 URL(\'state\')], [T(\'cache\'), False,\n                 URL(\'ccache\')]]\n\n# ##########################################################\n# ## auxiliary functions\n# ###########################################################\n\n\ndef get_databases(request):\n    dbs = {}\n    for (key, value) in global_env.items():\n        cond = False\n        try:\n            cond = isinstance(value, GQLDB)\n        except:\n            cond = isinstance(value, SQLDB)\n        if cond:\n            dbs[key] = value\n    return dbs\n\n\ndatabases = get_databases(None)\n\n\ndef eval_in_global_env(text):\n    exec (\'_ret=%s\' % text, {}, global_env)\n    return global_env[\'_ret\']\n\n\ndef get_database(request):\n    if request.args and request.args[0] in databases:\n        return eval_in_global_env(request.args[0])\n    else:\n        session.flash = T(\'invalid request\')\n        redirect(URL(\'index\'))\n\n\ndef get_table(request):\n    db = get_database(request)\n    if len(request.args) > 1 and request.args[1] in db.tables:\n        return (db, request.args[1])\n    else:\n        session.flash = T(\'invalid request\')\n        redirect(URL(\'index\'))\n\n\ndef get_query(request):\n    try:\n        return eval_in_global_env(request.vars.query)\n    except Exception:\n        return None\n\n\ndef query_by_table_type(tablename,db,request=request):\n    keyed = hasattr(db[tablename],\'_primarykey\')\n    if keyed:\n        firstkey = db[tablename][db[tablename]._primarykey[0]]\n        cond = \'>0\'\n        if firstkey.type in [\'string\', \'text\']:\n            cond = \'!=""\'\n        qry = \'%s.%s.%s%s\' % (request.args[0], request.args[1], firstkey.name, cond)\n    else:\n        qry = \'%s.%s.id>0\' % tuple(request.args[:2])\n    return qry\n\n\n\n# ##########################################################\n# ## list all databases and tables\n# ###########################################################\n\n\ndef index():\n    return dict(databases=databases)\n\n\n# ##########################################################\n# ## insert a new record\n# ###########################################################\n\n\ndef insert():\n    (db, table) = get_table(request)\n    form = SQLFORM(db[table], ignore_rw=ignore_rw)\n    if form.accepts(request.vars, session):\n        response.flash = T(\'new record inserted\')\n    return dict(form=form,table=db[table])\n\n\n# ##########################################################\n# ## list all records in table and insert new record\n# ###########################################################\n\n\ndef download():\n    import os\n    db = get_database(request)\n    return response.download(request,db)\n\ndef csv():\n    import gluon.contenttype\n    response.headers[\'Content-Type\'] = \\\n        gluon.contenttype.contenttype(\'.csv\')\n    db = get_database(request)\n    query = get_query(request)\n    if not query:\n        return None\n    response.headers[\'Content-disposition\'] = \'attachment; filename=%s_%s.csv\'\\\n         % tuple(request.vars.query.split(\'.\')[:2])\n    return str(db(query).select())\n\n\ndef import_csv(table, file):\n    table.import_from_csv_file(file)\n\ndef select():\n    import re\n    db = get_database(request)\n    dbname = request.args[0]\n    regex = re.compile(\'(?P<table>\\w+)\\.(?P<field>\\w+)=(?P<value>\\d+)\')\n    if len(request.args)>1 and hasattr(db[request.args[1]],\'_primarykey\'):\n        regex = re.compile(\'(?P<table>\\w+)\\.(?P<field>\\w+)=(?P<value>.+)\')\n    if request.vars.query:\n        match = regex.match(request.vars.query)\n        if match:\n            request.vars.query = \'%s.%s.%s==%s\' % (request.args[0],\n                    match.group(\'table\'), match.group(\'field\'),\n                    match.group(\'value\'))\n    else:\n        request.vars.query = session.last_query\n    query = get_query(request)\n    if request.vars.start:\n        start = int(request.vars.start)\n    else:\n        start = 0\n    nrows = 0\n    stop = start + 100\n    table = None\n    rows = []\n    orderby = request.vars.orderby\n    if orderby:\n        orderby = dbname + \'.\' + orderby\n        if orderby == session.last_orderby:\n            if orderby[0] == \'~\':\n                orderby = orderby[1:]\n            else:\n                orderby = \'~\' + orderby\n    session.last_orderby = orderby\n    session.last_query = request.vars.query\n    form = FORM(TABLE(TR(T(\'Query:\'), \'\', INPUT(_style=\'width:400px\',\n                _name=\'query\', _value=request.vars.query or \'\',\n                requires=IS_NOT_EMPTY(error_message=T("Cannot be empty")))), TR(T(\'Update:\'),\n                INPUT(_name=\'update_check\', _type=\'checkbox\',\n                value=False), INPUT(_style=\'width:400px\',\n                _name=\'update_fields\', _value=request.vars.update_fields\n                 or \'\')), TR(T(\'Delete:\'), INPUT(_name=\'delete_check\',\n                _class=\'delete\', _type=\'checkbox\', value=False), \'\'),\n                TR(\'\', \'\', INPUT(_type=\'submit\', _value=\'submit\'))),\n                _action=URL(r=request,args=request.args))\n    if request.vars.csvfile != None:\n        try:\n            import_csv(db[request.vars.table],\n                       request.vars.csvfile.file)\n            response.flash = T(\'data uploaded\')\n        except Exception, e:\n            response.flash = DIV(T(\'unable to parse csv file\'),PRE(str(e)))\n    if form.accepts(request.vars, formname=None):\n#         regex = re.compile(request.args[0] + \'\\.(?P<table>\\w+)\\.id\\>0\')\n        regex = re.compile(request.args[0] + \'\\.(?P<table>\\w+)\\..+\')\n\n        match = regex.match(form.vars.query.strip())\n        if match:\n            table = match.group(\'table\')\n        try:\n            nrows = db(query).count()\n            if form.vars.update_check and form.vars.update_fields:\n                db(query).update(**eval_in_global_env(\'dict(%s)\'\n                                  % form.vars.update_fields))\n                response.flash = T(\'%s rows updated\', nrows)\n            elif form.vars.delete_check:\n                db(query).delete()\n                response.flash = T(\'%s rows deleted\', nrows)\n            nrows = db(query).count()\n            if orderby:\n                rows = db(query).select(limitby=(start, stop),\n                        orderby=eval_in_global_env(orderby))\n            else:\n                rows = db(query).select(limitby=(start, stop))\n        except Exception, e:\n            (rows, nrows) = ([], 0)\n            response.flash = DIV(T(\'Invalid Query\'),PRE(str(e)))\n    return dict(\n        form=form,\n        table=table,\n        start=start,\n        stop=stop,\n        nrows=nrows,\n        rows=rows,\n        query=request.vars.query,\n        )\n\n\n# ##########################################################\n# ## edit delete one record\n# ###########################################################\n\n\ndef update():\n    (db, table) = get_table(request)\n    keyed = hasattr(db[table],\'_primarykey\')\n    record = None\n    if keyed:\n        key = [f for f in request.vars if f in db[table]._primarykey]\n        if key:\n            record = db(db[table][key[0]] == request.vars[key[0]]).select().first()\n    else:\n        record = db(db[table].id == request.args(2)).select().first()\n\n    if not record:\n        qry = query_by_table_type(table, db)\n        session.flash = T(\'record does not exist\')\n        redirect(URL(\'select\', args=request.args[:1],\n                     vars=dict(query=qry)))\n\n    if keyed:\n        for k in db[table]._primarykey:\n            db[table][k].writable=False\n\n    form = SQLFORM(db[table], record, deletable=True, delete_label=T(\'Check to delete\'),\n                   ignore_rw=ignore_rw and not keyed,\n                   linkto=URL(\'select\',\n                   args=request.args[:1]), upload=URL(r=request,\n                   f=\'download\', args=request.args[:1]))\n\n    if form.accepts(request.vars, session):\n        session.flash = T(\'done!\')\n        qry = query_by_table_type(table, db)\n        redirect(URL(\'select\', args=request.args[:1],\n                 vars=dict(query=qry)))\n    return dict(form=form,table=db[table])\n\n\n# ##########################################################\n# ## get global variables\n# ###########################################################\n\n\ndef state():\n    return dict()\n\ndef ccache():\n    form = FORM(\n        P(TAG.BUTTON("Clear CACHE?", _type="submit", _name="yes", _value="yes")),\n        P(TAG.BUTTON("Clear RAM", _type="submit", _name="ram", _value="ram")),\n        P(TAG.BUTTON("Clear DISK", _type="submit", _name="disk", _value="disk")),\n    )\n\n    if form.accepts(request.vars, session):\n        clear_ram = False\n        clear_disk = False\n        session.flash = ""\n        if request.vars.yes:\n            clear_ram = clear_disk = True\n        if request.vars.ram:\n            clear_ram = True\n        if request.vars.disk:\n            clear_disk = True\n\n        if clear_ram:\n            cache.ram.clear()\n            session.flash += "Ram Cleared "\n        if clear_disk:\n            cache.disk.clear()\n            session.flash += "Disk Cleared"\n\n        redirect(URL(r=request))\n\n    try:\n        from guppy import hpy; hp=hpy()\n    except ImportError:\n        hp = False\n\n    import shelve, os, copy, time, math\n    from gluon import portalocker\n\n    ram = {\n        \'bytes\': 0,\n        \'objects\': 0,\n        \'hits\': 0,\n        \'misses\': 0,\n        \'ratio\': 0,\n        \'oldest\': time.time()\n    }\n    disk = copy.copy(ram)\n    total = copy.copy(ram)\n\n    for key, value in cache.ram.storage.items():\n        if isinstance(value, dict):\n            ram[\'hits\'] = value[\'hit_total\'] - value[\'misses\']\n            ram[\'misses\'] = value[\'misses\']\n            try:\n                ram[\'ratio\'] = ram[\'hits\'] * 100 / value[\'hit_total\']\n            except (KeyError, ZeroDivisionError):\n                ram[\'ratio\'] = 0\n        else:\n            if hp:\n                ram[\'bytes\'] += hp.iso(value[1]).size\n                ram[\'objects\'] += hp.iso(value[1]).count\n\n                if value[0] < ram[\'oldest\']:\n                    ram[\'oldest\'] = value[0]\n\n    locker = open(os.path.join(request.folder,\n                                        \'cache/cache.lock\'), \'a\')\n    portalocker.lock(locker, portalocker.LOCK_EX)\n    disk_storage = shelve.open(os.path.join(request.folder, \'cache/cache.shelve\'))\n    try:\n        for key, value in disk_storage.items():\n            if isinstance(value, dict):\n                disk[\'hits\'] = value[\'hit_total\'] - value[\'misses\']\n                disk[\'misses\'] = value[\'misses\']\n                try:\n                    disk[\'ratio\'] = disk[\'hits\'] * 100 / value[\'hit_total\']\n                except (KeyError, ZeroDivisionError):\n                    disk[\'ratio\'] = 0\n            else:\n                if hp:\n                    disk[\'bytes\'] += hp.iso(value[1]).size\n                    disk[\'objects\'] += hp.iso(value[1]).count\n                    if value[0] < disk[\'oldest\']:\n                        disk[\'oldest\'] = value[0]\n    finally:\n        portalocker.unlock(locker)\n        locker.close()\n        disk_storage.close()\n\n    total[\'bytes\'] = ram[\'bytes\'] + disk[\'bytes\']\n    total[\'objects\'] = ram[\'objects\'] + disk[\'objects\']\n    total[\'hits\'] = ram[\'hits\'] + disk[\'hits\']\n    total[\'misses\'] = ram[\'misses\'] + disk[\'misses\']\n    try:\n        total[\'ratio\'] = total[\'hits\'] * 100 / (total[\'hits\'] + total[\'misses\'])\n    except (KeyError, ZeroDivisionError):\n        total[\'ratio\'] = 0\n\n    if disk[\'oldest\'] < ram[\'oldest\']:\n        total[\'oldest\'] = disk[\'oldest\']\n    else:\n        total[\'oldest\'] = ram[\'oldest\']\n\n    def GetInHMS(seconds):\n        hours = math.floor(seconds / 3600)\n        seconds -= hours * 3600\n        minutes = math.floor(seconds / 60)\n        seconds -= minutes * 60\n        seconds = math.floor(seconds)\n\n        return (hours, minutes, seconds)\n\n    ram[\'oldest\'] = GetInHMS(time.time() - ram[\'oldest\'])\n    disk[\'oldest\'] = GetInHMS(time.time() - disk[\'oldest\'])\n    total[\'oldest\'] = GetInHMS(time.time() - total[\'oldest\'])\n\n    return dict(form=form, total=total,\n                ram=ram, disk=disk)\n\n\nresponse._vars=response._caller(insert)\n'
p6
sS'snapshot'
p7
(dp8
S'exception'
p9
(dp10
S'__hash__'
p11
S"<method-wrapper '__hash__' of OperationalError object at 0x06E23AA8>"
p12
sS'__module__'
p13
S"'sqlite3'"
p14
sS'__reduce_ex__'
p15
S'<built-in method __reduce_ex__ of OperationalError object at 0x06E23AA8>'
p16
sS'__getslice__'
p17
S"<method-wrapper '__getslice__' of OperationalError object at 0x06E23AA8>"
p18
sS'__getitem__'
p19
S"<method-wrapper '__getitem__' of OperationalError object at 0x06E23AA8>"
p20
sS'__setstate__'
p21
S'<built-in method __setstate__ of OperationalError object at 0x06E23AA8>'
p22
sS'__reduce__'
p23
S'<built-in method __reduce__ of OperationalError object at 0x06E23AA8>'
p24
sS'__str__'
p25
S"<method-wrapper '__str__' of OperationalError object at 0x06E23AA8>"
p26
sS'args'
p27
S"('no such table: eventos_participantes',)"
p28
sS'__getattribute__'
p29
S"<method-wrapper '__getattribute__' of OperationalError object at 0x06E23AA8>"
p30
sS'__class__'
p31
S"<class 'sqlite3.OperationalError'>"
p32
sS'__delattr__'
p33
S"<method-wrapper '__delattr__' of OperationalError object at 0x06E23AA8>"
p34
sS'__repr__'
p35
S"<method-wrapper '__repr__' of OperationalError object at 0x06E23AA8>"
p36
sS'__setattr__'
p37
S"<method-wrapper '__setattr__' of OperationalError object at 0x06E23AA8>"
p38
sS'__dict__'
p39
S'{}'
p40
sS'__weakref__'
p41
S'None'
p42
sS'__doc__'
p43
S'None'
p44
sS'__init__'
p45
S"<method-wrapper '__init__' of OperationalError object at 0x06E23AA8>"
p46
sS'__new__'
p47
S'<built-in method __new__ of type object at 0x1E1CCCB0>'
p48
ssS'evalue'
p49
S'no such table: eventos_participantes'
p50
sS'request'
p51
ccopy_reg
_reconstructor
p52
(cgluon.html
BEAUTIFY
p53
c__builtin__
object
p54
NtRp55
(dp56
S'attributes'
p57
(dp58
sS'components'
p59
(lp60
g52
(cgluon.html
TABLE
p61
g54
NtRp62
(dp63
g57
(dp64
S'level'
p65
I5
ssS'parent'
p66
Nsg59
(lp67
g52
(cgluon.html
TR
p68
g54
NtRp69
(dp70
g57
(dp71
sg66
g62
sg59
(lp72
g52
(cgluon.html
TD
p73
g54
NtRp74
(dp75
g57
(dp76
S'_style'
p77
S'font-weight:bold;'
p78
ssg66
g69
sg59
(lp79
S'ajax'
p80
asbag52
(g73
g54
NtRp81
(dp82
g57
(dp83
S'_valign'
p84
S'top'
p85
ssg66
g69
sg59
(lp86
S':'
asbag52
(g73
g54
NtRp87
(dp88
g57
(dp89
sg66
g69
sg59
(lp90
g52
(g53
g54
NtRp91
(dp92
g57
(dp93
g65
I5
ssg66
g87
sg59
(lp94
S'False'
p95
asbasbasbag52
(g68
g54
NtRp96
(dp97
g57
(dp98
sg66
g62
sg59
(lp99
g52
(g73
g54
NtRp100
(dp101
g57
(dp102
g77
g78
ssg66
g96
sg59
(lp103
S'application'
p104
asbag52
(g73
g54
NtRp105
(dp106
g57
(dp107
g84
g85
ssg66
g96
sg59
(lp108
S':'
asbag52
(g73
g54
NtRp109
(dp110
g57
(dp111
sg66
g96
sg59
(lp112
g52
(g53
g54
NtRp113
(dp114
g57
(dp115
g65
I5
ssg66
g109
sg59
(lp116
S'Casa_de_Apuestas'
p117
asbasbasbag52
(g68
g54
NtRp118
(dp119
g57
(dp120
sg66
g62
sg59
(lp121
g52
(g73
g54
NtRp122
(dp123
g57
(dp124
g77
g78
ssg66
g118
sg59
(lp125
g27
asbag52
(g73
g54
NtRp126
(dp127
g57
(dp128
g84
g85
ssg66
g118
sg59
(lp129
S':'
asbag52
(g73
g54
NtRp130
(dp131
g57
(dp132
sg66
g118
sg59
(lp133
g52
(g53
g54
NtRp134
(dp135
g57
(dp136
g65
I5
ssg66
g130
sg59
(lp137
g52
(g61
g54
NtRp138
(dp139
g57
(dp140
g65
I4
ssg66
Nsg59
(lp141
g52
(g68
g54
NtRp142
(dp143
g57
(dp144
sg66
g138
sg59
(lp145
g52
(g73
g54
NtRp146
(dp147
g57
(dp148
sg66
g142
sg59
(lp149
g52
(g53
g54
NtRp150
(dp151
g57
(dp152
g65
I4
ssg66
g146
sg59
(lp153
S'db'
p154
asbasbasbag52
(g68
g54
NtRp155
(dp156
g57
(dp157
sg66
g138
sg59
(lp158
g52
(g73
g54
NtRp159
(dp160
g57
(dp161
sg66
g155
sg59
(lp162
g52
(g53
g54
NtRp163
(dp164
g57
(dp165
g65
I4
ssg66
g159
sg59
(lp166
S'eventos_participantes'
p167
asbasbasbasbasbasbasbag52
(g68
g54
NtRp168
(dp169
g57
(dp170
sg66
g62
sg59
(lp171
g52
(g73
g54
NtRp172
(dp173
g57
(dp174
g77
g78
ssg66
g168
sg59
(lp175
S'body'
p176
asbag52
(g73
g54
NtRp177
(dp178
g57
(dp179
g84
g85
ssg66
g168
sg59
(lp180
S':'
asbag52
(g73
g54
NtRp181
(dp182
g57
(dp183
sg66
g168
sg59
(lp184
g52
(g53
g54
NtRp185
(dp186
g57
(dp187
g65
I5
ssg66
g181
sg59
(lp188
S"<open file '<fdopen>', mode 'w+b' at 0x03440E78>"
p189
asbasbasbag52
(g68
g54
NtRp190
(dp191
g57
(dp192
sg66
g62
sg59
(lp193
g52
(g73
g54
NtRp194
(dp195
g57
(dp196
g77
g78
ssg66
g190
sg59
(lp197
S'client'
p198
asbag52
(g73
g54
NtRp199
(dp200
g57
(dp201
g84
g85
ssg66
g190
sg59
(lp202
S':'
asbag52
(g73
g54
NtRp203
(dp204
g57
(dp205
sg66
g190
sg59
(lp206
g52
(g53
g54
NtRp207
(dp208
g57
(dp209
g65
I5
ssg66
g203
sg59
(lp210
S'127.0.0.1'
p211
asbasbasbag52
(g68
g54
NtRp212
(dp213
g57
(dp214
sg66
g62
sg59
(lp215
g52
(g73
g54
NtRp216
(dp217
g57
(dp218
g77
g78
ssg66
g212
sg59
(lp219
S'controller'
p220
asbag52
(g73
g54
NtRp221
(dp222
g57
(dp223
g84
g85
ssg66
g212
sg59
(lp224
S':'
asbag52
(g73
g54
NtRp225
(dp226
g57
(dp227
sg66
g212
sg59
(lp228
g52
(g53
g54
NtRp229
(dp230
g57
(dp231
g65
I5
ssg66
g225
sg59
(lp232
S'appadmin'
p233
asbasbasbag52
(g68
g54
NtRp234
(dp235
g57
(dp236
sg66
g62
sg59
(lp237
g52
(g73
g54
NtRp238
(dp239
g57
(dp240
g77
g78
ssg66
g234
sg59
(lp241
S'cookies'
p242
asbag52
(g73
g54
NtRp243
(dp244
g57
(dp245
g84
g85
ssg66
g234
sg59
(lp246
S':'
asbag52
(g73
g54
NtRp247
(dp248
g57
(dp249
sg66
g234
sg59
(lp250
g52
(g53
g54
NtRp251
(dp252
g57
(dp253
g65
I5
ssg66
g247
sg59
(lp254
g52
(g61
g54
NtRp255
(dp256
g57
(dp257
g65
I4
ssg66
Nsg59
(lp258
g52
(g68
g54
NtRp259
(dp260
g57
(dp261
sg66
g255
sg59
(lp262
g52
(g73
g54
NtRp263
(dp264
g57
(dp265
g77
g78
ssg66
g259
sg59
(lp266
S'session_id_admin'
p267
asbag52
(g73
g54
NtRp268
(dp269
g57
(dp270
g84
g85
ssg66
g259
sg59
(lp271
S':'
asbag52
(g73
g54
NtRp272
(dp273
g57
(dp274
sg66
g259
sg59
(lp275
g52
(g53
g54
NtRp276
(dp277
g57
(dp278
g65
I4
ssg66
g272
sg59
(lp279
g52
(g61
g54
NtRp280
(dp281
g57
(dp282
g65
I3
ssg66
Nsg59
(lp283
g52
(g68
g54
NtRp284
(dp285
g57
(dp286
sg66
g280
sg59
(lp287
g52
(g73
g54
NtRp288
(dp289
g57
(dp290
g77
g78
ssg66
g284
sg59
(lp291
S'comment'
p292
asbag52
(g73
g54
NtRp293
(dp294
g57
(dp295
g84
g85
ssg66
g284
sg59
(lp296
S':'
asbag52
(g73
g54
NtRp297
(dp298
g57
(dp299
sg66
g284
sg59
(lp300
g52
(g53
g54
NtRp301
(dp302
g57
(dp303
g65
I3
ssg66
g297
sg59
(lp304
S''
asbasbasbag52
(g68
g54
NtRp305
(dp306
g57
(dp307
sg66
g280
sg59
(lp308
g52
(g73
g54
NtRp309
(dp310
g57
(dp311
g77
g78
ssg66
g305
sg59
(lp312
S'domain'
p313
asbag52
(g73
g54
NtRp314
(dp315
g57
(dp316
g84
g85
ssg66
g305
sg59
(lp317
S':'
asbag52
(g73
g54
NtRp318
(dp319
g57
(dp320
sg66
g305
sg59
(lp321
g52
(g53
g54
NtRp322
(dp323
g57
(dp324
g65
I3
ssg66
g318
sg59
(lp325
S''
asbasbasbag52
(g68
g54
NtRp326
(dp327
g57
(dp328
sg66
g280
sg59
(lp329
g52
(g73
g54
NtRp330
(dp331
g57
(dp332
g77
g78
ssg66
g326
sg59
(lp333
S'expires'
p334
asbag52
(g73
g54
NtRp335
(dp336
g57
(dp337
g84
g85
ssg66
g326
sg59
(lp338
S':'
asbag52
(g73
g54
NtRp339
(dp340
g57
(dp341
sg66
g326
sg59
(lp342
g52
(g53
g54
NtRp343
(dp344
g57
(dp345
g65
I3
ssg66
g339
sg59
(lp346
S''
asbasbasbag52
(g68
g54
NtRp347
(dp348
g57
(dp349
sg66
g280
sg59
(lp350
g52
(g73
g54
NtRp351
(dp352
g57
(dp353
g77
g78
ssg66
g347
sg59
(lp354
S'max-age'
p355
asbag52
(g73
g54
NtRp356
(dp357
g57
(dp358
g84
g85
ssg66
g347
sg59
(lp359
S':'
asbag52
(g73
g54
NtRp360
(dp361
g57
(dp362
sg66
g347
sg59
(lp363
g52
(g53
g54
NtRp364
(dp365
g57
(dp366
g65
I3
ssg66
g360
sg59
(lp367
S''
asbasbasbag52
(g68
g54
NtRp368
(dp369
g57
(dp370
sg66
g280
sg59
(lp371
g52
(g73
g54
NtRp372
(dp373
g57
(dp374
g77
g78
ssg66
g368
sg59
(lp375
S'path'
p376
asbag52
(g73
g54
NtRp377
(dp378
g57
(dp379
g84
g85
ssg66
g368
sg59
(lp380
S':'
asbag52
(g73
g54
NtRp381
(dp382
g57
(dp383
sg66
g368
sg59
(lp384
g52
(g53
g54
NtRp385
(dp386
g57
(dp387
g65
I3
ssg66
g381
sg59
(lp388
S''
asbasbasbag52
(g68
g54
NtRp389
(dp390
g57
(dp391
sg66
g280
sg59
(lp392
g52
(g73
g54
NtRp393
(dp394
g57
(dp395
g77
g78
ssg66
g389
sg59
(lp396
S'secure'
p397
asbag52
(g73
g54
NtRp398
(dp399
g57
(dp400
g84
g85
ssg66
g389
sg59
(lp401
S':'
asbag52
(g73
g54
NtRp402
(dp403
g57
(dp404
sg66
g389
sg59
(lp405
g52
(g53
g54
NtRp406
(dp407
g57
(dp408
g65
I3
ssg66
g402
sg59
(lp409
S''
asbasbasbag52
(g68
g54
NtRp410
(dp411
g57
(dp412
sg66
g280
sg59
(lp413
g52
(g73
g54
NtRp414
(dp415
g57
(dp416
g77
g78
ssg66
g410
sg59
(lp417
S'version'
p418
asbag52
(g73
g54
NtRp419
(dp420
g57
(dp421
g84
g85
ssg66
g410
sg59
(lp422
S':'
asbag52
(g73
g54
NtRp423
(dp424
g57
(dp425
sg66
g410
sg59
(lp426
g52
(g53
g54
NtRp427
(dp428
g57
(dp429
g65
I3
ssg66
g423
sg59
(lp430
S''
asbasbasbasbasbasbasbag52
(g68
g54
NtRp431
(dp432
g57
(dp433
sg66
g255
sg59
(lp434
g52
(g73
g54
NtRp435
(dp436
g57
(dp437
g77
g78
ssg66
g431
sg59
(lp438
S'session_id_casa_de_apuestas'
p439
asbag52
(g73
g54
NtRp440
(dp441
g57
(dp442
g84
g85
ssg66
g431
sg59
(lp443
S':'
asbag52
(g73
g54
NtRp444
(dp445
g57
(dp446
sg66
g431
sg59
(lp447
g52
(g53
g54
NtRp448
(dp449
g57
(dp450
g65
I4
ssg66
g444
sg59
(lp451
g52
(g61
g54
NtRp452
(dp453
g57
(dp454
g65
I3
ssg66
Nsg59
(lp455
g52
(g68
g54
NtRp456
(dp457
g57
(dp458
sg66
g452
sg59
(lp459
g52
(g73
g54
NtRp460
(dp461
g57
(dp462
g77
g78
ssg66
g456
sg59
(lp463
g292
asbag52
(g73
g54
NtRp464
(dp465
g57
(dp466
g84
g85
ssg66
g456
sg59
(lp467
S':'
asbag52
(g73
g54
NtRp468
(dp469
g57
(dp470
sg66
g456
sg59
(lp471
g52
(g53
g54
NtRp472
(dp473
g57
(dp474
g65
I3
ssg66
g468
sg59
(lp475
S''
asbasbasbag52
(g68
g54
NtRp476
(dp477
g57
(dp478
sg66
g452
sg59
(lp479
g52
(g73
g54
NtRp480
(dp481
g57
(dp482
g77
g78
ssg66
g476
sg59
(lp483
g313
asbag52
(g73
g54
NtRp484
(dp485
g57
(dp486
g84
g85
ssg66
g476
sg59
(lp487
S':'
asbag52
(g73
g54
NtRp488
(dp489
g57
(dp490
sg66
g476
sg59
(lp491
g52
(g53
g54
NtRp492
(dp493
g57
(dp494
g65
I3
ssg66
g488
sg59
(lp495
S''
asbasbasbag52
(g68
g54
NtRp496
(dp497
g57
(dp498
sg66
g452
sg59
(lp499
g52
(g73
g54
NtRp500
(dp501
g57
(dp502
g77
g78
ssg66
g496
sg59
(lp503
g334
asbag52
(g73
g54
NtRp504
(dp505
g57
(dp506
g84
g85
ssg66
g496
sg59
(lp507
S':'
asbag52
(g73
g54
NtRp508
(dp509
g57
(dp510
sg66
g496
sg59
(lp511
g52
(g53
g54
NtRp512
(dp513
g57
(dp514
g65
I3
ssg66
g508
sg59
(lp515
S''
asbasbasbag52
(g68
g54
NtRp516
(dp517
g57
(dp518
sg66
g452
sg59
(lp519
g52
(g73
g54
NtRp520
(dp521
g57
(dp522
g77
g78
ssg66
g516
sg59
(lp523
g355
asbag52
(g73
g54
NtRp524
(dp525
g57
(dp526
g84
g85
ssg66
g516
sg59
(lp527
S':'
asbag52
(g73
g54
NtRp528
(dp529
g57
(dp530
sg66
g516
sg59
(lp531
g52
(g53
g54
NtRp532
(dp533
g57
(dp534
g65
I3
ssg66
g528
sg59
(lp535
S''
asbasbasbag52
(g68
g54
NtRp536
(dp537
g57
(dp538
sg66
g452
sg59
(lp539
g52
(g73
g54
NtRp540
(dp541
g57
(dp542
g77
g78
ssg66
g536
sg59
(lp543
g376
asbag52
(g73
g54
NtRp544
(dp545
g57
(dp546
g84
g85
ssg66
g536
sg59
(lp547
S':'
asbag52
(g73
g54
NtRp548
(dp549
g57
(dp550
sg66
g536
sg59
(lp551
g52
(g53
g54
NtRp552
(dp553
g57
(dp554
g65
I3
ssg66
g548
sg59
(lp555
S''
asbasbasbag52
(g68
g54
NtRp556
(dp557
g57
(dp558
sg66
g452
sg59
(lp559
g52
(g73
g54
NtRp560
(dp561
g57
(dp562
g77
g78
ssg66
g556
sg59
(lp563
g397
asbag52
(g73
g54
NtRp564
(dp565
g57
(dp566
g84
g85
ssg66
g556
sg59
(lp567
S':'
asbag52
(g73
g54
NtRp568
(dp569
g57
(dp570
sg66
g556
sg59
(lp571
g52
(g53
g54
NtRp572
(dp573
g57
(dp574
g65
I3
ssg66
g568
sg59
(lp575
S''
asbasbasbag52
(g68
g54
NtRp576
(dp577
g57
(dp578
sg66
g452
sg59
(lp579
g52
(g73
g54
NtRp580
(dp581
g57
(dp582
g77
g78
ssg66
g576
sg59
(lp583
g418
asbag52
(g73
g54
NtRp584
(dp585
g57
(dp586
g84
g85
ssg66
g576
sg59
(lp587
S':'
asbag52
(g73
g54
NtRp588
(dp589
g57
(dp590
sg66
g576
sg59
(lp591
g52
(g53
g54
NtRp592
(dp593
g57
(dp594
g65
I3
ssg66
g588
sg59
(lp595
S''
asbasbasbasbasbasbasbag52
(g68
g54
NtRp596
(dp597
g57
(dp598
sg66
g255
sg59
(lp599
g52
(g73
g54
NtRp600
(dp601
g57
(dp602
g77
g78
ssg66
g596
sg59
(lp603
S'session_id_welcome'
p604
asbag52
(g73
g54
NtRp605
(dp606
g57
(dp607
g84
g85
ssg66
g596
sg59
(lp608
S':'
asbag52
(g73
g54
NtRp609
(dp610
g57
(dp611
sg66
g596
sg59
(lp612
g52
(g53
g54
NtRp613
(dp614
g57
(dp615
g65
I4
ssg66
g609
sg59
(lp616
g52
(g61
g54
NtRp617
(dp618
g57
(dp619
g65
I3
ssg66
Nsg59
(lp620
g52
(g68
g54
NtRp621
(dp622
g57
(dp623
sg66
g617
sg59
(lp624
g52
(g73
g54
NtRp625
(dp626
g57
(dp627
g77
g78
ssg66
g621
sg59
(lp628
g292
asbag52
(g73
g54
NtRp629
(dp630
g57
(dp631
g84
g85
ssg66
g621
sg59
(lp632
S':'
asbag52
(g73
g54
NtRp633
(dp634
g57
(dp635
sg66
g621
sg59
(lp636
g52
(g53
g54
NtRp637
(dp638
g57
(dp639
g65
I3
ssg66
g633
sg59
(lp640
S''
asbasbasbag52
(g68
g54
NtRp641
(dp642
g57
(dp643
sg66
g617
sg59
(lp644
g52
(g73
g54
NtRp645
(dp646
g57
(dp647
g77
g78
ssg66
g641
sg59
(lp648
g313
asbag52
(g73
g54
NtRp649
(dp650
g57
(dp651
g84
g85
ssg66
g641
sg59
(lp652
S':'
asbag52
(g73
g54
NtRp653
(dp654
g57
(dp655
sg66
g641
sg59
(lp656
g52
(g53
g54
NtRp657
(dp658
g57
(dp659
g65
I3
ssg66
g653
sg59
(lp660
S''
asbasbasbag52
(g68
g54
NtRp661
(dp662
g57
(dp663
sg66
g617
sg59
(lp664
g52
(g73
g54
NtRp665
(dp666
g57
(dp667
g77
g78
ssg66
g661
sg59
(lp668
g334
asbag52
(g73
g54
NtRp669
(dp670
g57
(dp671
g84
g85
ssg66
g661
sg59
(lp672
S':'
asbag52
(g73
g54
NtRp673
(dp674
g57
(dp675
sg66
g661
sg59
(lp676
g52
(g53
g54
NtRp677
(dp678
g57
(dp679
g65
I3
ssg66
g673
sg59
(lp680
S''
asbasbasbag52
(g68
g54
NtRp681
(dp682
g57
(dp683
sg66
g617
sg59
(lp684
g52
(g73
g54
NtRp685
(dp686
g57
(dp687
g77
g78
ssg66
g681
sg59
(lp688
g355
asbag52
(g73
g54
NtRp689
(dp690
g57
(dp691
g84
g85
ssg66
g681
sg59
(lp692
S':'
asbag52
(g73
g54
NtRp693
(dp694
g57
(dp695
sg66
g681
sg59
(lp696
g52
(g53
g54
NtRp697
(dp698
g57
(dp699
g65
I3
ssg66
g693
sg59
(lp700
S''
asbasbasbag52
(g68
g54
NtRp701
(dp702
g57
(dp703
sg66
g617
sg59
(lp704
g52
(g73
g54
NtRp705
(dp706
g57
(dp707
g77
g78
ssg66
g701
sg59
(lp708
g376
asbag52
(g73
g54
NtRp709
(dp710
g57
(dp711
g84
g85
ssg66
g701
sg59
(lp712
S':'
asbag52
(g73
g54
NtRp713
(dp714
g57
(dp715
sg66
g701
sg59
(lp716
g52
(g53
g54
NtRp717
(dp718
g57
(dp719
g65
I3
ssg66
g713
sg59
(lp720
S''
asbasbasbag52
(g68
g54
NtRp721
(dp722
g57
(dp723
sg66
g617
sg59
(lp724
g52
(g73
g54
NtRp725
(dp726
g57
(dp727
g77
g78
ssg66
g721
sg59
(lp728
g397
asbag52
(g73
g54
NtRp729
(dp730
g57
(dp731
g84
g85
ssg66
g721
sg59
(lp732
S':'
asbag52
(g73
g54
NtRp733
(dp734
g57
(dp735
sg66
g721
sg59
(lp736
g52
(g53
g54
NtRp737
(dp738
g57
(dp739
g65
I3
ssg66
g733
sg59
(lp740
S''
asbasbasbag52
(g68
g54
NtRp741
(dp742
g57
(dp743
sg66
g617
sg59
(lp744
g52
(g73
g54
NtRp745
(dp746
g57
(dp747
g77
g78
ssg66
g741
sg59
(lp748
g418
asbag52
(g73
g54
NtRp749
(dp750
g57
(dp751
g84
g85
ssg66
g741
sg59
(lp752
S':'
asbag52
(g73
g54
NtRp753
(dp754
g57
(dp755
sg66
g741
sg59
(lp756
g52
(g53
g54
NtRp757
(dp758
g57
(dp759
g65
I3
ssg66
g753
sg59
(lp760
S''
asbasbasbasbasbasbasbasbasbasbasbag52
(g68
g54
NtRp761
(dp762
g57
(dp763
sg66
g62
sg59
(lp764
g52
(g73
g54
NtRp765
(dp766
g57
(dp767
g77
g78
ssg66
g761
sg59
(lp768
S'env'
p769
asbag52
(g73
g54
NtRp770
(dp771
g57
(dp772
g84
g85
ssg66
g761
sg59
(lp773
S':'
asbag52
(g73
g54
NtRp774
(dp775
g57
(dp776
sg66
g761
sg59
(lp777
g52
(g53
g54
NtRp778
(dp779
g57
(dp780
g65
I5
ssg66
g774
sg59
(lp781
g52
(g61
g54
NtRp782
(dp783
g57
(dp784
g65
I4
ssg66
Nsg59
(lp785
g52
(g68
g54
NtRp786
(dp787
g57
(dp788
sg66
g782
sg59
(lp789
g52
(g73
g54
NtRp790
(dp791
g57
(dp792
g77
g78
ssg66
g786
sg59
(lp793
S'app_folders'
p794
asbag52
(g73
g54
NtRp795
(dp796
g57
(dp797
g84
g85
ssg66
g786
sg59
(lp798
S':'
asbag52
(g73
g54
NtRp799
(dp800
g57
(dp801
sg66
g786
sg59
(lp802
g52
(g53
g54
NtRp803
(dp804
g57
(dp805
g65
I4
ssg66
g799
sg59
(lp806
S"set(['C:\\\\Users\\\\Gary\\\\Desktop\\\\web2py\\\\applications\\\\Casa_de_Apuestas\\\\', 'C:\\\\Users\\\\Gary\\\\Desktop\\\\web2py\\\\applications\\\\welcome\\\\', 'C:\\\\Users\\\\Gary\\\\Desktop\\\\web2py\\\\applications\\\\admin\\\\'])"
p807
asbasbasbag52
(g68
g54
NtRp808
(dp809
g57
(dp810
sg66
g782
sg59
(lp811
g52
(g73
g54
NtRp812
(dp813
g57
(dp814
g77
g78
ssg66
g808
sg59
(lp815
S'applications_parent'
p816
asbag52
(g73
g54
NtRp817
(dp818
g57
(dp819
g84
g85
ssg66
g808
sg59
(lp820
S':'
asbag52
(g73
g54
NtRp821
(dp822
g57
(dp823
sg66
g808
sg59
(lp824
g52
(g53
g54
NtRp825
(dp826
g57
(dp827
g65
I4
ssg66
g821
sg59
(lp828
S'C:\\Users\\Gary\\Desktop\\web2py'
p829
asbasbasbag52
(g68
g54
NtRp830
(dp831
g57
(dp832
sg66
g782
sg59
(lp833
g52
(g73
g54
NtRp834
(dp835
g57
(dp836
g77
g78
ssg66
g830
sg59
(lp837
S'cmd_args'
p838
asbag52
(g73
g54
NtRp839
(dp840
g57
(dp841
g84
g85
ssg66
g830
sg59
(lp842
S':'
asbag52
(g73
g54
NtRp843
(dp844
g57
(dp845
sg66
g830
sg59
(lp846
g52
(g53
g54
NtRp847
(dp848
g57
(dp849
g65
I4
ssg66
g843
sg59
(lp850
g52
(g61
g54
NtRp851
(dp852
g57
(dp853
g65
I3
ssg66
Nsg59
(lp854
sbasbasbasbag52
(g68
g54
NtRp855
(dp856
g57
(dp857
sg66
g782
sg59
(lp858
g52
(g73
g54
NtRp859
(dp860
g57
(dp861
g77
g78
ssg66
g855
sg59
(lp862
S'cmd_options'
p863
asbag52
(g73
g54
NtRp864
(dp865
g57
(dp866
g84
g85
ssg66
g855
sg59
(lp867
S':'
asbag52
(g73
g54
NtRp868
(dp869
g57
(dp870
sg66
g855
sg59
(lp871
g52
(g53
g54
NtRp872
(dp873
g57
(dp874
g65
I4
ssg66
g868
sg59
(lp875
S"<Values at 0x32a2e90: {'verbose': False, 'ip': '127.0.0.1', 'shutdown_timeout': 5, 'taskbar': False, 'nocron': False, 'pid_filename': 'httpserver.pid', 'maxthreads': None, 'softcron': False, 'server_name': 'GABM', 'bpython': False, 'nogui': False, 'port': 8000, 'extcron': False, 'debuglevel': 30, 'test': None, 'folder': 'C:\\\\Users\\\\Gary\\\\Desktop\\\\web2py', 'config': '', 'import_models': False, 'winservice': '', 'shell': None, 'run': '', 'log_filename': 'httpserver.log', 'args': [''], 'ssl_ca_certificate': None, 'scheduler': None, 'profiler_filename': None, 'ssl_private_key': '', 'password': '<ask>', 'request_queue_size': 5, 'ssl_certificate': '', 'cronjob': False, 'plain': False, 'quiet': False, 'interfaces': None, 'minthreads': None, 'timeout': 10, 'numthreads': None, 'nobanner': False}>"
p876
asbasbasbag52
(g68
g54
NtRp877
(dp878
g57
(dp879
sg66
g782
sg59
(lp880
g52
(g73
g54
NtRp881
(dp882
g57
(dp883
g77
g78
ssg66
g877
sg59
(lp884
S'content_length'
p885
asbag52
(g73
g54
NtRp886
(dp887
g57
(dp888
g84
g85
ssg66
g877
sg59
(lp889
S':'
asbag52
(g73
g54
NtRp890
(dp891
g57
(dp892
sg66
g877
sg59
(lp893
g52
(g53
g54
NtRp894
(dp895
g57
(dp896
g65
I4
ssg66
g890
sg59
(lp897
S'602'
p898
asbasbasbag52
(g68
g54
NtRp899
(dp900
g57
(dp901
sg66
g782
sg59
(lp902
g52
(g73
g54
NtRp903
(dp904
g57
(dp905
g77
g78
ssg66
g899
sg59
(lp906
S'content_type'
p907
asbag52
(g73
g54
NtRp908
(dp909
g57
(dp910
g84
g85
ssg66
g899
sg59
(lp911
S':'
asbag52
(g73
g54
NtRp912
(dp913
g57
(dp914
sg66
g899
sg59
(lp915
g52
(g53
g54
NtRp916
(dp917
g57
(dp918
g65
I4
ssg66
g912
sg59
(lp919
S'multipart/form-data; boundary=----WebKitFormBoundaryjyxtFAIvMwR3aO7l'
p920
asbasbasbag52
(g68
g54
NtRp921
(dp922
g57
(dp923
sg66
g782
sg59
(lp924
g52
(g73
g54
NtRp925
(dp926
g57
(dp927
g77
g78
ssg66
g921
sg59
(lp928
S'db_sessions'
p929
asbag52
(g73
g54
NtRp930
(dp931
g57
(dp932
g84
g85
ssg66
g921
sg59
(lp933
S':'
asbag52
(g73
g54
NtRp934
(dp935
g57
(dp936
sg66
g921
sg59
(lp937
g52
(g53
g54
NtRp938
(dp939
g57
(dp940
g65
I4
ssg66
g934
sg59
(lp941
S'set([])'
p942
asbasbasbag52
(g68
g54
NtRp943
(dp944
g57
(dp945
sg66
g782
sg59
(lp946
g52
(g73
g54
NtRp947
(dp948
g57
(dp949
g77
g78
ssg66
g943
sg59
(lp950
S'debugging'
p951
asbag52
(g73
g54
NtRp952
(dp953
g57
(dp954
g84
g85
ssg66
g943
sg59
(lp955
S':'
asbag52
(g73
g54
NtRp956
(dp957
g57
(dp958
sg66
g943
sg59
(lp959
g52
(g53
g54
NtRp960
(dp961
g57
(dp962
g65
I4
ssg66
g956
sg59
(lp963
g95
asbasbasbag52
(g68
g54
NtRp964
(dp965
g57
(dp966
sg66
g782
sg59
(lp967
g52
(g73
g54
NtRp968
(dp969
g57
(dp970
g77
g78
ssg66
g964
sg59
(lp971
S'gluon_parent'
p972
asbag52
(g73
g54
NtRp973
(dp974
g57
(dp975
g84
g85
ssg66
g964
sg59
(lp976
S':'
asbag52
(g73
g54
NtRp977
(dp978
g57
(dp979
sg66
g964
sg59
(lp980
g52
(g53
g54
NtRp981
(dp982
g57
(dp983
g65
I4
ssg66
g977
sg59
(lp984
S'C:\\Users\\Gary\\Desktop\\web2py'
p985
asbasbasbag52
(g68
g54
NtRp986
(dp987
g57
(dp988
sg66
g782
sg59
(lp989
g52
(g73
g54
NtRp990
(dp991
g57
(dp992
g77
g78
ssg66
g986
sg59
(lp993
S'http_accept'
p994
asbag52
(g73
g54
NtRp995
(dp996
g57
(dp997
g84
g85
ssg66
g986
sg59
(lp998
S':'
asbag52
(g73
g54
NtRp999
(dp1000
g57
(dp1001
sg66
g986
sg59
(lp1002
g52
(g53
g54
NtRp1003
(dp1004
g57
(dp1005
g65
I4
ssg66
g999
sg59
(lp1006
S'text/html,application/xhtml+xml,application/xml;q=0.9,*/*;q=0.8'
p1007
asbasbasbag52
(g68
g54
NtRp1008
(dp1009
g57
(dp1010
sg66
g782
sg59
(lp1011
g52
(g73
g54
NtRp1012
(dp1013
g57
(dp1014
g77
g78
ssg66
g1008
sg59
(lp1015
S'http_accept_charset'
p1016
asbag52
(g73
g54
NtRp1017
(dp1018
g57
(dp1019
g84
g85
ssg66
g1008
sg59
(lp1020
S':'
asbag52
(g73
g54
NtRp1021
(dp1022
g57
(dp1023
sg66
g1008
sg59
(lp1024
g52
(g53
g54
NtRp1025
(dp1026
g57
(dp1027
g65
I4
ssg66
g1021
sg59
(lp1028
S'ISO-8859-1,utf-8;q=0.7,*;q=0.3'
p1029
asbasbasbag52
(g68
g54
NtRp1030
(dp1031
g57
(dp1032
sg66
g782
sg59
(lp1033
g52
(g73
g54
NtRp1034
(dp1035
g57
(dp1036
g77
g78
ssg66
g1030
sg59
(lp1037
S'http_accept_encoding'
p1038
asbag52
(g73
g54
NtRp1039
(dp1040
g57
(dp1041
g84
g85
ssg66
g1030
sg59
(lp1042
S':'
asbag52
(g73
g54
NtRp1043
(dp1044
g57
(dp1045
sg66
g1030
sg59
(lp1046
g52
(g53
g54
NtRp1047
(dp1048
g57
(dp1049
g65
I4
ssg66
g1043
sg59
(lp1050
S'gzip,deflate,sdch'
p1051
asbasbasbag52
(g68
g54
NtRp1052
(dp1053
g57
(dp1054
sg66
g782
sg59
(lp1055
g52
(g73
g54
NtRp1056
(dp1057
g57
(dp1058
g77
g78
ssg66
g1052
sg59
(lp1059
S'http_accept_language'
p1060
asbag52
(g73
g54
NtRp1061
(dp1062
g57
(dp1063
g84
g85
ssg66
g1052
sg59
(lp1064
S':'
asbag52
(g73
g54
NtRp1065
(dp1066
g57
(dp1067
sg66
g1052
sg59
(lp1068
g52
(g53
g54
NtRp1069
(dp1070
g57
(dp1071
g65
I4
ssg66
g1065
sg59
(lp1072
S'es-ES,es;q=0.8'
p1073
asbasbasbag52
(g68
g54
NtRp1074
(dp1075
g57
(dp1076
sg66
g782
sg59
(lp1077
g52
(g73
g54
NtRp1078
(dp1079
g57
(dp1080
g77
g78
ssg66
g1074
sg59
(lp1081
S'http_cache_control'
p1082
asbag52
(g73
g54
NtRp1083
(dp1084
g57
(dp1085
g84
g85
ssg66
g1074
sg59
(lp1086
S':'
asbag52
(g73
g54
NtRp1087
(dp1088
g57
(dp1089
sg66
g1074
sg59
(lp1090
g52
(g53
g54
NtRp1091
(dp1092
g57
(dp1093
g65
I4
ssg66
g1087
sg59
(lp1094
S'max-age=0'
p1095
asbasbasbag52
(g68
g54
NtRp1096
(dp1097
g57
(dp1098
sg66
g782
sg59
(lp1099
g52
(g73
g54
NtRp1100
(dp1101
g57
(dp1102
g77
g78
ssg66
g1096
sg59
(lp1103
S'http_connection'
p1104
asbag52
(g73
g54
NtRp1105
(dp1106
g57
(dp1107
g84
g85
ssg66
g1096
sg59
(lp1108
S':'
asbag52
(g73
g54
NtRp1109
(dp1110
g57
(dp1111
sg66
g1096
sg59
(lp1112
g52
(g53
g54
NtRp1113
(dp1114
g57
(dp1115
g65
I4
ssg66
g1109
sg59
(lp1116
S'keep-alive'
p1117
asbasbasbag52
(g68
g54
NtRp1118
(dp1119
g57
(dp1120
sg66
g782
sg59
(lp1121
g52
(g73
g54
NtRp1122
(dp1123
g57
(dp1124
g77
g78
ssg66
g1118
sg59
(lp1125
S'http_content_length'
p1126
asbag52
(g73
g54
NtRp1127
(dp1128
g57
(dp1129
g84
g85
ssg66
g1118
sg59
(lp1130
S':'
asbag52
(g73
g54
NtRp1131
(dp1132
g57
(dp1133
sg66
g1118
sg59
(lp1134
g52
(g53
g54
NtRp1135
(dp1136
g57
(dp1137
g65
I4
ssg66
g1131
sg59
(lp1138
g898
asbasbasbag52
(g68
g54
NtRp1139
(dp1140
g57
(dp1141
sg66
g782
sg59
(lp1142
g52
(g73
g54
NtRp1143
(dp1144
g57
(dp1145
g77
g78
ssg66
g1139
sg59
(lp1146
S'http_content_type'
p1147
asbag52
(g73
g54
NtRp1148
(dp1149
g57
(dp1150
g84
g85
ssg66
g1139
sg59
(lp1151
S':'
asbag52
(g73
g54
NtRp1152
(dp1153
g57
(dp1154
sg66
g1139
sg59
(lp1155
g52
(g53
g54
NtRp1156
(dp1157
g57
(dp1158
g65
I4
ssg66
g1152
sg59
(lp1159
g920
asbasbasbag52
(g68
g54
NtRp1160
(dp1161
g57
(dp1162
sg66
g782
sg59
(lp1163
g52
(g73
g54
NtRp1164
(dp1165
g57
(dp1166
g77
g78
ssg66
g1160
sg59
(lp1167
S'http_cookie'
p1168
asbag52
(g73
g54
NtRp1169
(dp1170
g57
(dp1171
g84
g85
ssg66
g1160
sg59
(lp1172
S':'
asbag52
(g73
g54
NtRp1173
(dp1174
g57
(dp1175
sg66
g1160
sg59
(lp1176
g52
(g53
g54
NtRp1177
(dp1178
g57
(dp1179
g65
I4
ssg66
g1173
sg59
(lp1180
S'__utma_a2a=4767789439.1350865281.1319308355.1319308355.1319308355.2; session_id_welcome=127.0.0.1-8c049cdc-bfe6-46a3-b0cb-af88257e9f02; session_id_admin=127.0.0.1-07cf05e8-d842-47c6-92c3-0ed0076a1aa0; session_id_casa_de_apuestas=127.0.0.1-5f9cc8c9-1118-425c-9255-4b997acf2841'
p1181
asbasbasbag52
(g68
g54
NtRp1182
(dp1183
g57
(dp1184
sg66
g782
sg59
(lp1185
g52
(g73
g54
NtRp1186
(dp1187
g57
(dp1188
g77
g78
ssg66
g1182
sg59
(lp1189
S'http_host'
p1190
asbag52
(g73
g54
NtRp1191
(dp1192
g57
(dp1193
g84
g85
ssg66
g1182
sg59
(lp1194
S':'
asbag52
(g73
g54
NtRp1195
(dp1196
g57
(dp1197
sg66
g1182
sg59
(lp1198
g52
(g53
g54
NtRp1199
(dp1200
g57
(dp1201
g65
I4
ssg66
g1195
sg59
(lp1202
S'127.0.0.1:8000'
p1203
asbasbasbag52
(g68
g54
NtRp1204
(dp1205
g57
(dp1206
sg66
g782
sg59
(lp1207
g52
(g73
g54
NtRp1208
(dp1209
g57
(dp1210
g77
g78
ssg66
g1204
sg59
(lp1211
S'http_origin'
p1212
asbag52
(g73
g54
NtRp1213
(dp1214
g57
(dp1215
g84
g85
ssg66
g1204
sg59
(lp1216
S':'
asbag52
(g73
g54
NtRp1217
(dp1218
g57
(dp1219
sg66
g1204
sg59
(lp1220
g52
(g53
g54
NtRp1221
(dp1222
g57
(dp1223
g65
I4
ssg66
g1217
sg59
(lp1224
S'http://127.0.0.1:8000'
p1225
asbasbasbag52
(g68
g54
NtRp1226
(dp1227
g57
(dp1228
sg66
g782
sg59
(lp1229
g52
(g73
g54
NtRp1230
(dp1231
g57
(dp1232
g77
g78
ssg66
g1226
sg59
(lp1233
S'http_referer'
p1234
asbag52
(g73
g54
NtRp1235
(dp1236
g57
(dp1237
g84
g85
ssg66
g1226
sg59
(lp1238
S':'
asbag52
(g73
g54
NtRp1239
(dp1240
g57
(dp1241
sg66
g1226
sg59
(lp1242
g52
(g53
g54
NtRp1243
(dp1244
g57
(dp1245
g65
I4
ssg66
g1239
sg59
(lp1246
S'http://127.0.0.1:8000/Casa_de_Apuestas/appadmin/insert/db/eventos_participantes'
p1247
asbasbasbag52
(g68
g54
NtRp1248
(dp1249
g57
(dp1250
sg66
g782
sg59
(lp1251
g52
(g73
g54
NtRp1252
(dp1253
g57
(dp1254
g77
g78
ssg66
g1248
sg59
(lp1255
S'http_user_agent'
p1256
asbag52
(g73
g54
NtRp1257
(dp1258
g57
(dp1259
g84
g85
ssg66
g1248
sg59
(lp1260
S':'
asbag52
(g73
g54
NtRp1261
(dp1262
g57
(dp1263
sg66
g1248
sg59
(lp1264
g52
(g53
g54
NtRp1265
(dp1266
g57
(dp1267
g65
I4
ssg66
g1261
sg59
(lp1268
S'Mozilla/5.0 (Windows NT 6.1; WOW64) AppleWebKit/535.2 (KHTML, like Gecko) Chrome/15.0.874.106 Safari/535.2'
p1269
asbasbasbag52
(g68
g54
NtRp1270
(dp1271
g57
(dp1272
sg66
g782
sg59
(lp1273
g52
(g73
g54
NtRp1274
(dp1275
g57
(dp1276
g77
g78
ssg66
g1270
sg59
(lp1277
S'is_jython'
p1278
asbag52
(g73
g54
NtRp1279
(dp1280
g57
(dp1281
g84
g85
ssg66
g1270
sg59
(lp1282
S':'
asbag52
(g73
g54
NtRp1283
(dp1284
g57
(dp1285
sg66
g1270
sg59
(lp1286
g52
(g53
g54
NtRp1287
(dp1288
g57
(dp1289
g65
I4
ssg66
g1283
sg59
(lp1290
g95
asbasbasbag52
(g68
g54
NtRp1291
(dp1292
g57
(dp1293
sg66
g782
sg59
(lp1294
g52
(g73
g54
NtRp1295
(dp1296
g57
(dp1297
g77
g78
ssg66
g1291
sg59
(lp1298
S'path_info'
p1299
asbag52
(g73
g54
NtRp1300
(dp1301
g57
(dp1302
g84
g85
ssg66
g1291
sg59
(lp1303
S':'
asbag52
(g73
g54
NtRp1304
(dp1305
g57
(dp1306
sg66
g1291
sg59
(lp1307
g52
(g53
g54
NtRp1308
(dp1309
g57
(dp1310
g65
I4
ssg66
g1304
sg59
(lp1311
S'/Casa_de_Apuestas/appadmin/insert/db/eventos_participantes'
p1312
asbasbasbag52
(g68
g54
NtRp1313
(dp1314
g57
(dp1315
sg66
g782
sg59
(lp1316
g52
(g73
g54
NtRp1317
(dp1318
g57
(dp1319
g77
g78
ssg66
g1313
sg59
(lp1320
S'query_string'
p1321
asbag52
(g73
g54
NtRp1322
(dp1323
g57
(dp1324
g84
g85
ssg66
g1313
sg59
(lp1325
S':'
asbag52
(g73
g54
NtRp1326
(dp1327
g57
(dp1328
sg66
g1313
sg59
(lp1329
g52
(g53
g54
NtRp1330
(dp1331
g57
(dp1332
g65
I4
ssg66
g1326
sg59
(lp1333
S''
asbasbasbag52
(g68
g54
NtRp1334
(dp1335
g57
(dp1336
sg66
g782
sg59
(lp1337
g52
(g73
g54
NtRp1338
(dp1339
g57
(dp1340
g77
g78
ssg66
g1334
sg59
(lp1341
S'remote_addr'
p1342
asbag52
(g73
g54
NtRp1343
(dp1344
g57
(dp1345
g84
g85
ssg66
g1334
sg59
(lp1346
S':'
asbag52
(g73
g54
NtRp1347
(dp1348
g57
(dp1349
sg66
g1334
sg59
(lp1350
g52
(g53
g54
NtRp1351
(dp1352
g57
(dp1353
g65
I4
ssg66
g1347
sg59
(lp1354
g211
asbasbasbag52
(g68
g54
NtRp1355
(dp1356
g57
(dp1357
sg66
g782
sg59
(lp1358
g52
(g73
g54
NtRp1359
(dp1360
g57
(dp1361
g77
g78
ssg66
g1355
sg59
(lp1362
S'remote_port'
p1363
asbag52
(g73
g54
NtRp1364
(dp1365
g57
(dp1366
g84
g85
ssg66
g1355
sg59
(lp1367
S':'
asbag52
(g73
g54
NtRp1368
(dp1369
g57
(dp1370
sg66
g1355
sg59
(lp1371
g52
(g53
g54
NtRp1372
(dp1373
g57
(dp1374
g65
I4
ssg66
g1368
sg59
(lp1375
S'53389'
p1376
asbasbasbag52
(g68
g54
NtRp1377
(dp1378
g57
(dp1379
sg66
g782
sg59
(lp1380
g52
(g73
g54
NtRp1381
(dp1382
g57
(dp1383
g77
g78
ssg66
g1377
sg59
(lp1384
S'request_method'
p1385
asbag52
(g73
g54
NtRp1386
(dp1387
g57
(dp1388
g84
g85
ssg66
g1377
sg59
(lp1389
S':'
asbag52
(g73
g54
NtRp1390
(dp1391
g57
(dp1392
sg66
g1377
sg59
(lp1393
g52
(g53
g54
NtRp1394
(dp1395
g57
(dp1396
g65
I4
ssg66
g1390
sg59
(lp1397
S'POST'
p1398
asbasbasbag52
(g68
g54
NtRp1399
(dp1400
g57
(dp1401
sg66
g782
sg59
(lp1402
g52
(g73
g54
NtRp1403
(dp1404
g57
(dp1405
g77
g78
ssg66
g1399
sg59
(lp1406
S'script_name'
p1407
asbag52
(g73
g54
NtRp1408
(dp1409
g57
(dp1410
g84
g85
ssg66
g1399
sg59
(lp1411
S':'
asbag52
(g73
g54
NtRp1412
(dp1413
g57
(dp1414
sg66
g1399
sg59
(lp1415
g52
(g53
g54
NtRp1416
(dp1417
g57
(dp1418
g65
I4
ssg66
g1412
sg59
(lp1419
S''
asbasbasbag52
(g68
g54
NtRp1420
(dp1421
g57
(dp1422
sg66
g782
sg59
(lp1423
g52
(g73
g54
NtRp1424
(dp1425
g57
(dp1426
g77
g78
ssg66
g1420
sg59
(lp1427
S'server_name'
p1428
asbag52
(g73
g54
NtRp1429
(dp1430
g57
(dp1431
g84
g85
ssg66
g1420
sg59
(lp1432
S':'
asbag52
(g73
g54
NtRp1433
(dp1434
g57
(dp1435
sg66
g1420
sg59
(lp1436
g52
(g53
g54
NtRp1437
(dp1438
g57
(dp1439
g65
I4
ssg66
g1433
sg59
(lp1440
S'GABM'
p1441
asbasbasbag52
(g68
g54
NtRp1442
(dp1443
g57
(dp1444
sg66
g782
sg59
(lp1445
g52
(g73
g54
NtRp1446
(dp1447
g57
(dp1448
g77
g78
ssg66
g1442
sg59
(lp1449
S'server_port'
p1450
asbag52
(g73
g54
NtRp1451
(dp1452
g57
(dp1453
g84
g85
ssg66
g1442
sg59
(lp1454
S':'
asbag52
(g73
g54
NtRp1455
(dp1456
g57
(dp1457
sg66
g1442
sg59
(lp1458
g52
(g53
g54
NtRp1459
(dp1460
g57
(dp1461
g65
I4
ssg66
g1455
sg59
(lp1462
S'8000'
p1463
asbasbasbag52
(g68
g54
NtRp1464
(dp1465
g57
(dp1466
sg66
g782
sg59
(lp1467
g52
(g73
g54
NtRp1468
(dp1469
g57
(dp1470
g77
g78
ssg66
g1464
sg59
(lp1471
S'server_protocol'
p1472
asbag52
(g73
g54
NtRp1473
(dp1474
g57
(dp1475
g84
g85
ssg66
g1464
sg59
(lp1476
S':'
asbag52
(g73
g54
NtRp1477
(dp1478
g57
(dp1479
sg66
g1464
sg59
(lp1480
g52
(g53
g54
NtRp1481
(dp1482
g57
(dp1483
g65
I4
ssg66
g1477
sg59
(lp1484
S'HTTP/1.1'
p1485
asbasbasbag52
(g68
g54
NtRp1486
(dp1487
g57
(dp1488
sg66
g782
sg59
(lp1489
g52
(g73
g54
NtRp1490
(dp1491
g57
(dp1492
g77
g78
ssg66
g1486
sg59
(lp1493
S'server_software'
p1494
asbag52
(g73
g54
NtRp1495
(dp1496
g57
(dp1497
g84
g85
ssg66
g1486
sg59
(lp1498
S':'
asbag52
(g73
g54
NtRp1499
(dp1500
g57
(dp1501
sg66
g1486
sg59
(lp1502
g52
(g53
g54
NtRp1503
(dp1504
g57
(dp1505
g65
I4
ssg66
g1499
sg59
(lp1506
S'Rocket 1.2.4'
p1507
asbasbasbag52
(g68
g54
NtRp1508
(dp1509
g57
(dp1510
sg66
g782
sg59
(lp1511
g52
(g73
g54
NtRp1512
(dp1513
g57
(dp1514
g77
g78
ssg66
g1508
sg59
(lp1515
S'web2py_crontype'
p1516
asbag52
(g73
g54
NtRp1517
(dp1518
g57
(dp1519
g84
g85
ssg66
g1508
sg59
(lp1520
S':'
asbag52
(g73
g54
NtRp1521
(dp1522
g57
(dp1523
sg66
g1508
sg59
(lp1524
g52
(g53
g54
NtRp1525
(dp1526
g57
(dp1527
g65
I4
ssg66
g1521
sg59
(lp1528
S'hard'
p1529
asbasbasbag52
(g68
g54
NtRp1530
(dp1531
g57
(dp1532
sg66
g782
sg59
(lp1533
g52
(g73
g54
NtRp1534
(dp1535
g57
(dp1536
g77
g78
ssg66
g1530
sg59
(lp1537
S'web2py_path'
p1538
asbag52
(g73
g54
NtRp1539
(dp1540
g57
(dp1541
g84
g85
ssg66
g1530
sg59
(lp1542
S':'
asbag52
(g73
g54
NtRp1543
(dp1544
g57
(dp1545
sg66
g1530
sg59
(lp1546
g52
(g53
g54
NtRp1547
(dp1548
g57
(dp1549
g65
I4
ssg66
g1543
sg59
(lp1550
g829
asbasbasbag52
(g68
g54
NtRp1551
(dp1552
g57
(dp1553
sg66
g782
sg59
(lp1554
g52
(g73
g54
NtRp1555
(dp1556
g57
(dp1557
g77
g78
ssg66
g1551
sg59
(lp1558
S'web2py_version'
p1559
asbag52
(g73
g54
NtRp1560
(dp1561
g57
(dp1562
g84
g85
ssg66
g1551
sg59
(lp1563
S':'
asbag52
(g73
g54
NtRp1564
(dp1565
g57
(dp1566
sg66
g1551
sg59
(lp1567
g52
(g53
g54
NtRp1568
(dp1569
g57
(dp1570
g65
I4
ssg66
g1564
sg59
(lp1571
g52
(g61
g54
NtRp1572
(dp1573
g57
(dp1574
g65
I3
ssg66
Nsg59
(lp1575
g52
(g68
g54
NtRp1576
(dp1577
g57
(dp1578
sg66
g1572
sg59
(lp1579
g52
(g73
g54
NtRp1580
(dp1581
g57
(dp1582
sg66
g1576
sg59
(lp1583
g52
(g53
g54
NtRp1584
(dp1585
g57
(dp1586
g65
I3
ssg66
g1580
sg59
(lp1587
S'1'
asbasbasbag52
(g68
g54
NtRp1588
(dp1589
g57
(dp1590
sg66
g1572
sg59
(lp1591
g52
(g73
g54
NtRp1592
(dp1593
g57
(dp1594
sg66
g1588
sg59
(lp1595
g52
(g53
g54
NtRp1596
(dp1597
g57
(dp1598
g65
I3
ssg66
g1592
sg59
(lp1599
S'99'
p1600
asbasbasbag52
(g68
g54
NtRp1601
(dp1602
g57
(dp1603
sg66
g1572
sg59
(lp1604
g52
(g73
g54
NtRp1605
(dp1606
g57
(dp1607
sg66
g1601
sg59
(lp1608
g52
(g53
g54
NtRp1609
(dp1610
g57
(dp1611
g65
I3
ssg66
g1605
sg59
(lp1612
S'2'
asbasbasbag52
(g68
g54
NtRp1613
(dp1614
g57
(dp1615
sg66
g1572
sg59
(lp1616
g52
(g73
g54
NtRp1617
(dp1618
g57
(dp1619
sg66
g1613
sg59
(lp1620
g52
(g53
g54
NtRp1621
(dp1622
g57
(dp1623
g65
I3
ssg66
g1617
sg59
(lp1624
S'datetime.datetime(2011, 9, 26, 6, 55, 33)'
p1625
asbasbasbag52
(g68
g54
NtRp1626
(dp1627
g57
(dp1628
sg66
g1572
sg59
(lp1629
g52
(g73
g54
NtRp1630
(dp1631
g57
(dp1632
sg66
g1626
sg59
(lp1633
g52
(g53
g54
NtRp1634
(dp1635
g57
(dp1636
g65
I3
ssg66
g1630
sg59
(lp1637
S'stable'
p1638
asbasbasbasbasbasbasbag52
(g68
g54
NtRp1639
(dp1640
g57
(dp1641
sg66
g782
sg59
(lp1642
g52
(g73
g54
NtRp1643
(dp1644
g57
(dp1645
g77
g78
ssg66
g1639
sg59
(lp1646
S'wsgi_errors'
p1647
asbag52
(g73
g54
NtRp1648
(dp1649
g57
(dp1650
g84
g85
ssg66
g1639
sg59
(lp1651
S':'
asbag52
(g73
g54
NtRp1652
(dp1653
g57
(dp1654
sg66
g1639
sg59
(lp1655
g52
(g53
g54
NtRp1656
(dp1657
g57
(dp1658
g65
I4
ssg66
g1652
sg59
(lp1659
S"<open file '<stderr>', mode 'w' at 0x004200B0>"
p1660
asbasbasbag52
(g68
g54
NtRp1661
(dp1662
g57
(dp1663
sg66
g782
sg59
(lp1664
g52
(g73
g54
NtRp1665
(dp1666
g57
(dp1667
g77
g78
ssg66
g1661
sg59
(lp1668
S'wsgi_file_wrapper'
p1669
asbag52
(g73
g54
NtRp1670
(dp1671
g57
(dp1672
g84
g85
ssg66
g1661
sg59
(lp1673
S':'
asbag52
(g73
g54
NtRp1674
(dp1675
g57
(dp1676
sg66
g1661
sg59
(lp1677
g52
(g53
g54
NtRp1678
(dp1679
g57
(dp1680
g65
I4
ssg66
g1674
sg59
(lp1681
S'<class wsgiref.util.FileWrapper at 0x0303FC90>'
p1682
asbasbasbag52
(g68
g54
NtRp1683
(dp1684
g57
(dp1685
sg66
g782
sg59
(lp1686
g52
(g73
g54
NtRp1687
(dp1688
g57
(dp1689
g77
g78
ssg66
g1683
sg59
(lp1690
S'wsgi_input'
p1691
asbag52
(g73
g54
NtRp1692
(dp1693
g57
(dp1694
g84
g85
ssg66
g1683
sg59
(lp1695
S':'
asbag52
(g73
g54
NtRp1696
(dp1697
g57
(dp1698
sg66
g1683
sg59
(lp1699
g52
(g53
g54
NtRp1700
(dp1701
g57
(dp1702
g65
I4
ssg66
g1696
sg59
(lp1703
S'<socket._fileobject object at 0x06F38730>'
p1704
asbasbasbag52
(g68
g54
NtRp1705
(dp1706
g57
(dp1707
sg66
g782
sg59
(lp1708
g52
(g73
g54
NtRp1709
(dp1710
g57
(dp1711
g77
g78
ssg66
g1705
sg59
(lp1712
S'wsgi_multiprocess'
p1713
asbag52
(g73
g54
NtRp1714
(dp1715
g57
(dp1716
g84
g85
ssg66
g1705
sg59
(lp1717
S':'
asbag52
(g73
g54
NtRp1718
(dp1719
g57
(dp1720
sg66
g1705
sg59
(lp1721
g52
(g53
g54
NtRp1722
(dp1723
g57
(dp1724
g65
I4
ssg66
g1718
sg59
(lp1725
g95
asbasbasbag52
(g68
g54
NtRp1726
(dp1727
g57
(dp1728
sg66
g782
sg59
(lp1729
g52
(g73
g54
NtRp1730
(dp1731
g57
(dp1732
g77
g78
ssg66
g1726
sg59
(lp1733
S'wsgi_multithread'
p1734
asbag52
(g73
g54
NtRp1735
(dp1736
g57
(dp1737
g84
g85
ssg66
g1726
sg59
(lp1738
S':'
asbag52
(g73
g54
NtRp1739
(dp1740
g57
(dp1741
sg66
g1726
sg59
(lp1742
g52
(g53
g54
NtRp1743
(dp1744
g57
(dp1745
g65
I4
ssg66
g1739
sg59
(lp1746
S'True'
p1747
asbasbasbag52
(g68
g54
NtRp1748
(dp1749
g57
(dp1750
sg66
g782
sg59
(lp1751
g52
(g73
g54
NtRp1752
(dp1753
g57
(dp1754
g77
g78
ssg66
g1748
sg59
(lp1755
S'wsgi_run_once'
p1756
asbag52
(g73
g54
NtRp1757
(dp1758
g57
(dp1759
g84
g85
ssg66
g1748
sg59
(lp1760
S':'
asbag52
(g73
g54
NtRp1761
(dp1762
g57
(dp1763
sg66
g1748
sg59
(lp1764
g52
(g53
g54
NtRp1765
(dp1766
g57
(dp1767
g65
I4
ssg66
g1761
sg59
(lp1768
g95
asbasbasbag52
(g68
g54
NtRp1769
(dp1770
g57
(dp1771
sg66
g782
sg59
(lp1772
g52
(g73
g54
NtRp1773
(dp1774
g57
(dp1775
g77
g78
ssg66
g1769
sg59
(lp1776
S'wsgi_url_scheme'
p1777
asbag52
(g73
g54
NtRp1778
(dp1779
g57
(dp1780
g84
g85
ssg66
g1769
sg59
(lp1781
S':'
asbag52
(g73
g54
NtRp1782
(dp1783
g57
(dp1784
sg66
g1769
sg59
(lp1785
g52
(g53
g54
NtRp1786
(dp1787
g57
(dp1788
g65
I4
ssg66
g1782
sg59
(lp1789
S'http'
p1790
asbasbasbag52
(g68
g54
NtRp1791
(dp1792
g57
(dp1793
sg66
g782
sg59
(lp1794
g52
(g73
g54
NtRp1795
(dp1796
g57
(dp1797
g77
g78
ssg66
g1791
sg59
(lp1798
S'wsgi_version'
p1799
asbag52
(g73
g54
NtRp1800
(dp1801
g57
(dp1802
g84
g85
ssg66
g1791
sg59
(lp1803
S':'
asbag52
(g73
g54
NtRp1804
(dp1805
g57
(dp1806
sg66
g1791
sg59
(lp1807
g52
(g53
g54
NtRp1808
(dp1809
g57
(dp1810
g65
I4
ssg66
g1804
sg59
(lp1811
g52
(g61
g54
NtRp1812
(dp1813
g57
(dp1814
g65
I3
ssg66
Nsg59
(lp1815
g52
(g68
g54
NtRp1816
(dp1817
g57
(dp1818
sg66
g1812
sg59
(lp1819
g52
(g73
g54
NtRp1820
(dp1821
g57
(dp1822
sg66
g1816
sg59
(lp1823
g52
(g53
g54
NtRp1824
(dp1825
g57
(dp1826
g65
I3
ssg66
g1820
sg59
(lp1827
S'1'
asbasbasbag52
(g68
g54
NtRp1828
(dp1829
g57
(dp1830
sg66
g1812
sg59
(lp1831
g52
(g73
g54
NtRp1832
(dp1833
g57
(dp1834
sg66
g1828
sg59
(lp1835
g52
(g53
g54
NtRp1836
(dp1837
g57
(dp1838
g65
I3
ssg66
g1832
sg59
(lp1839
S'0'
asbasbasbasbasbasbasbasbasbasbasbag52
(g68
g54
NtRp1840
(dp1841
g57
(dp1842
sg66
g62
sg59
(lp1843
g52
(g73
g54
NtRp1844
(dp1845
g57
(dp1846
g77
g78
ssg66
g1840
sg59
(lp1847
S'extension'
p1848
asbag52
(g73
g54
NtRp1849
(dp1850
g57
(dp1851
g84
g85
ssg66
g1840
sg59
(lp1852
S':'
asbag52
(g73
g54
NtRp1853
(dp1854
g57
(dp1855
sg66
g1840
sg59
(lp1856
g52
(g53
g54
NtRp1857
(dp1858
g57
(dp1859
g65
I5
ssg66
g1853
sg59
(lp1860
S'html'
p1861
asbasbasbag52
(g68
g54
NtRp1862
(dp1863
g57
(dp1864
sg66
g62
sg59
(lp1865
g52
(g73
g54
NtRp1866
(dp1867
g57
(dp1868
g77
g78
ssg66
g1862
sg59
(lp1869
S'folder'
p1870
asbag52
(g73
g54
NtRp1871
(dp1872
g57
(dp1873
g84
g85
ssg66
g1862
sg59
(lp1874
S':'
asbag52
(g73
g54
NtRp1875
(dp1876
g57
(dp1877
sg66
g1862
sg59
(lp1878
g52
(g53
g54
NtRp1879
(dp1880
g57
(dp1881
g65
I5
ssg66
g1875
sg59
(lp1882
S'C:\\Users\\Gary\\Desktop\\web2py\\applications\\Casa_de_Apuestas\\'
p1883
asbasbasbag52
(g68
g54
NtRp1884
(dp1885
g57
(dp1886
sg66
g62
sg59
(lp1887
g52
(g73
g54
NtRp1888
(dp1889
g57
(dp1890
g77
g78
ssg66
g1884
sg59
(lp1891
S'function'
p1892
asbag52
(g73
g54
NtRp1893
(dp1894
g57
(dp1895
g84
g85
ssg66
g1884
sg59
(lp1896
S':'
asbag52
(g73
g54
NtRp1897
(dp1898
g57
(dp1899
sg66
g1884
sg59
(lp1900
g52
(g53
g54
NtRp1901
(dp1902
g57
(dp1903
g65
I5
ssg66
g1897
sg59
(lp1904
S'insert'
p1905
asbasbasbag52
(g68
g54
NtRp1906
(dp1907
g57
(dp1908
sg66
g62
sg59
(lp1909
g52
(g73
g54
NtRp1910
(dp1911
g57
(dp1912
g77
g78
ssg66
g1906
sg59
(lp1913
S'get_vars'
p1914
asbag52
(g73
g54
NtRp1915
(dp1916
g57
(dp1917
g84
g85
ssg66
g1906
sg59
(lp1918
S':'
asbag52
(g73
g54
NtRp1919
(dp1920
g57
(dp1921
sg66
g1906
sg59
(lp1922
g52
(g53
g54
NtRp1923
(dp1924
g57
(dp1925
g65
I5
ssg66
g1919
sg59
(lp1926
g52
(g61
g54
NtRp1927
(dp1928
g57
(dp1929
g65
I4
ssg66
Nsg59
(lp1930
sbasbasbasbag52
(g68
g54
NtRp1931
(dp1932
g57
(dp1933
sg66
g62
sg59
(lp1934
g52
(g73
g54
NtRp1935
(dp1936
g57
(dp1937
g77
g78
ssg66
g1931
sg59
(lp1938
S'global_settings'
p1939
asbag52
(g73
g54
NtRp1940
(dp1941
g57
(dp1942
g84
g85
ssg66
g1931
sg59
(lp1943
S':'
asbag52
(g73
g54
NtRp1944
(dp1945
g57
(dp1946
sg66
g1931
sg59
(lp1947
g52
(g53
g54
NtRp1948
(dp1949
g57
(dp1950
g65
I5
ssg66
g1944
sg59
(lp1951
g52
(g61
g54
NtRp1952
(dp1953
g57
(dp1954
g65
I4
ssg66
Nsg59
(lp1955
g52
(g68
g54
NtRp1956
(dp1957
g57
(dp1958
sg66
g1952
sg59
(lp1959
g52
(g73
g54
NtRp1960
(dp1961
g57
(dp1962
g77
g78
ssg66
g1956
sg59
(lp1963
g794
asbag52
(g73
g54
NtRp1964
(dp1965
g57
(dp1966
g84
g85
ssg66
g1956
sg59
(lp1967
S':'
asbag52
(g73
g54
NtRp1968
(dp1969
g57
(dp1970
sg66
g1956
sg59
(lp1971
g52
(g53
g54
NtRp1972
(dp1973
g57
(dp1974
g65
I4
ssg66
g1968
sg59
(lp1975
S"set(['C:\\\\Users\\\\Gary\\\\Desktop\\\\web2py\\\\applications\\\\Casa_de_Apuestas\\\\', 'C:\\\\Users\\\\Gary\\\\Desktop\\\\web2py\\\\applications\\\\welcome\\\\', 'C:\\\\Users\\\\Gary\\\\Desktop\\\\web2py\\\\applications\\\\admin\\\\'])"
p1976
asbasbasbag52
(g68
g54
NtRp1977
(dp1978
g57
(dp1979
sg66
g1952
sg59
(lp1980
g52
(g73
g54
NtRp1981
(dp1982
g57
(dp1983
g77
g78
ssg66
g1977
sg59
(lp1984
g816
asbag52
(g73
g54
NtRp1985
(dp1986
g57
(dp1987
g84
g85
ssg66
g1977
sg59
(lp1988
S':'
asbag52
(g73
g54
NtRp1989
(dp1990
g57
(dp1991
sg66
g1977
sg59
(lp1992
g52
(g53
g54
NtRp1993
(dp1994
g57
(dp1995
g65
I4
ssg66
g1989
sg59
(lp1996
g829
asbasbasbag52
(g68
g54
NtRp1997
(dp1998
g57
(dp1999
sg66
g1952
sg59
(lp2000
g52
(g73
g54
NtRp2001
(dp2002
g57
(dp2003
g77
g78
ssg66
g1997
sg59
(lp2004
g838
asbag52
(g73
g54
NtRp2005
(dp2006
g57
(dp2007
g84
g85
ssg66
g1997
sg59
(lp2008
S':'
asbag52
(g73
g54
NtRp2009
(dp2010
g57
(dp2011
sg66
g1997
sg59
(lp2012
g52
(g53
g54
NtRp2013
(dp2014
g57
(dp2015
g65
I4
ssg66
g2009
sg59
(lp2016
g52
(g61
g54
NtRp2017
(dp2018
g57
(dp2019
g65
I3
ssg66
Nsg59
(lp2020
sbasbasbasbag52
(g68
g54
NtRp2021
(dp2022
g57
(dp2023
sg66
g1952
sg59
(lp2024
g52
(g73
g54
NtRp2025
(dp2026
g57
(dp2027
g77
g78
ssg66
g2021
sg59
(lp2028
g863
asbag52
(g73
g54
NtRp2029
(dp2030
g57
(dp2031
g84
g85
ssg66
g2021
sg59
(lp2032
S':'
asbag52
(g73
g54
NtRp2033
(dp2034
g57
(dp2035
sg66
g2021
sg59
(lp2036
g52
(g53
g54
NtRp2037
(dp2038
g57
(dp2039
g65
I4
ssg66
g2033
sg59
(lp2040
S"<Values at 0x32a2e90: {'verbose': False, 'ip': '127.0.0.1', 'shutdown_timeout': 5, 'taskbar': False, 'nocron': False, 'pid_filename': 'httpserver.pid', 'maxthreads': None, 'softcron': False, 'server_name': 'GABM', 'bpython': False, 'nogui': False, 'port': 8000, 'extcron': False, 'debuglevel': 30, 'test': None, 'folder': 'C:\\\\Users\\\\Gary\\\\Desktop\\\\web2py', 'config': '', 'import_models': False, 'winservice': '', 'shell': None, 'run': '', 'log_filename': 'httpserver.log', 'args': [''], 'ssl_ca_certificate': None, 'scheduler': None, 'profiler_filename': None, 'ssl_private_key': '', 'password': '<ask>', 'request_queue_size': 5, 'ssl_certificate': '', 'cronjob': False, 'plain': False, 'quiet': False, 'interfaces': None, 'minthreads': None, 'timeout': 10, 'numthreads': None, 'nobanner': False}>"
p2041
asbasbasbag52
(g68
g54
NtRp2042
(dp2043
g57
(dp2044
sg66
g1952
sg59
(lp2045
g52
(g73
g54
NtRp2046
(dp2047
g57
(dp2048
g77
g78
ssg66
g2042
sg59
(lp2049
g929
asbag52
(g73
g54
NtRp2050
(dp2051
g57
(dp2052
g84
g85
ssg66
g2042
sg59
(lp2053
S':'
asbag52
(g73
g54
NtRp2054
(dp2055
g57
(dp2056
sg66
g2042
sg59
(lp2057
g52
(g53
g54
NtRp2058
(dp2059
g57
(dp2060
g65
I4
ssg66
g2054
sg59
(lp2061
S'set([])'
p2062
asbasbasbag52
(g68
g54
NtRp2063
(dp2064
g57
(dp2065
sg66
g1952
sg59
(lp2066
g52
(g73
g54
NtRp2067
(dp2068
g57
(dp2069
g77
g78
ssg66
g2063
sg59
(lp2070
g951
asbag52
(g73
g54
NtRp2071
(dp2072
g57
(dp2073
g84
g85
ssg66
g2063
sg59
(lp2074
S':'
asbag52
(g73
g54
NtRp2075
(dp2076
g57
(dp2077
sg66
g2063
sg59
(lp2078
g52
(g53
g54
NtRp2079
(dp2080
g57
(dp2081
g65
I4
ssg66
g2075
sg59
(lp2082
g95
asbasbasbag52
(g68
g54
NtRp2083
(dp2084
g57
(dp2085
sg66
g1952
sg59
(lp2086
g52
(g73
g54
NtRp2087
(dp2088
g57
(dp2089
g77
g78
ssg66
g2083
sg59
(lp2090
g972
asbag52
(g73
g54
NtRp2091
(dp2092
g57
(dp2093
g84
g85
ssg66
g2083
sg59
(lp2094
S':'
asbag52
(g73
g54
NtRp2095
(dp2096
g57
(dp2097
sg66
g2083
sg59
(lp2098
g52
(g53
g54
NtRp2099
(dp2100
g57
(dp2101
g65
I4
ssg66
g2095
sg59
(lp2102
g985
asbasbasbag52
(g68
g54
NtRp2103
(dp2104
g57
(dp2105
sg66
g1952
sg59
(lp2106
g52
(g73
g54
NtRp2107
(dp2108
g57
(dp2109
g77
g78
ssg66
g2103
sg59
(lp2110
g1278
asbag52
(g73
g54
NtRp2111
(dp2112
g57
(dp2113
g84
g85
ssg66
g2103
sg59
(lp2114
S':'
asbag52
(g73
g54
NtRp2115
(dp2116
g57
(dp2117
sg66
g2103
sg59
(lp2118
g52
(g53
g54
NtRp2119
(dp2120
g57
(dp2121
g65
I4
ssg66
g2115
sg59
(lp2122
g95
asbasbasbag52
(g68
g54
NtRp2123
(dp2124
g57
(dp2125
sg66
g1952
sg59
(lp2126
g52
(g73
g54
NtRp2127
(dp2128
g57
(dp2129
g77
g78
ssg66
g2123
sg59
(lp2130
g1516
asbag52
(g73
g54
NtRp2131
(dp2132
g57
(dp2133
g84
g85
ssg66
g2123
sg59
(lp2134
S':'
asbag52
(g73
g54
NtRp2135
(dp2136
g57
(dp2137
sg66
g2123
sg59
(lp2138
g52
(g53
g54
NtRp2139
(dp2140
g57
(dp2141
g65
I4
ssg66
g2135
sg59
(lp2142
g1529
asbasbasbag52
(g68
g54
NtRp2143
(dp2144
g57
(dp2145
sg66
g1952
sg59
(lp2146
g52
(g73
g54
NtRp2147
(dp2148
g57
(dp2149
g77
g78
ssg66
g2143
sg59
(lp2150
g1559
asbag52
(g73
g54
NtRp2151
(dp2152
g57
(dp2153
g84
g85
ssg66
g2143
sg59
(lp2154
S':'
asbag52
(g73
g54
NtRp2155
(dp2156
g57
(dp2157
sg66
g2143
sg59
(lp2158
g52
(g53
g54
NtRp2159
(dp2160
g57
(dp2161
g65
I4
ssg66
g2155
sg59
(lp2162
g52
(g61
g54
NtRp2163
(dp2164
g57
(dp2165
g65
I3
ssg66
Nsg59
(lp2166
g52
(g68
g54
NtRp2167
(dp2168
g57
(dp2169
sg66
g2163
sg59
(lp2170
g52
(g73
g54
NtRp2171
(dp2172
g57
(dp2173
sg66
g2167
sg59
(lp2174
g52
(g53
g54
NtRp2175
(dp2176
g57
(dp2177
g65
I3
ssg66
g2171
sg59
(lp2178
S'1'
asbasbasbag52
(g68
g54
NtRp2179
(dp2180
g57
(dp2181
sg66
g2163
sg59
(lp2182
g52
(g73
g54
NtRp2183
(dp2184
g57
(dp2185
sg66
g2179
sg59
(lp2186
g52
(g53
g54
NtRp2187
(dp2188
g57
(dp2189
g65
I3
ssg66
g2183
sg59
(lp2190
S'99'
p2191
asbasbasbag52
(g68
g54
NtRp2192
(dp2193
g57
(dp2194
sg66
g2163
sg59
(lp2195
g52
(g73
g54
NtRp2196
(dp2197
g57
(dp2198
sg66
g2192
sg59
(lp2199
g52
(g53
g54
NtRp2200
(dp2201
g57
(dp2202
g65
I3
ssg66
g2196
sg59
(lp2203
S'2'
asbasbasbag52
(g68
g54
NtRp2204
(dp2205
g57
(dp2206
sg66
g2163
sg59
(lp2207
g52
(g73
g54
NtRp2208
(dp2209
g57
(dp2210
sg66
g2204
sg59
(lp2211
g52
(g53
g54
NtRp2212
(dp2213
g57
(dp2214
g65
I3
ssg66
g2208
sg59
(lp2215
S'datetime.datetime(2011, 9, 26, 6, 55, 33)'
p2216
asbasbasbag52
(g68
g54
NtRp2217
(dp2218
g57
(dp2219
sg66
g2163
sg59
(lp2220
g52
(g73
g54
NtRp2221
(dp2222
g57
(dp2223
sg66
g2217
sg59
(lp2224
g52
(g53
g54
NtRp2225
(dp2226
g57
(dp2227
g65
I3
ssg66
g2221
sg59
(lp2228
g1638
asbasbasbasbasbasbasbasbasbasbasbag52
(g68
g54
NtRp2229
(dp2230
g57
(dp2231
sg66
g62
sg59
(lp2232
g52
(g73
g54
NtRp2233
(dp2234
g57
(dp2235
g77
g78
ssg66
g2229
sg59
(lp2236
S'is_https'
p2237
asbag52
(g73
g54
NtRp2238
(dp2239
g57
(dp2240
g84
g85
ssg66
g2229
sg59
(lp2241
S':'
asbag52
(g73
g54
NtRp2242
(dp2243
g57
(dp2244
sg66
g2229
sg59
(lp2245
g52
(g53
g54
NtRp2246
(dp2247
g57
(dp2248
g65
I5
ssg66
g2242
sg59
(lp2249
g95
asbasbasbag52
(g68
g54
NtRp2250
(dp2251
g57
(dp2252
sg66
g62
sg59
(lp2253
g52
(g73
g54
NtRp2254
(dp2255
g57
(dp2256
g77
g78
ssg66
g2250
sg59
(lp2257
S'is_local'
p2258
asbag52
(g73
g54
NtRp2259
(dp2260
g57
(dp2261
g84
g85
ssg66
g2250
sg59
(lp2262
S':'
asbag52
(g73
g54
NtRp2263
(dp2264
g57
(dp2265
sg66
g2250
sg59
(lp2266
g52
(g53
g54
NtRp2267
(dp2268
g57
(dp2269
g65
I5
ssg66
g2263
sg59
(lp2270
g1747
asbasbasbag52
(g68
g54
NtRp2271
(dp2272
g57
(dp2273
sg66
g62
sg59
(lp2274
g52
(g73
g54
NtRp2275
(dp2276
g57
(dp2277
g77
g78
ssg66
g2271
sg59
(lp2278
S'is_restful'
p2279
asbag52
(g73
g54
NtRp2280
(dp2281
g57
(dp2282
g84
g85
ssg66
g2271
sg59
(lp2283
S':'
asbag52
(g73
g54
NtRp2284
(dp2285
g57
(dp2286
sg66
g2271
sg59
(lp2287
g52
(g53
g54
NtRp2288
(dp2289
g57
(dp2290
g65
I5
ssg66
g2284
sg59
(lp2291
g95
asbasbasbag52
(g68
g54
NtRp2292
(dp2293
g57
(dp2294
sg66
g62
sg59
(lp2295
g52
(g73
g54
NtRp2296
(dp2297
g57
(dp2298
g77
g78
ssg66
g2292
sg59
(lp2299
S'now'
p2300
asbag52
(g73
g54
NtRp2301
(dp2302
g57
(dp2303
g84
g85
ssg66
g2292
sg59
(lp2304
S':'
asbag52
(g73
g54
NtRp2305
(dp2306
g57
(dp2307
sg66
g2292
sg59
(lp2308
g52
(g53
g54
NtRp2309
(dp2310
g57
(dp2311
g65
I5
ssg66
g2305
sg59
(lp2312
S'datetime.datetime(2011, 11, 12, 17, 37, 16, 825000)'
p2313
asbasbasbag52
(g68
g54
NtRp2314
(dp2315
g57
(dp2316
sg66
g62
sg59
(lp2317
g52
(g73
g54
NtRp2318
(dp2319
g57
(dp2320
g77
g78
ssg66
g2314
sg59
(lp2321
S'post_vars'
p2322
asbag52
(g73
g54
NtRp2323
(dp2324
g57
(dp2325
g84
g85
ssg66
g2314
sg59
(lp2326
S':'
asbag52
(g73
g54
NtRp2327
(dp2328
g57
(dp2329
sg66
g2314
sg59
(lp2330
g52
(g53
g54
NtRp2331
(dp2332
g57
(dp2333
g65
I5
ssg66
g2327
sg59
(lp2334
g52
(g61
g54
NtRp2335
(dp2336
g57
(dp2337
g65
I4
ssg66
Nsg59
(lp2338
g52
(g68
g54
NtRp2339
(dp2340
g57
(dp2341
sg66
g2335
sg59
(lp2342
g52
(g73
g54
NtRp2343
(dp2344
g57
(dp2345
g77
g78
ssg66
g2339
sg59
(lp2346
S'eventos_id'
p2347
asbag52
(g73
g54
NtRp2348
(dp2349
g57
(dp2350
g84
g85
ssg66
g2339
sg59
(lp2351
S':'
asbag52
(g73
g54
NtRp2352
(dp2353
g57
(dp2354
sg66
g2339
sg59
(lp2355
g52
(g53
g54
NtRp2356
(dp2357
g57
(dp2358
g65
I4
ssg66
g2352
sg59
(lp2359
S'1'
asbasbasbag52
(g68
g54
NtRp2360
(dp2361
g57
(dp2362
sg66
g2335
sg59
(lp2363
g52
(g73
g54
NtRp2364
(dp2365
g57
(dp2366
g77
g78
ssg66
g2360
sg59
(lp2367
S'limite_apuesta'
p2368
asbag52
(g73
g54
NtRp2369
(dp2370
g57
(dp2371
g84
g85
ssg66
g2360
sg59
(lp2372
S':'
asbag52
(g73
g54
NtRp2373
(dp2374
g57
(dp2375
sg66
g2360
sg59
(lp2376
g52
(g53
g54
NtRp2377
(dp2378
g57
(dp2379
g65
I4
ssg66
g2373
sg59
(lp2380
S''
asbasbasbag52
(g68
g54
NtRp2381
(dp2382
g57
(dp2383
sg66
g2335
sg59
(lp2384
g52
(g73
g54
NtRp2385
(dp2386
g57
(dp2387
g77
g78
ssg66
g2381
sg59
(lp2388
S'participantes_id'
p2389
asbag52
(g73
g54
NtRp2390
(dp2391
g57
(dp2392
g84
g85
ssg66
g2381
sg59
(lp2393
S':'
asbag52
(g73
g54
NtRp2394
(dp2395
g57
(dp2396
sg66
g2381
sg59
(lp2397
g52
(g53
g54
NtRp2398
(dp2399
g57
(dp2400
g65
I4
ssg66
g2394
sg59
(lp2401
S'2'
asbasbasbasbasbasbasbag52
(g68
g54
NtRp2402
(dp2403
g57
(dp2404
sg66
g62
sg59
(lp2405
g52
(g73
g54
NtRp2406
(dp2407
g57
(dp2408
g77
g78
ssg66
g2402
sg59
(lp2409
S'raw_args'
p2410
asbag52
(g73
g54
NtRp2411
(dp2412
g57
(dp2413
g84
g85
ssg66
g2402
sg59
(lp2414
S':'
asbag52
(g73
g54
NtRp2415
(dp2416
g57
(dp2417
sg66
g2402
sg59
(lp2418
g52
(g53
g54
NtRp2419
(dp2420
g57
(dp2421
g65
I5
ssg66
g2415
sg59
(lp2422
S'db/eventos_participantes'
p2423
asbasbasbag52
(g68
g54
NtRp2424
(dp2425
g57
(dp2426
sg66
g62
sg59
(lp2427
g52
(g73
g54
NtRp2428
(dp2429
g57
(dp2430
g77
g78
ssg66
g2424
sg59
(lp2431
S'url'
p2432
asbag52
(g73
g54
NtRp2433
(dp2434
g57
(dp2435
g84
g85
ssg66
g2424
sg59
(lp2436
S':'
asbag52
(g73
g54
NtRp2437
(dp2438
g57
(dp2439
sg66
g2424
sg59
(lp2440
g52
(g53
g54
NtRp2441
(dp2442
g57
(dp2443
g65
I5
ssg66
g2437
sg59
(lp2444
S'/Casa_de_Apuestas/appadmin/insert/db/eventos_participantes'
p2445
asbasbasbag52
(g68
g54
NtRp2446
(dp2447
g57
(dp2448
sg66
g62
sg59
(lp2449
g52
(g73
g54
NtRp2450
(dp2451
g57
(dp2452
g77
g78
ssg66
g2446
sg59
(lp2453
S'utcnow'
p2454
asbag52
(g73
g54
NtRp2455
(dp2456
g57
(dp2457
g84
g85
ssg66
g2446
sg59
(lp2458
S':'
asbag52
(g73
g54
NtRp2459
(dp2460
g57
(dp2461
sg66
g2446
sg59
(lp2462
g52
(g53
g54
NtRp2463
(dp2464
g57
(dp2465
g65
I5
ssg66
g2459
sg59
(lp2466
S'datetime.datetime(2011, 11, 12, 22, 7, 16, 825000)'
p2467
asbasbasbag52
(g68
g54
NtRp2468
(dp2469
g57
(dp2470
sg66
g62
sg59
(lp2471
g52
(g73
g54
NtRp2472
(dp2473
g57
(dp2474
g77
g78
ssg66
g2468
sg59
(lp2475
S'uuid'
p2476
asbag52
(g73
g54
NtRp2477
(dp2478
g57
(dp2479
g84
g85
ssg66
g2468
sg59
(lp2480
S':'
asbag52
(g73
g54
NtRp2481
(dp2482
g57
(dp2483
sg66
g2468
sg59
(lp2484
g52
(g53
g54
NtRp2485
(dp2486
g57
(dp2487
g65
I5
ssg66
g2481
sg59
(lp2488
S'Casa_de_Apuestas/127.0.0.1.2011-11-12.17-37-16.cc221d94-5fcf-4b15-ba86-77a213c4d073'
p2489
asbasbasbag52
(g68
g54
NtRp2490
(dp2491
g57
(dp2492
sg66
g62
sg59
(lp2493
g52
(g73
g54
NtRp2494
(dp2495
g57
(dp2496
g77
g78
ssg66
g2490
sg59
(lp2497
S'vars'
p2498
asbag52
(g73
g54
NtRp2499
(dp2500
g57
(dp2501
g84
g85
ssg66
g2490
sg59
(lp2502
S':'
asbag52
(g73
g54
NtRp2503
(dp2504
g57
(dp2505
sg66
g2490
sg59
(lp2506
g52
(g53
g54
NtRp2507
(dp2508
g57
(dp2509
g65
I5
ssg66
g2503
sg59
(lp2510
g52
(g61
g54
NtRp2511
(dp2512
g57
(dp2513
g65
I4
ssg66
Nsg59
(lp2514
g52
(g68
g54
NtRp2515
(dp2516
g57
(dp2517
sg66
g2511
sg59
(lp2518
g52
(g73
g54
NtRp2519
(dp2520
g57
(dp2521
g77
g78
ssg66
g2515
sg59
(lp2522
g2347
asbag52
(g73
g54
NtRp2523
(dp2524
g57
(dp2525
g84
g85
ssg66
g2515
sg59
(lp2526
S':'
asbag52
(g73
g54
NtRp2527
(dp2528
g57
(dp2529
sg66
g2515
sg59
(lp2530
g52
(g53
g54
NtRp2531
(dp2532
g57
(dp2533
g65
I4
ssg66
g2527
sg59
(lp2534
S'1'
asbasbasbag52
(g68
g54
NtRp2535
(dp2536
g57
(dp2537
sg66
g2511
sg59
(lp2538
g52
(g73
g54
NtRp2539
(dp2540
g57
(dp2541
g77
g78
ssg66
g2535
sg59
(lp2542
g2368
asbag52
(g73
g54
NtRp2543
(dp2544
g57
(dp2545
g84
g85
ssg66
g2535
sg59
(lp2546
S':'
asbag52
(g73
g54
NtRp2547
(dp2548
g57
(dp2549
sg66
g2535
sg59
(lp2550
g52
(g53
g54
NtRp2551
(dp2552
g57
(dp2553
g65
I4
ssg66
g2547
sg59
(lp2554
S''
asbasbasbag52
(g68
g54
NtRp2555
(dp2556
g57
(dp2557
sg66
g2511
sg59
(lp2558
g52
(g73
g54
NtRp2559
(dp2560
g57
(dp2561
g77
g78
ssg66
g2555
sg59
(lp2562
g2389
asbag52
(g73
g54
NtRp2563
(dp2564
g57
(dp2565
g84
g85
ssg66
g2555
sg59
(lp2566
S':'
asbag52
(g73
g54
NtRp2567
(dp2568
g57
(dp2569
sg66
g2555
sg59
(lp2570
g52
(g53
g54
NtRp2571
(dp2572
g57
(dp2573
g65
I4
ssg66
g2567
sg59
(lp2574
S'2'
asbasbasbasbasbasbasbag52
(g68
g54
NtRp2575
(dp2576
g57
(dp2577
sg66
g62
sg59
(lp2578
g52
(g73
g54
NtRp2579
(dp2580
g57
(dp2581
g77
g78
ssg66
g2575
sg59
(lp2582
S'wsgi'
p2583
asbag52
(g73
g54
NtRp2584
(dp2585
g57
(dp2586
g84
g85
ssg66
g2575
sg59
(lp2587
S':'
asbag52
(g73
g54
NtRp2588
(dp2589
g57
(dp2590
sg66
g2575
sg59
(lp2591
g52
(g53
g54
NtRp2592
(dp2593
g57
(dp2594
g65
I5
ssg66
g2588
sg59
(lp2595
g52
(g61
g54
NtRp2596
(dp2597
g57
(dp2598
g65
I4
ssg66
Nsg59
(lp2599
g52
(g68
g54
NtRp2600
(dp2601
g57
(dp2602
sg66
g2596
sg59
(lp2603
g52
(g73
g54
NtRp2604
(dp2605
g57
(dp2606
g77
g78
ssg66
g2600
sg59
(lp2607
S'environ'
p2608
asbag52
(g73
g54
NtRp2609
(dp2610
g57
(dp2611
g84
g85
ssg66
g2600
sg59
(lp2612
S':'
asbag52
(g73
g54
NtRp2613
(dp2614
g57
(dp2615
sg66
g2600
sg59
(lp2616
g52
(g53
g54
NtRp2617
(dp2618
g57
(dp2619
g65
I4
ssg66
g2613
sg59
(lp2620
g52
(g61
g54
NtRp2621
(dp2622
g57
(dp2623
g65
I3
ssg66
Nsg59
(lp2624
g52
(g68
g54
NtRp2625
(dp2626
g57
(dp2627
sg66
g2621
sg59
(lp2628
g52
(g73
g54
NtRp2629
(dp2630
g57
(dp2631
g77
g78
ssg66
g2625
sg59
(lp2632
S'CONTENT_LENGTH'
p2633
asbag52
(g73
g54
NtRp2634
(dp2635
g57
(dp2636
g84
g85
ssg66
g2625
sg59
(lp2637
S':'
asbag52
(g73
g54
NtRp2638
(dp2639
g57
(dp2640
sg66
g2625
sg59
(lp2641
g52
(g53
g54
NtRp2642
(dp2643
g57
(dp2644
g65
I3
ssg66
g2638
sg59
(lp2645
g898
asbasbasbag52
(g68
g54
NtRp2646
(dp2647
g57
(dp2648
sg66
g2621
sg59
(lp2649
g52
(g73
g54
NtRp2650
(dp2651
g57
(dp2652
g77
g78
ssg66
g2646
sg59
(lp2653
S'CONTENT_TYPE'
p2654
asbag52
(g73
g54
NtRp2655
(dp2656
g57
(dp2657
g84
g85
ssg66
g2646
sg59
(lp2658
S':'
asbag52
(g73
g54
NtRp2659
(dp2660
g57
(dp2661
sg66
g2646
sg59
(lp2662
g52
(g53
g54
NtRp2663
(dp2664
g57
(dp2665
g65
I3
ssg66
g2659
sg59
(lp2666
g920
asbasbasbag52
(g68
g54
NtRp2667
(dp2668
g57
(dp2669
sg66
g2621
sg59
(lp2670
g52
(g73
g54
NtRp2671
(dp2672
g57
(dp2673
g77
g78
ssg66
g2667
sg59
(lp2674
S'HTTP_ACCEPT'
p2675
asbag52
(g73
g54
NtRp2676
(dp2677
g57
(dp2678
g84
g85
ssg66
g2667
sg59
(lp2679
S':'
asbag52
(g73
g54
NtRp2680
(dp2681
g57
(dp2682
sg66
g2667
sg59
(lp2683
g52
(g53
g54
NtRp2684
(dp2685
g57
(dp2686
g65
I3
ssg66
g2680
sg59
(lp2687
g1007
asbasbasbag52
(g68
g54
NtRp2688
(dp2689
g57
(dp2690
sg66
g2621
sg59
(lp2691
g52
(g73
g54
NtRp2692
(dp2693
g57
(dp2694
g77
g78
ssg66
g2688
sg59
(lp2695
S'HTTP_ACCEPT_CHARSET'
p2696
asbag52
(g73
g54
NtRp2697
(dp2698
g57
(dp2699
g84
g85
ssg66
g2688
sg59
(lp2700
S':'
asbag52
(g73
g54
NtRp2701
(dp2702
g57
(dp2703
sg66
g2688
sg59
(lp2704
g52
(g53
g54
NtRp2705
(dp2706
g57
(dp2707
g65
I3
ssg66
g2701
sg59
(lp2708
g1029
asbasbasbag52
(g68
g54
NtRp2709
(dp2710
g57
(dp2711
sg66
g2621
sg59
(lp2712
g52
(g73
g54
NtRp2713
(dp2714
g57
(dp2715
g77
g78
ssg66
g2709
sg59
(lp2716
S'HTTP_ACCEPT_ENCODING'
p2717
asbag52
(g73
g54
NtRp2718
(dp2719
g57
(dp2720
g84
g85
ssg66
g2709
sg59
(lp2721
S':'
asbag52
(g73
g54
NtRp2722
(dp2723
g57
(dp2724
sg66
g2709
sg59
(lp2725
g52
(g53
g54
NtRp2726
(dp2727
g57
(dp2728
g65
I3
ssg66
g2722
sg59
(lp2729
g1051
asbasbasbag52
(g68
g54
NtRp2730
(dp2731
g57
(dp2732
sg66
g2621
sg59
(lp2733
g52
(g73
g54
NtRp2734
(dp2735
g57
(dp2736
g77
g78
ssg66
g2730
sg59
(lp2737
S'HTTP_ACCEPT_LANGUAGE'
p2738
asbag52
(g73
g54
NtRp2739
(dp2740
g57
(dp2741
g84
g85
ssg66
g2730
sg59
(lp2742
S':'
asbag52
(g73
g54
NtRp2743
(dp2744
g57
(dp2745
sg66
g2730
sg59
(lp2746
g52
(g53
g54
NtRp2747
(dp2748
g57
(dp2749
g65
I3
ssg66
g2743
sg59
(lp2750
g1073
asbasbasbag52
(g68
g54
NtRp2751
(dp2752
g57
(dp2753
sg66
g2621
sg59
(lp2754
g52
(g73
g54
NtRp2755
(dp2756
g57
(dp2757
g77
g78
ssg66
g2751
sg59
(lp2758
S'HTTP_CACHE_CONTROL'
p2759
asbag52
(g73
g54
NtRp2760
(dp2761
g57
(dp2762
g84
g85
ssg66
g2751
sg59
(lp2763
S':'
asbag52
(g73
g54
NtRp2764
(dp2765
g57
(dp2766
sg66
g2751
sg59
(lp2767
g52
(g53
g54
NtRp2768
(dp2769
g57
(dp2770
g65
I3
ssg66
g2764
sg59
(lp2771
g1095
asbasbasbag52
(g68
g54
NtRp2772
(dp2773
g57
(dp2774
sg66
g2621
sg59
(lp2775
g52
(g73
g54
NtRp2776
(dp2777
g57
(dp2778
g77
g78
ssg66
g2772
sg59
(lp2779
S'HTTP_CONNECTION'
p2780
asbag52
(g73
g54
NtRp2781
(dp2782
g57
(dp2783
g84
g85
ssg66
g2772
sg59
(lp2784
S':'
asbag52
(g73
g54
NtRp2785
(dp2786
g57
(dp2787
sg66
g2772
sg59
(lp2788
g52
(g53
g54
NtRp2789
(dp2790
g57
(dp2791
g65
I3
ssg66
g2785
sg59
(lp2792
g1117
asbasbasbag52
(g68
g54
NtRp2793
(dp2794
g57
(dp2795
sg66
g2621
sg59
(lp2796
g52
(g73
g54
NtRp2797
(dp2798
g57
(dp2799
g77
g78
ssg66
g2793
sg59
(lp2800
S'HTTP_CONTENT_LENGTH'
p2801
asbag52
(g73
g54
NtRp2802
(dp2803
g57
(dp2804
g84
g85
ssg66
g2793
sg59
(lp2805
S':'
asbag52
(g73
g54
NtRp2806
(dp2807
g57
(dp2808
sg66
g2793
sg59
(lp2809
g52
(g53
g54
NtRp2810
(dp2811
g57
(dp2812
g65
I3
ssg66
g2806
sg59
(lp2813
g898
asbasbasbag52
(g68
g54
NtRp2814
(dp2815
g57
(dp2816
sg66
g2621
sg59
(lp2817
g52
(g73
g54
NtRp2818
(dp2819
g57
(dp2820
g77
g78
ssg66
g2814
sg59
(lp2821
S'HTTP_CONTENT_TYPE'
p2822
asbag52
(g73
g54
NtRp2823
(dp2824
g57
(dp2825
g84
g85
ssg66
g2814
sg59
(lp2826
S':'
asbag52
(g73
g54
NtRp2827
(dp2828
g57
(dp2829
sg66
g2814
sg59
(lp2830
g52
(g53
g54
NtRp2831
(dp2832
g57
(dp2833
g65
I3
ssg66
g2827
sg59
(lp2834
g920
asbasbasbag52
(g68
g54
NtRp2835
(dp2836
g57
(dp2837
sg66
g2621
sg59
(lp2838
g52
(g73
g54
NtRp2839
(dp2840
g57
(dp2841
g77
g78
ssg66
g2835
sg59
(lp2842
S'HTTP_COOKIE'
p2843
asbag52
(g73
g54
NtRp2844
(dp2845
g57
(dp2846
g84
g85
ssg66
g2835
sg59
(lp2847
S':'
asbag52
(g73
g54
NtRp2848
(dp2849
g57
(dp2850
sg66
g2835
sg59
(lp2851
g52
(g53
g54
NtRp2852
(dp2853
g57
(dp2854
g65
I3
ssg66
g2848
sg59
(lp2855
g1181
asbasbasbag52
(g68
g54
NtRp2856
(dp2857
g57
(dp2858
sg66
g2621
sg59
(lp2859
g52
(g73
g54
NtRp2860
(dp2861
g57
(dp2862
g77
g78
ssg66
g2856
sg59
(lp2863
S'HTTP_HOST'
p2864
asbag52
(g73
g54
NtRp2865
(dp2866
g57
(dp2867
g84
g85
ssg66
g2856
sg59
(lp2868
S':'
asbag52
(g73
g54
NtRp2869
(dp2870
g57
(dp2871
sg66
g2856
sg59
(lp2872
g52
(g53
g54
NtRp2873
(dp2874
g57
(dp2875
g65
I3
ssg66
g2869
sg59
(lp2876
g1203
asbasbasbag52
(g68
g54
NtRp2877
(dp2878
g57
(dp2879
sg66
g2621
sg59
(lp2880
g52
(g73
g54
NtRp2881
(dp2882
g57
(dp2883
g77
g78
ssg66
g2877
sg59
(lp2884
S'HTTP_ORIGIN'
p2885
asbag52
(g73
g54
NtRp2886
(dp2887
g57
(dp2888
g84
g85
ssg66
g2877
sg59
(lp2889
S':'
asbag52
(g73
g54
NtRp2890
(dp2891
g57
(dp2892
sg66
g2877
sg59
(lp2893
g52
(g53
g54
NtRp2894
(dp2895
g57
(dp2896
g65
I3
ssg66
g2890
sg59
(lp2897
g1225
asbasbasbag52
(g68
g54
NtRp2898
(dp2899
g57
(dp2900
sg66
g2621
sg59
(lp2901
g52
(g73
g54
NtRp2902
(dp2903
g57
(dp2904
g77
g78
ssg66
g2898
sg59
(lp2905
S'HTTP_REFERER'
p2906
asbag52
(g73
g54
NtRp2907
(dp2908
g57
(dp2909
g84
g85
ssg66
g2898
sg59
(lp2910
S':'
asbag52
(g73
g54
NtRp2911
(dp2912
g57
(dp2913
sg66
g2898
sg59
(lp2914
g52
(g53
g54
NtRp2915
(dp2916
g57
(dp2917
g65
I3
ssg66
g2911
sg59
(lp2918
g1247
asbasbasbag52
(g68
g54
NtRp2919
(dp2920
g57
(dp2921
sg66
g2621
sg59
(lp2922
g52
(g73
g54
NtRp2923
(dp2924
g57
(dp2925
g77
g78
ssg66
g2919
sg59
(lp2926
S'HTTP_USER_AGENT'
p2927
asbag52
(g73
g54
NtRp2928
(dp2929
g57
(dp2930
g84
g85
ssg66
g2919
sg59
(lp2931
S':'
asbag52
(g73
g54
NtRp2932
(dp2933
g57
(dp2934
sg66
g2919
sg59
(lp2935
g52
(g53
g54
NtRp2936
(dp2937
g57
(dp2938
g65
I3
ssg66
g2932
sg59
(lp2939
g1269
asbasbasbag52
(g68
g54
NtRp2940
(dp2941
g57
(dp2942
sg66
g2621
sg59
(lp2943
g52
(g73
g54
NtRp2944
(dp2945
g57
(dp2946
g77
g78
ssg66
g2940
sg59
(lp2947
S'PATH_INFO'
p2948
asbag52
(g73
g54
NtRp2949
(dp2950
g57
(dp2951
g84
g85
ssg66
g2940
sg59
(lp2952
S':'
asbag52
(g73
g54
NtRp2953
(dp2954
g57
(dp2955
sg66
g2940
sg59
(lp2956
g52
(g53
g54
NtRp2957
(dp2958
g57
(dp2959
g65
I3
ssg66
g2953
sg59
(lp2960
g1312
asbasbasbag52
(g68
g54
NtRp2961
(dp2962
g57
(dp2963
sg66
g2621
sg59
(lp2964
g52
(g73
g54
NtRp2965
(dp2966
g57
(dp2967
g77
g78
ssg66
g2961
sg59
(lp2968
S'QUERY_STRING'
p2969
asbag52
(g73
g54
NtRp2970
(dp2971
g57
(dp2972
g84
g85
ssg66
g2961
sg59
(lp2973
S':'
asbag52
(g73
g54
NtRp2974
(dp2975
g57
(dp2976
sg66
g2961
sg59
(lp2977
g52
(g53
g54
NtRp2978
(dp2979
g57
(dp2980
g65
I3
ssg66
g2974
sg59
(lp2981
S''
asbasbasbag52
(g68
g54
NtRp2982
(dp2983
g57
(dp2984
sg66
g2621
sg59
(lp2985
g52
(g73
g54
NtRp2986
(dp2987
g57
(dp2988
g77
g78
ssg66
g2982
sg59
(lp2989
S'REMOTE_ADDR'
p2990
asbag52
(g73
g54
NtRp2991
(dp2992
g57
(dp2993
g84
g85
ssg66
g2982
sg59
(lp2994
S':'
asbag52
(g73
g54
NtRp2995
(dp2996
g57
(dp2997
sg66
g2982
sg59
(lp2998
g52
(g53
g54
NtRp2999
(dp3000
g57
(dp3001
g65
I3
ssg66
g2995
sg59
(lp3002
g211
asbasbasbag52
(g68
g54
NtRp3003
(dp3004
g57
(dp3005
sg66
g2621
sg59
(lp3006
g52
(g73
g54
NtRp3007
(dp3008
g57
(dp3009
g77
g78
ssg66
g3003
sg59
(lp3010
S'REMOTE_PORT'
p3011
asbag52
(g73
g54
NtRp3012
(dp3013
g57
(dp3014
g84
g85
ssg66
g3003
sg59
(lp3015
S':'
asbag52
(g73
g54
NtRp3016
(dp3017
g57
(dp3018
sg66
g3003
sg59
(lp3019
g52
(g53
g54
NtRp3020
(dp3021
g57
(dp3022
g65
I3
ssg66
g3016
sg59
(lp3023
g1376
asbasbasbag52
(g68
g54
NtRp3024
(dp3025
g57
(dp3026
sg66
g2621
sg59
(lp3027
g52
(g73
g54
NtRp3028
(dp3029
g57
(dp3030
g77
g78
ssg66
g3024
sg59
(lp3031
S'REQUEST_METHOD'
p3032
asbag52
(g73
g54
NtRp3033
(dp3034
g57
(dp3035
g84
g85
ssg66
g3024
sg59
(lp3036
S':'
asbag52
(g73
g54
NtRp3037
(dp3038
g57
(dp3039
sg66
g3024
sg59
(lp3040
g52
(g53
g54
NtRp3041
(dp3042
g57
(dp3043
g65
I3
ssg66
g3037
sg59
(lp3044
g1398
asbasbasbag52
(g68
g54
NtRp3045
(dp3046
g57
(dp3047
sg66
g2621
sg59
(lp3048
g52
(g73
g54
NtRp3049
(dp3050
g57
(dp3051
g77
g78
ssg66
g3045
sg59
(lp3052
S'SCRIPT_NAME'
p3053
asbag52
(g73
g54
NtRp3054
(dp3055
g57
(dp3056
g84
g85
ssg66
g3045
sg59
(lp3057
S':'
asbag52
(g73
g54
NtRp3058
(dp3059
g57
(dp3060
sg66
g3045
sg59
(lp3061
g52
(g53
g54
NtRp3062
(dp3063
g57
(dp3064
g65
I3
ssg66
g3058
sg59
(lp3065
S''
asbasbasbag52
(g68
g54
NtRp3066
(dp3067
g57
(dp3068
sg66
g2621
sg59
(lp3069
g52
(g73
g54
NtRp3070
(dp3071
g57
(dp3072
g77
g78
ssg66
g3066
sg59
(lp3073
S'SERVER_NAME'
p3074
asbag52
(g73
g54
NtRp3075
(dp3076
g57
(dp3077
g84
g85
ssg66
g3066
sg59
(lp3078
S':'
asbag52
(g73
g54
NtRp3079
(dp3080
g57
(dp3081
sg66
g3066
sg59
(lp3082
g52
(g53
g54
NtRp3083
(dp3084
g57
(dp3085
g65
I3
ssg66
g3079
sg59
(lp3086
g1441
asbasbasbag52
(g68
g54
NtRp3087
(dp3088
g57
(dp3089
sg66
g2621
sg59
(lp3090
g52
(g73
g54
NtRp3091
(dp3092
g57
(dp3093
g77
g78
ssg66
g3087
sg59
(lp3094
S'SERVER_PORT'
p3095
asbag52
(g73
g54
NtRp3096
(dp3097
g57
(dp3098
g84
g85
ssg66
g3087
sg59
(lp3099
S':'
asbag52
(g73
g54
NtRp3100
(dp3101
g57
(dp3102
sg66
g3087
sg59
(lp3103
g52
(g53
g54
NtRp3104
(dp3105
g57
(dp3106
g65
I3
ssg66
g3100
sg59
(lp3107
g1463
asbasbasbag52
(g68
g54
NtRp3108
(dp3109
g57
(dp3110
sg66
g2621
sg59
(lp3111
g52
(g73
g54
NtRp3112
(dp3113
g57
(dp3114
g77
g78
ssg66
g3108
sg59
(lp3115
S'SERVER_PROTOCOL'
p3116
asbag52
(g73
g54
NtRp3117
(dp3118
g57
(dp3119
g84
g85
ssg66
g3108
sg59
(lp3120
S':'
asbag52
(g73
g54
NtRp3121
(dp3122
g57
(dp3123
sg66
g3108
sg59
(lp3124
g52
(g53
g54
NtRp3125
(dp3126
g57
(dp3127
g65
I3
ssg66
g3121
sg59
(lp3128
g1485
asbasbasbag52
(g68
g54
NtRp3129
(dp3130
g57
(dp3131
sg66
g2621
sg59
(lp3132
g52
(g73
g54
NtRp3133
(dp3134
g57
(dp3135
g77
g78
ssg66
g3129
sg59
(lp3136
S'SERVER_SOFTWARE'
p3137
asbag52
(g73
g54
NtRp3138
(dp3139
g57
(dp3140
g84
g85
ssg66
g3129
sg59
(lp3141
S':'
asbag52
(g73
g54
NtRp3142
(dp3143
g57
(dp3144
sg66
g3129
sg59
(lp3145
g52
(g53
g54
NtRp3146
(dp3147
g57
(dp3148
g65
I3
ssg66
g3142
sg59
(lp3149
g1507
asbasbasbag52
(g68
g54
NtRp3150
(dp3151
g57
(dp3152
sg66
g2621
sg59
(lp3153
g52
(g73
g54
NtRp3154
(dp3155
g57
(dp3156
g77
g78
ssg66
g3150
sg59
(lp3157
S'wsgi.errors'
p3158
asbag52
(g73
g54
NtRp3159
(dp3160
g57
(dp3161
g84
g85
ssg66
g3150
sg59
(lp3162
S':'
asbag52
(g73
g54
NtRp3163
(dp3164
g57
(dp3165
sg66
g3150
sg59
(lp3166
g52
(g53
g54
NtRp3167
(dp3168
g57
(dp3169
g65
I3
ssg66
g3163
sg59
(lp3170
S"<open file '<stderr>', mode 'w' at 0x004200B0>"
p3171
asbasbasbag52
(g68
g54
NtRp3172
(dp3173
g57
(dp3174
sg66
g2621
sg59
(lp3175
g52
(g73
g54
NtRp3176
(dp3177
g57
(dp3178
g77
g78
ssg66
g3172
sg59
(lp3179
S'wsgi.file_wrapper'
p3180
asbag52
(g73
g54
NtRp3181
(dp3182
g57
(dp3183
g84
g85
ssg66
g3172
sg59
(lp3184
S':'
asbag52
(g73
g54
NtRp3185
(dp3186
g57
(dp3187
sg66
g3172
sg59
(lp3188
g52
(g53
g54
NtRp3189
(dp3190
g57
(dp3191
g65
I3
ssg66
g3185
sg59
(lp3192
S'<class wsgiref.util.FileWrapper at 0x0303FC90>'
p3193
asbasbasbag52
(g68
g54
NtRp3194
(dp3195
g57
(dp3196
sg66
g2621
sg59
(lp3197
g52
(g73
g54
NtRp3198
(dp3199
g57
(dp3200
g77
g78
ssg66
g3194
sg59
(lp3201
S'wsgi.input'
p3202
asbag52
(g73
g54
NtRp3203
(dp3204
g57
(dp3205
g84
g85
ssg66
g3194
sg59
(lp3206
S':'
asbag52
(g73
g54
NtRp3207
(dp3208
g57
(dp3209
sg66
g3194
sg59
(lp3210
g52
(g53
g54
NtRp3211
(dp3212
g57
(dp3213
g65
I3
ssg66
g3207
sg59
(lp3214
S"<open file '<fdopen>', mode 'w+b' at 0x03440E78>"
p3215
asbasbasbag52
(g68
g54
NtRp3216
(dp3217
g57
(dp3218
sg66
g2621
sg59
(lp3219
g52
(g73
g54
NtRp3220
(dp3221
g57
(dp3222
g77
g78
ssg66
g3216
sg59
(lp3223
S'wsgi.multiprocess'
p3224
asbag52
(g73
g54
NtRp3225
(dp3226
g57
(dp3227
g84
g85
ssg66
g3216
sg59
(lp3228
S':'
asbag52
(g73
g54
NtRp3229
(dp3230
g57
(dp3231
sg66
g3216
sg59
(lp3232
g52
(g53
g54
NtRp3233
(dp3234
g57
(dp3235
g65
I3
ssg66
g3229
sg59
(lp3236
g95
asbasbasbag52
(g68
g54
NtRp3237
(dp3238
g57
(dp3239
sg66
g2621
sg59
(lp3240
g52
(g73
g54
NtRp3241
(dp3242
g57
(dp3243
g77
g78
ssg66
g3237
sg59
(lp3244
S'wsgi.multithread'
p3245
asbag52
(g73
g54
NtRp3246
(dp3247
g57
(dp3248
g84
g85
ssg66
g3237
sg59
(lp3249
S':'
asbag52
(g73
g54
NtRp3250
(dp3251
g57
(dp3252
sg66
g3237
sg59
(lp3253
g52
(g53
g54
NtRp3254
(dp3255
g57
(dp3256
g65
I3
ssg66
g3250
sg59
(lp3257
g1747
asbasbasbag52
(g68
g54
NtRp3258
(dp3259
g57
(dp3260
sg66
g2621
sg59
(lp3261
g52
(g73
g54
NtRp3262
(dp3263
g57
(dp3264
g77
g78
ssg66
g3258
sg59
(lp3265
S'wsgi.run_once'
p3266
asbag52
(g73
g54
NtRp3267
(dp3268
g57
(dp3269
g84
g85
ssg66
g3258
sg59
(lp3270
S':'
asbag52
(g73
g54
NtRp3271
(dp3272
g57
(dp3273
sg66
g3258
sg59
(lp3274
g52
(g53
g54
NtRp3275
(dp3276
g57
(dp3277
g65
I3
ssg66
g3271
sg59
(lp3278
g95
asbasbasbag52
(g68
g54
NtRp3279
(dp3280
g57
(dp3281
sg66
g2621
sg59
(lp3282
g52
(g73
g54
NtRp3283
(dp3284
g57
(dp3285
g77
g78
ssg66
g3279
sg59
(lp3286
S'wsgi.url_scheme'
p3287
asbag52
(g73
g54
NtRp3288
(dp3289
g57
(dp3290
g84
g85
ssg66
g3279
sg59
(lp3291
S':'
asbag52
(g73
g54
NtRp3292
(dp3293
g57
(dp3294
sg66
g3279
sg59
(lp3295
g52
(g53
g54
NtRp3296
(dp3297
g57
(dp3298
g65
I3
ssg66
g3292
sg59
(lp3299
g1790
asbasbasbag52
(g68
g54
NtRp3300
(dp3301
g57
(dp3302
sg66
g2621
sg59
(lp3303
g52
(g73
g54
NtRp3304
(dp3305
g57
(dp3306
g77
g78
ssg66
g3300
sg59
(lp3307
S'wsgi.version'
p3308
asbag52
(g73
g54
NtRp3309
(dp3310
g57
(dp3311
g84
g85
ssg66
g3300
sg59
(lp3312
S':'
asbag52
(g73
g54
NtRp3313
(dp3314
g57
(dp3315
sg66
g3300
sg59
(lp3316
g52
(g53
g54
NtRp3317
(dp3318
g57
(dp3319
g65
I3
ssg66
g3313
sg59
(lp3320
S'1'
asbasbasbasbasbasbasbasbasbasbasbasbasbsS'frames'
p3321
(lp3322
(dp3323
S'file'
p3324
S'C:\\Users\\Gary\\Desktop\\web2py\\gluon\\restricted.py'
p3325
sS'dump'
p3326
(dp3327
sS'lnum'
p3328
I194
sS'lines'
p3329
(dp3330
sS'call'
p3331
S"(code='# -*- coding: utf-8 -*-\\n\\n# #####################...=disk)\\n\\n\\nresponse._vars=response._caller(insert)\\n', environment={'A': <class 'gluon.html.A'>, 'Auth': <class 'gluon.tools.Auth'>, 'B': <class 'gluon.html.B'>, 'BEAUTIFY': <class 'gluon.html.BEAUTIFY'>, 'BODY': <class 'gluon.html.BODY'>, 'BR': <class 'gluon.html.BR'>, 'BUTTON': <class 'gluon.html.BUTTON'>, 'CAT': <class 'gluon.html.CAT'>, 'CENTER': <class 'gluon.html.CENTER'>, 'CLEANUP': <class 'gluon.validators.CLEANUP'>, ...}, layer=r'C:\\Users\\Gary\\Desktop\\web2py\\applications\\Casa_de_Apuestas\\controllers/appadmin.py')"
p3332
sS'func'
p3333
S'restricted'
p3334
sa(dp3335
g3324
S'C:\\Users\\Gary\\Desktop\\web2py\\applications\\Casa_de_Apuestas\\controllers\\appadmin.py'
p3336
sg3326
(dp3337
sg3328
I410
sg3329
(dp3338
I399
S''
sI400
S'        return (hours, minutes, seconds)'
p3339
sI401
S''
sI402
S"    ram['oldest'] = GetInHMS(time.time() - ram['oldest'])"
p3340
sI403
S"    disk['oldest'] = GetInHMS(time.time() - disk['oldest'])"
p3341
sI404
S"    total['oldest'] = GetInHMS(time.time() - total['oldest'])"
p3342
sI405
S''
sI406
S'    return dict(form=form, total=total,'
p3343
sI407
S'                ram=ram, disk=disk)'
p3344
sI408
S''
ssg3331
S'()'
p3345
sg3333
S'<module>'
p3346
sa(dp3347
g3324
S'C:\\Users\\Gary\\Desktop\\web2py\\gluon\\globals.py'
p3348
sg3326
(dp3349
sg3328
I149
sg3329
(dp3350
sg3331
S'(f=<function insert at 0x07172A70>)'
p3351
sg3333
S'<lambda>'
p3352
sa(dp3353
g3324
S'C:\\Users\\Gary\\Desktop\\web2py\\applications\\Casa_de_Apuestas\\controllers\\appadmin.py'
p3354
sg3326
(dp3355
sg3328
I127
sg3329
(dp3356
I128
S"        response.flash = T('new record inserted')"
p3357
sI129
S'    return dict(form=form,table=db[table])'
p3358
sI130
S''
sI131
S''
sI122
S''
sI123
S''
sI124
S'def insert():'
p3359
sI125
S'    (db, table) = get_table(request)'
p3360
sI126
S'    form = SQLFORM(db[table], ignore_rw=ignore_rw)'
p3361
sI127
S'    if form.accepts(request.vars, session):'
p3362
ssg3331
S'()'
p3363
sg3333
S'insert'
p3364
sa(dp3365
g3324
S'C:\\Users\\Gary\\Desktop\\web2py\\gluon\\sqlhtml.py'
p3366
sg3326
(dp3367
sg3328
I1248
sg3329
(dp3368
sg3331
S"(self=<gluon.sqlhtml.SQLFORM object at 0x06E2FE10>, request_vars=<Storage {'limite_apuesta': '', '_formkey': '7cb..._participantes/create', 'participantes_id': '2'}>, session=<Storage {'last_query': 'db.usuarios.id>0', '_fo.../None]': '6890156b-beb2-4ad7-b369-030c79a91de6'}>, formname='eventos_participantes/create', keepvalues=False, onvalidation=None, dbio=True, hideerror=False, detect_record_change=False)"
p3369
sg3333
S'accepts'
p3370
sa(dp3371
g3324
S'C:\\Users\\Gary\\Desktop\\web2py\\gluon\\dal.py'
p3372
sg3326
(dp3373
sg3328
I4976
sg3329
(dp3374
sg3331
S"(self=<Table {'ALL': <gluon.dal.SQLALL object at 0x06E...puesta': <gluon.dal.Field object at 0x06E2CE30>}>, **fields={'eventos_id': '1', 'limite_apuesta': None, 'participantes_id': '2'})"
p3375
sg3333
g3364
sa(dp3376
g3324
S'C:\\Users\\Gary\\Desktop\\web2py\\gluon\\dal.py'
p3377
sg3326
(dp3378
sg3328
I886
sg3329
(dp3379
sg3331
S"(self=<gluon.dal.SQLiteAdapter object at 0x06E2C590>, table=<Table {'ALL': <gluon.dal.SQLALL object at 0x06E...puesta': <gluon.dal.Field object at 0x06E2CE30>}>, fields=[(<gluon.dal.Field object at 0x06E2C350>, '1'), (<gluon.dal.Field object at 0x06E2CE30>, None), (<gluon.dal.Field object at 0x06E2CC30>, '2')])"
p3380
sg3333
g3364
sasS'pyver'
p3381
S'Python 2.5.4: C:\\Users\\Gary\\Desktop\\web2py\\web2py.exe'
p3382
sS'session'
p3383
g52
(g53
g54
NtRp3384
(dp3385
g57
(dp3386
sg59
(lp3387
g52
(g61
g54
NtRp3388
(dp3389
g57
(dp3390
g65
I5
ssg66
Nsg59
(lp3391
g52
(g68
g54
NtRp3392
(dp3393
g57
(dp3394
sg66
g3388
sg59
(lp3395
g52
(g73
g54
NtRp3396
(dp3397
g57
(dp3398
g77
g78
ssg66
g3392
sg59
(lp3399
S'last_query'
p3400
asbag52
(g73
g54
NtRp3401
(dp3402
g57
(dp3403
g84
g85
ssg66
g3392
sg59
(lp3404
S':'
asbag52
(g73
g54
NtRp3405
(dp3406
g57
(dp3407
sg66
g3392
sg59
(lp3408
g52
(g53
g54
NtRp3409
(dp3410
g57
(dp3411
g65
I5
ssg66
g3405
sg59
(lp3412
S'db.usuarios.id>0'
p3413
asbasbasbasbasbsS'etype'
p3414
S"<class 'sqlite3.OperationalError'>"
p3415
sS'date'
p3416
S'Sat Nov 12 17:37:16 2011'
p3417
sS'response'
p3418
g52
(g53
g54
NtRp3419
(dp3420
g57
(dp3421
sg59
(lp3422
g52
(g61
g54
NtRp3423
(dp3424
g57
(dp3425
g65
I5
ssg66
Nsg59
(lp3426
g52
(g68
g54
NtRp3427
(dp3428
g57
(dp3429
sg66
g3423
sg59
(lp3430
g52
(g73
g54
NtRp3431
(dp3432
g57
(dp3433
g77
g78
ssg66
g3427
sg59
(lp3434
g176
asbag52
(g73
g54
NtRp3435
(dp3436
g57
(dp3437
g84
g85
ssg66
g3427
sg59
(lp3438
S':'
asbag52
(g73
g54
NtRp3439
(dp3440
g57
(dp3441
sg66
g3427
sg59
(lp3442
g52
(g53
g54
NtRp3443
(dp3444
g57
(dp3445
g65
I5
ssg66
g3439
sg59
(lp3446
S'<cStringIO.StringO object at 0x06E2CF40>'
p3447
asbasbasbag52
(g68
g54
NtRp3448
(dp3449
g57
(dp3450
sg66
g3423
sg59
(lp3451
g52
(g73
g54
NtRp3452
(dp3453
g57
(dp3454
g77
g78
ssg66
g3448
sg59
(lp3455
g242
asbag52
(g73
g54
NtRp3456
(dp3457
g57
(dp3458
g84
g85
ssg66
g3448
sg59
(lp3459
S':'
asbag52
(g73
g54
NtRp3460
(dp3461
g57
(dp3462
sg66
g3448
sg59
(lp3463
g52
(g53
g54
NtRp3464
(dp3465
g57
(dp3466
g65
I5
ssg66
g3460
sg59
(lp3467
g52
(g61
g54
NtRp3468
(dp3469
g57
(dp3470
g65
I4
ssg66
Nsg59
(lp3471
g52
(g68
g54
NtRp3472
(dp3473
g57
(dp3474
sg66
g3468
sg59
(lp3475
g52
(g73
g54
NtRp3476
(dp3477
g57
(dp3478
g77
g78
ssg66
g3472
sg59
(lp3479
S'session_id_casa_de_apuestas'
p3480
asbag52
(g73
g54
NtRp3481
(dp3482
g57
(dp3483
g84
g85
ssg66
g3472
sg59
(lp3484
S':'
asbag52
(g73
g54
NtRp3485
(dp3486
g57
(dp3487
sg66
g3472
sg59
(lp3488
g52
(g53
g54
NtRp3489
(dp3490
g57
(dp3491
g65
I4
ssg66
g3485
sg59
(lp3492
g52
(g61
g54
NtRp3493
(dp3494
g57
(dp3495
g65
I3
ssg66
Nsg59
(lp3496
g52
(g68
g54
NtRp3497
(dp3498
g57
(dp3499
sg66
g3493
sg59
(lp3500
g52
(g73
g54
NtRp3501
(dp3502
g57
(dp3503
g77
g78
ssg66
g3497
sg59
(lp3504
g292
asbag52
(g73
g54
NtRp3505
(dp3506
g57
(dp3507
g84
g85
ssg66
g3497
sg59
(lp3508
S':'
asbag52
(g73
g54
NtRp3509
(dp3510
g57
(dp3511
sg66
g3497
sg59
(lp3512
g52
(g53
g54
NtRp3513
(dp3514
g57
(dp3515
g65
I3
ssg66
g3509
sg59
(lp3516
S''
asbasbasbag52
(g68
g54
NtRp3517
(dp3518
g57
(dp3519
sg66
g3493
sg59
(lp3520
g52
(g73
g54
NtRp3521
(dp3522
g57
(dp3523
g77
g78
ssg66
g3517
sg59
(lp3524
g313
asbag52
(g73
g54
NtRp3525
(dp3526
g57
(dp3527
g84
g85
ssg66
g3517
sg59
(lp3528
S':'
asbag52
(g73
g54
NtRp3529
(dp3530
g57
(dp3531
sg66
g3517
sg59
(lp3532
g52
(g53
g54
NtRp3533
(dp3534
g57
(dp3535
g65
I3
ssg66
g3529
sg59
(lp3536
S''
asbasbasbag52
(g68
g54
NtRp3537
(dp3538
g57
(dp3539
sg66
g3493
sg59
(lp3540
g52
(g73
g54
NtRp3541
(dp3542
g57
(dp3543
g77
g78
ssg66
g3537
sg59
(lp3544
g334
asbag52
(g73
g54
NtRp3545
(dp3546
g57
(dp3547
g84
g85
ssg66
g3537
sg59
(lp3548
S':'
asbag52
(g73
g54
NtRp3549
(dp3550
g57
(dp3551
sg66
g3537
sg59
(lp3552
g52
(g53
g54
NtRp3553
(dp3554
g57
(dp3555
g65
I3
ssg66
g3549
sg59
(lp3556
S''
asbasbasbag52
(g68
g54
NtRp3557
(dp3558
g57
(dp3559
sg66
g3493
sg59
(lp3560
g52
(g73
g54
NtRp3561
(dp3562
g57
(dp3563
g77
g78
ssg66
g3557
sg59
(lp3564
g355
asbag52
(g73
g54
NtRp3565
(dp3566
g57
(dp3567
g84
g85
ssg66
g3557
sg59
(lp3568
S':'
asbag52
(g73
g54
NtRp3569
(dp3570
g57
(dp3571
sg66
g3557
sg59
(lp3572
g52
(g53
g54
NtRp3573
(dp3574
g57
(dp3575
g65
I3
ssg66
g3569
sg59
(lp3576
S''
asbasbasbag52
(g68
g54
NtRp3577
(dp3578
g57
(dp3579
sg66
g3493
sg59
(lp3580
g52
(g73
g54
NtRp3581
(dp3582
g57
(dp3583
g77
g78
ssg66
g3577
sg59
(lp3584
g376
asbag52
(g73
g54
NtRp3585
(dp3586
g57
(dp3587
g84
g85
ssg66
g3577
sg59
(lp3588
S':'
asbag52
(g73
g54
NtRp3589
(dp3590
g57
(dp3591
sg66
g3577
sg59
(lp3592
g52
(g53
g54
NtRp3593
(dp3594
g57
(dp3595
g65
I3
ssg66
g3589
sg59
(lp3596
S'/'
asbasbasbag52
(g68
g54
NtRp3597
(dp3598
g57
(dp3599
sg66
g3493
sg59
(lp3600
g52
(g73
g54
NtRp3601
(dp3602
g57
(dp3603
g77
g78
ssg66
g3597
sg59
(lp3604
g397
asbag52
(g73
g54
NtRp3605
(dp3606
g57
(dp3607
g84
g85
ssg66
g3597
sg59
(lp3608
S':'
asbag52
(g73
g54
NtRp3609
(dp3610
g57
(dp3611
sg66
g3597
sg59
(lp3612
g52
(g53
g54
NtRp3613
(dp3614
g57
(dp3615
g65
I3
ssg66
g3609
sg59
(lp3616
S''
asbasbasbag52
(g68
g54
NtRp3617
(dp3618
g57
(dp3619
sg66
g3493
sg59
(lp3620
g52
(g73
g54
NtRp3621
(dp3622
g57
(dp3623
g77
g78
ssg66
g3617
sg59
(lp3624
g418
asbag52
(g73
g54
NtRp3625
(dp3626
g57
(dp3627
g84
g85
ssg66
g3617
sg59
(lp3628
S':'
asbag52
(g73
g54
NtRp3629
(dp3630
g57
(dp3631
sg66
g3617
sg59
(lp3632
g52
(g53
g54
NtRp3633
(dp3634
g57
(dp3635
g65
I3
ssg66
g3629
sg59
(lp3636
S''
asbasbasbasbasbasbasbasbasbasbasbag52
(g68
g54
NtRp3637
(dp3638
g57
(dp3639
sg66
g3423
sg59
(lp3640
g52
(g73
g54
NtRp3641
(dp3642
g57
(dp3643
g77
g78
ssg66
g3637
sg59
(lp3644
S'files'
p3645
asbag52
(g73
g54
NtRp3646
(dp3647
g57
(dp3648
g84
g85
ssg66
g3637
sg59
(lp3649
S':'
asbag52
(g73
g54
NtRp3650
(dp3651
g57
(dp3652
sg66
g3637
sg59
(lp3653
g52
(g53
g54
NtRp3654
(dp3655
g57
(dp3656
g65
I5
ssg66
g3650
sg59
(lp3657
g52
(g61
g54
NtRp3658
(dp3659
g57
(dp3660
g65
I4
ssg66
Nsg59
(lp3661
sbasbasbasbag52
(g68
g54
NtRp3662
(dp3663
g57
(dp3664
sg66
g3423
sg59
(lp3665
g52
(g73
g54
NtRp3666
(dp3667
g57
(dp3668
g77
g78
ssg66
g3662
sg59
(lp3669
S'flash'
p3670
asbag52
(g73
g54
NtRp3671
(dp3672
g57
(dp3673
g84
g85
ssg66
g3662
sg59
(lp3674
S':'
asbag52
(g73
g54
NtRp3675
(dp3676
g57
(dp3677
sg66
g3662
sg59
(lp3678
g52
(g53
g54
NtRp3679
(dp3680
g57
(dp3681
g65
I5
ssg66
g3675
sg59
(lp3682
S''
asbasbasbag52
(g68
g54
NtRp3683
(dp3684
g57
(dp3685
sg66
g3423
sg59
(lp3686
g52
(g73
g54
NtRp3687
(dp3688
g57
(dp3689
g77
g78
ssg66
g3683
sg59
(lp3690
S'generic_patterns'
p3691
asbag52
(g73
g54
NtRp3692
(dp3693
g57
(dp3694
g84
g85
ssg66
g3683
sg59
(lp3695
S':'
asbag52
(g73
g54
NtRp3696
(dp3697
g57
(dp3698
sg66
g3683
sg59
(lp3699
g52
(g53
g54
NtRp3700
(dp3701
g57
(dp3702
g65
I5
ssg66
g3696
sg59
(lp3703
g52
(g61
g54
NtRp3704
(dp3705
g57
(dp3706
g65
I4
ssg66
Nsg59
(lp3707
g52
(g68
g54
NtRp3708
(dp3709
g57
(dp3710
sg66
g3704
sg59
(lp3711
g52
(g73
g54
NtRp3712
(dp3713
g57
(dp3714
sg66
g3708
sg59
(lp3715
g52
(g53
g54
NtRp3716
(dp3717
g57
(dp3718
g65
I4
ssg66
g3712
sg59
(lp3719
S'*'
asbasbasbasbasbasbasbag52
(g68
g54
NtRp3720
(dp3721
g57
(dp3722
sg66
g3423
sg59
(lp3723
g52
(g73
g54
NtRp3724
(dp3725
g57
(dp3726
g77
g78
ssg66
g3720
sg59
(lp3727
S'headers'
p3728
asbag52
(g73
g54
NtRp3729
(dp3730
g57
(dp3731
g84
g85
ssg66
g3720
sg59
(lp3732
S':'
asbag52
(g73
g54
NtRp3733
(dp3734
g57
(dp3735
sg66
g3720
sg59
(lp3736
g52
(g53
g54
NtRp3737
(dp3738
g57
(dp3739
g65
I5
ssg66
g3733
sg59
(lp3740
g52
(g61
g54
NtRp3741
(dp3742
g57
(dp3743
g65
I4
ssg66
Nsg59
(lp3744
g52
(g68
g54
NtRp3745
(dp3746
g57
(dp3747
sg66
g3741
sg59
(lp3748
g52
(g73
g54
NtRp3749
(dp3750
g57
(dp3751
g77
g78
ssg66
g3745
sg59
(lp3752
S'Cache-Control'
p3753
asbag52
(g73
g54
NtRp3754
(dp3755
g57
(dp3756
g84
g85
ssg66
g3745
sg59
(lp3757
S':'
asbag52
(g73
g54
NtRp3758
(dp3759
g57
(dp3760
sg66
g3745
sg59
(lp3761
g52
(g53
g54
NtRp3762
(dp3763
g57
(dp3764
g65
I4
ssg66
g3758
sg59
(lp3765
S'no-store, no-cache, must-revalidate, post-check=0, pre-check=0'
p3766
asbasbasbag52
(g68
g54
NtRp3767
(dp3768
g57
(dp3769
sg66
g3741
sg59
(lp3770
g52
(g73
g54
NtRp3771
(dp3772
g57
(dp3773
g77
g78
ssg66
g3767
sg59
(lp3774
S'Content-Type'
p3775
asbag52
(g73
g54
NtRp3776
(dp3777
g57
(dp3778
g84
g85
ssg66
g3767
sg59
(lp3779
S':'
asbag52
(g73
g54
NtRp3780
(dp3781
g57
(dp3782
sg66
g3767
sg59
(lp3783
g52
(g53
g54
NtRp3784
(dp3785
g57
(dp3786
g65
I4
ssg66
g3780
sg59
(lp3787
S'text/html; charset=utf-8'
p3788
asbasbasbag52
(g68
g54
NtRp3789
(dp3790
g57
(dp3791
sg66
g3741
sg59
(lp3792
g52
(g73
g54
NtRp3793
(dp3794
g57
(dp3795
g77
g78
ssg66
g3789
sg59
(lp3796
S'Expires'
p3797
asbag52
(g73
g54
NtRp3798
(dp3799
g57
(dp3800
g84
g85
ssg66
g3789
sg59
(lp3801
S':'
asbag52
(g73
g54
NtRp3802
(dp3803
g57
(dp3804
sg66
g3789
sg59
(lp3805
g52
(g53
g54
NtRp3806
(dp3807
g57
(dp3808
g65
I4
ssg66
g3802
sg59
(lp3809
S'Sat, 12 Nov 2011 22:07:16 GMT'
p3810
asbasbasbag52
(g68
g54
NtRp3811
(dp3812
g57
(dp3813
sg66
g3741
sg59
(lp3814
g52
(g73
g54
NtRp3815
(dp3816
g57
(dp3817
g77
g78
ssg66
g3811
sg59
(lp3818
S'Pragma'
p3819
asbag52
(g73
g54
NtRp3820
(dp3821
g57
(dp3822
g84
g85
ssg66
g3811
sg59
(lp3823
S':'
asbag52
(g73
g54
NtRp3824
(dp3825
g57
(dp3826
sg66
g3811
sg59
(lp3827
g52
(g53
g54
NtRp3828
(dp3829
g57
(dp3830
g65
I4
ssg66
g3824
sg59
(lp3831
S'no-cache'
p3832
asbasbasbag52
(g68
g54
NtRp3833
(dp3834
g57
(dp3835
sg66
g3741
sg59
(lp3836
g52
(g73
g54
NtRp3837
(dp3838
g57
(dp3839
g77
g78
ssg66
g3833
sg59
(lp3840
S'X-Powered-By'
p3841
asbag52
(g73
g54
NtRp3842
(dp3843
g57
(dp3844
g84
g85
ssg66
g3833
sg59
(lp3845
S':'
asbag52
(g73
g54
NtRp3846
(dp3847
g57
(dp3848
sg66
g3833
sg59
(lp3849
g52
(g53
g54
NtRp3850
(dp3851
g57
(dp3852
g65
I4
ssg66
g3846
sg59
(lp3853
S'web2py'
p3854
asbasbasbasbasbasbasbag52
(g68
g54
NtRp3855
(dp3856
g57
(dp3857
sg66
g3423
sg59
(lp3858
g52
(g73
g54
NtRp3859
(dp3860
g57
(dp3861
g77
g78
ssg66
g3855
sg59
(lp3862
S'menu'
p3863
asbag52
(g73
g54
NtRp3864
(dp3865
g57
(dp3866
g84
g85
ssg66
g3855
sg59
(lp3867
S':'
asbag52
(g73
g54
NtRp3868
(dp3869
g57
(dp3870
sg66
g3855
sg59
(lp3871
g52
(g53
g54
NtRp3872
(dp3873
g57
(dp3874
g65
I5
ssg66
g3868
sg59
(lp3875
g52
(g61
g54
NtRp3876
(dp3877
g57
(dp3878
g65
I4
ssg66
Nsg59
(lp3879
g52
(g68
g54
NtRp3880
(dp3881
g57
(dp3882
sg66
g3876
sg59
(lp3883
g52
(g73
g54
NtRp3884
(dp3885
g57
(dp3886
sg66
g3880
sg59
(lp3887
g52
(g53
g54
NtRp3888
(dp3889
g57
(dp3890
g65
I4
ssg66
g3884
sg59
(lp3891
g52
(g61
g54
NtRp3892
(dp3893
g57
(dp3894
g65
I3
ssg66
Nsg59
(lp3895
g52
(g68
g54
NtRp3896
(dp3897
g57
(dp3898
sg66
g3892
sg59
(lp3899
g52
(g73
g54
NtRp3900
(dp3901
g57
(dp3902
sg66
g3896
sg59
(lp3903
g52
(g53
g54
NtRp3904
(dp3905
g57
(dp3906
g65
I3
ssg66
g3900
sg59
(lp3907
cgluon.languages
lazyT_unpickle
p3908
(S't\t\x00\x00\x00modificar'
tRp3909
asbasbasbag52
(g68
g54
NtRp3910
(dp3911
g57
(dp3912
sg66
g3892
sg59
(lp3913
g52
(g73
g54
NtRp3914
(dp3915
g57
(dp3916
sg66
g3910
sg59
(lp3917
g52
(g53
g54
NtRp3918
(dp3919
g57
(dp3920
g65
I3
ssg66
g3914
sg59
(lp3921
g95
asbasbasbag52
(g68
g54
NtRp3922
(dp3923
g57
(dp3924
sg66
g3892
sg59
(lp3925
g52
(g73
g54
NtRp3926
(dp3927
g57
(dp3928
sg66
g3922
sg59
(lp3929
g52
(g53
g54
NtRp3930
(dp3931
g57
(dp3932
g65
I3
ssg66
g3926
sg59
(lp3933
S'/admin/default/design/Casa_de_Apuestas'
p3934
asbasbasbasbasbasbasbag52
(g68
g54
NtRp3935
(dp3936
g57
(dp3937
sg66
g3876
sg59
(lp3938
g52
(g73
g54
NtRp3939
(dp3940
g57
(dp3941
sg66
g3935
sg59
(lp3942
g52
(g53
g54
NtRp3943
(dp3944
g57
(dp3945
g65
I4
ssg66
g3939
sg59
(lp3946
g52
(g61
g54
NtRp3947
(dp3948
g57
(dp3949
g65
I3
ssg66
Nsg59
(lp3950
g52
(g68
g54
NtRp3951
(dp3952
g57
(dp3953
sg66
g3947
sg59
(lp3954
g52
(g73
g54
NtRp3955
(dp3956
g57
(dp3957
sg66
g3951
sg59
(lp3958
g52
(g53
g54
NtRp3959
(dp3960
g57
(dp3961
g65
I3
ssg66
g3955
sg59
(lp3962
g3908
(S't\x02\x00\x00\x00db'
tRp3963
asbasbasbag52
(g68
g54
NtRp3964
(dp3965
g57
(dp3966
sg66
g3947
sg59
(lp3967
g52
(g73
g54
NtRp3968
(dp3969
g57
(dp3970
sg66
g3964
sg59
(lp3971
g52
(g53
g54
NtRp3972
(dp3973
g57
(dp3974
g65
I3
ssg66
g3968
sg59
(lp3975
g95
asbasbasbag52
(g68
g54
NtRp3976
(dp3977
g57
(dp3978
sg66
g3947
sg59
(lp3979
g52
(g73
g54
NtRp3980
(dp3981
g57
(dp3982
sg66
g3976
sg59
(lp3983
g52
(g53
g54
NtRp3984
(dp3985
g57
(dp3986
g65
I3
ssg66
g3980
sg59
(lp3987
S'/Casa_de_Apuestas/appadmin/index'
p3988
asbasbasbasbasbasbasbag52
(g68
g54
NtRp3989
(dp3990
g57
(dp3991
sg66
g3876
sg59
(lp3992
g52
(g73
g54
NtRp3993
(dp3994
g57
(dp3995
sg66
g3989
sg59
(lp3996
g52
(g53
g54
NtRp3997
(dp3998
g57
(dp3999
g65
I4
ssg66
g3993
sg59
(lp4000
g52
(g61
g54
NtRp4001
(dp4002
g57
(dp4003
g65
I3
ssg66
Nsg59
(lp4004
g52
(g68
g54
NtRp4005
(dp4006
g57
(dp4007
sg66
g4001
sg59
(lp4008
g52
(g73
g54
NtRp4009
(dp4010
g57
(dp4011
sg66
g4005
sg59
(lp4012
g52
(g53
g54
NtRp4013
(dp4014
g57
(dp4015
g65
I3
ssg66
g4009
sg59
(lp4016
g3908
(S't\x06\x00\x00\x00estado'
tRp4017
asbasbasbag52
(g68
g54
NtRp4018
(dp4019
g57
(dp4020
sg66
g4001
sg59
(lp4021
g52
(g73
g54
NtRp4022
(dp4023
g57
(dp4024
sg66
g4018
sg59
(lp4025
g52
(g53
g54
NtRp4026
(dp4027
g57
(dp4028
g65
I3
ssg66
g4022
sg59
(lp4029
g95
asbasbasbag52
(g68
g54
NtRp4030
(dp4031
g57
(dp4032
sg66
g4001
sg59
(lp4033
g52
(g73
g54
NtRp4034
(dp4035
g57
(dp4036
sg66
g4030
sg59
(lp4037
g52
(g53
g54
NtRp4038
(dp4039
g57
(dp4040
g65
I3
ssg66
g4034
sg59
(lp4041
S'/Casa_de_Apuestas/appadmin/state'
p4042
asbasbasbasbasbasbasbag52
(g68
g54
NtRp4043
(dp4044
g57
(dp4045
sg66
g3876
sg59
(lp4046
g52
(g73
g54
NtRp4047
(dp4048
g57
(dp4049
sg66
g4043
sg59
(lp4050
g52
(g53
g54
NtRp4051
(dp4052
g57
(dp4053
g65
I4
ssg66
g4047
sg59
(lp4054
g52
(g61
g54
NtRp4055
(dp4056
g57
(dp4057
g65
I3
ssg66
Nsg59
(lp4058
g52
(g68
g54
NtRp4059
(dp4060
g57
(dp4061
sg66
g4055
sg59
(lp4062
g52
(g73
g54
NtRp4063
(dp4064
g57
(dp4065
sg66
g4059
sg59
(lp4066
g52
(g53
g54
NtRp4067
(dp4068
g57
(dp4069
g65
I3
ssg66
g4063
sg59
(lp4070
g3908
(S't\x05\x00\x00\x00cache'
tRp4071
asbasbasbag52
(g68
g54
NtRp4072
(dp4073
g57
(dp4074
sg66
g4055
sg59
(lp4075
g52
(g73
g54
NtRp4076
(dp4077
g57
(dp4078
sg66
g4072
sg59
(lp4079
g52
(g53
g54
NtRp4080
(dp4081
g57
(dp4082
g65
I3
ssg66
g4076
sg59
(lp4083
g95
asbasbasbag52
(g68
g54
NtRp4084
(dp4085
g57
(dp4086
sg66
g4055
sg59
(lp4087
g52
(g73
g54
NtRp4088
(dp4089
g57
(dp4090
sg66
g4084
sg59
(lp4091
g52
(g53
g54
NtRp4092
(dp4093
g57
(dp4094
g65
I3
ssg66
g4088
sg59
(lp4095
S'/Casa_de_Apuestas/appadmin/ccache'
p4096
asbasbasbasbasbasbasbasbasbasbasbag52
(g68
g54
NtRp4097
(dp4098
g57
(dp4099
sg66
g3423
sg59
(lp4100
g52
(g73
g54
NtRp4101
(dp4102
g57
(dp4103
g77
g78
ssg66
g4097
sg59
(lp4104
S'meta'
p4105
asbag52
(g73
g54
NtRp4106
(dp4107
g57
(dp4108
g84
g85
ssg66
g4097
sg59
(lp4109
S':'
asbag52
(g73
g54
NtRp4110
(dp4111
g57
(dp4112
sg66
g4097
sg59
(lp4113
g52
(g53
g54
NtRp4114
(dp4115
g57
(dp4116
g65
I5
ssg66
g4110
sg59
(lp4117
g52
(g61
g54
NtRp4118
(dp4119
g57
(dp4120
g65
I4
ssg66
Nsg59
(lp4121
g52
(g68
g54
NtRp4122
(dp4123
g57
(dp4124
sg66
g4118
sg59
(lp4125
g52
(g73
g54
NtRp4126
(dp4127
g57
(dp4128
g77
g78
ssg66
g4122
sg59
(lp4129
S'author'
p4130
asbag52
(g73
g54
NtRp4131
(dp4132
g57
(dp4133
g84
g85
ssg66
g4122
sg59
(lp4134
S':'
asbag52
(g73
g54
NtRp4135
(dp4136
g57
(dp4137
sg66
g4122
sg59
(lp4138
g52
(g53
g54
NtRp4139
(dp4140
g57
(dp4141
g65
I4
ssg66
g4135
sg59
(lp4142
S'JSG Systems <jsg@example.com>'
p4143
asbasbasbag52
(g68
g54
NtRp4144
(dp4145
g57
(dp4146
sg66
g4118
sg59
(lp4147
g52
(g73
g54
NtRp4148
(dp4149
g57
(dp4150
g77
g78
ssg66
g4144
sg59
(lp4151
S'description'
p4152
asbag52
(g73
g54
NtRp4153
(dp4154
g57
(dp4155
g84
g85
ssg66
g4144
sg59
(lp4156
S':'
asbag52
(g73
g54
NtRp4157
(dp4158
g57
(dp4159
sg66
g4144
sg59
(lp4160
g52
(g53
g54
NtRp4161
(dp4162
g57
(dp4163
g65
I4
ssg66
g4157
sg59
(lp4164
S''
asbasbasbag52
(g68
g54
NtRp4165
(dp4166
g57
(dp4167
sg66
g4118
sg59
(lp4168
g52
(g73
g54
NtRp4169
(dp4170
g57
(dp4171
g77
g78
ssg66
g4165
sg59
(lp4172
S'keywords'
p4173
asbag52
(g73
g54
NtRp4174
(dp4175
g57
(dp4176
g84
g85
ssg66
g4165
sg59
(lp4177
S':'
asbag52
(g73
g54
NtRp4178
(dp4179
g57
(dp4180
sg66
g4165
sg59
(lp4181
g52
(g53
g54
NtRp4182
(dp4183
g57
(dp4184
g65
I4
ssg66
g4178
sg59
(lp4185
S'casa, apuestas'
p4186
asbasbasbasbasbasbasbag52
(g68
g54
NtRp4187
(dp4188
g57
(dp4189
sg66
g3423
sg59
(lp4190
g52
(g73
g54
NtRp4191
(dp4192
g57
(dp4193
g77
g78
ssg66
g4187
sg59
(lp4194
S'postprocessing'
p4195
asbag52
(g73
g54
NtRp4196
(dp4197
g57
(dp4198
g84
g85
ssg66
g4187
sg59
(lp4199
S':'
asbag52
(g73
g54
NtRp4200
(dp4201
g57
(dp4202
sg66
g4187
sg59
(lp4203
g52
(g53
g54
NtRp4204
(dp4205
g57
(dp4206
g65
I5
ssg66
g4200
sg59
(lp4207
g52
(g61
g54
NtRp4208
(dp4209
g57
(dp4210
g65
I4
ssg66
Nsg59
(lp4211
sbasbasbasbag52
(g68
g54
NtRp4212
(dp4213
g57
(dp4214
sg66
g3423
sg59
(lp4215
g52
(g73
g54
NtRp4216
(dp4217
g57
(dp4218
g77
g78
ssg66
g4212
sg59
(lp4219
S'session_file'
p4220
asbag52
(g73
g54
NtRp4221
(dp4222
g57
(dp4223
g84
g85
ssg66
g4212
sg59
(lp4224
S':'
asbag52
(g73
g54
NtRp4225
(dp4226
g57
(dp4227
sg66
g4212
sg59
(lp4228
g52
(g53
g54
NtRp4229
(dp4230
g57
(dp4231
g65
I5
ssg66
g4225
sg59
(lp4232
S"<open file 'C:\\Users\\Gary\\Desktop\\web2py\\applications\\Casa_de_Apuestas\\sessions\\127.0.0.1-5f9cc8c9-1118-425c-9255-4b997acf2841', mode 'rb+' at 0x06F3D800>"
p4233
asbasbasbag52
(g68
g54
NtRp4234
(dp4235
g57
(dp4236
sg66
g3423
sg59
(lp4237
g52
(g73
g54
NtRp4238
(dp4239
g57
(dp4240
g77
g78
ssg66
g4234
sg59
(lp4241
S'session_filename'
p4242
asbag52
(g73
g54
NtRp4243
(dp4244
g57
(dp4245
g84
g85
ssg66
g4234
sg59
(lp4246
S':'
asbag52
(g73
g54
NtRp4247
(dp4248
g57
(dp4249
sg66
g4234
sg59
(lp4250
g52
(g53
g54
NtRp4251
(dp4252
g57
(dp4253
g65
I5
ssg66
g4247
sg59
(lp4254
S'C:\\Users\\Gary\\Desktop\\web2py\\applications\\Casa_de_Apuestas\\sessions\\127.0.0.1-5f9cc8c9-1118-425c-9255-4b997acf2841'
p4255
asbasbasbag52
(g68
g54
NtRp4256
(dp4257
g57
(dp4258
sg66
g3423
sg59
(lp4259
g52
(g73
g54
NtRp4260
(dp4261
g57
(dp4262
g77
g78
ssg66
g4256
sg59
(lp4263
S'session_id'
p4264
asbag52
(g73
g54
NtRp4265
(dp4266
g57
(dp4267
g84
g85
ssg66
g4256
sg59
(lp4268
S':'
asbag52
(g73
g54
NtRp4269
(dp4270
g57
(dp4271
sg66
g4256
sg59
(lp4272
g52
(g53
g54
NtRp4273
(dp4274
g57
(dp4275
g65
I5
ssg66
g4269
sg59
(lp4276
S'127.0.0.1-5f9cc8c9-1118-425c-9255-4b997acf2841'
p4277
asbasbasbag52
(g68
g54
NtRp4278
(dp4279
g57
(dp4280
sg66
g3423
sg59
(lp4281
g52
(g73
g54
NtRp4282
(dp4283
g57
(dp4284
g77
g78
ssg66
g4278
sg59
(lp4285
S'session_id_name'
p4286
asbag52
(g73
g54
NtRp4287
(dp4288
g57
(dp4289
g84
g85
ssg66
g4278
sg59
(lp4290
S':'
asbag52
(g73
g54
NtRp4291
(dp4292
g57
(dp4293
sg66
g4278
sg59
(lp4294
g52
(g53
g54
NtRp4295
(dp4296
g57
(dp4297
g65
I5
ssg66
g4291
sg59
(lp4298
g3480
asbasbasbag52
(g68
g54
NtRp4299
(dp4300
g57
(dp4301
sg66
g3423
sg59
(lp4302
g52
(g73
g54
NtRp4303
(dp4304
g57
(dp4305
g77
g78
ssg66
g4299
sg59
(lp4306
S'session_locked'
p4307
asbag52
(g73
g54
NtRp4308
(dp4309
g57
(dp4310
g84
g85
ssg66
g4299
sg59
(lp4311
S':'
asbag52
(g73
g54
NtRp4312
(dp4313
g57
(dp4314
sg66
g4299
sg59
(lp4315
g52
(g53
g54
NtRp4316
(dp4317
g57
(dp4318
g65
I5
ssg66
g4312
sg59
(lp4319
g1747
asbasbasbag52
(g68
g54
NtRp4320
(dp4321
g57
(dp4322
sg66
g3423
sg59
(lp4323
g52
(g73
g54
NtRp4324
(dp4325
g57
(dp4326
g77
g78
ssg66
g4320
sg59
(lp4327
S'session_new'
p4328
asbag52
(g73
g54
NtRp4329
(dp4330
g57
(dp4331
g84
g85
ssg66
g4320
sg59
(lp4332
S':'
asbag52
(g73
g54
NtRp4333
(dp4334
g57
(dp4335
sg66
g4320
sg59
(lp4336
g52
(g53
g54
NtRp4337
(dp4338
g57
(dp4339
g65
I5
ssg66
g4333
sg59
(lp4340
g95
asbasbasbag52
(g68
g54
NtRp4341
(dp4342
g57
(dp4343
sg66
g3423
sg59
(lp4344
g52
(g73
g54
NtRp4345
(dp4346
g57
(dp4347
g77
g78
ssg66
g4341
sg59
(lp4348
S'status'
p4349
asbag52
(g73
g54
NtRp4350
(dp4351
g57
(dp4352
g84
g85
ssg66
g4341
sg59
(lp4353
S':'
asbag52
(g73
g54
NtRp4354
(dp4355
g57
(dp4356
sg66
g4341
sg59
(lp4357
g52
(g53
g54
NtRp4358
(dp4359
g57
(dp4360
g65
I5
ssg66
g4354
sg59
(lp4361
S'200'
p4362
asbasbasbag52
(g68
g54
NtRp4363
(dp4364
g57
(dp4365
sg66
g3423
sg59
(lp4366
g52
(g73
g54
NtRp4367
(dp4368
g57
(dp4369
g77
g78
ssg66
g4363
sg59
(lp4370
S'subtitle'
p4371
asbag52
(g73
g54
NtRp4372
(dp4373
g57
(dp4374
g84
g85
ssg66
g4363
sg59
(lp4375
S':'
asbag52
(g73
g54
NtRp4376
(dp4377
g57
(dp4378
sg66
g4363
sg59
(lp4379
g52
(g53
g54
NtRp4380
(dp4381
g57
(dp4382
g65
I5
ssg66
g4376
sg59
(lp4383
S''
asbasbasbag52
(g68
g54
NtRp4384
(dp4385
g57
(dp4386
sg66
g3423
sg59
(lp4387
g52
(g73
g54
NtRp4388
(dp4389
g57
(dp4390
g77
g78
ssg66
g4384
sg59
(lp4391
S'title'
p4392
asbag52
(g73
g54
NtRp4393
(dp4394
g57
(dp4395
g84
g85
ssg66
g4384
sg59
(lp4396
S':'
asbag52
(g73
g54
NtRp4397
(dp4398
g57
(dp4399
sg66
g4384
sg59
(lp4400
g52
(g53
g54
NtRp4401
(dp4402
g57
(dp4403
g65
I5
ssg66
g4397
sg59
(lp4404
S'Casa de Apuestas'
p4405
asbasbasbag52
(g68
g54
NtRp4406
(dp4407
g57
(dp4408
sg66
g3423
sg59
(lp4409
g52
(g73
g54
NtRp4410
(dp4411
g57
(dp4412
g77
g78
ssg66
g4406
sg59
(lp4413
g2476
asbag52
(g73
g54
NtRp4414
(dp4415
g57
(dp4416
g84
g85
ssg66
g4406
sg59
(lp4417
S':'
asbag52
(g73
g54
NtRp4418
(dp4419
g57
(dp4420
sg66
g4406
sg59
(lp4421
g52
(g53
g54
NtRp4422
(dp4423
g57
(dp4424
g65
I5
ssg66
g4418
sg59
(lp4425
g2489
asbasbasbag52
(g68
g54
NtRp4426
(dp4427
g57
(dp4428
sg66
g3423
sg59
(lp4429
g52
(g73
g54
NtRp4430
(dp4431
g57
(dp4432
g77
g78
ssg66
g4426
sg59
(lp4433
S'view'
p4434
asbag52
(g73
g54
NtRp4435
(dp4436
g57
(dp4437
g84
g85
ssg66
g4426
sg59
(lp4438
S':'
asbag52
(g73
g54
NtRp4439
(dp4440
g57
(dp4441
sg66
g4426
sg59
(lp4442
g52
(g53
g54
NtRp4443
(dp4444
g57
(dp4445
g65
I5
ssg66
g4439
sg59
(lp4446
S'appadmin.html'
p4447
asbasbasbasbasbsS'locals'
p4448
(dp4449
S'query'
p4450
S"'INSERT INTO eventos_participantes(eventos_id,limite_apuesta,participantes_id) VALUES (1,NULL,2);'"
p4451
sS'self'
p4452
S'<gluon.dal.SQLiteAdapter object at 0x06E2C590>'
p4453
sS'e'
S"OperationalError('no such table: eventos_participantes',)"
p4454
sS'fields'
p4455
S"[(<gluon.dal.Field object at 0x06E2C350>, '1'), (<gluon.dal.Field object at 0x06E2CE30>, None), (<gluon.dal.Field object at 0x06E2CC30>, '2')]"
p4456
sS'table'
p4457
S"<Table {'ALL': <gluon.dal.SQLALL object at 0x06E...puesta': <gluon.dal.Field object at 0x06E2CE30>}>"
p4458
sssS'traceback'
p4459
S'Traceback (most recent call last):\n  File "gluon/restricted.py", line 194, in restricted\n  File "C:\\Users\\Gary\\Desktop\\web2py\\applications\\Casa_de_Apuestas\\controllers/appadmin.py", line 410, in <module>\n  File "gluon/globals.py", line 149, in <lambda>\n  File "C:\\Users\\Gary\\Desktop\\web2py\\applications\\Casa_de_Apuestas\\controllers/appadmin.py", line 127, in insert\n  File "gluon/sqlhtml.py", line 1248, in accepts\n  File "gluon/dal.py", line 4976, in insert\n  File "gluon/dal.py", line 886, in insert\nOperationalError: no such table: eventos_participantes\n'
p4460
s.