(dp1
S'output'
p2
S''
sS'layer'
p3
S'C:\\Python32\\web2py_win\\web2py\\applications\\Casa_de_Apuestas\\controllers/default.py'
p4
sS'code'
p5
S'# -*- coding: utf-8 -*-\n### required - do no delete\n"""\nEste Modulo corresponde al de controladores segun MVC, los metodos aqui contenidos\nson los encargados de invocar a las vistas, eso esta configurado en el framework\n"""\nfrom Servicio import *\nservice = Servicio(db, crud)\nfrom log import *\nlog = log()\n\ndef user(): return dict(form=auth())\ndef download(): return response.download(request,db)\ndef call(): return service()\n\n### end requires\n\n@auth.requires_login()\ndef index():\n    return dict()\n\ndef error():\n    return dict()\n\ndef maquinas():\n    form = crud.update(db.maquinas, request.args(0),next=URL(\'maquinas\'))\n    maquinas = db().select(db.maquinas.ALL)\n    coordenadas = False\n    if (request.args(0)):\n        for i, maquina in enumerate(maquinas):\n            if (i == request.args(0)):\n                break\n        coordenadas = dict(lon=maquina.longitud,lat=maquina.latitud)                    \n    return dict(form=form, maquinas=maquinas, coordenadas=coordenadas)\n\ndef crearCategoria():\n        categorias = db().select(db.categorias.ALL)\n        form = crud.create(db.categorias)\n        #if form.accepts(request.vars, formname=None):\n        if form.process().accepted:\n            db.commit()        \n            from log import *\n            log = log()\n            log.logear("Categoria creada: "+form.vars.nombre)\n        return response.render(dict(form=form, categorias=categorias))\n\ndef obtenerCategoria():\n        if not request.vars.categorias:\n            return \'\'\n        patron = request.vars.categorias.capitalize() + \'%\'\n        seleccionado = [row.name for row in db(db.categorias.nombre.like(patron)).select()]\n        return \'\'.join([DIV(k,\n                     _onclick="jQuery(\'#categorias\').val(\'%s\')" % k,\n                     _onmouseover="this.style.backgroundColor=\'green\'",\n                     _onmouseout="this.style.backgroundColor=\'white\'"\n                     ).xml() for k in selected])\n\ndef crearEvento():\n        eventos = db().select(db.eventos.ALL)\n        form = crud.create(db.eventos)\n        #if form.accepts(request.vars, formname=None):\n        if form.process().accepted:\n            db.commit()        \n            from log import *\n            log = log()\n            log.logear("Evento creado: "+form.vars.nombre)\n        return response.render(dict(form=form,eventos=eventos))\n\ndef crearParticipante():\n        participantes = db().select(db.participantes.ALL)\n        form = crud.create(db.participantes)\n        #if form.accepts(request.vars, formname=None):\n        if form.process().accepted:\n            db.commit()        \n            from log import *\n            log = log()\n            log.logear("Participante creado: "+form.vars.nombre)\n        return response.render(dict(form=form,participantes=participantes))\n\ndef crearEventoParticipante():\n        eventosparticipantes = db().select(db.eventosparticipantes.ALL)\n        form = crud.create(db.eventosparticipantes)\n        #if form.accepts(request.vars, formname=None):\n        if form.process().accepted:\n            db.commit()        \n            from log import *\n            log = log()\n            log.logear("EventoParticipante creado: "+form.vars.nombre)\n        return response.render(dict(form=form,eventosparticipantes=eventosparticipantes))\n\ndef crearUsuario():\n        usuarios = db().select(db.auth_user.ALL)\n        form = crud.create(db.auth_user)\n        #if form.accepts(request.vars, formname=None):\n        if form.process().accepted:\n            db.commit()        \n            from log import *\n            log = log()\n            log.logear("Usuario creado: "+form.vars.nombre)\n        return response.render(dict(form=form,usuarios=usuarios))\n    \n\ndef mostrarCategoria():\n        categorias = db().select(db.categorias.ALL, orderby = db.categorias.id)\n        return response.render(dict(categorias = categorias))\n\ndef mostrarEvento():\n        eventos = db().select(db.eventos.ALL, orderby = db.eventos.id)\n        return response.render(dict(eventos = eventos))\n\ndef mostrarParticipante():\n        participantes = db().select(db.participantes.ALL, orderby = db.participantes.id)\n        return response.render(dict(participantes = participantes))\n\ndef mostrarEventosParticipantes():\n        eventosparticipantes = db().select(db.eventosparticipantes.ALL,orderby = db.eventosparticipantes.id)\n        return response.render(dict(eventosparticipantes= eventosparticipantes))\n    \ndef mostrarUsuario():\n        usuarios = db().select(db.auth_user.ALL, orderby = db.auth_user.id)\n        return response.render(dict(usuarios = usuarios))\n    \n    \n    \ndef showEvento():\n        form = crud.update(db.eventos, request.args(0),next = URL(\'mostrarEvento\'))\n        #if form.accepts(request.vars, formname=None):\n        if form.process().accepted:\n            db.commit()        \n            from log import *\n            log = log()\n            log.logear("Evento modificado: "+form.vars.nombre)           \n        return response.render(dict(form = form))\n\ndef showCategoria():\n        form =crud.update(db.categorias, request.args(0), next = URL(\'mostrarCategoria\'))\n        #if form.accepts(request.vars, formname=None):\n        if form.process().accepted:\n            db.commit()        \n            from log import *\n            log = log()\n            log.logear("Categoria modificada: "+form.vars.nombre)          \n        return response.render(dict(form = form))\n\ndef showParticipante():\n        form = crud.update(db.participantes, request.args(0),next = URL(\'mostrarParticipante\'))\n        #if form.accepts(request.vars, formname=None):\n        if form.process().accepted:\n            db.commit()        \n            from log import *\n            log = log()\n            log.logear("Participante modificado: "+form.vars.nombre)            \n        return response.render(dict(form = form)) \n\ndef showEventosParticipantes():\n    return service.showEventoParticipante(request)\n    \ndef showUsuario():\n        form = crud.update(db.auth_user, request.args(0), next = URL(\'mostrarUsuario\'))\n        #if form.accepts(request.vars, formname=None):\n        if form.process().accepted:\n            db.commit()        \n            from log import *\n            log = log()\n            log.logear("Usuario modificado: "+form.vars.nombre)           \n        return response.render(dict(form = form))\n\n\ndef verResultado1():\n    import datetime\n    fechaActual=datetime.datetime.now()\n    eventos =db(db.eventos.fecha <fechaActual).select()\n    return dict(eventos=eventos)\n        \ndef verResultado2():\n    resultados= db((db.resultados.eventos_id==request.args(0))& (db.resultados.participantes_id==db.participantes.id)).select()\n    evento=db(db.eventos.id==request.args(0)).select()\n    return dict(resultados=resultados,evento=evento)\n    \ndef mostrar():\n    from DAOCasadeApuestas import *\n    dao = DAOCasadeApuestas()\n    dao2 = DAOCasadeApuestas()\n    dao3 = DAOCasadeApuestas()\n    dao4 = DAOCasadeApuestas()\n    dao5 = DAOCasadeApuestas()\n    q = dao.generarArchivoActualizacionMD5(dao.generarMensajeMD5(db().select(db.eventos.ALL)), dao2.generarMensajeMD5(db().select(db.categorias.ALL)), dao3.generarMensajeMD5(db().select(db.participantes.ALL)), dao4.generarMensajeMD5(db().select(db.eventosparticipantes.ALL)), dao5.generarMensajeMD5(db().select(db.auth_user.ALL)))\n    s = dao.generarArchivoActualizacionXML(dao.generarFormatoXml(db().select(db.eventos.ALL)), dao2.generarFormatoXml(db().select(db.categorias.ALL)), dao3.generarFormatoXml(db().select(db.participantes.ALL)), dao4.generarFormatoXml(db().select(db.eventosparticipantes.ALL)), dao5.generarFormatoXml(db().select(db.auth_user.ALL)))\n    return response.render(dict(q = q, s = s))   \n    \ndef verProximosEventos1():\n    import datetime\n    fechaActual=datetime.datetime.now()\n    eventos =db(db.eventos.fecha>fechaActual).select()\n    return dict(eventos=eventos)\n    \ndef verProximosEventos2():\n    evento_participante= db((db.eventosparticipantes.eventos_id==request.args(0))& (db.participantes.id==db.eventosparticipantes.participantes_id)).select()\n    evento = db(db.eventos.id==request.args(0)).select()\n    categoria = db((db.categorias.id==db.eventos.categoria_id)& (db.eventos.id==request.args(0))).select()\n    return dict(evento_participante=evento_participante,evento=evento,categoria=categoria)\n    \ndef indexPublico():\n    return dict()\n\nresponse._vars=response._caller(obtenerCategoria)\n'
p6
sS'snapshot'
p7
(dp8
S'exception'
p9
(dp10
S'__hash__'
p11
S"<method-wrapper '__hash__' of exceptions.KeyError object at 0x06492418>"
p12
sS'__setattr__'
p13
S"<method-wrapper '__setattr__' of exceptions.KeyError object at 0x06492418>"
p14
sS'__reduce_ex__'
p15
S'<built-in method __reduce_ex__ of exceptions.KeyError object at 0x06492418>'
p16
sS'__getslice__'
p17
S"<method-wrapper '__getslice__' of exceptions.KeyError object at 0x06492418>"
p18
sS'__getitem__'
p19
S"<method-wrapper '__getitem__' of exceptions.KeyError object at 0x06492418>"
p20
sS'__setstate__'
p21
S'<built-in method __setstate__ of exceptions.KeyError object at 0x06492418>'
p22
sS'__reduce__'
p23
S'<built-in method __reduce__ of exceptions.KeyError object at 0x06492418>'
p24
sS'__str__'
p25
S"<method-wrapper '__str__' of exceptions.KeyError object at 0x06492418>"
p26
sS'args'
p27
S"('name',)"
p28
sS'__getattribute__'
p29
S"<method-wrapper '__getattribute__' of exceptions.KeyError object at 0x06492418>"
p30
sS'__class__'
p31
S"<type 'exceptions.KeyError'>"
p32
sS'__delattr__'
p33
S"<method-wrapper '__delattr__' of exceptions.KeyError object at 0x06492418>"
p34
sS'__repr__'
p35
S"<method-wrapper '__repr__' of exceptions.KeyError object at 0x06492418>"
p36
sS'__dict__'
p37
S'{}'
p38
sS'__doc__'
p39
S"'Mapping key not found.'"
p40
sS'__init__'
p41
S"<method-wrapper '__init__' of exceptions.KeyError object at 0x06492418>"
p42
sS'__new__'
p43
S'<built-in method __new__ of type object at 0x1E1CDFB8>'
p44
ssS'evalue'
p45
S"'name'"
p46
sS'request'
p47
ccopy_reg
_reconstructor
p48
(cgluon.html
BEAUTIFY
p49
c__builtin__
object
p50
NtRp51
(dp52
S'attributes'
p53
(dp54
sS'components'
p55
(lp56
g48
(cgluon.html
TABLE
p57
g50
NtRp58
(dp59
g53
(dp60
S'level'
p61
I5
ssS'parent'
p62
Nsg55
(lp63
g48
(cgluon.html
TR
p64
g50
NtRp65
(dp66
g53
(dp67
sg62
g58
sg55
(lp68
g48
(cgluon.html
TD
p69
g50
NtRp70
(dp71
g53
(dp72
S'_style'
p73
S'font-weight:bold;'
p74
ssg62
g65
sg55
(lp75
S'ajax'
p76
asbag48
(g69
g50
NtRp77
(dp78
g53
(dp79
S'_valign'
p80
S'top'
p81
ssg62
g65
sg55
(lp82
S':'
asbag48
(g69
g50
NtRp83
(dp84
g53
(dp85
sg62
g65
sg55
(lp86
g48
(g49
g50
NtRp87
(dp88
g53
(dp89
g61
I5
ssg62
g83
sg55
(lp90
S'True'
p91
asbasbasbag48
(g64
g50
NtRp92
(dp93
g53
(dp94
sg62
g58
sg55
(lp95
g48
(g69
g50
NtRp96
(dp97
g53
(dp98
g73
g74
ssg62
g92
sg55
(lp99
S'application'
p100
asbag48
(g69
g50
NtRp101
(dp102
g53
(dp103
g80
g81
ssg62
g92
sg55
(lp104
S':'
asbag48
(g69
g50
NtRp105
(dp106
g53
(dp107
sg62
g92
sg55
(lp108
g48
(g49
g50
NtRp109
(dp110
g53
(dp111
g61
I5
ssg62
g105
sg55
(lp112
S'Casa_de_Apuestas'
p113
asbasbasbag48
(g64
g50
NtRp114
(dp115
g53
(dp116
sg62
g58
sg55
(lp117
g48
(g69
g50
NtRp118
(dp119
g53
(dp120
g73
g74
ssg62
g114
sg55
(lp121
g27
asbag48
(g69
g50
NtRp122
(dp123
g53
(dp124
g80
g81
ssg62
g114
sg55
(lp125
S':'
asbag48
(g69
g50
NtRp126
(dp127
g53
(dp128
sg62
g114
sg55
(lp129
g48
(g49
g50
NtRp130
(dp131
g53
(dp132
g61
I5
ssg62
g126
sg55
(lp133
g48
(g57
g50
NtRp134
(dp135
g53
(dp136
g61
I4
ssg62
Nsg55
(lp137
sbasbasbasbag48
(g64
g50
NtRp138
(dp139
g53
(dp140
sg62
g58
sg55
(lp141
g48
(g69
g50
NtRp142
(dp143
g53
(dp144
g73
g74
ssg62
g138
sg55
(lp145
S'body'
p146
asbag48
(g69
g50
NtRp147
(dp148
g53
(dp149
g80
g81
ssg62
g138
sg55
(lp150
S':'
asbag48
(g69
g50
NtRp151
(dp152
g53
(dp153
sg62
g138
sg55
(lp154
g48
(g49
g50
NtRp155
(dp156
g53
(dp157
g61
I5
ssg62
g151
sg55
(lp158
S"<open file '<fdopen>', mode 'w+b' at 0x0596C410>"
p159
asbasbasbag48
(g64
g50
NtRp160
(dp161
g53
(dp162
sg62
g58
sg55
(lp163
g48
(g69
g50
NtRp164
(dp165
g53
(dp166
g73
g74
ssg62
g160
sg55
(lp167
S'client'
p168
asbag48
(g69
g50
NtRp169
(dp170
g53
(dp171
g80
g81
ssg62
g160
sg55
(lp172
S':'
asbag48
(g69
g50
NtRp173
(dp174
g53
(dp175
sg62
g160
sg55
(lp176
g48
(g49
g50
NtRp177
(dp178
g53
(dp179
g61
I5
ssg62
g173
sg55
(lp180
S'127.0.0.1'
p181
asbasbasbag48
(g64
g50
NtRp182
(dp183
g53
(dp184
sg62
g58
sg55
(lp185
g48
(g69
g50
NtRp186
(dp187
g53
(dp188
g73
g74
ssg62
g182
sg55
(lp189
S'controller'
p190
asbag48
(g69
g50
NtRp191
(dp192
g53
(dp193
g80
g81
ssg62
g182
sg55
(lp194
S':'
asbag48
(g69
g50
NtRp195
(dp196
g53
(dp197
sg62
g182
sg55
(lp198
g48
(g49
g50
NtRp199
(dp200
g53
(dp201
g61
I5
ssg62
g195
sg55
(lp202
S'default'
p203
asbasbasbag48
(g64
g50
NtRp204
(dp205
g53
(dp206
sg62
g58
sg55
(lp207
g48
(g69
g50
NtRp208
(dp209
g53
(dp210
g73
g74
ssg62
g204
sg55
(lp211
S'cookies'
p212
asbag48
(g69
g50
NtRp213
(dp214
g53
(dp215
g80
g81
ssg62
g204
sg55
(lp216
S':'
asbag48
(g69
g50
NtRp217
(dp218
g53
(dp219
sg62
g204
sg55
(lp220
g48
(g49
g50
NtRp221
(dp222
g53
(dp223
g61
I5
ssg62
g217
sg55
(lp224
g48
(g57
g50
NtRp225
(dp226
g53
(dp227
g61
I4
ssg62
Nsg55
(lp228
g48
(g64
g50
NtRp229
(dp230
g53
(dp231
sg62
g225
sg55
(lp232
g48
(g69
g50
NtRp233
(dp234
g53
(dp235
g73
g74
ssg62
g229
sg55
(lp236
S'session_id_admin'
p237
asbag48
(g69
g50
NtRp238
(dp239
g53
(dp240
g80
g81
ssg62
g229
sg55
(lp241
S':'
asbag48
(g69
g50
NtRp242
(dp243
g53
(dp244
sg62
g229
sg55
(lp245
g48
(g49
g50
NtRp246
(dp247
g53
(dp248
g61
I4
ssg62
g242
sg55
(lp249
g48
(g57
g50
NtRp250
(dp251
g53
(dp252
g61
I3
ssg62
Nsg55
(lp253
g48
(g64
g50
NtRp254
(dp255
g53
(dp256
sg62
g250
sg55
(lp257
g48
(g69
g50
NtRp258
(dp259
g53
(dp260
g73
g74
ssg62
g254
sg55
(lp261
S'comment'
p262
asbag48
(g69
g50
NtRp263
(dp264
g53
(dp265
g80
g81
ssg62
g254
sg55
(lp266
S':'
asbag48
(g69
g50
NtRp267
(dp268
g53
(dp269
sg62
g254
sg55
(lp270
g48
(g49
g50
NtRp271
(dp272
g53
(dp273
g61
I3
ssg62
g267
sg55
(lp274
S''
asbasbasbag48
(g64
g50
NtRp275
(dp276
g53
(dp277
sg62
g250
sg55
(lp278
g48
(g69
g50
NtRp279
(dp280
g53
(dp281
g73
g74
ssg62
g275
sg55
(lp282
S'domain'
p283
asbag48
(g69
g50
NtRp284
(dp285
g53
(dp286
g80
g81
ssg62
g275
sg55
(lp287
S':'
asbag48
(g69
g50
NtRp288
(dp289
g53
(dp290
sg62
g275
sg55
(lp291
g48
(g49
g50
NtRp292
(dp293
g53
(dp294
g61
I3
ssg62
g288
sg55
(lp295
S''
asbasbasbag48
(g64
g50
NtRp296
(dp297
g53
(dp298
sg62
g250
sg55
(lp299
g48
(g69
g50
NtRp300
(dp301
g53
(dp302
g73
g74
ssg62
g296
sg55
(lp303
S'expires'
p304
asbag48
(g69
g50
NtRp305
(dp306
g53
(dp307
g80
g81
ssg62
g296
sg55
(lp308
S':'
asbag48
(g69
g50
NtRp309
(dp310
g53
(dp311
sg62
g296
sg55
(lp312
g48
(g49
g50
NtRp313
(dp314
g53
(dp315
g61
I3
ssg62
g309
sg55
(lp316
S''
asbasbasbag48
(g64
g50
NtRp317
(dp318
g53
(dp319
sg62
g250
sg55
(lp320
g48
(g69
g50
NtRp321
(dp322
g53
(dp323
g73
g74
ssg62
g317
sg55
(lp324
S'max-age'
p325
asbag48
(g69
g50
NtRp326
(dp327
g53
(dp328
g80
g81
ssg62
g317
sg55
(lp329
S':'
asbag48
(g69
g50
NtRp330
(dp331
g53
(dp332
sg62
g317
sg55
(lp333
g48
(g49
g50
NtRp334
(dp335
g53
(dp336
g61
I3
ssg62
g330
sg55
(lp337
S''
asbasbasbag48
(g64
g50
NtRp338
(dp339
g53
(dp340
sg62
g250
sg55
(lp341
g48
(g69
g50
NtRp342
(dp343
g53
(dp344
g73
g74
ssg62
g338
sg55
(lp345
S'path'
p346
asbag48
(g69
g50
NtRp347
(dp348
g53
(dp349
g80
g81
ssg62
g338
sg55
(lp350
S':'
asbag48
(g69
g50
NtRp351
(dp352
g53
(dp353
sg62
g338
sg55
(lp354
g48
(g49
g50
NtRp355
(dp356
g53
(dp357
g61
I3
ssg62
g351
sg55
(lp358
S''
asbasbasbag48
(g64
g50
NtRp359
(dp360
g53
(dp361
sg62
g250
sg55
(lp362
g48
(g69
g50
NtRp363
(dp364
g53
(dp365
g73
g74
ssg62
g359
sg55
(lp366
S'secure'
p367
asbag48
(g69
g50
NtRp368
(dp369
g53
(dp370
g80
g81
ssg62
g359
sg55
(lp371
S':'
asbag48
(g69
g50
NtRp372
(dp373
g53
(dp374
sg62
g359
sg55
(lp375
g48
(g49
g50
NtRp376
(dp377
g53
(dp378
g61
I3
ssg62
g372
sg55
(lp379
S''
asbasbasbag48
(g64
g50
NtRp380
(dp381
g53
(dp382
sg62
g250
sg55
(lp383
g48
(g69
g50
NtRp384
(dp385
g53
(dp386
g73
g74
ssg62
g380
sg55
(lp387
S'version'
p388
asbag48
(g69
g50
NtRp389
(dp390
g53
(dp391
g80
g81
ssg62
g380
sg55
(lp392
S':'
asbag48
(g69
g50
NtRp393
(dp394
g53
(dp395
sg62
g380
sg55
(lp396
g48
(g49
g50
NtRp397
(dp398
g53
(dp399
g61
I3
ssg62
g393
sg55
(lp400
S''
asbasbasbasbasbasbasbag48
(g64
g50
NtRp401
(dp402
g53
(dp403
sg62
g225
sg55
(lp404
g48
(g69
g50
NtRp405
(dp406
g53
(dp407
g73
g74
ssg62
g401
sg55
(lp408
S'session_id_casa_de_apuestas'
p409
asbag48
(g69
g50
NtRp410
(dp411
g53
(dp412
g80
g81
ssg62
g401
sg55
(lp413
S':'
asbag48
(g69
g50
NtRp414
(dp415
g53
(dp416
sg62
g401
sg55
(lp417
g48
(g49
g50
NtRp418
(dp419
g53
(dp420
g61
I4
ssg62
g414
sg55
(lp421
g48
(g57
g50
NtRp422
(dp423
g53
(dp424
g61
I3
ssg62
Nsg55
(lp425
g48
(g64
g50
NtRp426
(dp427
g53
(dp428
sg62
g422
sg55
(lp429
g48
(g69
g50
NtRp430
(dp431
g53
(dp432
g73
g74
ssg62
g426
sg55
(lp433
g262
asbag48
(g69
g50
NtRp434
(dp435
g53
(dp436
g80
g81
ssg62
g426
sg55
(lp437
S':'
asbag48
(g69
g50
NtRp438
(dp439
g53
(dp440
sg62
g426
sg55
(lp441
g48
(g49
g50
NtRp442
(dp443
g53
(dp444
g61
I3
ssg62
g438
sg55
(lp445
S''
asbasbasbag48
(g64
g50
NtRp446
(dp447
g53
(dp448
sg62
g422
sg55
(lp449
g48
(g69
g50
NtRp450
(dp451
g53
(dp452
g73
g74
ssg62
g446
sg55
(lp453
g283
asbag48
(g69
g50
NtRp454
(dp455
g53
(dp456
g80
g81
ssg62
g446
sg55
(lp457
S':'
asbag48
(g69
g50
NtRp458
(dp459
g53
(dp460
sg62
g446
sg55
(lp461
g48
(g49
g50
NtRp462
(dp463
g53
(dp464
g61
I3
ssg62
g458
sg55
(lp465
S''
asbasbasbag48
(g64
g50
NtRp466
(dp467
g53
(dp468
sg62
g422
sg55
(lp469
g48
(g69
g50
NtRp470
(dp471
g53
(dp472
g73
g74
ssg62
g466
sg55
(lp473
g304
asbag48
(g69
g50
NtRp474
(dp475
g53
(dp476
g80
g81
ssg62
g466
sg55
(lp477
S':'
asbag48
(g69
g50
NtRp478
(dp479
g53
(dp480
sg62
g466
sg55
(lp481
g48
(g49
g50
NtRp482
(dp483
g53
(dp484
g61
I3
ssg62
g478
sg55
(lp485
S''
asbasbasbag48
(g64
g50
NtRp486
(dp487
g53
(dp488
sg62
g422
sg55
(lp489
g48
(g69
g50
NtRp490
(dp491
g53
(dp492
g73
g74
ssg62
g486
sg55
(lp493
g325
asbag48
(g69
g50
NtRp494
(dp495
g53
(dp496
g80
g81
ssg62
g486
sg55
(lp497
S':'
asbag48
(g69
g50
NtRp498
(dp499
g53
(dp500
sg62
g486
sg55
(lp501
g48
(g49
g50
NtRp502
(dp503
g53
(dp504
g61
I3
ssg62
g498
sg55
(lp505
S''
asbasbasbag48
(g64
g50
NtRp506
(dp507
g53
(dp508
sg62
g422
sg55
(lp509
g48
(g69
g50
NtRp510
(dp511
g53
(dp512
g73
g74
ssg62
g506
sg55
(lp513
g346
asbag48
(g69
g50
NtRp514
(dp515
g53
(dp516
g80
g81
ssg62
g506
sg55
(lp517
S':'
asbag48
(g69
g50
NtRp518
(dp519
g53
(dp520
sg62
g506
sg55
(lp521
g48
(g49
g50
NtRp522
(dp523
g53
(dp524
g61
I3
ssg62
g518
sg55
(lp525
S''
asbasbasbag48
(g64
g50
NtRp526
(dp527
g53
(dp528
sg62
g422
sg55
(lp529
g48
(g69
g50
NtRp530
(dp531
g53
(dp532
g73
g74
ssg62
g526
sg55
(lp533
g367
asbag48
(g69
g50
NtRp534
(dp535
g53
(dp536
g80
g81
ssg62
g526
sg55
(lp537
S':'
asbag48
(g69
g50
NtRp538
(dp539
g53
(dp540
sg62
g526
sg55
(lp541
g48
(g49
g50
NtRp542
(dp543
g53
(dp544
g61
I3
ssg62
g538
sg55
(lp545
S''
asbasbasbag48
(g64
g50
NtRp546
(dp547
g53
(dp548
sg62
g422
sg55
(lp549
g48
(g69
g50
NtRp550
(dp551
g53
(dp552
g73
g74
ssg62
g546
sg55
(lp553
g388
asbag48
(g69
g50
NtRp554
(dp555
g53
(dp556
g80
g81
ssg62
g546
sg55
(lp557
S':'
asbag48
(g69
g50
NtRp558
(dp559
g53
(dp560
sg62
g546
sg55
(lp561
g48
(g49
g50
NtRp562
(dp563
g53
(dp564
g61
I3
ssg62
g558
sg55
(lp565
S''
asbasbasbasbasbasbasbag48
(g64
g50
NtRp566
(dp567
g53
(dp568
sg62
g225
sg55
(lp569
g48
(g69
g50
NtRp570
(dp571
g53
(dp572
g73
g74
ssg62
g566
sg55
(lp573
S'session_id_images'
p574
asbag48
(g69
g50
NtRp575
(dp576
g53
(dp577
g80
g81
ssg62
g566
sg55
(lp578
S':'
asbag48
(g69
g50
NtRp579
(dp580
g53
(dp581
sg62
g566
sg55
(lp582
g48
(g49
g50
NtRp583
(dp584
g53
(dp585
g61
I4
ssg62
g579
sg55
(lp586
g48
(g57
g50
NtRp587
(dp588
g53
(dp589
g61
I3
ssg62
Nsg55
(lp590
g48
(g64
g50
NtRp591
(dp592
g53
(dp593
sg62
g587
sg55
(lp594
g48
(g69
g50
NtRp595
(dp596
g53
(dp597
g73
g74
ssg62
g591
sg55
(lp598
g262
asbag48
(g69
g50
NtRp599
(dp600
g53
(dp601
g80
g81
ssg62
g591
sg55
(lp602
S':'
asbag48
(g69
g50
NtRp603
(dp604
g53
(dp605
sg62
g591
sg55
(lp606
g48
(g49
g50
NtRp607
(dp608
g53
(dp609
g61
I3
ssg62
g603
sg55
(lp610
S''
asbasbasbag48
(g64
g50
NtRp611
(dp612
g53
(dp613
sg62
g587
sg55
(lp614
g48
(g69
g50
NtRp615
(dp616
g53
(dp617
g73
g74
ssg62
g611
sg55
(lp618
g283
asbag48
(g69
g50
NtRp619
(dp620
g53
(dp621
g80
g81
ssg62
g611
sg55
(lp622
S':'
asbag48
(g69
g50
NtRp623
(dp624
g53
(dp625
sg62
g611
sg55
(lp626
g48
(g49
g50
NtRp627
(dp628
g53
(dp629
g61
I3
ssg62
g623
sg55
(lp630
S''
asbasbasbag48
(g64
g50
NtRp631
(dp632
g53
(dp633
sg62
g587
sg55
(lp634
g48
(g69
g50
NtRp635
(dp636
g53
(dp637
g73
g74
ssg62
g631
sg55
(lp638
g304
asbag48
(g69
g50
NtRp639
(dp640
g53
(dp641
g80
g81
ssg62
g631
sg55
(lp642
S':'
asbag48
(g69
g50
NtRp643
(dp644
g53
(dp645
sg62
g631
sg55
(lp646
g48
(g49
g50
NtRp647
(dp648
g53
(dp649
g61
I3
ssg62
g643
sg55
(lp650
S''
asbasbasbag48
(g64
g50
NtRp651
(dp652
g53
(dp653
sg62
g587
sg55
(lp654
g48
(g69
g50
NtRp655
(dp656
g53
(dp657
g73
g74
ssg62
g651
sg55
(lp658
g325
asbag48
(g69
g50
NtRp659
(dp660
g53
(dp661
g80
g81
ssg62
g651
sg55
(lp662
S':'
asbag48
(g69
g50
NtRp663
(dp664
g53
(dp665
sg62
g651
sg55
(lp666
g48
(g49
g50
NtRp667
(dp668
g53
(dp669
g61
I3
ssg62
g663
sg55
(lp670
S''
asbasbasbag48
(g64
g50
NtRp671
(dp672
g53
(dp673
sg62
g587
sg55
(lp674
g48
(g69
g50
NtRp675
(dp676
g53
(dp677
g73
g74
ssg62
g671
sg55
(lp678
g346
asbag48
(g69
g50
NtRp679
(dp680
g53
(dp681
g80
g81
ssg62
g671
sg55
(lp682
S':'
asbag48
(g69
g50
NtRp683
(dp684
g53
(dp685
sg62
g671
sg55
(lp686
g48
(g49
g50
NtRp687
(dp688
g53
(dp689
g61
I3
ssg62
g683
sg55
(lp690
S''
asbasbasbag48
(g64
g50
NtRp691
(dp692
g53
(dp693
sg62
g587
sg55
(lp694
g48
(g69
g50
NtRp695
(dp696
g53
(dp697
g73
g74
ssg62
g691
sg55
(lp698
g367
asbag48
(g69
g50
NtRp699
(dp700
g53
(dp701
g80
g81
ssg62
g691
sg55
(lp702
S':'
asbag48
(g69
g50
NtRp703
(dp704
g53
(dp705
sg62
g691
sg55
(lp706
g48
(g49
g50
NtRp707
(dp708
g53
(dp709
g61
I3
ssg62
g703
sg55
(lp710
S''
asbasbasbag48
(g64
g50
NtRp711
(dp712
g53
(dp713
sg62
g587
sg55
(lp714
g48
(g69
g50
NtRp715
(dp716
g53
(dp717
g73
g74
ssg62
g711
sg55
(lp718
g388
asbag48
(g69
g50
NtRp719
(dp720
g53
(dp721
g80
g81
ssg62
g711
sg55
(lp722
S':'
asbag48
(g69
g50
NtRp723
(dp724
g53
(dp725
sg62
g711
sg55
(lp726
g48
(g49
g50
NtRp727
(dp728
g53
(dp729
g61
I3
ssg62
g723
sg55
(lp730
S''
asbasbasbasbasbasbasbag48
(g64
g50
NtRp731
(dp732
g53
(dp733
sg62
g225
sg55
(lp734
g48
(g69
g50
NtRp735
(dp736
g53
(dp737
g73
g74
ssg62
g731
sg55
(lp738
S'session_id_welcome'
p739
asbag48
(g69
g50
NtRp740
(dp741
g53
(dp742
g80
g81
ssg62
g731
sg55
(lp743
S':'
asbag48
(g69
g50
NtRp744
(dp745
g53
(dp746
sg62
g731
sg55
(lp747
g48
(g49
g50
NtRp748
(dp749
g53
(dp750
g61
I4
ssg62
g744
sg55
(lp751
g48
(g57
g50
NtRp752
(dp753
g53
(dp754
g61
I3
ssg62
Nsg55
(lp755
g48
(g64
g50
NtRp756
(dp757
g53
(dp758
sg62
g752
sg55
(lp759
g48
(g69
g50
NtRp760
(dp761
g53
(dp762
g73
g74
ssg62
g756
sg55
(lp763
g262
asbag48
(g69
g50
NtRp764
(dp765
g53
(dp766
g80
g81
ssg62
g756
sg55
(lp767
S':'
asbag48
(g69
g50
NtRp768
(dp769
g53
(dp770
sg62
g756
sg55
(lp771
g48
(g49
g50
NtRp772
(dp773
g53
(dp774
g61
I3
ssg62
g768
sg55
(lp775
S''
asbasbasbag48
(g64
g50
NtRp776
(dp777
g53
(dp778
sg62
g752
sg55
(lp779
g48
(g69
g50
NtRp780
(dp781
g53
(dp782
g73
g74
ssg62
g776
sg55
(lp783
g283
asbag48
(g69
g50
NtRp784
(dp785
g53
(dp786
g80
g81
ssg62
g776
sg55
(lp787
S':'
asbag48
(g69
g50
NtRp788
(dp789
g53
(dp790
sg62
g776
sg55
(lp791
g48
(g49
g50
NtRp792
(dp793
g53
(dp794
g61
I3
ssg62
g788
sg55
(lp795
S''
asbasbasbag48
(g64
g50
NtRp796
(dp797
g53
(dp798
sg62
g752
sg55
(lp799
g48
(g69
g50
NtRp800
(dp801
g53
(dp802
g73
g74
ssg62
g796
sg55
(lp803
g304
asbag48
(g69
g50
NtRp804
(dp805
g53
(dp806
g80
g81
ssg62
g796
sg55
(lp807
S':'
asbag48
(g69
g50
NtRp808
(dp809
g53
(dp810
sg62
g796
sg55
(lp811
g48
(g49
g50
NtRp812
(dp813
g53
(dp814
g61
I3
ssg62
g808
sg55
(lp815
S''
asbasbasbag48
(g64
g50
NtRp816
(dp817
g53
(dp818
sg62
g752
sg55
(lp819
g48
(g69
g50
NtRp820
(dp821
g53
(dp822
g73
g74
ssg62
g816
sg55
(lp823
g325
asbag48
(g69
g50
NtRp824
(dp825
g53
(dp826
g80
g81
ssg62
g816
sg55
(lp827
S':'
asbag48
(g69
g50
NtRp828
(dp829
g53
(dp830
sg62
g816
sg55
(lp831
g48
(g49
g50
NtRp832
(dp833
g53
(dp834
g61
I3
ssg62
g828
sg55
(lp835
S''
asbasbasbag48
(g64
g50
NtRp836
(dp837
g53
(dp838
sg62
g752
sg55
(lp839
g48
(g69
g50
NtRp840
(dp841
g53
(dp842
g73
g74
ssg62
g836
sg55
(lp843
g346
asbag48
(g69
g50
NtRp844
(dp845
g53
(dp846
g80
g81
ssg62
g836
sg55
(lp847
S':'
asbag48
(g69
g50
NtRp848
(dp849
g53
(dp850
sg62
g836
sg55
(lp851
g48
(g49
g50
NtRp852
(dp853
g53
(dp854
g61
I3
ssg62
g848
sg55
(lp855
S''
asbasbasbag48
(g64
g50
NtRp856
(dp857
g53
(dp858
sg62
g752
sg55
(lp859
g48
(g69
g50
NtRp860
(dp861
g53
(dp862
g73
g74
ssg62
g856
sg55
(lp863
g367
asbag48
(g69
g50
NtRp864
(dp865
g53
(dp866
g80
g81
ssg62
g856
sg55
(lp867
S':'
asbag48
(g69
g50
NtRp868
(dp869
g53
(dp870
sg62
g856
sg55
(lp871
g48
(g49
g50
NtRp872
(dp873
g53
(dp874
g61
I3
ssg62
g868
sg55
(lp875
S''
asbasbasbag48
(g64
g50
NtRp876
(dp877
g53
(dp878
sg62
g752
sg55
(lp879
g48
(g69
g50
NtRp880
(dp881
g53
(dp882
g73
g74
ssg62
g876
sg55
(lp883
g388
asbag48
(g69
g50
NtRp884
(dp885
g53
(dp886
g80
g81
ssg62
g876
sg55
(lp887
S':'
asbag48
(g69
g50
NtRp888
(dp889
g53
(dp890
sg62
g876
sg55
(lp891
g48
(g49
g50
NtRp892
(dp893
g53
(dp894
g61
I3
ssg62
g888
sg55
(lp895
S''
asbasbasbasbasbasbasbasbasbasbasbag48
(g64
g50
NtRp896
(dp897
g53
(dp898
sg62
g58
sg55
(lp899
g48
(g69
g50
NtRp900
(dp901
g53
(dp902
g73
g74
ssg62
g896
sg55
(lp903
S'env'
p904
asbag48
(g69
g50
NtRp905
(dp906
g53
(dp907
g80
g81
ssg62
g896
sg55
(lp908
S':'
asbag48
(g69
g50
NtRp909
(dp910
g53
(dp911
sg62
g896
sg55
(lp912
g48
(g49
g50
NtRp913
(dp914
g53
(dp915
g61
I5
ssg62
g909
sg55
(lp916
g48
(g57
g50
NtRp917
(dp918
g53
(dp919
g61
I4
ssg62
Nsg55
(lp920
g48
(g64
g50
NtRp921
(dp922
g53
(dp923
sg62
g917
sg55
(lp924
g48
(g69
g50
NtRp925
(dp926
g53
(dp927
g73
g74
ssg62
g921
sg55
(lp928
S'app_folders'
p929
asbag48
(g69
g50
NtRp930
(dp931
g53
(dp932
g80
g81
ssg62
g921
sg55
(lp933
S':'
asbag48
(g69
g50
NtRp934
(dp935
g53
(dp936
sg62
g921
sg55
(lp937
g48
(g49
g50
NtRp938
(dp939
g53
(dp940
g61
I4
ssg62
g934
sg55
(lp941
S"set(['C:\\\\Python32\\\\web2py_win\\\\web2py\\\\applications\\\\admin\\\\', 'C:\\\\Python32\\\\web2py_win\\\\web2py\\\\applications\\\\welcome\\\\', 'C:\\\\Python32\\\\web2py_win\\\\web2py\\\\applications\\\\images\\\\', 'C:\\\\Python32\\\\web2py_win\\\\web2py\\\\applications\\\\Casa_de_Apuestas\\\\'])"
p942
asbasbasbag48
(g64
g50
NtRp943
(dp944
g53
(dp945
sg62
g917
sg55
(lp946
g48
(g69
g50
NtRp947
(dp948
g53
(dp949
g73
g74
ssg62
g943
sg55
(lp950
S'applications_parent'
p951
asbag48
(g69
g50
NtRp952
(dp953
g53
(dp954
g80
g81
ssg62
g943
sg55
(lp955
S':'
asbag48
(g69
g50
NtRp956
(dp957
g53
(dp958
sg62
g943
sg55
(lp959
g48
(g49
g50
NtRp960
(dp961
g53
(dp962
g61
I4
ssg62
g956
sg55
(lp963
S'C:\\Python32\\web2py_win\\web2py'
p964
asbasbasbag48
(g64
g50
NtRp965
(dp966
g53
(dp967
sg62
g917
sg55
(lp968
g48
(g69
g50
NtRp969
(dp970
g53
(dp971
g73
g74
ssg62
g965
sg55
(lp972
S'cmd_args'
p973
asbag48
(g69
g50
NtRp974
(dp975
g53
(dp976
g80
g81
ssg62
g965
sg55
(lp977
S':'
asbag48
(g69
g50
NtRp978
(dp979
g53
(dp980
sg62
g965
sg55
(lp981
g48
(g49
g50
NtRp982
(dp983
g53
(dp984
g61
I4
ssg62
g978
sg55
(lp985
g48
(g57
g50
NtRp986
(dp987
g53
(dp988
g61
I3
ssg62
Nsg55
(lp989
sbasbasbasbag48
(g64
g50
NtRp990
(dp991
g53
(dp992
sg62
g917
sg55
(lp993
g48
(g69
g50
NtRp994
(dp995
g53
(dp996
g73
g74
ssg62
g990
sg55
(lp997
S'cmd_options'
p998
asbag48
(g69
g50
NtRp999
(dp1000
g53
(dp1001
g80
g81
ssg62
g990
sg55
(lp1002
S':'
asbag48
(g69
g50
NtRp1003
(dp1004
g53
(dp1005
sg62
g990
sg55
(lp1006
g48
(g49
g50
NtRp1007
(dp1008
g53
(dp1009
g61
I4
ssg62
g1003
sg55
(lp1010
S"<Values at 0x2705fa8: {'verbose': False, 'ip': '127.0.0.1', 'shutdown_timeout': 5, 'taskbar': False, 'nocron': False, 'pid_filename': 'httpserver.pid', 'maxthreads': None, 'softcron': False, 'server_name': 'hector-vaio', 'bpython': False, 'nogui': False, 'port': 8000, 'extcron': False, 'debuglevel': 30, 'test': None, 'folder': 'C:\\\\Python32\\\\web2py_win\\\\web2py', 'config': '', 'import_models': False, 'winservice': '', 'shell': None, 'run': '', 'log_filename': 'httpserver.log', 'args': [''], 'ssl_ca_certificate': None, 'scheduler': None, 'profiler_filename': None, 'ssl_private_key': '', 'password': '<ask>', 'request_queue_size': 5, 'ssl_certificate': '', 'cronjob': False, 'plain': False, 'quiet': False, 'interfaces': None, 'minthreads': None, 'timeout': 10, 'numthreads': None, 'nobanner': False}>"
p1011
asbasbasbag48
(g64
g50
NtRp1012
(dp1013
g53
(dp1014
sg62
g917
sg55
(lp1015
g48
(g69
g50
NtRp1016
(dp1017
g53
(dp1018
g73
g74
ssg62
g1012
sg55
(lp1019
S'content_length'
p1020
asbag48
(g69
g50
NtRp1021
(dp1022
g53
(dp1023
g80
g81
ssg62
g1012
sg55
(lp1024
S':'
asbag48
(g69
g50
NtRp1025
(dp1026
g53
(dp1027
sg62
g1012
sg55
(lp1028
g48
(g49
g50
NtRp1029
(dp1030
g53
(dp1031
g61
I4
ssg62
g1025
sg55
(lp1032
S'12'
p1033
asbasbasbag48
(g64
g50
NtRp1034
(dp1035
g53
(dp1036
sg62
g917
sg55
(lp1037
g48
(g69
g50
NtRp1038
(dp1039
g53
(dp1040
g73
g74
ssg62
g1034
sg55
(lp1041
S'content_type'
p1042
asbag48
(g69
g50
NtRp1043
(dp1044
g53
(dp1045
g80
g81
ssg62
g1034
sg55
(lp1046
S':'
asbag48
(g69
g50
NtRp1047
(dp1048
g53
(dp1049
sg62
g1034
sg55
(lp1050
g48
(g49
g50
NtRp1051
(dp1052
g53
(dp1053
g61
I4
ssg62
g1047
sg55
(lp1054
S'application/x-www-form-urlencoded'
p1055
asbasbasbag48
(g64
g50
NtRp1056
(dp1057
g53
(dp1058
sg62
g917
sg55
(lp1059
g48
(g69
g50
NtRp1060
(dp1061
g53
(dp1062
g73
g74
ssg62
g1056
sg55
(lp1063
S'db_sessions'
p1064
asbag48
(g69
g50
NtRp1065
(dp1066
g53
(dp1067
g80
g81
ssg62
g1056
sg55
(lp1068
S':'
asbag48
(g69
g50
NtRp1069
(dp1070
g53
(dp1071
sg62
g1056
sg55
(lp1072
g48
(g49
g50
NtRp1073
(dp1074
g53
(dp1075
g61
I4
ssg62
g1069
sg55
(lp1076
S'set([])'
p1077
asbasbasbag48
(g64
g50
NtRp1078
(dp1079
g53
(dp1080
sg62
g917
sg55
(lp1081
g48
(g69
g50
NtRp1082
(dp1083
g53
(dp1084
g73
g74
ssg62
g1078
sg55
(lp1085
S'debugging'
p1086
asbag48
(g69
g50
NtRp1087
(dp1088
g53
(dp1089
g80
g81
ssg62
g1078
sg55
(lp1090
S':'
asbag48
(g69
g50
NtRp1091
(dp1092
g53
(dp1093
sg62
g1078
sg55
(lp1094
g48
(g49
g50
NtRp1095
(dp1096
g53
(dp1097
g61
I4
ssg62
g1091
sg55
(lp1098
S'False'
p1099
asbasbasbag48
(g64
g50
NtRp1100
(dp1101
g53
(dp1102
sg62
g917
sg55
(lp1103
g48
(g69
g50
NtRp1104
(dp1105
g53
(dp1106
g73
g74
ssg62
g1100
sg55
(lp1107
S'gluon_parent'
p1108
asbag48
(g69
g50
NtRp1109
(dp1110
g53
(dp1111
g80
g81
ssg62
g1100
sg55
(lp1112
S':'
asbag48
(g69
g50
NtRp1113
(dp1114
g53
(dp1115
sg62
g1100
sg55
(lp1116
g48
(g49
g50
NtRp1117
(dp1118
g53
(dp1119
g61
I4
ssg62
g1113
sg55
(lp1120
S'C:\\Python32\\web2py_win\\web2py'
p1121
asbasbasbag48
(g64
g50
NtRp1122
(dp1123
g53
(dp1124
sg62
g917
sg55
(lp1125
g48
(g69
g50
NtRp1126
(dp1127
g53
(dp1128
g73
g74
ssg62
g1122
sg55
(lp1129
S'http_accept'
p1130
asbag48
(g69
g50
NtRp1131
(dp1132
g53
(dp1133
g80
g81
ssg62
g1122
sg55
(lp1134
S':'
asbag48
(g69
g50
NtRp1135
(dp1136
g53
(dp1137
sg62
g1122
sg55
(lp1138
g48
(g49
g50
NtRp1139
(dp1140
g53
(dp1141
g61
I4
ssg62
g1135
sg55
(lp1142
S'*/*'
p1143
asbasbasbag48
(g64
g50
NtRp1144
(dp1145
g53
(dp1146
sg62
g917
sg55
(lp1147
g48
(g69
g50
NtRp1148
(dp1149
g53
(dp1150
g73
g74
ssg62
g1144
sg55
(lp1151
S'http_accept_charset'
p1152
asbag48
(g69
g50
NtRp1153
(dp1154
g53
(dp1155
g80
g81
ssg62
g1144
sg55
(lp1156
S':'
asbag48
(g69
g50
NtRp1157
(dp1158
g53
(dp1159
sg62
g1144
sg55
(lp1160
g48
(g49
g50
NtRp1161
(dp1162
g53
(dp1163
g61
I4
ssg62
g1157
sg55
(lp1164
S'ISO-8859-1,utf-8;q=0.7,*;q=0.3'
p1165
asbasbasbag48
(g64
g50
NtRp1166
(dp1167
g53
(dp1168
sg62
g917
sg55
(lp1169
g48
(g69
g50
NtRp1170
(dp1171
g53
(dp1172
g73
g74
ssg62
g1166
sg55
(lp1173
S'http_accept_encoding'
p1174
asbag48
(g69
g50
NtRp1175
(dp1176
g53
(dp1177
g80
g81
ssg62
g1166
sg55
(lp1178
S':'
asbag48
(g69
g50
NtRp1179
(dp1180
g53
(dp1181
sg62
g1166
sg55
(lp1182
g48
(g49
g50
NtRp1183
(dp1184
g53
(dp1185
g61
I4
ssg62
g1179
sg55
(lp1186
S'gzip,deflate,sdch'
p1187
asbasbasbag48
(g64
g50
NtRp1188
(dp1189
g53
(dp1190
sg62
g917
sg55
(lp1191
g48
(g69
g50
NtRp1192
(dp1193
g53
(dp1194
g73
g74
ssg62
g1188
sg55
(lp1195
S'http_accept_language'
p1196
asbag48
(g69
g50
NtRp1197
(dp1198
g53
(dp1199
g80
g81
ssg62
g1188
sg55
(lp1200
S':'
asbag48
(g69
g50
NtRp1201
(dp1202
g53
(dp1203
sg62
g1188
sg55
(lp1204
g48
(g49
g50
NtRp1205
(dp1206
g53
(dp1207
g61
I4
ssg62
g1201
sg55
(lp1208
S'en-US,en;q=0.8'
p1209
asbasbasbag48
(g64
g50
NtRp1210
(dp1211
g53
(dp1212
sg62
g917
sg55
(lp1213
g48
(g69
g50
NtRp1214
(dp1215
g53
(dp1216
g73
g74
ssg62
g1210
sg55
(lp1217
S'http_connection'
p1218
asbag48
(g69
g50
NtRp1219
(dp1220
g53
(dp1221
g80
g81
ssg62
g1210
sg55
(lp1222
S':'
asbag48
(g69
g50
NtRp1223
(dp1224
g53
(dp1225
sg62
g1210
sg55
(lp1226
g48
(g49
g50
NtRp1227
(dp1228
g53
(dp1229
g61
I4
ssg62
g1223
sg55
(lp1230
S'keep-alive'
p1231
asbasbasbag48
(g64
g50
NtRp1232
(dp1233
g53
(dp1234
sg62
g917
sg55
(lp1235
g48
(g69
g50
NtRp1236
(dp1237
g53
(dp1238
g73
g74
ssg62
g1232
sg55
(lp1239
S'http_content_length'
p1240
asbag48
(g69
g50
NtRp1241
(dp1242
g53
(dp1243
g80
g81
ssg62
g1232
sg55
(lp1244
S':'
asbag48
(g69
g50
NtRp1245
(dp1246
g53
(dp1247
sg62
g1232
sg55
(lp1248
g48
(g49
g50
NtRp1249
(dp1250
g53
(dp1251
g61
I4
ssg62
g1245
sg55
(lp1252
g1033
asbasbasbag48
(g64
g50
NtRp1253
(dp1254
g53
(dp1255
sg62
g917
sg55
(lp1256
g48
(g69
g50
NtRp1257
(dp1258
g53
(dp1259
g73
g74
ssg62
g1253
sg55
(lp1260
S'http_content_type'
p1261
asbag48
(g69
g50
NtRp1262
(dp1263
g53
(dp1264
g80
g81
ssg62
g1253
sg55
(lp1265
S':'
asbag48
(g69
g50
NtRp1266
(dp1267
g53
(dp1268
sg62
g1253
sg55
(lp1269
g48
(g49
g50
NtRp1270
(dp1271
g53
(dp1272
g61
I4
ssg62
g1266
sg55
(lp1273
g1055
asbasbasbag48
(g64
g50
NtRp1274
(dp1275
g53
(dp1276
sg62
g917
sg55
(lp1277
g48
(g69
g50
NtRp1278
(dp1279
g53
(dp1280
g73
g74
ssg62
g1274
sg55
(lp1281
S'http_cookie'
p1282
asbag48
(g69
g50
NtRp1283
(dp1284
g53
(dp1285
g80
g81
ssg62
g1274
sg55
(lp1286
S':'
asbag48
(g69
g50
NtRp1287
(dp1288
g53
(dp1289
sg62
g1274
sg55
(lp1290
g48
(g49
g50
NtRp1291
(dp1292
g53
(dp1293
g61
I4
ssg62
g1287
sg55
(lp1294
S'session_id_welcome=127.0.0.1-8fea0ba2-90f2-43ea-9151-fc1a9d6558fb; session_id_images=127.0.0.1-deccc954-353a-4177-9103-f19a56624237; session_id_admin=127.0.0.1-44212440-7960-43ff-8289-ed0727cee5fd; session_id_casa_de_apuestas=127.0.0.1-b28859fb-172e-488d-8e45-f5879b610d08'
p1295
asbasbasbag48
(g64
g50
NtRp1296
(dp1297
g53
(dp1298
sg62
g917
sg55
(lp1299
g48
(g69
g50
NtRp1300
(dp1301
g53
(dp1302
g73
g74
ssg62
g1296
sg55
(lp1303
S'http_host'
p1304
asbag48
(g69
g50
NtRp1305
(dp1306
g53
(dp1307
g80
g81
ssg62
g1296
sg55
(lp1308
S':'
asbag48
(g69
g50
NtRp1309
(dp1310
g53
(dp1311
sg62
g1296
sg55
(lp1312
g48
(g49
g50
NtRp1313
(dp1314
g53
(dp1315
g61
I4
ssg62
g1309
sg55
(lp1316
S'127.0.0.1:8000'
p1317
asbasbasbag48
(g64
g50
NtRp1318
(dp1319
g53
(dp1320
sg62
g917
sg55
(lp1321
g48
(g69
g50
NtRp1322
(dp1323
g53
(dp1324
g73
g74
ssg62
g1318
sg55
(lp1325
S'http_origin'
p1326
asbag48
(g69
g50
NtRp1327
(dp1328
g53
(dp1329
g80
g81
ssg62
g1318
sg55
(lp1330
S':'
asbag48
(g69
g50
NtRp1331
(dp1332
g53
(dp1333
sg62
g1318
sg55
(lp1334
g48
(g49
g50
NtRp1335
(dp1336
g53
(dp1337
g61
I4
ssg62
g1331
sg55
(lp1338
S'http://127.0.0.1:8000'
p1339
asbasbasbag48
(g64
g50
NtRp1340
(dp1341
g53
(dp1342
sg62
g917
sg55
(lp1343
g48
(g69
g50
NtRp1344
(dp1345
g53
(dp1346
g73
g74
ssg62
g1340
sg55
(lp1347
S'http_referer'
p1348
asbag48
(g69
g50
NtRp1349
(dp1350
g53
(dp1351
g80
g81
ssg62
g1340
sg55
(lp1352
S':'
asbag48
(g69
g50
NtRp1353
(dp1354
g53
(dp1355
sg62
g1340
sg55
(lp1356
g48
(g49
g50
NtRp1357
(dp1358
g53
(dp1359
g61
I4
ssg62
g1353
sg55
(lp1360
S'http://127.0.0.1:8000/Casa_de_Apuestas/default/crearEvento'
p1361
asbasbasbag48
(g64
g50
NtRp1362
(dp1363
g53
(dp1364
sg62
g917
sg55
(lp1365
g48
(g69
g50
NtRp1366
(dp1367
g53
(dp1368
g73
g74
ssg62
g1362
sg55
(lp1369
S'http_user_agent'
p1370
asbag48
(g69
g50
NtRp1371
(dp1372
g53
(dp1373
g80
g81
ssg62
g1362
sg55
(lp1374
S':'
asbag48
(g69
g50
NtRp1375
(dp1376
g53
(dp1377
sg62
g1362
sg55
(lp1378
g48
(g49
g50
NtRp1379
(dp1380
g53
(dp1381
g61
I4
ssg62
g1375
sg55
(lp1382
S'Mozilla/5.0 (Windows NT 6.1) AppleWebKit/535.7 (KHTML, like Gecko) Chrome/16.0.912.63 Safari/535.7'
p1383
asbasbasbag48
(g64
g50
NtRp1384
(dp1385
g53
(dp1386
sg62
g917
sg55
(lp1387
g48
(g69
g50
NtRp1388
(dp1389
g53
(dp1390
g73
g74
ssg62
g1384
sg55
(lp1391
S'http_x_requested_with'
p1392
asbag48
(g69
g50
NtRp1393
(dp1394
g53
(dp1395
g80
g81
ssg62
g1384
sg55
(lp1396
S':'
asbag48
(g69
g50
NtRp1397
(dp1398
g53
(dp1399
sg62
g1384
sg55
(lp1400
g48
(g49
g50
NtRp1401
(dp1402
g53
(dp1403
g61
I4
ssg62
g1397
sg55
(lp1404
S'XMLHttpRequest'
p1405
asbasbasbag48
(g64
g50
NtRp1406
(dp1407
g53
(dp1408
sg62
g917
sg55
(lp1409
g48
(g69
g50
NtRp1410
(dp1411
g53
(dp1412
g73
g74
ssg62
g1406
sg55
(lp1413
S'is_jython'
p1414
asbag48
(g69
g50
NtRp1415
(dp1416
g53
(dp1417
g80
g81
ssg62
g1406
sg55
(lp1418
S':'
asbag48
(g69
g50
NtRp1419
(dp1420
g53
(dp1421
sg62
g1406
sg55
(lp1422
g48
(g49
g50
NtRp1423
(dp1424
g53
(dp1425
g61
I4
ssg62
g1419
sg55
(lp1426
g1099
asbasbasbag48
(g64
g50
NtRp1427
(dp1428
g53
(dp1429
sg62
g917
sg55
(lp1430
g48
(g69
g50
NtRp1431
(dp1432
g53
(dp1433
g73
g74
ssg62
g1427
sg55
(lp1434
S'path_info'
p1435
asbag48
(g69
g50
NtRp1436
(dp1437
g53
(dp1438
g80
g81
ssg62
g1427
sg55
(lp1439
S':'
asbag48
(g69
g50
NtRp1440
(dp1441
g53
(dp1442
sg62
g1427
sg55
(lp1443
g48
(g49
g50
NtRp1444
(dp1445
g53
(dp1446
g61
I4
ssg62
g1440
sg55
(lp1447
S'/Casa_de_Apuestas/default/obtenerCategoria'
p1448
asbasbasbag48
(g64
g50
NtRp1449
(dp1450
g53
(dp1451
sg62
g917
sg55
(lp1452
g48
(g69
g50
NtRp1453
(dp1454
g53
(dp1455
g73
g74
ssg62
g1449
sg55
(lp1456
S'query_string'
p1457
asbag48
(g69
g50
NtRp1458
(dp1459
g53
(dp1460
g80
g81
ssg62
g1449
sg55
(lp1461
S':'
asbag48
(g69
g50
NtRp1462
(dp1463
g53
(dp1464
sg62
g1449
sg55
(lp1465
g48
(g49
g50
NtRp1466
(dp1467
g53
(dp1468
g61
I4
ssg62
g1462
sg55
(lp1469
S''
asbasbasbag48
(g64
g50
NtRp1470
(dp1471
g53
(dp1472
sg62
g917
sg55
(lp1473
g48
(g69
g50
NtRp1474
(dp1475
g53
(dp1476
g73
g74
ssg62
g1470
sg55
(lp1477
S'remote_addr'
p1478
asbag48
(g69
g50
NtRp1479
(dp1480
g53
(dp1481
g80
g81
ssg62
g1470
sg55
(lp1482
S':'
asbag48
(g69
g50
NtRp1483
(dp1484
g53
(dp1485
sg62
g1470
sg55
(lp1486
g48
(g49
g50
NtRp1487
(dp1488
g53
(dp1489
g61
I4
ssg62
g1483
sg55
(lp1490
g181
asbasbasbag48
(g64
g50
NtRp1491
(dp1492
g53
(dp1493
sg62
g917
sg55
(lp1494
g48
(g69
g50
NtRp1495
(dp1496
g53
(dp1497
g73
g74
ssg62
g1491
sg55
(lp1498
S'remote_port'
p1499
asbag48
(g69
g50
NtRp1500
(dp1501
g53
(dp1502
g80
g81
ssg62
g1491
sg55
(lp1503
S':'
asbag48
(g69
g50
NtRp1504
(dp1505
g53
(dp1506
sg62
g1491
sg55
(lp1507
g48
(g49
g50
NtRp1508
(dp1509
g53
(dp1510
g61
I4
ssg62
g1504
sg55
(lp1511
S'51938'
p1512
asbasbasbag48
(g64
g50
NtRp1513
(dp1514
g53
(dp1515
sg62
g917
sg55
(lp1516
g48
(g69
g50
NtRp1517
(dp1518
g53
(dp1519
g73
g74
ssg62
g1513
sg55
(lp1520
S'request_method'
p1521
asbag48
(g69
g50
NtRp1522
(dp1523
g53
(dp1524
g80
g81
ssg62
g1513
sg55
(lp1525
S':'
asbag48
(g69
g50
NtRp1526
(dp1527
g53
(dp1528
sg62
g1513
sg55
(lp1529
g48
(g49
g50
NtRp1530
(dp1531
g53
(dp1532
g61
I4
ssg62
g1526
sg55
(lp1533
S'POST'
p1534
asbasbasbag48
(g64
g50
NtRp1535
(dp1536
g53
(dp1537
sg62
g917
sg55
(lp1538
g48
(g69
g50
NtRp1539
(dp1540
g53
(dp1541
g73
g74
ssg62
g1535
sg55
(lp1542
S'script_name'
p1543
asbag48
(g69
g50
NtRp1544
(dp1545
g53
(dp1546
g80
g81
ssg62
g1535
sg55
(lp1547
S':'
asbag48
(g69
g50
NtRp1548
(dp1549
g53
(dp1550
sg62
g1535
sg55
(lp1551
g48
(g49
g50
NtRp1552
(dp1553
g53
(dp1554
g61
I4
ssg62
g1548
sg55
(lp1555
S''
asbasbasbag48
(g64
g50
NtRp1556
(dp1557
g53
(dp1558
sg62
g917
sg55
(lp1559
g48
(g69
g50
NtRp1560
(dp1561
g53
(dp1562
g73
g74
ssg62
g1556
sg55
(lp1563
S'server_name'
p1564
asbag48
(g69
g50
NtRp1565
(dp1566
g53
(dp1567
g80
g81
ssg62
g1556
sg55
(lp1568
S':'
asbag48
(g69
g50
NtRp1569
(dp1570
g53
(dp1571
sg62
g1556
sg55
(lp1572
g48
(g49
g50
NtRp1573
(dp1574
g53
(dp1575
g61
I4
ssg62
g1569
sg55
(lp1576
S'hector-vaio'
p1577
asbasbasbag48
(g64
g50
NtRp1578
(dp1579
g53
(dp1580
sg62
g917
sg55
(lp1581
g48
(g69
g50
NtRp1582
(dp1583
g53
(dp1584
g73
g74
ssg62
g1578
sg55
(lp1585
S'server_port'
p1586
asbag48
(g69
g50
NtRp1587
(dp1588
g53
(dp1589
g80
g81
ssg62
g1578
sg55
(lp1590
S':'
asbag48
(g69
g50
NtRp1591
(dp1592
g53
(dp1593
sg62
g1578
sg55
(lp1594
g48
(g49
g50
NtRp1595
(dp1596
g53
(dp1597
g61
I4
ssg62
g1591
sg55
(lp1598
S'8000'
p1599
asbasbasbag48
(g64
g50
NtRp1600
(dp1601
g53
(dp1602
sg62
g917
sg55
(lp1603
g48
(g69
g50
NtRp1604
(dp1605
g53
(dp1606
g73
g74
ssg62
g1600
sg55
(lp1607
S'server_protocol'
p1608
asbag48
(g69
g50
NtRp1609
(dp1610
g53
(dp1611
g80
g81
ssg62
g1600
sg55
(lp1612
S':'
asbag48
(g69
g50
NtRp1613
(dp1614
g53
(dp1615
sg62
g1600
sg55
(lp1616
g48
(g49
g50
NtRp1617
(dp1618
g53
(dp1619
g61
I4
ssg62
g1613
sg55
(lp1620
S'HTTP/1.1'
p1621
asbasbasbag48
(g64
g50
NtRp1622
(dp1623
g53
(dp1624
sg62
g917
sg55
(lp1625
g48
(g69
g50
NtRp1626
(dp1627
g53
(dp1628
g73
g74
ssg62
g1622
sg55
(lp1629
S'server_software'
p1630
asbag48
(g69
g50
NtRp1631
(dp1632
g53
(dp1633
g80
g81
ssg62
g1622
sg55
(lp1634
S':'
asbag48
(g69
g50
NtRp1635
(dp1636
g53
(dp1637
sg62
g1622
sg55
(lp1638
g48
(g49
g50
NtRp1639
(dp1640
g53
(dp1641
g61
I4
ssg62
g1635
sg55
(lp1642
S'Rocket 1.2.4'
p1643
asbasbasbag48
(g64
g50
NtRp1644
(dp1645
g53
(dp1646
sg62
g917
sg55
(lp1647
g48
(g69
g50
NtRp1648
(dp1649
g53
(dp1650
g73
g74
ssg62
g1644
sg55
(lp1651
S'web2py_crontype'
p1652
asbag48
(g69
g50
NtRp1653
(dp1654
g53
(dp1655
g80
g81
ssg62
g1644
sg55
(lp1656
S':'
asbag48
(g69
g50
NtRp1657
(dp1658
g53
(dp1659
sg62
g1644
sg55
(lp1660
g48
(g49
g50
NtRp1661
(dp1662
g53
(dp1663
g61
I4
ssg62
g1657
sg55
(lp1664
S'hard'
p1665
asbasbasbag48
(g64
g50
NtRp1666
(dp1667
g53
(dp1668
sg62
g917
sg55
(lp1669
g48
(g69
g50
NtRp1670
(dp1671
g53
(dp1672
g73
g74
ssg62
g1666
sg55
(lp1673
S'web2py_path'
p1674
asbag48
(g69
g50
NtRp1675
(dp1676
g53
(dp1677
g80
g81
ssg62
g1666
sg55
(lp1678
S':'
asbag48
(g69
g50
NtRp1679
(dp1680
g53
(dp1681
sg62
g1666
sg55
(lp1682
g48
(g49
g50
NtRp1683
(dp1684
g53
(dp1685
g61
I4
ssg62
g1679
sg55
(lp1686
g964
asbasbasbag48
(g64
g50
NtRp1687
(dp1688
g53
(dp1689
sg62
g917
sg55
(lp1690
g48
(g69
g50
NtRp1691
(dp1692
g53
(dp1693
g73
g74
ssg62
g1687
sg55
(lp1694
S'web2py_version'
p1695
asbag48
(g69
g50
NtRp1696
(dp1697
g53
(dp1698
g80
g81
ssg62
g1687
sg55
(lp1699
S':'
asbag48
(g69
g50
NtRp1700
(dp1701
g53
(dp1702
sg62
g1687
sg55
(lp1703
g48
(g49
g50
NtRp1704
(dp1705
g53
(dp1706
g61
I4
ssg62
g1700
sg55
(lp1707
g48
(g57
g50
NtRp1708
(dp1709
g53
(dp1710
g61
I3
ssg62
Nsg55
(lp1711
g48
(g64
g50
NtRp1712
(dp1713
g53
(dp1714
sg62
g1708
sg55
(lp1715
g48
(g69
g50
NtRp1716
(dp1717
g53
(dp1718
sg62
g1712
sg55
(lp1719
g48
(g49
g50
NtRp1720
(dp1721
g53
(dp1722
g61
I3
ssg62
g1716
sg55
(lp1723
S'1'
asbasbasbag48
(g64
g50
NtRp1724
(dp1725
g53
(dp1726
sg62
g1708
sg55
(lp1727
g48
(g69
g50
NtRp1728
(dp1729
g53
(dp1730
sg62
g1724
sg55
(lp1731
g48
(g49
g50
NtRp1732
(dp1733
g53
(dp1734
g61
I3
ssg62
g1728
sg55
(lp1735
S'99'
p1736
asbasbasbag48
(g64
g50
NtRp1737
(dp1738
g53
(dp1739
sg62
g1708
sg55
(lp1740
g48
(g69
g50
NtRp1741
(dp1742
g53
(dp1743
sg62
g1737
sg55
(lp1744
g48
(g49
g50
NtRp1745
(dp1746
g53
(dp1747
g61
I3
ssg62
g1741
sg55
(lp1748
S'2'
asbasbasbag48
(g64
g50
NtRp1749
(dp1750
g53
(dp1751
sg62
g1708
sg55
(lp1752
g48
(g69
g50
NtRp1753
(dp1754
g53
(dp1755
sg62
g1749
sg55
(lp1756
g48
(g49
g50
NtRp1757
(dp1758
g53
(dp1759
g61
I3
ssg62
g1753
sg55
(lp1760
S'datetime.datetime(2011, 9, 26, 6, 55, 33)'
p1761
asbasbasbag48
(g64
g50
NtRp1762
(dp1763
g53
(dp1764
sg62
g1708
sg55
(lp1765
g48
(g69
g50
NtRp1766
(dp1767
g53
(dp1768
sg62
g1762
sg55
(lp1769
g48
(g49
g50
NtRp1770
(dp1771
g53
(dp1772
g61
I3
ssg62
g1766
sg55
(lp1773
S'stable'
p1774
asbasbasbasbasbasbasbag48
(g64
g50
NtRp1775
(dp1776
g53
(dp1777
sg62
g917
sg55
(lp1778
g48
(g69
g50
NtRp1779
(dp1780
g53
(dp1781
g73
g74
ssg62
g1775
sg55
(lp1782
S'wsgi_errors'
p1783
asbag48
(g69
g50
NtRp1784
(dp1785
g53
(dp1786
g80
g81
ssg62
g1775
sg55
(lp1787
S':'
asbag48
(g69
g50
NtRp1788
(dp1789
g53
(dp1790
sg62
g1775
sg55
(lp1791
g48
(g49
g50
NtRp1792
(dp1793
g53
(dp1794
g61
I4
ssg62
g1788
sg55
(lp1795
S"<open file '<stderr>', mode 'w' at 0x015D00B0>"
p1796
asbasbasbag48
(g64
g50
NtRp1797
(dp1798
g53
(dp1799
sg62
g917
sg55
(lp1800
g48
(g69
g50
NtRp1801
(dp1802
g53
(dp1803
g73
g74
ssg62
g1797
sg55
(lp1804
S'wsgi_file_wrapper'
p1805
asbag48
(g69
g50
NtRp1806
(dp1807
g53
(dp1808
g80
g81
ssg62
g1797
sg55
(lp1809
S':'
asbag48
(g69
g50
NtRp1810
(dp1811
g53
(dp1812
sg62
g1797
sg55
(lp1813
g48
(g49
g50
NtRp1814
(dp1815
g53
(dp1816
g61
I4
ssg62
g1810
sg55
(lp1817
S'<class wsgiref.util.FileWrapper at 0x024A9AB0>'
p1818
asbasbasbag48
(g64
g50
NtRp1819
(dp1820
g53
(dp1821
sg62
g917
sg55
(lp1822
g48
(g69
g50
NtRp1823
(dp1824
g53
(dp1825
g73
g74
ssg62
g1819
sg55
(lp1826
S'wsgi_input'
p1827
asbag48
(g69
g50
NtRp1828
(dp1829
g53
(dp1830
g80
g81
ssg62
g1819
sg55
(lp1831
S':'
asbag48
(g69
g50
NtRp1832
(dp1833
g53
(dp1834
sg62
g1819
sg55
(lp1835
g48
(g49
g50
NtRp1836
(dp1837
g53
(dp1838
g61
I4
ssg62
g1832
sg55
(lp1839
S'<socket._fileobject object at 0x057D1670>'
p1840
asbasbasbag48
(g64
g50
NtRp1841
(dp1842
g53
(dp1843
sg62
g917
sg55
(lp1844
g48
(g69
g50
NtRp1845
(dp1846
g53
(dp1847
g73
g74
ssg62
g1841
sg55
(lp1848
S'wsgi_multiprocess'
p1849
asbag48
(g69
g50
NtRp1850
(dp1851
g53
(dp1852
g80
g81
ssg62
g1841
sg55
(lp1853
S':'
asbag48
(g69
g50
NtRp1854
(dp1855
g53
(dp1856
sg62
g1841
sg55
(lp1857
g48
(g49
g50
NtRp1858
(dp1859
g53
(dp1860
g61
I4
ssg62
g1854
sg55
(lp1861
g1099
asbasbasbag48
(g64
g50
NtRp1862
(dp1863
g53
(dp1864
sg62
g917
sg55
(lp1865
g48
(g69
g50
NtRp1866
(dp1867
g53
(dp1868
g73
g74
ssg62
g1862
sg55
(lp1869
S'wsgi_multithread'
p1870
asbag48
(g69
g50
NtRp1871
(dp1872
g53
(dp1873
g80
g81
ssg62
g1862
sg55
(lp1874
S':'
asbag48
(g69
g50
NtRp1875
(dp1876
g53
(dp1877
sg62
g1862
sg55
(lp1878
g48
(g49
g50
NtRp1879
(dp1880
g53
(dp1881
g61
I4
ssg62
g1875
sg55
(lp1882
g91
asbasbasbag48
(g64
g50
NtRp1883
(dp1884
g53
(dp1885
sg62
g917
sg55
(lp1886
g48
(g69
g50
NtRp1887
(dp1888
g53
(dp1889
g73
g74
ssg62
g1883
sg55
(lp1890
S'wsgi_run_once'
p1891
asbag48
(g69
g50
NtRp1892
(dp1893
g53
(dp1894
g80
g81
ssg62
g1883
sg55
(lp1895
S':'
asbag48
(g69
g50
NtRp1896
(dp1897
g53
(dp1898
sg62
g1883
sg55
(lp1899
g48
(g49
g50
NtRp1900
(dp1901
g53
(dp1902
g61
I4
ssg62
g1896
sg55
(lp1903
g1099
asbasbasbag48
(g64
g50
NtRp1904
(dp1905
g53
(dp1906
sg62
g917
sg55
(lp1907
g48
(g69
g50
NtRp1908
(dp1909
g53
(dp1910
g73
g74
ssg62
g1904
sg55
(lp1911
S'wsgi_url_scheme'
p1912
asbag48
(g69
g50
NtRp1913
(dp1914
g53
(dp1915
g80
g81
ssg62
g1904
sg55
(lp1916
S':'
asbag48
(g69
g50
NtRp1917
(dp1918
g53
(dp1919
sg62
g1904
sg55
(lp1920
g48
(g49
g50
NtRp1921
(dp1922
g53
(dp1923
g61
I4
ssg62
g1917
sg55
(lp1924
S'http'
p1925
asbasbasbag48
(g64
g50
NtRp1926
(dp1927
g53
(dp1928
sg62
g917
sg55
(lp1929
g48
(g69
g50
NtRp1930
(dp1931
g53
(dp1932
g73
g74
ssg62
g1926
sg55
(lp1933
S'wsgi_version'
p1934
asbag48
(g69
g50
NtRp1935
(dp1936
g53
(dp1937
g80
g81
ssg62
g1926
sg55
(lp1938
S':'
asbag48
(g69
g50
NtRp1939
(dp1940
g53
(dp1941
sg62
g1926
sg55
(lp1942
g48
(g49
g50
NtRp1943
(dp1944
g53
(dp1945
g61
I4
ssg62
g1939
sg55
(lp1946
g48
(g57
g50
NtRp1947
(dp1948
g53
(dp1949
g61
I3
ssg62
Nsg55
(lp1950
g48
(g64
g50
NtRp1951
(dp1952
g53
(dp1953
sg62
g1947
sg55
(lp1954
g48
(g69
g50
NtRp1955
(dp1956
g53
(dp1957
sg62
g1951
sg55
(lp1958
g48
(g49
g50
NtRp1959
(dp1960
g53
(dp1961
g61
I3
ssg62
g1955
sg55
(lp1962
S'1'
asbasbasbag48
(g64
g50
NtRp1963
(dp1964
g53
(dp1965
sg62
g1947
sg55
(lp1966
g48
(g69
g50
NtRp1967
(dp1968
g53
(dp1969
sg62
g1963
sg55
(lp1970
g48
(g49
g50
NtRp1971
(dp1972
g53
(dp1973
g61
I3
ssg62
g1967
sg55
(lp1974
S'0'
asbasbasbasbasbasbasbasbasbasbasbag48
(g64
g50
NtRp1975
(dp1976
g53
(dp1977
sg62
g58
sg55
(lp1978
g48
(g69
g50
NtRp1979
(dp1980
g53
(dp1981
g73
g74
ssg62
g1975
sg55
(lp1982
S'extension'
p1983
asbag48
(g69
g50
NtRp1984
(dp1985
g53
(dp1986
g80
g81
ssg62
g1975
sg55
(lp1987
S':'
asbag48
(g69
g50
NtRp1988
(dp1989
g53
(dp1990
sg62
g1975
sg55
(lp1991
g48
(g49
g50
NtRp1992
(dp1993
g53
(dp1994
g61
I5
ssg62
g1988
sg55
(lp1995
S'html'
p1996
asbasbasbag48
(g64
g50
NtRp1997
(dp1998
g53
(dp1999
sg62
g58
sg55
(lp2000
g48
(g69
g50
NtRp2001
(dp2002
g53
(dp2003
g73
g74
ssg62
g1997
sg55
(lp2004
S'folder'
p2005
asbag48
(g69
g50
NtRp2006
(dp2007
g53
(dp2008
g80
g81
ssg62
g1997
sg55
(lp2009
S':'
asbag48
(g69
g50
NtRp2010
(dp2011
g53
(dp2012
sg62
g1997
sg55
(lp2013
g48
(g49
g50
NtRp2014
(dp2015
g53
(dp2016
g61
I5
ssg62
g2010
sg55
(lp2017
S'C:\\Python32\\web2py_win\\web2py\\applications\\Casa_de_Apuestas\\'
p2018
asbasbasbag48
(g64
g50
NtRp2019
(dp2020
g53
(dp2021
sg62
g58
sg55
(lp2022
g48
(g69
g50
NtRp2023
(dp2024
g53
(dp2025
g73
g74
ssg62
g2019
sg55
(lp2026
S'function'
p2027
asbag48
(g69
g50
NtRp2028
(dp2029
g53
(dp2030
g80
g81
ssg62
g2019
sg55
(lp2031
S':'
asbag48
(g69
g50
NtRp2032
(dp2033
g53
(dp2034
sg62
g2019
sg55
(lp2035
g48
(g49
g50
NtRp2036
(dp2037
g53
(dp2038
g61
I5
ssg62
g2032
sg55
(lp2039
S'obtenerCategoria'
p2040
asbasbasbag48
(g64
g50
NtRp2041
(dp2042
g53
(dp2043
sg62
g58
sg55
(lp2044
g48
(g69
g50
NtRp2045
(dp2046
g53
(dp2047
g73
g74
ssg62
g2041
sg55
(lp2048
S'get_vars'
p2049
asbag48
(g69
g50
NtRp2050
(dp2051
g53
(dp2052
g80
g81
ssg62
g2041
sg55
(lp2053
S':'
asbag48
(g69
g50
NtRp2054
(dp2055
g53
(dp2056
sg62
g2041
sg55
(lp2057
g48
(g49
g50
NtRp2058
(dp2059
g53
(dp2060
g61
I5
ssg62
g2054
sg55
(lp2061
g48
(g57
g50
NtRp2062
(dp2063
g53
(dp2064
g61
I4
ssg62
Nsg55
(lp2065
sbasbasbasbag48
(g64
g50
NtRp2066
(dp2067
g53
(dp2068
sg62
g58
sg55
(lp2069
g48
(g69
g50
NtRp2070
(dp2071
g53
(dp2072
g73
g74
ssg62
g2066
sg55
(lp2073
S'global_settings'
p2074
asbag48
(g69
g50
NtRp2075
(dp2076
g53
(dp2077
g80
g81
ssg62
g2066
sg55
(lp2078
S':'
asbag48
(g69
g50
NtRp2079
(dp2080
g53
(dp2081
sg62
g2066
sg55
(lp2082
g48
(g49
g50
NtRp2083
(dp2084
g53
(dp2085
g61
I5
ssg62
g2079
sg55
(lp2086
g48
(g57
g50
NtRp2087
(dp2088
g53
(dp2089
g61
I4
ssg62
Nsg55
(lp2090
g48
(g64
g50
NtRp2091
(dp2092
g53
(dp2093
sg62
g2087
sg55
(lp2094
g48
(g69
g50
NtRp2095
(dp2096
g53
(dp2097
g73
g74
ssg62
g2091
sg55
(lp2098
g929
asbag48
(g69
g50
NtRp2099
(dp2100
g53
(dp2101
g80
g81
ssg62
g2091
sg55
(lp2102
S':'
asbag48
(g69
g50
NtRp2103
(dp2104
g53
(dp2105
sg62
g2091
sg55
(lp2106
g48
(g49
g50
NtRp2107
(dp2108
g53
(dp2109
g61
I4
ssg62
g2103
sg55
(lp2110
S"set(['C:\\\\Python32\\\\web2py_win\\\\web2py\\\\applications\\\\admin\\\\', 'C:\\\\Python32\\\\web2py_win\\\\web2py\\\\applications\\\\welcome\\\\', 'C:\\\\Python32\\\\web2py_win\\\\web2py\\\\applications\\\\images\\\\', 'C:\\\\Python32\\\\web2py_win\\\\web2py\\\\applications\\\\Casa_de_Apuestas\\\\'])"
p2111
asbasbasbag48
(g64
g50
NtRp2112
(dp2113
g53
(dp2114
sg62
g2087
sg55
(lp2115
g48
(g69
g50
NtRp2116
(dp2117
g53
(dp2118
g73
g74
ssg62
g2112
sg55
(lp2119
g951
asbag48
(g69
g50
NtRp2120
(dp2121
g53
(dp2122
g80
g81
ssg62
g2112
sg55
(lp2123
S':'
asbag48
(g69
g50
NtRp2124
(dp2125
g53
(dp2126
sg62
g2112
sg55
(lp2127
g48
(g49
g50
NtRp2128
(dp2129
g53
(dp2130
g61
I4
ssg62
g2124
sg55
(lp2131
g964
asbasbasbag48
(g64
g50
NtRp2132
(dp2133
g53
(dp2134
sg62
g2087
sg55
(lp2135
g48
(g69
g50
NtRp2136
(dp2137
g53
(dp2138
g73
g74
ssg62
g2132
sg55
(lp2139
g973
asbag48
(g69
g50
NtRp2140
(dp2141
g53
(dp2142
g80
g81
ssg62
g2132
sg55
(lp2143
S':'
asbag48
(g69
g50
NtRp2144
(dp2145
g53
(dp2146
sg62
g2132
sg55
(lp2147
g48
(g49
g50
NtRp2148
(dp2149
g53
(dp2150
g61
I4
ssg62
g2144
sg55
(lp2151
g48
(g57
g50
NtRp2152
(dp2153
g53
(dp2154
g61
I3
ssg62
Nsg55
(lp2155
sbasbasbasbag48
(g64
g50
NtRp2156
(dp2157
g53
(dp2158
sg62
g2087
sg55
(lp2159
g48
(g69
g50
NtRp2160
(dp2161
g53
(dp2162
g73
g74
ssg62
g2156
sg55
(lp2163
g998
asbag48
(g69
g50
NtRp2164
(dp2165
g53
(dp2166
g80
g81
ssg62
g2156
sg55
(lp2167
S':'
asbag48
(g69
g50
NtRp2168
(dp2169
g53
(dp2170
sg62
g2156
sg55
(lp2171
g48
(g49
g50
NtRp2172
(dp2173
g53
(dp2174
g61
I4
ssg62
g2168
sg55
(lp2175
S"<Values at 0x2705fa8: {'verbose': False, 'ip': '127.0.0.1', 'shutdown_timeout': 5, 'taskbar': False, 'nocron': False, 'pid_filename': 'httpserver.pid', 'maxthreads': None, 'softcron': False, 'server_name': 'hector-vaio', 'bpython': False, 'nogui': False, 'port': 8000, 'extcron': False, 'debuglevel': 30, 'test': None, 'folder': 'C:\\\\Python32\\\\web2py_win\\\\web2py', 'config': '', 'import_models': False, 'winservice': '', 'shell': None, 'run': '', 'log_filename': 'httpserver.log', 'args': [''], 'ssl_ca_certificate': None, 'scheduler': None, 'profiler_filename': None, 'ssl_private_key': '', 'password': '<ask>', 'request_queue_size': 5, 'ssl_certificate': '', 'cronjob': False, 'plain': False, 'quiet': False, 'interfaces': None, 'minthreads': None, 'timeout': 10, 'numthreads': None, 'nobanner': False}>"
p2176
asbasbasbag48
(g64
g50
NtRp2177
(dp2178
g53
(dp2179
sg62
g2087
sg55
(lp2180
g48
(g69
g50
NtRp2181
(dp2182
g53
(dp2183
g73
g74
ssg62
g2177
sg55
(lp2184
g1064
asbag48
(g69
g50
NtRp2185
(dp2186
g53
(dp2187
g80
g81
ssg62
g2177
sg55
(lp2188
S':'
asbag48
(g69
g50
NtRp2189
(dp2190
g53
(dp2191
sg62
g2177
sg55
(lp2192
g48
(g49
g50
NtRp2193
(dp2194
g53
(dp2195
g61
I4
ssg62
g2189
sg55
(lp2196
S'set([])'
p2197
asbasbasbag48
(g64
g50
NtRp2198
(dp2199
g53
(dp2200
sg62
g2087
sg55
(lp2201
g48
(g69
g50
NtRp2202
(dp2203
g53
(dp2204
g73
g74
ssg62
g2198
sg55
(lp2205
g1086
asbag48
(g69
g50
NtRp2206
(dp2207
g53
(dp2208
g80
g81
ssg62
g2198
sg55
(lp2209
S':'
asbag48
(g69
g50
NtRp2210
(dp2211
g53
(dp2212
sg62
g2198
sg55
(lp2213
g48
(g49
g50
NtRp2214
(dp2215
g53
(dp2216
g61
I4
ssg62
g2210
sg55
(lp2217
g1099
asbasbasbag48
(g64
g50
NtRp2218
(dp2219
g53
(dp2220
sg62
g2087
sg55
(lp2221
g48
(g69
g50
NtRp2222
(dp2223
g53
(dp2224
g73
g74
ssg62
g2218
sg55
(lp2225
g1108
asbag48
(g69
g50
NtRp2226
(dp2227
g53
(dp2228
g80
g81
ssg62
g2218
sg55
(lp2229
S':'
asbag48
(g69
g50
NtRp2230
(dp2231
g53
(dp2232
sg62
g2218
sg55
(lp2233
g48
(g49
g50
NtRp2234
(dp2235
g53
(dp2236
g61
I4
ssg62
g2230
sg55
(lp2237
g1121
asbasbasbag48
(g64
g50
NtRp2238
(dp2239
g53
(dp2240
sg62
g2087
sg55
(lp2241
g48
(g69
g50
NtRp2242
(dp2243
g53
(dp2244
g73
g74
ssg62
g2238
sg55
(lp2245
g1414
asbag48
(g69
g50
NtRp2246
(dp2247
g53
(dp2248
g80
g81
ssg62
g2238
sg55
(lp2249
S':'
asbag48
(g69
g50
NtRp2250
(dp2251
g53
(dp2252
sg62
g2238
sg55
(lp2253
g48
(g49
g50
NtRp2254
(dp2255
g53
(dp2256
g61
I4
ssg62
g2250
sg55
(lp2257
g1099
asbasbasbag48
(g64
g50
NtRp2258
(dp2259
g53
(dp2260
sg62
g2087
sg55
(lp2261
g48
(g69
g50
NtRp2262
(dp2263
g53
(dp2264
g73
g74
ssg62
g2258
sg55
(lp2265
g1652
asbag48
(g69
g50
NtRp2266
(dp2267
g53
(dp2268
g80
g81
ssg62
g2258
sg55
(lp2269
S':'
asbag48
(g69
g50
NtRp2270
(dp2271
g53
(dp2272
sg62
g2258
sg55
(lp2273
g48
(g49
g50
NtRp2274
(dp2275
g53
(dp2276
g61
I4
ssg62
g2270
sg55
(lp2277
g1665
asbasbasbag48
(g64
g50
NtRp2278
(dp2279
g53
(dp2280
sg62
g2087
sg55
(lp2281
g48
(g69
g50
NtRp2282
(dp2283
g53
(dp2284
g73
g74
ssg62
g2278
sg55
(lp2285
g1695
asbag48
(g69
g50
NtRp2286
(dp2287
g53
(dp2288
g80
g81
ssg62
g2278
sg55
(lp2289
S':'
asbag48
(g69
g50
NtRp2290
(dp2291
g53
(dp2292
sg62
g2278
sg55
(lp2293
g48
(g49
g50
NtRp2294
(dp2295
g53
(dp2296
g61
I4
ssg62
g2290
sg55
(lp2297
g48
(g57
g50
NtRp2298
(dp2299
g53
(dp2300
g61
I3
ssg62
Nsg55
(lp2301
g48
(g64
g50
NtRp2302
(dp2303
g53
(dp2304
sg62
g2298
sg55
(lp2305
g48
(g69
g50
NtRp2306
(dp2307
g53
(dp2308
sg62
g2302
sg55
(lp2309
g48
(g49
g50
NtRp2310
(dp2311
g53
(dp2312
g61
I3
ssg62
g2306
sg55
(lp2313
S'1'
asbasbasbag48
(g64
g50
NtRp2314
(dp2315
g53
(dp2316
sg62
g2298
sg55
(lp2317
g48
(g69
g50
NtRp2318
(dp2319
g53
(dp2320
sg62
g2314
sg55
(lp2321
g48
(g49
g50
NtRp2322
(dp2323
g53
(dp2324
g61
I3
ssg62
g2318
sg55
(lp2325
S'99'
p2326
asbasbasbag48
(g64
g50
NtRp2327
(dp2328
g53
(dp2329
sg62
g2298
sg55
(lp2330
g48
(g69
g50
NtRp2331
(dp2332
g53
(dp2333
sg62
g2327
sg55
(lp2334
g48
(g49
g50
NtRp2335
(dp2336
g53
(dp2337
g61
I3
ssg62
g2331
sg55
(lp2338
S'2'
asbasbasbag48
(g64
g50
NtRp2339
(dp2340
g53
(dp2341
sg62
g2298
sg55
(lp2342
g48
(g69
g50
NtRp2343
(dp2344
g53
(dp2345
sg62
g2339
sg55
(lp2346
g48
(g49
g50
NtRp2347
(dp2348
g53
(dp2349
g61
I3
ssg62
g2343
sg55
(lp2350
S'datetime.datetime(2011, 9, 26, 6, 55, 33)'
p2351
asbasbasbag48
(g64
g50
NtRp2352
(dp2353
g53
(dp2354
sg62
g2298
sg55
(lp2355
g48
(g69
g50
NtRp2356
(dp2357
g53
(dp2358
sg62
g2352
sg55
(lp2359
g48
(g49
g50
NtRp2360
(dp2361
g53
(dp2362
g61
I3
ssg62
g2356
sg55
(lp2363
g1774
asbasbasbasbasbasbasbasbasbasbasbag48
(g64
g50
NtRp2364
(dp2365
g53
(dp2366
sg62
g58
sg55
(lp2367
g48
(g69
g50
NtRp2368
(dp2369
g53
(dp2370
g73
g74
ssg62
g2364
sg55
(lp2371
S'is_https'
p2372
asbag48
(g69
g50
NtRp2373
(dp2374
g53
(dp2375
g80
g81
ssg62
g2364
sg55
(lp2376
S':'
asbag48
(g69
g50
NtRp2377
(dp2378
g53
(dp2379
sg62
g2364
sg55
(lp2380
g48
(g49
g50
NtRp2381
(dp2382
g53
(dp2383
g61
I5
ssg62
g2377
sg55
(lp2384
g1099
asbasbasbag48
(g64
g50
NtRp2385
(dp2386
g53
(dp2387
sg62
g58
sg55
(lp2388
g48
(g69
g50
NtRp2389
(dp2390
g53
(dp2391
g73
g74
ssg62
g2385
sg55
(lp2392
S'is_local'
p2393
asbag48
(g69
g50
NtRp2394
(dp2395
g53
(dp2396
g80
g81
ssg62
g2385
sg55
(lp2397
S':'
asbag48
(g69
g50
NtRp2398
(dp2399
g53
(dp2400
sg62
g2385
sg55
(lp2401
g48
(g49
g50
NtRp2402
(dp2403
g53
(dp2404
g61
I5
ssg62
g2398
sg55
(lp2405
g91
asbasbasbag48
(g64
g50
NtRp2406
(dp2407
g53
(dp2408
sg62
g58
sg55
(lp2409
g48
(g69
g50
NtRp2410
(dp2411
g53
(dp2412
g73
g74
ssg62
g2406
sg55
(lp2413
S'is_restful'
p2414
asbag48
(g69
g50
NtRp2415
(dp2416
g53
(dp2417
g80
g81
ssg62
g2406
sg55
(lp2418
S':'
asbag48
(g69
g50
NtRp2419
(dp2420
g53
(dp2421
sg62
g2406
sg55
(lp2422
g48
(g49
g50
NtRp2423
(dp2424
g53
(dp2425
g61
I5
ssg62
g2419
sg55
(lp2426
g1099
asbasbasbag48
(g64
g50
NtRp2427
(dp2428
g53
(dp2429
sg62
g58
sg55
(lp2430
g48
(g69
g50
NtRp2431
(dp2432
g53
(dp2433
g73
g74
ssg62
g2427
sg55
(lp2434
S'now'
p2435
asbag48
(g69
g50
NtRp2436
(dp2437
g53
(dp2438
g80
g81
ssg62
g2427
sg55
(lp2439
S':'
asbag48
(g69
g50
NtRp2440
(dp2441
g53
(dp2442
sg62
g2427
sg55
(lp2443
g48
(g49
g50
NtRp2444
(dp2445
g53
(dp2446
g61
I5
ssg62
g2440
sg55
(lp2447
S'datetime.datetime(2011, 12, 19, 19, 12, 11, 216000)'
p2448
asbasbasbag48
(g64
g50
NtRp2449
(dp2450
g53
(dp2451
sg62
g58
sg55
(lp2452
g48
(g69
g50
NtRp2453
(dp2454
g53
(dp2455
g73
g74
ssg62
g2449
sg55
(lp2456
S'post_vars'
p2457
asbag48
(g69
g50
NtRp2458
(dp2459
g53
(dp2460
g80
g81
ssg62
g2449
sg55
(lp2461
S':'
asbag48
(g69
g50
NtRp2462
(dp2463
g53
(dp2464
sg62
g2449
sg55
(lp2465
g48
(g49
g50
NtRp2466
(dp2467
g53
(dp2468
g61
I5
ssg62
g2462
sg55
(lp2469
g48
(g57
g50
NtRp2470
(dp2471
g53
(dp2472
g61
I4
ssg62
Nsg55
(lp2473
g48
(g64
g50
NtRp2474
(dp2475
g53
(dp2476
sg62
g2470
sg55
(lp2477
g48
(g69
g50
NtRp2478
(dp2479
g53
(dp2480
g73
g74
ssg62
g2474
sg55
(lp2481
S'categorias'
p2482
asbag48
(g69
g50
NtRp2483
(dp2484
g53
(dp2485
g80
g81
ssg62
g2474
sg55
(lp2486
S':'
asbag48
(g69
g50
NtRp2487
(dp2488
g53
(dp2489
sg62
g2474
sg55
(lp2490
g48
(g49
g50
NtRp2491
(dp2492
g53
(dp2493
g61
I4
ssg62
g2487
sg55
(lp2494
S'B'
asbasbasbasbasbasbasbag48
(g64
g50
NtRp2495
(dp2496
g53
(dp2497
sg62
g58
sg55
(lp2498
g48
(g69
g50
NtRp2499
(dp2500
g53
(dp2501
g73
g74
ssg62
g2495
sg55
(lp2502
S'url'
p2503
asbag48
(g69
g50
NtRp2504
(dp2505
g53
(dp2506
g80
g81
ssg62
g2495
sg55
(lp2507
S':'
asbag48
(g69
g50
NtRp2508
(dp2509
g53
(dp2510
sg62
g2495
sg55
(lp2511
g48
(g49
g50
NtRp2512
(dp2513
g53
(dp2514
g61
I5
ssg62
g2508
sg55
(lp2515
S'/Casa_de_Apuestas/default/obtenerCategoria'
p2516
asbasbasbag48
(g64
g50
NtRp2517
(dp2518
g53
(dp2519
sg62
g58
sg55
(lp2520
g48
(g69
g50
NtRp2521
(dp2522
g53
(dp2523
g73
g74
ssg62
g2517
sg55
(lp2524
S'utcnow'
p2525
asbag48
(g69
g50
NtRp2526
(dp2527
g53
(dp2528
g80
g81
ssg62
g2517
sg55
(lp2529
S':'
asbag48
(g69
g50
NtRp2530
(dp2531
g53
(dp2532
sg62
g2517
sg55
(lp2533
g48
(g49
g50
NtRp2534
(dp2535
g53
(dp2536
g61
I5
ssg62
g2530
sg55
(lp2537
S'datetime.datetime(2011, 12, 19, 23, 42, 11, 216000)'
p2538
asbasbasbag48
(g64
g50
NtRp2539
(dp2540
g53
(dp2541
sg62
g58
sg55
(lp2542
g48
(g69
g50
NtRp2543
(dp2544
g53
(dp2545
g73
g74
ssg62
g2539
sg55
(lp2546
S'uuid'
p2547
asbag48
(g69
g50
NtRp2548
(dp2549
g53
(dp2550
g80
g81
ssg62
g2539
sg55
(lp2551
S':'
asbag48
(g69
g50
NtRp2552
(dp2553
g53
(dp2554
sg62
g2539
sg55
(lp2555
g48
(g49
g50
NtRp2556
(dp2557
g53
(dp2558
g61
I5
ssg62
g2552
sg55
(lp2559
S'Casa_de_Apuestas/127.0.0.1.2011-12-19.19-12-11.2cc6be94-e57c-44aa-ab72-3c7e23a7c171'
p2560
asbasbasbag48
(g64
g50
NtRp2561
(dp2562
g53
(dp2563
sg62
g58
sg55
(lp2564
g48
(g69
g50
NtRp2565
(dp2566
g53
(dp2567
g73
g74
ssg62
g2561
sg55
(lp2568
S'vars'
p2569
asbag48
(g69
g50
NtRp2570
(dp2571
g53
(dp2572
g80
g81
ssg62
g2561
sg55
(lp2573
S':'
asbag48
(g69
g50
NtRp2574
(dp2575
g53
(dp2576
sg62
g2561
sg55
(lp2577
g48
(g49
g50
NtRp2578
(dp2579
g53
(dp2580
g61
I5
ssg62
g2574
sg55
(lp2581
g48
(g57
g50
NtRp2582
(dp2583
g53
(dp2584
g61
I4
ssg62
Nsg55
(lp2585
g48
(g64
g50
NtRp2586
(dp2587
g53
(dp2588
sg62
g2582
sg55
(lp2589
g48
(g69
g50
NtRp2590
(dp2591
g53
(dp2592
g73
g74
ssg62
g2586
sg55
(lp2593
g2482
asbag48
(g69
g50
NtRp2594
(dp2595
g53
(dp2596
g80
g81
ssg62
g2586
sg55
(lp2597
S':'
asbag48
(g69
g50
NtRp2598
(dp2599
g53
(dp2600
sg62
g2586
sg55
(lp2601
g48
(g49
g50
NtRp2602
(dp2603
g53
(dp2604
g61
I4
ssg62
g2598
sg55
(lp2605
S'B'
asbasbasbasbasbasbasbag48
(g64
g50
NtRp2606
(dp2607
g53
(dp2608
sg62
g58
sg55
(lp2609
g48
(g69
g50
NtRp2610
(dp2611
g53
(dp2612
g73
g74
ssg62
g2606
sg55
(lp2613
S'wsgi'
p2614
asbag48
(g69
g50
NtRp2615
(dp2616
g53
(dp2617
g80
g81
ssg62
g2606
sg55
(lp2618
S':'
asbag48
(g69
g50
NtRp2619
(dp2620
g53
(dp2621
sg62
g2606
sg55
(lp2622
g48
(g49
g50
NtRp2623
(dp2624
g53
(dp2625
g61
I5
ssg62
g2619
sg55
(lp2626
g48
(g57
g50
NtRp2627
(dp2628
g53
(dp2629
g61
I4
ssg62
Nsg55
(lp2630
g48
(g64
g50
NtRp2631
(dp2632
g53
(dp2633
sg62
g2627
sg55
(lp2634
g48
(g69
g50
NtRp2635
(dp2636
g53
(dp2637
g73
g74
ssg62
g2631
sg55
(lp2638
S'environ'
p2639
asbag48
(g69
g50
NtRp2640
(dp2641
g53
(dp2642
g80
g81
ssg62
g2631
sg55
(lp2643
S':'
asbag48
(g69
g50
NtRp2644
(dp2645
g53
(dp2646
sg62
g2631
sg55
(lp2647
g48
(g49
g50
NtRp2648
(dp2649
g53
(dp2650
g61
I4
ssg62
g2644
sg55
(lp2651
g48
(g57
g50
NtRp2652
(dp2653
g53
(dp2654
g61
I3
ssg62
Nsg55
(lp2655
g48
(g64
g50
NtRp2656
(dp2657
g53
(dp2658
sg62
g2652
sg55
(lp2659
g48
(g69
g50
NtRp2660
(dp2661
g53
(dp2662
g73
g74
ssg62
g2656
sg55
(lp2663
S'CONTENT_LENGTH'
p2664
asbag48
(g69
g50
NtRp2665
(dp2666
g53
(dp2667
g80
g81
ssg62
g2656
sg55
(lp2668
S':'
asbag48
(g69
g50
NtRp2669
(dp2670
g53
(dp2671
sg62
g2656
sg55
(lp2672
g48
(g49
g50
NtRp2673
(dp2674
g53
(dp2675
g61
I3
ssg62
g2669
sg55
(lp2676
g1033
asbasbasbag48
(g64
g50
NtRp2677
(dp2678
g53
(dp2679
sg62
g2652
sg55
(lp2680
g48
(g69
g50
NtRp2681
(dp2682
g53
(dp2683
g73
g74
ssg62
g2677
sg55
(lp2684
S'CONTENT_TYPE'
p2685
asbag48
(g69
g50
NtRp2686
(dp2687
g53
(dp2688
g80
g81
ssg62
g2677
sg55
(lp2689
S':'
asbag48
(g69
g50
NtRp2690
(dp2691
g53
(dp2692
sg62
g2677
sg55
(lp2693
g48
(g49
g50
NtRp2694
(dp2695
g53
(dp2696
g61
I3
ssg62
g2690
sg55
(lp2697
g1055
asbasbasbag48
(g64
g50
NtRp2698
(dp2699
g53
(dp2700
sg62
g2652
sg55
(lp2701
g48
(g69
g50
NtRp2702
(dp2703
g53
(dp2704
g73
g74
ssg62
g2698
sg55
(lp2705
S'HTTP_ACCEPT'
p2706
asbag48
(g69
g50
NtRp2707
(dp2708
g53
(dp2709
g80
g81
ssg62
g2698
sg55
(lp2710
S':'
asbag48
(g69
g50
NtRp2711
(dp2712
g53
(dp2713
sg62
g2698
sg55
(lp2714
g48
(g49
g50
NtRp2715
(dp2716
g53
(dp2717
g61
I3
ssg62
g2711
sg55
(lp2718
g1143
asbasbasbag48
(g64
g50
NtRp2719
(dp2720
g53
(dp2721
sg62
g2652
sg55
(lp2722
g48
(g69
g50
NtRp2723
(dp2724
g53
(dp2725
g73
g74
ssg62
g2719
sg55
(lp2726
S'HTTP_ACCEPT_CHARSET'
p2727
asbag48
(g69
g50
NtRp2728
(dp2729
g53
(dp2730
g80
g81
ssg62
g2719
sg55
(lp2731
S':'
asbag48
(g69
g50
NtRp2732
(dp2733
g53
(dp2734
sg62
g2719
sg55
(lp2735
g48
(g49
g50
NtRp2736
(dp2737
g53
(dp2738
g61
I3
ssg62
g2732
sg55
(lp2739
g1165
asbasbasbag48
(g64
g50
NtRp2740
(dp2741
g53
(dp2742
sg62
g2652
sg55
(lp2743
g48
(g69
g50
NtRp2744
(dp2745
g53
(dp2746
g73
g74
ssg62
g2740
sg55
(lp2747
S'HTTP_ACCEPT_ENCODING'
p2748
asbag48
(g69
g50
NtRp2749
(dp2750
g53
(dp2751
g80
g81
ssg62
g2740
sg55
(lp2752
S':'
asbag48
(g69
g50
NtRp2753
(dp2754
g53
(dp2755
sg62
g2740
sg55
(lp2756
g48
(g49
g50
NtRp2757
(dp2758
g53
(dp2759
g61
I3
ssg62
g2753
sg55
(lp2760
g1187
asbasbasbag48
(g64
g50
NtRp2761
(dp2762
g53
(dp2763
sg62
g2652
sg55
(lp2764
g48
(g69
g50
NtRp2765
(dp2766
g53
(dp2767
g73
g74
ssg62
g2761
sg55
(lp2768
S'HTTP_ACCEPT_LANGUAGE'
p2769
asbag48
(g69
g50
NtRp2770
(dp2771
g53
(dp2772
g80
g81
ssg62
g2761
sg55
(lp2773
S':'
asbag48
(g69
g50
NtRp2774
(dp2775
g53
(dp2776
sg62
g2761
sg55
(lp2777
g48
(g49
g50
NtRp2778
(dp2779
g53
(dp2780
g61
I3
ssg62
g2774
sg55
(lp2781
g1209
asbasbasbag48
(g64
g50
NtRp2782
(dp2783
g53
(dp2784
sg62
g2652
sg55
(lp2785
g48
(g69
g50
NtRp2786
(dp2787
g53
(dp2788
g73
g74
ssg62
g2782
sg55
(lp2789
S'HTTP_CONNECTION'
p2790
asbag48
(g69
g50
NtRp2791
(dp2792
g53
(dp2793
g80
g81
ssg62
g2782
sg55
(lp2794
S':'
asbag48
(g69
g50
NtRp2795
(dp2796
g53
(dp2797
sg62
g2782
sg55
(lp2798
g48
(g49
g50
NtRp2799
(dp2800
g53
(dp2801
g61
I3
ssg62
g2795
sg55
(lp2802
g1231
asbasbasbag48
(g64
g50
NtRp2803
(dp2804
g53
(dp2805
sg62
g2652
sg55
(lp2806
g48
(g69
g50
NtRp2807
(dp2808
g53
(dp2809
g73
g74
ssg62
g2803
sg55
(lp2810
S'HTTP_CONTENT_LENGTH'
p2811
asbag48
(g69
g50
NtRp2812
(dp2813
g53
(dp2814
g80
g81
ssg62
g2803
sg55
(lp2815
S':'
asbag48
(g69
g50
NtRp2816
(dp2817
g53
(dp2818
sg62
g2803
sg55
(lp2819
g48
(g49
g50
NtRp2820
(dp2821
g53
(dp2822
g61
I3
ssg62
g2816
sg55
(lp2823
g1033
asbasbasbag48
(g64
g50
NtRp2824
(dp2825
g53
(dp2826
sg62
g2652
sg55
(lp2827
g48
(g69
g50
NtRp2828
(dp2829
g53
(dp2830
g73
g74
ssg62
g2824
sg55
(lp2831
S'HTTP_CONTENT_TYPE'
p2832
asbag48
(g69
g50
NtRp2833
(dp2834
g53
(dp2835
g80
g81
ssg62
g2824
sg55
(lp2836
S':'
asbag48
(g69
g50
NtRp2837
(dp2838
g53
(dp2839
sg62
g2824
sg55
(lp2840
g48
(g49
g50
NtRp2841
(dp2842
g53
(dp2843
g61
I3
ssg62
g2837
sg55
(lp2844
g1055
asbasbasbag48
(g64
g50
NtRp2845
(dp2846
g53
(dp2847
sg62
g2652
sg55
(lp2848
g48
(g69
g50
NtRp2849
(dp2850
g53
(dp2851
g73
g74
ssg62
g2845
sg55
(lp2852
S'HTTP_COOKIE'
p2853
asbag48
(g69
g50
NtRp2854
(dp2855
g53
(dp2856
g80
g81
ssg62
g2845
sg55
(lp2857
S':'
asbag48
(g69
g50
NtRp2858
(dp2859
g53
(dp2860
sg62
g2845
sg55
(lp2861
g48
(g49
g50
NtRp2862
(dp2863
g53
(dp2864
g61
I3
ssg62
g2858
sg55
(lp2865
g1295
asbasbasbag48
(g64
g50
NtRp2866
(dp2867
g53
(dp2868
sg62
g2652
sg55
(lp2869
g48
(g69
g50
NtRp2870
(dp2871
g53
(dp2872
g73
g74
ssg62
g2866
sg55
(lp2873
S'HTTP_HOST'
p2874
asbag48
(g69
g50
NtRp2875
(dp2876
g53
(dp2877
g80
g81
ssg62
g2866
sg55
(lp2878
S':'
asbag48
(g69
g50
NtRp2879
(dp2880
g53
(dp2881
sg62
g2866
sg55
(lp2882
g48
(g49
g50
NtRp2883
(dp2884
g53
(dp2885
g61
I3
ssg62
g2879
sg55
(lp2886
g1317
asbasbasbag48
(g64
g50
NtRp2887
(dp2888
g53
(dp2889
sg62
g2652
sg55
(lp2890
g48
(g69
g50
NtRp2891
(dp2892
g53
(dp2893
g73
g74
ssg62
g2887
sg55
(lp2894
S'HTTP_ORIGIN'
p2895
asbag48
(g69
g50
NtRp2896
(dp2897
g53
(dp2898
g80
g81
ssg62
g2887
sg55
(lp2899
S':'
asbag48
(g69
g50
NtRp2900
(dp2901
g53
(dp2902
sg62
g2887
sg55
(lp2903
g48
(g49
g50
NtRp2904
(dp2905
g53
(dp2906
g61
I3
ssg62
g2900
sg55
(lp2907
g1339
asbasbasbag48
(g64
g50
NtRp2908
(dp2909
g53
(dp2910
sg62
g2652
sg55
(lp2911
g48
(g69
g50
NtRp2912
(dp2913
g53
(dp2914
g73
g74
ssg62
g2908
sg55
(lp2915
S'HTTP_REFERER'
p2916
asbag48
(g69
g50
NtRp2917
(dp2918
g53
(dp2919
g80
g81
ssg62
g2908
sg55
(lp2920
S':'
asbag48
(g69
g50
NtRp2921
(dp2922
g53
(dp2923
sg62
g2908
sg55
(lp2924
g48
(g49
g50
NtRp2925
(dp2926
g53
(dp2927
g61
I3
ssg62
g2921
sg55
(lp2928
g1361
asbasbasbag48
(g64
g50
NtRp2929
(dp2930
g53
(dp2931
sg62
g2652
sg55
(lp2932
g48
(g69
g50
NtRp2933
(dp2934
g53
(dp2935
g73
g74
ssg62
g2929
sg55
(lp2936
S'HTTP_USER_AGENT'
p2937
asbag48
(g69
g50
NtRp2938
(dp2939
g53
(dp2940
g80
g81
ssg62
g2929
sg55
(lp2941
S':'
asbag48
(g69
g50
NtRp2942
(dp2943
g53
(dp2944
sg62
g2929
sg55
(lp2945
g48
(g49
g50
NtRp2946
(dp2947
g53
(dp2948
g61
I3
ssg62
g2942
sg55
(lp2949
g1383
asbasbasbag48
(g64
g50
NtRp2950
(dp2951
g53
(dp2952
sg62
g2652
sg55
(lp2953
g48
(g69
g50
NtRp2954
(dp2955
g53
(dp2956
g73
g74
ssg62
g2950
sg55
(lp2957
S'HTTP_X_REQUESTED_WITH'
p2958
asbag48
(g69
g50
NtRp2959
(dp2960
g53
(dp2961
g80
g81
ssg62
g2950
sg55
(lp2962
S':'
asbag48
(g69
g50
NtRp2963
(dp2964
g53
(dp2965
sg62
g2950
sg55
(lp2966
g48
(g49
g50
NtRp2967
(dp2968
g53
(dp2969
g61
I3
ssg62
g2963
sg55
(lp2970
g1405
asbasbasbag48
(g64
g50
NtRp2971
(dp2972
g53
(dp2973
sg62
g2652
sg55
(lp2974
g48
(g69
g50
NtRp2975
(dp2976
g53
(dp2977
g73
g74
ssg62
g2971
sg55
(lp2978
S'PATH_INFO'
p2979
asbag48
(g69
g50
NtRp2980
(dp2981
g53
(dp2982
g80
g81
ssg62
g2971
sg55
(lp2983
S':'
asbag48
(g69
g50
NtRp2984
(dp2985
g53
(dp2986
sg62
g2971
sg55
(lp2987
g48
(g49
g50
NtRp2988
(dp2989
g53
(dp2990
g61
I3
ssg62
g2984
sg55
(lp2991
g1448
asbasbasbag48
(g64
g50
NtRp2992
(dp2993
g53
(dp2994
sg62
g2652
sg55
(lp2995
g48
(g69
g50
NtRp2996
(dp2997
g53
(dp2998
g73
g74
ssg62
g2992
sg55
(lp2999
S'QUERY_STRING'
p3000
asbag48
(g69
g50
NtRp3001
(dp3002
g53
(dp3003
g80
g81
ssg62
g2992
sg55
(lp3004
S':'
asbag48
(g69
g50
NtRp3005
(dp3006
g53
(dp3007
sg62
g2992
sg55
(lp3008
g48
(g49
g50
NtRp3009
(dp3010
g53
(dp3011
g61
I3
ssg62
g3005
sg55
(lp3012
S''
asbasbasbag48
(g64
g50
NtRp3013
(dp3014
g53
(dp3015
sg62
g2652
sg55
(lp3016
g48
(g69
g50
NtRp3017
(dp3018
g53
(dp3019
g73
g74
ssg62
g3013
sg55
(lp3020
S'REMOTE_ADDR'
p3021
asbag48
(g69
g50
NtRp3022
(dp3023
g53
(dp3024
g80
g81
ssg62
g3013
sg55
(lp3025
S':'
asbag48
(g69
g50
NtRp3026
(dp3027
g53
(dp3028
sg62
g3013
sg55
(lp3029
g48
(g49
g50
NtRp3030
(dp3031
g53
(dp3032
g61
I3
ssg62
g3026
sg55
(lp3033
g181
asbasbasbag48
(g64
g50
NtRp3034
(dp3035
g53
(dp3036
sg62
g2652
sg55
(lp3037
g48
(g69
g50
NtRp3038
(dp3039
g53
(dp3040
g73
g74
ssg62
g3034
sg55
(lp3041
S'REMOTE_PORT'
p3042
asbag48
(g69
g50
NtRp3043
(dp3044
g53
(dp3045
g80
g81
ssg62
g3034
sg55
(lp3046
S':'
asbag48
(g69
g50
NtRp3047
(dp3048
g53
(dp3049
sg62
g3034
sg55
(lp3050
g48
(g49
g50
NtRp3051
(dp3052
g53
(dp3053
g61
I3
ssg62
g3047
sg55
(lp3054
g1512
asbasbasbag48
(g64
g50
NtRp3055
(dp3056
g53
(dp3057
sg62
g2652
sg55
(lp3058
g48
(g69
g50
NtRp3059
(dp3060
g53
(dp3061
g73
g74
ssg62
g3055
sg55
(lp3062
S'REQUEST_METHOD'
p3063
asbag48
(g69
g50
NtRp3064
(dp3065
g53
(dp3066
g80
g81
ssg62
g3055
sg55
(lp3067
S':'
asbag48
(g69
g50
NtRp3068
(dp3069
g53
(dp3070
sg62
g3055
sg55
(lp3071
g48
(g49
g50
NtRp3072
(dp3073
g53
(dp3074
g61
I3
ssg62
g3068
sg55
(lp3075
g1534
asbasbasbag48
(g64
g50
NtRp3076
(dp3077
g53
(dp3078
sg62
g2652
sg55
(lp3079
g48
(g69
g50
NtRp3080
(dp3081
g53
(dp3082
g73
g74
ssg62
g3076
sg55
(lp3083
S'SCRIPT_NAME'
p3084
asbag48
(g69
g50
NtRp3085
(dp3086
g53
(dp3087
g80
g81
ssg62
g3076
sg55
(lp3088
S':'
asbag48
(g69
g50
NtRp3089
(dp3090
g53
(dp3091
sg62
g3076
sg55
(lp3092
g48
(g49
g50
NtRp3093
(dp3094
g53
(dp3095
g61
I3
ssg62
g3089
sg55
(lp3096
S''
asbasbasbag48
(g64
g50
NtRp3097
(dp3098
g53
(dp3099
sg62
g2652
sg55
(lp3100
g48
(g69
g50
NtRp3101
(dp3102
g53
(dp3103
g73
g74
ssg62
g3097
sg55
(lp3104
S'SERVER_NAME'
p3105
asbag48
(g69
g50
NtRp3106
(dp3107
g53
(dp3108
g80
g81
ssg62
g3097
sg55
(lp3109
S':'
asbag48
(g69
g50
NtRp3110
(dp3111
g53
(dp3112
sg62
g3097
sg55
(lp3113
g48
(g49
g50
NtRp3114
(dp3115
g53
(dp3116
g61
I3
ssg62
g3110
sg55
(lp3117
g1577
asbasbasbag48
(g64
g50
NtRp3118
(dp3119
g53
(dp3120
sg62
g2652
sg55
(lp3121
g48
(g69
g50
NtRp3122
(dp3123
g53
(dp3124
g73
g74
ssg62
g3118
sg55
(lp3125
S'SERVER_PORT'
p3126
asbag48
(g69
g50
NtRp3127
(dp3128
g53
(dp3129
g80
g81
ssg62
g3118
sg55
(lp3130
S':'
asbag48
(g69
g50
NtRp3131
(dp3132
g53
(dp3133
sg62
g3118
sg55
(lp3134
g48
(g49
g50
NtRp3135
(dp3136
g53
(dp3137
g61
I3
ssg62
g3131
sg55
(lp3138
g1599
asbasbasbag48
(g64
g50
NtRp3139
(dp3140
g53
(dp3141
sg62
g2652
sg55
(lp3142
g48
(g69
g50
NtRp3143
(dp3144
g53
(dp3145
g73
g74
ssg62
g3139
sg55
(lp3146
S'SERVER_PROTOCOL'
p3147
asbag48
(g69
g50
NtRp3148
(dp3149
g53
(dp3150
g80
g81
ssg62
g3139
sg55
(lp3151
S':'
asbag48
(g69
g50
NtRp3152
(dp3153
g53
(dp3154
sg62
g3139
sg55
(lp3155
g48
(g49
g50
NtRp3156
(dp3157
g53
(dp3158
g61
I3
ssg62
g3152
sg55
(lp3159
g1621
asbasbasbag48
(g64
g50
NtRp3160
(dp3161
g53
(dp3162
sg62
g2652
sg55
(lp3163
g48
(g69
g50
NtRp3164
(dp3165
g53
(dp3166
g73
g74
ssg62
g3160
sg55
(lp3167
S'SERVER_SOFTWARE'
p3168
asbag48
(g69
g50
NtRp3169
(dp3170
g53
(dp3171
g80
g81
ssg62
g3160
sg55
(lp3172
S':'
asbag48
(g69
g50
NtRp3173
(dp3174
g53
(dp3175
sg62
g3160
sg55
(lp3176
g48
(g49
g50
NtRp3177
(dp3178
g53
(dp3179
g61
I3
ssg62
g3173
sg55
(lp3180
g1643
asbasbasbag48
(g64
g50
NtRp3181
(dp3182
g53
(dp3183
sg62
g2652
sg55
(lp3184
g48
(g69
g50
NtRp3185
(dp3186
g53
(dp3187
g73
g74
ssg62
g3181
sg55
(lp3188
S'wsgi.errors'
p3189
asbag48
(g69
g50
NtRp3190
(dp3191
g53
(dp3192
g80
g81
ssg62
g3181
sg55
(lp3193
S':'
asbag48
(g69
g50
NtRp3194
(dp3195
g53
(dp3196
sg62
g3181
sg55
(lp3197
g48
(g49
g50
NtRp3198
(dp3199
g53
(dp3200
g61
I3
ssg62
g3194
sg55
(lp3201
S"<open file '<stderr>', mode 'w' at 0x015D00B0>"
p3202
asbasbasbag48
(g64
g50
NtRp3203
(dp3204
g53
(dp3205
sg62
g2652
sg55
(lp3206
g48
(g69
g50
NtRp3207
(dp3208
g53
(dp3209
g73
g74
ssg62
g3203
sg55
(lp3210
S'wsgi.file_wrapper'
p3211
asbag48
(g69
g50
NtRp3212
(dp3213
g53
(dp3214
g80
g81
ssg62
g3203
sg55
(lp3215
S':'
asbag48
(g69
g50
NtRp3216
(dp3217
g53
(dp3218
sg62
g3203
sg55
(lp3219
g48
(g49
g50
NtRp3220
(dp3221
g53
(dp3222
g61
I3
ssg62
g3216
sg55
(lp3223
S'<class wsgiref.util.FileWrapper at 0x024A9AB0>'
p3224
asbasbasbag48
(g64
g50
NtRp3225
(dp3226
g53
(dp3227
sg62
g2652
sg55
(lp3228
g48
(g69
g50
NtRp3229
(dp3230
g53
(dp3231
g73
g74
ssg62
g3225
sg55
(lp3232
S'wsgi.input'
p3233
asbag48
(g69
g50
NtRp3234
(dp3235
g53
(dp3236
g80
g81
ssg62
g3225
sg55
(lp3237
S':'
asbag48
(g69
g50
NtRp3238
(dp3239
g53
(dp3240
sg62
g3225
sg55
(lp3241
g48
(g49
g50
NtRp3242
(dp3243
g53
(dp3244
g61
I3
ssg62
g3238
sg55
(lp3245
S"<open file '<fdopen>', mode 'w+b' at 0x0596C410>"
p3246
asbasbasbag48
(g64
g50
NtRp3247
(dp3248
g53
(dp3249
sg62
g2652
sg55
(lp3250
g48
(g69
g50
NtRp3251
(dp3252
g53
(dp3253
g73
g74
ssg62
g3247
sg55
(lp3254
S'wsgi.multiprocess'
p3255
asbag48
(g69
g50
NtRp3256
(dp3257
g53
(dp3258
g80
g81
ssg62
g3247
sg55
(lp3259
S':'
asbag48
(g69
g50
NtRp3260
(dp3261
g53
(dp3262
sg62
g3247
sg55
(lp3263
g48
(g49
g50
NtRp3264
(dp3265
g53
(dp3266
g61
I3
ssg62
g3260
sg55
(lp3267
g1099
asbasbasbag48
(g64
g50
NtRp3268
(dp3269
g53
(dp3270
sg62
g2652
sg55
(lp3271
g48
(g69
g50
NtRp3272
(dp3273
g53
(dp3274
g73
g74
ssg62
g3268
sg55
(lp3275
S'wsgi.multithread'
p3276
asbag48
(g69
g50
NtRp3277
(dp3278
g53
(dp3279
g80
g81
ssg62
g3268
sg55
(lp3280
S':'
asbag48
(g69
g50
NtRp3281
(dp3282
g53
(dp3283
sg62
g3268
sg55
(lp3284
g48
(g49
g50
NtRp3285
(dp3286
g53
(dp3287
g61
I3
ssg62
g3281
sg55
(lp3288
g91
asbasbasbag48
(g64
g50
NtRp3289
(dp3290
g53
(dp3291
sg62
g2652
sg55
(lp3292
g48
(g69
g50
NtRp3293
(dp3294
g53
(dp3295
g73
g74
ssg62
g3289
sg55
(lp3296
S'wsgi.run_once'
p3297
asbag48
(g69
g50
NtRp3298
(dp3299
g53
(dp3300
g80
g81
ssg62
g3289
sg55
(lp3301
S':'
asbag48
(g69
g50
NtRp3302
(dp3303
g53
(dp3304
sg62
g3289
sg55
(lp3305
g48
(g49
g50
NtRp3306
(dp3307
g53
(dp3308
g61
I3
ssg62
g3302
sg55
(lp3309
g1099
asbasbasbag48
(g64
g50
NtRp3310
(dp3311
g53
(dp3312
sg62
g2652
sg55
(lp3313
g48
(g69
g50
NtRp3314
(dp3315
g53
(dp3316
g73
g74
ssg62
g3310
sg55
(lp3317
S'wsgi.url_scheme'
p3318
asbag48
(g69
g50
NtRp3319
(dp3320
g53
(dp3321
g80
g81
ssg62
g3310
sg55
(lp3322
S':'
asbag48
(g69
g50
NtRp3323
(dp3324
g53
(dp3325
sg62
g3310
sg55
(lp3326
g48
(g49
g50
NtRp3327
(dp3328
g53
(dp3329
g61
I3
ssg62
g3323
sg55
(lp3330
g1925
asbasbasbag48
(g64
g50
NtRp3331
(dp3332
g53
(dp3333
sg62
g2652
sg55
(lp3334
g48
(g69
g50
NtRp3335
(dp3336
g53
(dp3337
g73
g74
ssg62
g3331
sg55
(lp3338
S'wsgi.version'
p3339
asbag48
(g69
g50
NtRp3340
(dp3341
g53
(dp3342
g80
g81
ssg62
g3331
sg55
(lp3343
S':'
asbag48
(g69
g50
NtRp3344
(dp3345
g53
(dp3346
sg62
g3331
sg55
(lp3347
g48
(g49
g50
NtRp3348
(dp3349
g53
(dp3350
g61
I3
ssg62
g3344
sg55
(lp3351
S'1'
asbasbasbasbasbasbasbasbasbasbasbasbasbsS'frames'
p3352
(lp3353
(dp3354
S'file'
p3355
S'C:\\Python32\\web2py_win\\web2py\\gluon\\restricted.py'
p3356
sS'dump'
p3357
(dp3358
sS'lnum'
p3359
I194
sS'lines'
p3360
(dp3361
sS'call'
p3362
S"(code='# -*- coding: utf-8 -*-\\n### required - do no del...esponse._vars=response._caller(obtenerCategoria)\\n', environment={'A': <class 'gluon.html.A'>, 'Auth': <class 'gluon.tools.Auth'>, 'B': <class 'gluon.html.B'>, 'BEAUTIFY': <class 'gluon.html.BEAUTIFY'>, 'BODY': <class 'gluon.html.BODY'>, 'BR': <class 'gluon.html.BR'>, 'BUTTON': <class 'gluon.html.BUTTON'>, 'CAT': <class 'gluon.html.CAT'>, 'CENTER': <class 'gluon.html.CENTER'>, 'CLEANUP': <class 'gluon.validators.CLEANUP'>, ...}, layer=r'C:\\Python32\\web2py_win\\web2py\\applications\\Casa_de_Apuestas\\controllers/default.py')"
p3363
sS'func'
p3364
S'restricted'
p3365
sa(dp3366
g3355
S'C:\\Python32\\web2py_win\\web2py\\applications\\Casa_de_Apuestas\\controllers\\default.py'
p3367
sg3357
(dp3368
sg3359
I206
sg3360
(dp3369
I195
S'    return dict(eventos=eventos)'
p3370
sI196
S''
sI197
S'def verProximosEventos2():'
p3371
sI198
S'    evento_participante= db((db.eventosparticipantes.eventos_id==request.args(0))& (db.participantes.id==db.eventosparticipantes.participantes_id)).select()'
p3372
sI199
S'    evento = db(db.eventos.id==request.args(0)).select()'
p3373
sI200
S'    categoria = db((db.categorias.id==db.eventos.categoria_id)& (db.eventos.id==request.args(0))).select()'
p3374
sI201
S'    return dict(evento_participante=evento_participante,evento=evento,categoria=categoria)'
p3375
sI202
S''
sI203
S'def indexPublico():'
p3376
sI204
S'    return dict()'
p3377
ssg3362
S'()'
p3378
sg3364
S'<module>'
p3379
sa(dp3380
g3355
S'C:\\Python32\\web2py_win\\web2py\\gluon\\globals.py'
p3381
sg3357
(dp3382
sg3359
I149
sg3360
(dp3383
sg3362
S'(f=<function obtenerCategoria at 0x05E63CB0>)'
p3384
sg3364
S'<lambda>'
p3385
sa(dp3386
g3355
S'C:\\Python32\\web2py_win\\web2py\\applications\\Casa_de_Apuestas\\controllers\\default.py'
p3387
sg3357
(dp3388
sg3359
I51
sg3360
(dp3389
I46
S''
sI47
S'def obtenerCategoria():'
p3390
sI48
S'        if not request.vars.categorias:'
p3391
sI49
S"            return ''"
p3392
sI50
S"        patron = request.vars.categorias.capitalize() + '%'"
p3393
sI51
S'        seleccionado = [row.name for row in db(db.categorias.nombre.like(patron)).select()]'
p3394
sI52
S"        return ''.join([DIV(k,"
p3395
sI53
S'                     _onclick="jQuery(\'#categorias\').val(\'%s\')" % k,'
p3396
sI54
S'                     _onmouseover="this.style.backgroundColor=\'green\'",'
p3397
sI55
S'                     _onmouseout="this.style.backgroundColor=\'white\'"'
p3398
ssg3362
S'()'
p3399
sg3364
S'obtenerCategoria'
p3400
sa(dp3401
g3355
S'C:\\Python32\\web2py_win\\web2py\\gluon\\dal.py'
p3402
sg3357
(dp3403
sg3359
I3851
sg3360
(dp3404
sg3362
S"(self=<Row {'eventos': <gluon.dal.Set object at 0x05FB...lete_record': <function <lambda> at 0x05DBF2F0>}>, key='name')"
p3405
sg3364
S'__getattr__'
p3406
sa(dp3407
g3355
S'C:\\Python32\\web2py_win\\web2py\\gluon\\dal.py'
p3408
sg3357
(dp3409
sg3359
I3842
sg3360
(dp3410
sg3362
S"(self=<Row {'eventos': <gluon.dal.Set object at 0x05FB...lete_record': <function <lambda> at 0x05DBF2F0>}>, key='name')"
p3411
sg3364
g19
sasS'pyver'
p3412
S'Python 2.5.4: C:\\Python32\\web2py_win\\web2py\\web2py.exe'
p3413
sS'session'
p3414
g48
(g49
g50
NtRp3415
(dp3416
g53
(dp3417
sg55
(lp3418
g48
(g57
g50
NtRp3419
(dp3420
g53
(dp3421
g61
I5
ssg62
Nsg55
(lp3422
g48
(g64
g50
NtRp3423
(dp3424
g53
(dp3425
sg62
g3419
sg55
(lp3426
g48
(g69
g50
NtRp3427
(dp3428
g53
(dp3429
g73
g74
ssg62
g3423
sg55
(lp3430
S'flash'
p3431
asbag48
(g69
g50
NtRp3432
(dp3433
g53
(dp3434
g80
g81
ssg62
g3423
sg55
(lp3435
S':'
asbag48
(g69
g50
NtRp3436
(dp3437
g53
(dp3438
sg62
g3423
sg55
(lp3439
g48
(g49
g50
NtRp3440
(dp3441
g53
(dp3442
g61
I5
ssg62
g3436
sg55
(lp3443
S''
asbasbasbasbasbsS'etype'
p3444
S"<type 'exceptions.KeyError'>"
p3445
sS'date'
p3446
S'Mon Dec 19 19:12:11 2011'
p3447
sS'response'
p3448
g48
(g49
g50
NtRp3449
(dp3450
g53
(dp3451
sg55
(lp3452
g48
(g57
g50
NtRp3453
(dp3454
g53
(dp3455
g61
I5
ssg62
Nsg55
(lp3456
g48
(g64
g50
NtRp3457
(dp3458
g53
(dp3459
sg62
g3453
sg55
(lp3460
g48
(g69
g50
NtRp3461
(dp3462
g53
(dp3463
g73
g74
ssg62
g3457
sg55
(lp3464
g146
asbag48
(g69
g50
NtRp3465
(dp3466
g53
(dp3467
g80
g81
ssg62
g3457
sg55
(lp3468
S':'
asbag48
(g69
g50
NtRp3469
(dp3470
g53
(dp3471
sg62
g3457
sg55
(lp3472
g48
(g49
g50
NtRp3473
(dp3474
g53
(dp3475
g61
I5
ssg62
g3469
sg55
(lp3476
S'<cStringIO.StringO object at 0x05D4DDA0>'
p3477
asbasbasbag48
(g64
g50
NtRp3478
(dp3479
g53
(dp3480
sg62
g3453
sg55
(lp3481
g48
(g69
g50
NtRp3482
(dp3483
g53
(dp3484
g73
g74
ssg62
g3478
sg55
(lp3485
g212
asbag48
(g69
g50
NtRp3486
(dp3487
g53
(dp3488
g80
g81
ssg62
g3478
sg55
(lp3489
S':'
asbag48
(g69
g50
NtRp3490
(dp3491
g53
(dp3492
sg62
g3478
sg55
(lp3493
g48
(g49
g50
NtRp3494
(dp3495
g53
(dp3496
g61
I5
ssg62
g3490
sg55
(lp3497
g48
(g57
g50
NtRp3498
(dp3499
g53
(dp3500
g61
I4
ssg62
Nsg55
(lp3501
g48
(g64
g50
NtRp3502
(dp3503
g53
(dp3504
sg62
g3498
sg55
(lp3505
g48
(g69
g50
NtRp3506
(dp3507
g53
(dp3508
g73
g74
ssg62
g3502
sg55
(lp3509
S'session_id_casa_de_apuestas'
p3510
asbag48
(g69
g50
NtRp3511
(dp3512
g53
(dp3513
g80
g81
ssg62
g3502
sg55
(lp3514
S':'
asbag48
(g69
g50
NtRp3515
(dp3516
g53
(dp3517
sg62
g3502
sg55
(lp3518
g48
(g49
g50
NtRp3519
(dp3520
g53
(dp3521
g61
I4
ssg62
g3515
sg55
(lp3522
g48
(g57
g50
NtRp3523
(dp3524
g53
(dp3525
g61
I3
ssg62
Nsg55
(lp3526
g48
(g64
g50
NtRp3527
(dp3528
g53
(dp3529
sg62
g3523
sg55
(lp3530
g48
(g69
g50
NtRp3531
(dp3532
g53
(dp3533
g73
g74
ssg62
g3527
sg55
(lp3534
g262
asbag48
(g69
g50
NtRp3535
(dp3536
g53
(dp3537
g80
g81
ssg62
g3527
sg55
(lp3538
S':'
asbag48
(g69
g50
NtRp3539
(dp3540
g53
(dp3541
sg62
g3527
sg55
(lp3542
g48
(g49
g50
NtRp3543
(dp3544
g53
(dp3545
g61
I3
ssg62
g3539
sg55
(lp3546
S''
asbasbasbag48
(g64
g50
NtRp3547
(dp3548
g53
(dp3549
sg62
g3523
sg55
(lp3550
g48
(g69
g50
NtRp3551
(dp3552
g53
(dp3553
g73
g74
ssg62
g3547
sg55
(lp3554
g283
asbag48
(g69
g50
NtRp3555
(dp3556
g53
(dp3557
g80
g81
ssg62
g3547
sg55
(lp3558
S':'
asbag48
(g69
g50
NtRp3559
(dp3560
g53
(dp3561
sg62
g3547
sg55
(lp3562
g48
(g49
g50
NtRp3563
(dp3564
g53
(dp3565
g61
I3
ssg62
g3559
sg55
(lp3566
S''
asbasbasbag48
(g64
g50
NtRp3567
(dp3568
g53
(dp3569
sg62
g3523
sg55
(lp3570
g48
(g69
g50
NtRp3571
(dp3572
g53
(dp3573
g73
g74
ssg62
g3567
sg55
(lp3574
g304
asbag48
(g69
g50
NtRp3575
(dp3576
g53
(dp3577
g80
g81
ssg62
g3567
sg55
(lp3578
S':'
asbag48
(g69
g50
NtRp3579
(dp3580
g53
(dp3581
sg62
g3567
sg55
(lp3582
g48
(g49
g50
NtRp3583
(dp3584
g53
(dp3585
g61
I3
ssg62
g3579
sg55
(lp3586
S''
asbasbasbag48
(g64
g50
NtRp3587
(dp3588
g53
(dp3589
sg62
g3523
sg55
(lp3590
g48
(g69
g50
NtRp3591
(dp3592
g53
(dp3593
g73
g74
ssg62
g3587
sg55
(lp3594
g325
asbag48
(g69
g50
NtRp3595
(dp3596
g53
(dp3597
g80
g81
ssg62
g3587
sg55
(lp3598
S':'
asbag48
(g69
g50
NtRp3599
(dp3600
g53
(dp3601
sg62
g3587
sg55
(lp3602
g48
(g49
g50
NtRp3603
(dp3604
g53
(dp3605
g61
I3
ssg62
g3599
sg55
(lp3606
S''
asbasbasbag48
(g64
g50
NtRp3607
(dp3608
g53
(dp3609
sg62
g3523
sg55
(lp3610
g48
(g69
g50
NtRp3611
(dp3612
g53
(dp3613
g73
g74
ssg62
g3607
sg55
(lp3614
g346
asbag48
(g69
g50
NtRp3615
(dp3616
g53
(dp3617
g80
g81
ssg62
g3607
sg55
(lp3618
S':'
asbag48
(g69
g50
NtRp3619
(dp3620
g53
(dp3621
sg62
g3607
sg55
(lp3622
g48
(g49
g50
NtRp3623
(dp3624
g53
(dp3625
g61
I3
ssg62
g3619
sg55
(lp3626
S'/'
asbasbasbag48
(g64
g50
NtRp3627
(dp3628
g53
(dp3629
sg62
g3523
sg55
(lp3630
g48
(g69
g50
NtRp3631
(dp3632
g53
(dp3633
g73
g74
ssg62
g3627
sg55
(lp3634
g367
asbag48
(g69
g50
NtRp3635
(dp3636
g53
(dp3637
g80
g81
ssg62
g3627
sg55
(lp3638
S':'
asbag48
(g69
g50
NtRp3639
(dp3640
g53
(dp3641
sg62
g3627
sg55
(lp3642
g48
(g49
g50
NtRp3643
(dp3644
g53
(dp3645
g61
I3
ssg62
g3639
sg55
(lp3646
S''
asbasbasbag48
(g64
g50
NtRp3647
(dp3648
g53
(dp3649
sg62
g3523
sg55
(lp3650
g48
(g69
g50
NtRp3651
(dp3652
g53
(dp3653
g73
g74
ssg62
g3647
sg55
(lp3654
g388
asbag48
(g69
g50
NtRp3655
(dp3656
g53
(dp3657
g80
g81
ssg62
g3647
sg55
(lp3658
S':'
asbag48
(g69
g50
NtRp3659
(dp3660
g53
(dp3661
sg62
g3647
sg55
(lp3662
g48
(g49
g50
NtRp3663
(dp3664
g53
(dp3665
g61
I3
ssg62
g3659
sg55
(lp3666
S''
asbasbasbasbasbasbasbasbasbasbasbag48
(g64
g50
NtRp3667
(dp3668
g53
(dp3669
sg62
g3453
sg55
(lp3670
g48
(g69
g50
NtRp3671
(dp3672
g53
(dp3673
g73
g74
ssg62
g3667
sg55
(lp3674
S'files'
p3675
asbag48
(g69
g50
NtRp3676
(dp3677
g53
(dp3678
g80
g81
ssg62
g3667
sg55
(lp3679
S':'
asbag48
(g69
g50
NtRp3680
(dp3681
g53
(dp3682
sg62
g3667
sg55
(lp3683
g48
(g49
g50
NtRp3684
(dp3685
g53
(dp3686
g61
I5
ssg62
g3680
sg55
(lp3687
g48
(g57
g50
NtRp3688
(dp3689
g53
(dp3690
g61
I4
ssg62
Nsg55
(lp3691
sbasbasbasbag48
(g64
g50
NtRp3692
(dp3693
g53
(dp3694
sg62
g3453
sg55
(lp3695
g48
(g69
g50
NtRp3696
(dp3697
g53
(dp3698
g73
g74
ssg62
g3692
sg55
(lp3699
S'flash'
p3700
asbag48
(g69
g50
NtRp3701
(dp3702
g53
(dp3703
g80
g81
ssg62
g3692
sg55
(lp3704
S':'
asbag48
(g69
g50
NtRp3705
(dp3706
g53
(dp3707
sg62
g3692
sg55
(lp3708
g48
(g49
g50
NtRp3709
(dp3710
g53
(dp3711
g61
I5
ssg62
g3705
sg55
(lp3712
S''
asbasbasbag48
(g64
g50
NtRp3713
(dp3714
g53
(dp3715
sg62
g3453
sg55
(lp3716
g48
(g69
g50
NtRp3717
(dp3718
g53
(dp3719
g73
g74
ssg62
g3713
sg55
(lp3720
S'generic_patterns'
p3721
asbag48
(g69
g50
NtRp3722
(dp3723
g53
(dp3724
g80
g81
ssg62
g3713
sg55
(lp3725
S':'
asbag48
(g69
g50
NtRp3726
(dp3727
g53
(dp3728
sg62
g3713
sg55
(lp3729
g48
(g49
g50
NtRp3730
(dp3731
g53
(dp3732
g61
I5
ssg62
g3726
sg55
(lp3733
g48
(g57
g50
NtRp3734
(dp3735
g53
(dp3736
g61
I4
ssg62
Nsg55
(lp3737
g48
(g64
g50
NtRp3738
(dp3739
g53
(dp3740
sg62
g3734
sg55
(lp3741
g48
(g69
g50
NtRp3742
(dp3743
g53
(dp3744
sg62
g3738
sg55
(lp3745
g48
(g49
g50
NtRp3746
(dp3747
g53
(dp3748
g61
I4
ssg62
g3742
sg55
(lp3749
S'*'
asbasbasbasbasbasbasbag48
(g64
g50
NtRp3750
(dp3751
g53
(dp3752
sg62
g3453
sg55
(lp3753
g48
(g69
g50
NtRp3754
(dp3755
g53
(dp3756
g73
g74
ssg62
g3750
sg55
(lp3757
S'headers'
p3758
asbag48
(g69
g50
NtRp3759
(dp3760
g53
(dp3761
g80
g81
ssg62
g3750
sg55
(lp3762
S':'
asbag48
(g69
g50
NtRp3763
(dp3764
g53
(dp3765
sg62
g3750
sg55
(lp3766
g48
(g49
g50
NtRp3767
(dp3768
g53
(dp3769
g61
I5
ssg62
g3763
sg55
(lp3770
g48
(g57
g50
NtRp3771
(dp3772
g53
(dp3773
g61
I4
ssg62
Nsg55
(lp3774
g48
(g64
g50
NtRp3775
(dp3776
g53
(dp3777
sg62
g3771
sg55
(lp3778
g48
(g69
g50
NtRp3779
(dp3780
g53
(dp3781
g73
g74
ssg62
g3775
sg55
(lp3782
S'Cache-Control'
p3783
asbag48
(g69
g50
NtRp3784
(dp3785
g53
(dp3786
g80
g81
ssg62
g3775
sg55
(lp3787
S':'
asbag48
(g69
g50
NtRp3788
(dp3789
g53
(dp3790
sg62
g3775
sg55
(lp3791
g48
(g49
g50
NtRp3792
(dp3793
g53
(dp3794
g61
I4
ssg62
g3788
sg55
(lp3795
S'no-store, no-cache, must-revalidate, post-check=0, pre-check=0'
p3796
asbasbasbag48
(g64
g50
NtRp3797
(dp3798
g53
(dp3799
sg62
g3771
sg55
(lp3800
g48
(g69
g50
NtRp3801
(dp3802
g53
(dp3803
g73
g74
ssg62
g3797
sg55
(lp3804
S'Content-Type'
p3805
asbag48
(g69
g50
NtRp3806
(dp3807
g53
(dp3808
g80
g81
ssg62
g3797
sg55
(lp3809
S':'
asbag48
(g69
g50
NtRp3810
(dp3811
g53
(dp3812
sg62
g3797
sg55
(lp3813
g48
(g49
g50
NtRp3814
(dp3815
g53
(dp3816
g61
I4
ssg62
g3810
sg55
(lp3817
S'text/html; charset=utf-8'
p3818
asbasbasbag48
(g64
g50
NtRp3819
(dp3820
g53
(dp3821
sg62
g3771
sg55
(lp3822
g48
(g69
g50
NtRp3823
(dp3824
g53
(dp3825
g73
g74
ssg62
g3819
sg55
(lp3826
S'Expires'
p3827
asbag48
(g69
g50
NtRp3828
(dp3829
g53
(dp3830
g80
g81
ssg62
g3819
sg55
(lp3831
S':'
asbag48
(g69
g50
NtRp3832
(dp3833
g53
(dp3834
sg62
g3819
sg55
(lp3835
g48
(g49
g50
NtRp3836
(dp3837
g53
(dp3838
g61
I4
ssg62
g3832
sg55
(lp3839
S'Mon, 19 Dec 2011 23:42:11 GMT'
p3840
asbasbasbag48
(g64
g50
NtRp3841
(dp3842
g53
(dp3843
sg62
g3771
sg55
(lp3844
g48
(g69
g50
NtRp3845
(dp3846
g53
(dp3847
g73
g74
ssg62
g3841
sg55
(lp3848
S'Pragma'
p3849
asbag48
(g69
g50
NtRp3850
(dp3851
g53
(dp3852
g80
g81
ssg62
g3841
sg55
(lp3853
S':'
asbag48
(g69
g50
NtRp3854
(dp3855
g53
(dp3856
sg62
g3841
sg55
(lp3857
g48
(g49
g50
NtRp3858
(dp3859
g53
(dp3860
g61
I4
ssg62
g3854
sg55
(lp3861
S'no-cache'
p3862
asbasbasbag48
(g64
g50
NtRp3863
(dp3864
g53
(dp3865
sg62
g3771
sg55
(lp3866
g48
(g69
g50
NtRp3867
(dp3868
g53
(dp3869
g73
g74
ssg62
g3863
sg55
(lp3870
S'X-Powered-By'
p3871
asbag48
(g69
g50
NtRp3872
(dp3873
g53
(dp3874
g80
g81
ssg62
g3863
sg55
(lp3875
S':'
asbag48
(g69
g50
NtRp3876
(dp3877
g53
(dp3878
sg62
g3863
sg55
(lp3879
g48
(g49
g50
NtRp3880
(dp3881
g53
(dp3882
g61
I4
ssg62
g3876
sg55
(lp3883
S'web2py'
p3884
asbasbasbasbasbasbasbag48
(g64
g50
NtRp3885
(dp3886
g53
(dp3887
sg62
g3453
sg55
(lp3888
g48
(g69
g50
NtRp3889
(dp3890
g53
(dp3891
g73
g74
ssg62
g3885
sg55
(lp3892
S'menu'
p3893
asbag48
(g69
g50
NtRp3894
(dp3895
g53
(dp3896
g80
g81
ssg62
g3885
sg55
(lp3897
S':'
asbag48
(g69
g50
NtRp3898
(dp3899
g53
(dp3900
sg62
g3885
sg55
(lp3901
g48
(g49
g50
NtRp3902
(dp3903
g53
(dp3904
g61
I5
ssg62
g3898
sg55
(lp3905
g48
(g57
g50
NtRp3906
(dp3907
g53
(dp3908
g61
I4
ssg62
Nsg55
(lp3909
g48
(g64
g50
NtRp3910
(dp3911
g53
(dp3912
sg62
g3906
sg55
(lp3913
g48
(g69
g50
NtRp3914
(dp3915
g53
(dp3916
sg62
g3910
sg55
(lp3917
g48
(g49
g50
NtRp3918
(dp3919
g53
(dp3920
g61
I4
ssg62
g3914
sg55
(lp3921
g48
(g57
g50
NtRp3922
(dp3923
g53
(dp3924
g61
I3
ssg62
Nsg55
(lp3925
g48
(g64
g50
NtRp3926
(dp3927
g53
(dp3928
sg62
g3922
sg55
(lp3929
g48
(g69
g50
NtRp3930
(dp3931
g53
(dp3932
sg62
g3926
sg55
(lp3933
g48
(g49
g50
NtRp3934
(dp3935
g53
(dp3936
g61
I3
ssg62
g3930
sg55
(lp3937
cgluon.languages
lazyT_unpickle
p3938
(S's\x05\x00\x00\x00Index'
tRp3939
asbasbasbag48
(g64
g50
NtRp3940
(dp3941
g53
(dp3942
sg62
g3922
sg55
(lp3943
g48
(g69
g50
NtRp3944
(dp3945
g53
(dp3946
sg62
g3940
sg55
(lp3947
g48
(g49
g50
NtRp3948
(dp3949
g53
(dp3950
g61
I3
ssg62
g3944
sg55
(lp3951
g1099
asbasbasbag48
(g64
g50
NtRp3952
(dp3953
g53
(dp3954
sg62
g3922
sg55
(lp3955
g48
(g69
g50
NtRp3956
(dp3957
g53
(dp3958
sg62
g3952
sg55
(lp3959
g48
(g49
g50
NtRp3960
(dp3961
g53
(dp3962
g61
I3
ssg62
g3956
sg55
(lp3963
S'/Casa_de_Apuestas/default/index'
p3964
asbasbasbag48
(g64
g50
NtRp3965
(dp3966
g53
(dp3967
sg62
g3922
sg55
(lp3968
g48
(g69
g50
NtRp3969
(dp3970
g53
(dp3971
sg62
g3965
sg55
(lp3972
g48
(g49
g50
NtRp3973
(dp3974
g53
(dp3975
g61
I3
ssg62
g3969
sg55
(lp3976
g48
(g57
g50
NtRp3977
(dp3978
g53
(dp3979
g61
I2
ssg62
Nsg55
(lp3980
sbasbasbasbasbasbasbasbasbasbasbasbag48
(g64
g50
NtRp3981
(dp3982
g53
(dp3983
sg62
g3453
sg55
(lp3984
g48
(g69
g50
NtRp3985
(dp3986
g53
(dp3987
g73
g74
ssg62
g3981
sg55
(lp3988
S'meta'
p3989
asbag48
(g69
g50
NtRp3990
(dp3991
g53
(dp3992
g80
g81
ssg62
g3981
sg55
(lp3993
S':'
asbag48
(g69
g50
NtRp3994
(dp3995
g53
(dp3996
sg62
g3981
sg55
(lp3997
g48
(g49
g50
NtRp3998
(dp3999
g53
(dp4000
g61
I5
ssg62
g3994
sg55
(lp4001
g48
(g57
g50
NtRp4002
(dp4003
g53
(dp4004
g61
I4
ssg62
Nsg55
(lp4005
g48
(g64
g50
NtRp4006
(dp4007
g53
(dp4008
sg62
g4002
sg55
(lp4009
g48
(g69
g50
NtRp4010
(dp4011
g53
(dp4012
g73
g74
ssg62
g4006
sg55
(lp4013
S'author'
p4014
asbag48
(g69
g50
NtRp4015
(dp4016
g53
(dp4017
g80
g81
ssg62
g4006
sg55
(lp4018
S':'
asbag48
(g69
g50
NtRp4019
(dp4020
g53
(dp4021
sg62
g4006
sg55
(lp4022
g48
(g49
g50
NtRp4023
(dp4024
g53
(dp4025
g61
I4
ssg62
g4019
sg55
(lp4026
S'JSG Systems <jsg@example.com>'
p4027
asbasbasbag48
(g64
g50
NtRp4028
(dp4029
g53
(dp4030
sg62
g4002
sg55
(lp4031
g48
(g69
g50
NtRp4032
(dp4033
g53
(dp4034
g73
g74
ssg62
g4028
sg55
(lp4035
S'description'
p4036
asbag48
(g69
g50
NtRp4037
(dp4038
g53
(dp4039
g80
g81
ssg62
g4028
sg55
(lp4040
S':'
asbag48
(g69
g50
NtRp4041
(dp4042
g53
(dp4043
sg62
g4028
sg55
(lp4044
g48
(g49
g50
NtRp4045
(dp4046
g53
(dp4047
g61
I4
ssg62
g4041
sg55
(lp4048
S''
asbasbasbag48
(g64
g50
NtRp4049
(dp4050
g53
(dp4051
sg62
g4002
sg55
(lp4052
g48
(g69
g50
NtRp4053
(dp4054
g53
(dp4055
g73
g74
ssg62
g4049
sg55
(lp4056
S'keywords'
p4057
asbag48
(g69
g50
NtRp4058
(dp4059
g53
(dp4060
g80
g81
ssg62
g4049
sg55
(lp4061
S':'
asbag48
(g69
g50
NtRp4062
(dp4063
g53
(dp4064
sg62
g4049
sg55
(lp4065
g48
(g49
g50
NtRp4066
(dp4067
g53
(dp4068
g61
I4
ssg62
g4062
sg55
(lp4069
S'casa, apuestas'
p4070
asbasbasbasbasbasbasbag48
(g64
g50
NtRp4071
(dp4072
g53
(dp4073
sg62
g3453
sg55
(lp4074
g48
(g69
g50
NtRp4075
(dp4076
g53
(dp4077
g73
g74
ssg62
g4071
sg55
(lp4078
S'postprocessing'
p4079
asbag48
(g69
g50
NtRp4080
(dp4081
g53
(dp4082
g80
g81
ssg62
g4071
sg55
(lp4083
S':'
asbag48
(g69
g50
NtRp4084
(dp4085
g53
(dp4086
sg62
g4071
sg55
(lp4087
g48
(g49
g50
NtRp4088
(dp4089
g53
(dp4090
g61
I5
ssg62
g4084
sg55
(lp4091
g48
(g57
g50
NtRp4092
(dp4093
g53
(dp4094
g61
I4
ssg62
Nsg55
(lp4095
sbasbasbasbag48
(g64
g50
NtRp4096
(dp4097
g53
(dp4098
sg62
g3453
sg55
(lp4099
g48
(g69
g50
NtRp4100
(dp4101
g53
(dp4102
g73
g74
ssg62
g4096
sg55
(lp4103
S'session_file'
p4104
asbag48
(g69
g50
NtRp4105
(dp4106
g53
(dp4107
g80
g81
ssg62
g4096
sg55
(lp4108
S':'
asbag48
(g69
g50
NtRp4109
(dp4110
g53
(dp4111
sg62
g4096
sg55
(lp4112
g48
(g49
g50
NtRp4113
(dp4114
g53
(dp4115
g61
I5
ssg62
g4109
sg55
(lp4116
S"<open file 'C:\\Python32\\web2py_win\\web2py\\applications\\Casa_de_Apuestas\\sessions\\127.0.0.1-b28859fb-172e-488d-8e45-f5879b610d08', mode 'rb+' at 0x0596C4E8>"
p4117
asbasbasbag48
(g64
g50
NtRp4118
(dp4119
g53
(dp4120
sg62
g3453
sg55
(lp4121
g48
(g69
g50
NtRp4122
(dp4123
g53
(dp4124
g73
g74
ssg62
g4118
sg55
(lp4125
S'session_filename'
p4126
asbag48
(g69
g50
NtRp4127
(dp4128
g53
(dp4129
g80
g81
ssg62
g4118
sg55
(lp4130
S':'
asbag48
(g69
g50
NtRp4131
(dp4132
g53
(dp4133
sg62
g4118
sg55
(lp4134
g48
(g49
g50
NtRp4135
(dp4136
g53
(dp4137
g61
I5
ssg62
g4131
sg55
(lp4138
S'C:\\Python32\\web2py_win\\web2py\\applications\\Casa_de_Apuestas\\sessions\\127.0.0.1-b28859fb-172e-488d-8e45-f5879b610d08'
p4139
asbasbasbag48
(g64
g50
NtRp4140
(dp4141
g53
(dp4142
sg62
g3453
sg55
(lp4143
g48
(g69
g50
NtRp4144
(dp4145
g53
(dp4146
g73
g74
ssg62
g4140
sg55
(lp4147
S'session_id'
p4148
asbag48
(g69
g50
NtRp4149
(dp4150
g53
(dp4151
g80
g81
ssg62
g4140
sg55
(lp4152
S':'
asbag48
(g69
g50
NtRp4153
(dp4154
g53
(dp4155
sg62
g4140
sg55
(lp4156
g48
(g49
g50
NtRp4157
(dp4158
g53
(dp4159
g61
I5
ssg62
g4153
sg55
(lp4160
S'127.0.0.1-b28859fb-172e-488d-8e45-f5879b610d08'
p4161
asbasbasbag48
(g64
g50
NtRp4162
(dp4163
g53
(dp4164
sg62
g3453
sg55
(lp4165
g48
(g69
g50
NtRp4166
(dp4167
g53
(dp4168
g73
g74
ssg62
g4162
sg55
(lp4169
S'session_id_name'
p4170
asbag48
(g69
g50
NtRp4171
(dp4172
g53
(dp4173
g80
g81
ssg62
g4162
sg55
(lp4174
S':'
asbag48
(g69
g50
NtRp4175
(dp4176
g53
(dp4177
sg62
g4162
sg55
(lp4178
g48
(g49
g50
NtRp4179
(dp4180
g53
(dp4181
g61
I5
ssg62
g4175
sg55
(lp4182
g3510
asbasbasbag48
(g64
g50
NtRp4183
(dp4184
g53
(dp4185
sg62
g3453
sg55
(lp4186
g48
(g69
g50
NtRp4187
(dp4188
g53
(dp4189
g73
g74
ssg62
g4183
sg55
(lp4190
S'session_locked'
p4191
asbag48
(g69
g50
NtRp4192
(dp4193
g53
(dp4194
g80
g81
ssg62
g4183
sg55
(lp4195
S':'
asbag48
(g69
g50
NtRp4196
(dp4197
g53
(dp4198
sg62
g4183
sg55
(lp4199
g48
(g49
g50
NtRp4200
(dp4201
g53
(dp4202
g61
I5
ssg62
g4196
sg55
(lp4203
g91
asbasbasbag48
(g64
g50
NtRp4204
(dp4205
g53
(dp4206
sg62
g3453
sg55
(lp4207
g48
(g69
g50
NtRp4208
(dp4209
g53
(dp4210
g73
g74
ssg62
g4204
sg55
(lp4211
S'session_new'
p4212
asbag48
(g69
g50
NtRp4213
(dp4214
g53
(dp4215
g80
g81
ssg62
g4204
sg55
(lp4216
S':'
asbag48
(g69
g50
NtRp4217
(dp4218
g53
(dp4219
sg62
g4204
sg55
(lp4220
g48
(g49
g50
NtRp4221
(dp4222
g53
(dp4223
g61
I5
ssg62
g4217
sg55
(lp4224
g1099
asbasbasbag48
(g64
g50
NtRp4225
(dp4226
g53
(dp4227
sg62
g3453
sg55
(lp4228
g48
(g69
g50
NtRp4229
(dp4230
g53
(dp4231
g73
g74
ssg62
g4225
sg55
(lp4232
S'status'
p4233
asbag48
(g69
g50
NtRp4234
(dp4235
g53
(dp4236
g80
g81
ssg62
g4225
sg55
(lp4237
S':'
asbag48
(g69
g50
NtRp4238
(dp4239
g53
(dp4240
sg62
g4225
sg55
(lp4241
g48
(g49
g50
NtRp4242
(dp4243
g53
(dp4244
g61
I5
ssg62
g4238
sg55
(lp4245
S'200'
p4246
asbasbasbag48
(g64
g50
NtRp4247
(dp4248
g53
(dp4249
sg62
g3453
sg55
(lp4250
g48
(g69
g50
NtRp4251
(dp4252
g53
(dp4253
g73
g74
ssg62
g4247
sg55
(lp4254
S'subtitle'
p4255
asbag48
(g69
g50
NtRp4256
(dp4257
g53
(dp4258
g80
g81
ssg62
g4247
sg55
(lp4259
S':'
asbag48
(g69
g50
NtRp4260
(dp4261
g53
(dp4262
sg62
g4247
sg55
(lp4263
g48
(g49
g50
NtRp4264
(dp4265
g53
(dp4266
g61
I5
ssg62
g4260
sg55
(lp4267
S''
asbasbasbag48
(g64
g50
NtRp4268
(dp4269
g53
(dp4270
sg62
g3453
sg55
(lp4271
g48
(g69
g50
NtRp4272
(dp4273
g53
(dp4274
g73
g74
ssg62
g4268
sg55
(lp4275
S'title'
p4276
asbag48
(g69
g50
NtRp4277
(dp4278
g53
(dp4279
g80
g81
ssg62
g4268
sg55
(lp4280
S':'
asbag48
(g69
g50
NtRp4281
(dp4282
g53
(dp4283
sg62
g4268
sg55
(lp4284
g48
(g49
g50
NtRp4285
(dp4286
g53
(dp4287
g61
I5
ssg62
g4281
sg55
(lp4288
S'Casa de Apuestas'
p4289
asbasbasbag48
(g64
g50
NtRp4290
(dp4291
g53
(dp4292
sg62
g3453
sg55
(lp4293
g48
(g69
g50
NtRp4294
(dp4295
g53
(dp4296
g73
g74
ssg62
g4290
sg55
(lp4297
g2547
asbag48
(g69
g50
NtRp4298
(dp4299
g53
(dp4300
g80
g81
ssg62
g4290
sg55
(lp4301
S':'
asbag48
(g69
g50
NtRp4302
(dp4303
g53
(dp4304
sg62
g4290
sg55
(lp4305
g48
(g49
g50
NtRp4306
(dp4307
g53
(dp4308
g61
I5
ssg62
g4302
sg55
(lp4309
g2560
asbasbasbag48
(g64
g50
NtRp4310
(dp4311
g53
(dp4312
sg62
g3453
sg55
(lp4313
g48
(g69
g50
NtRp4314
(dp4315
g53
(dp4316
g73
g74
ssg62
g4310
sg55
(lp4317
S'view'
p4318
asbag48
(g69
g50
NtRp4319
(dp4320
g53
(dp4321
g80
g81
ssg62
g4310
sg55
(lp4322
S':'
asbag48
(g69
g50
NtRp4323
(dp4324
g53
(dp4325
sg62
g4310
sg55
(lp4326
g48
(g49
g50
NtRp4327
(dp4328
g53
(dp4329
g61
I5
ssg62
g4323
sg55
(lp4330
S'default/obtenerCategoria.html'
p4331
asbasbasbasbasbsS'locals'
p4332
(dp4333
S'self'
p4334
S"<Row {'eventos': <gluon.dal.Set object at 0x05FB...lete_record': <function <lambda> at 0x05DBF2F0>}>"
p4335
sS'm'
S'None'
p4336
sS'key'
p4337
S"'name'"
p4338
sssS'traceback'
p4339
S'Traceback (most recent call last):\n  File "gluon/restricted.py", line 194, in restricted\n  File "C:\\Python32\\web2py_win\\web2py\\applications\\Casa_de_Apuestas\\controllers/default.py", line 206, in <module>\n  File "gluon/globals.py", line 149, in <lambda>\n  File "C:\\Python32\\web2py_win\\web2py\\applications\\Casa_de_Apuestas\\controllers/default.py", line 51, in obtenerCategoria\n  File "gluon/dal.py", line 3851, in __getattr__\n  File "gluon/dal.py", line 3842, in __getitem__\nKeyError: \'name\'\n'
p4340
s.