(dp1
S'output'
p2
S''
sS'layer'
p3
S'C:\\Python32\\web2py\\applications\\Casa_de_Apuestas\\models\\db.py'
p4
sS'code'
p5
S"# -*- coding: utf-8 -*-\n\n#########################################################################\n## This scaffolding model makes your app work on Google App Engine too\n## File is released under public domain and you can use without limitations\n#########################################################################\n\nif not request.env.web2py_runtime_gae:     \n    ## if NOT running on Google App Engine use SQLite or other DB\n    db = DAL('sqlite://storage.sqlite')\n    db.define_table('categorias',\n        Field('nombre'),\n        Field('descripcion', 'text'))\n    db.define_table('eventos',    \n       Field('categoria_id', db.categorias),\n       Field('nombre'),\n       Field('fecha','date'),\n       Field('descripcion', 'text'),\n       Field('relacionpago','string'))\n  ##  db.image.title.requires = IS_NOT_IN_DB(db, db.image.title)\n  \n    db.define_table('participantes',\n        Field('nombre'),\n        Field('descripcion','text')\n    )\n    \n    db.define_table('eventosparticipantes',\n        Field('eventos_id',db.eventos),\n        Field('participantes_id',db.participantes),\n        Field('limite_apuesta','integer'),\n        primarykey=['eventos_id','participantes_id']\n\n    )\n    \n    db.define_table('usuarios',\n        Field('nombre'),\n        Field('apellido'),\n        Field('correo'),\n        Field('password','password')\n    )\n    \n    db.define_table('maquinas',\n        Field('usuario_id',db.usuarios),\n        Field('estado','boolean'),\n        Field('ubicacion','string'),\n        Field('anho','integer'),\n        Field('descripcion','text')\n    )\n    \n      \n  \n    db.eventos.categoria_id.requires = IS_IN_DB(db, db.categorias.id, '%(nombre)s')\n    db.eventos.nombre.requires = IS_NOT_EMPTY()\n    db.eventos.fecha.requires = IS_NOT_EMPTY()\n    db.eventos.descripcion.requires = IS_NOT_EMPTY()\n    db.eventos.relacionpago.requires = IS_NOT_EMPTY()\n    \n    \n    db.participantes.nombre.requires = IS_NOT_EMPTY()\n    db.participantes.descripcion.requires = IS_NOT_EMPTY()\n    \n    db.eventosparticipantes.eventos_id.requires = IS_IN_DB(db, db.eventos.id, '%(nombre)s')\n    db.eventosparticipantes.participantes_id.requires = IS_IN_DB(db, db.participantes.id, '%(nombre)s')\n    \n    db.usuarios.nombre.requires = IS_NOT_EMPTY()\n    db.usuarios.apellido.requires = IS_NOT_EMPTY()\n    db.usuarios.correo.requires = IS_NOT_EMPTY()\n    db.usuarios.correo.requires = IS_EMAIL()    \n    db.usuarios.password.requires = IS_NOT_EMPTY()\n    \n    db.maquinas.usuario_id.requires = IS_IN_DB(db, db.usuarios.id, '%(correo)s')\n    db.maquinas.estado.requires = IS_NOT_EMPTY()    \n    db.maquinas.ubicacion.requires = IS_NOT_EMPTY()\n    db.maquinas.anho.requires = IS_NOT_EMPTY()\n    db.maquinas.descripcion.requires = IS_NOT_EMPTY() \nelse:\n    ## connect to Google BigTable (optional 'google:datastore://namespace')\n    db = DAL('google:datastore') \n    ## store sessions and tickets there\n    session.connect(request, response, db = db) \n    ## or store session in Memcache, Redis, etc.\n    ## from gluon.contrib.memdb import MEMDB\n    ## from google.appengine.api.memcache import Client\n    ## session.connect(request, response, db = MEMDB(Client()))\n\n## by default give a view/generic.extension to all actions from localhost\n## none otherwise. a pattern can be 'controller/function.extension'\nresponse.generic_patterns = ['*'] if request.is_local else []\n\n#########################################################################\n## Here is sample code if you need for\n## - email capabilities\n## - authentication (registration, login, logout, ... )\n## - authorization (role based authorization)\n## - services (xml, csv, json, xmlrpc, jsonrpc, amf, rss)\n## - old style crud actions\n## (more options discussed in gluon/tools.py)\n#########################################################################\n\nfrom gluon.tools import Auth, Crud, Service, PluginManager, prettydate\nauth = Auth(db, hmac_key=Auth.get_or_create_key()) \ncrud, service, plugins = Crud(db), Service(), PluginManager()\n\n## create all tables needed by auth if not custom tables\n\n########################################\ndb.define_table('auth_user',\n    Field('username', type='string',\n          label=T('Username')),\n    Field('first_name', type='string',\n          label=T('First Name')),\n    Field('last_name', type='string',\n          label=T('Last Name')),\n    Field('email', type='string',\n          label=T('Email')),\n    Field('password', type='password',\n          readable=False,\n          label=T('Password')),\n    Field('created_on','datetime',default=request.now,\n          label=T('Created On'),writable=False,readable=False),\n    Field('modified_on','datetime',default=request.now,\n          label=T('Modified On'),writable=False,readable=False,\n          update=request.now),\n    Field('registration_key',default='',\n          writable=False,readable=False),\n    Field('reset_password_key',default='',\n          writable=False,readable=False),\n    Field('registration_id',default='',\n          writable=False,readable=False),\n    format='%(username)s',\n    migrate=settings.migrate)\n\n\ndb.auth_user.first_name.requires = IS_NOT_EMPTY(error_message=auth.messages.is_empty)\ndb.auth_user.last_name.requires = IS_NOT_EMPTY(error_message=auth.messages.is_empty)\ndb.auth_user.password.requires = CRYPT(key=auth.settings.hmac_key)\ndb.auth_user.username.requires = IS_NOT_IN_DB(db, db.auth_user.username)\ndb.auth_user.registration_id.requires = IS_NOT_IN_DB(db, db.auth_user.registration_id)\ndb.auth_user.email.requires = (IS_EMAIL(error_message=auth.messages.invalid_email),\n                               IS_NOT_IN_DB(db, db.auth_user.email))\nauth.define_tables(migrate = settings.migrate) \n\n## configure email\nmail=auth.settings.mailer\nmail.settings.server = 'logging' or 'smtp.gmail.com:587'\nmail.settings.sender = 'you@gmail.com'\nmail.settings.login = 'username:password'\n\n## configure auth policy\nauth.settings.registration_requires_verification = False\nauth.settings.registration_requires_approval = False\nauth.settings.reset_password_requires_verification = True\n\n## if you need to use OpenID, Facebook, MySpace, Twitter, Linkedin, etc.\n## register with janrain.com, write your domain:api_key in private/janrain.key\nfrom gluon.contrib.login_methods.rpx_account import use_janrain\nuse_janrain(auth,filename='private/janrain.key')\n\n#########################################################################\n## Define your tables below (or better in another model file) for example\n##\n## >>> db.define_table('mytable',Field('myfield','string'))\n##\n## Fields can be 'string','text','password','integer','double','boolean'\n##       'date','time','datetime','blob','upload', 'reference TABLENAME'\n## There is an implicit 'id integer autoincrement' field\n## Consult manual for more options, validators, etc.\n##\n## More API examples for controllers:\n##\n## >>> db.mytable.insert(myfield='value')\n## >>> rows=db(db.mytable.myfield=='value').select(db.mytable.ALL)\n## >>> for row in rows: print row.id, row.myfield\n#########################################################################\n\nmail.settings.server = settings.email_server\nmail.settings.sender = settings.email_sender\nmail.settings.login = settings.email_login\n"
p6
sS'snapshot'
p7
(dp8
S'exception'
p9
(dp10
S'__hash__'
p11
S"<method-wrapper '__hash__' of exceptions.ValueError object at 0x063EBFD0>"
p12
sS'__setattr__'
p13
S"<method-wrapper '__setattr__' of exceptions.ValueError object at 0x063EBFD0>"
p14
sS'__reduce_ex__'
p15
S'<built-in method __reduce_ex__ of exceptions.ValueError object at 0x063EBFD0>'
p16
sS'__getslice__'
p17
S"<method-wrapper '__getslice__' of exceptions.ValueError object at 0x063EBFD0>"
p18
sS'__getitem__'
p19
S"<method-wrapper '__getitem__' of exceptions.ValueError object at 0x063EBFD0>"
p20
sS'__setstate__'
p21
S'<built-in method __setstate__ of exceptions.ValueError object at 0x063EBFD0>'
p22
sS'__reduce__'
p23
S'<built-in method __reduce__ of exceptions.ValueError object at 0x063EBFD0>'
p24
sS'__str__'
p25
S"<method-wrapper '__str__' of exceptions.ValueError object at 0x063EBFD0>"
p26
sS'args'
p27
S"('need more than 1 value to unpack',)"
p28
sS'__getattribute__'
p29
S"<method-wrapper '__getattribute__' of exceptions.ValueError object at 0x063EBFD0>"
p30
sS'__class__'
p31
S"<type 'exceptions.ValueError'>"
p32
sS'__delattr__'
p33
S"<method-wrapper '__delattr__' of exceptions.ValueError object at 0x063EBFD0>"
p34
sS'__repr__'
p35
S"<method-wrapper '__repr__' of exceptions.ValueError object at 0x063EBFD0>"
p36
sS'__dict__'
p37
S'{}'
p38
sS'__doc__'
p39
S"'Inappropriate argument value (of correct type).'"
p40
sS'__init__'
p41
S"<method-wrapper '__init__' of exceptions.ValueError object at 0x063EBFD0>"
p42
sS'__new__'
p43
S'<built-in method __new__ of type object at 0x1E1CE080>'
p44
ssS'evalue'
p45
S'need more than 1 value to unpack'
p46
sS'request'
p47
ccopy_reg
_reconstructor
p48
(cgluon.html
BEAUTIFY
p49
c__builtin__
object
p50
NtRp51
(dp52
S'attributes'
p53
(dp54
sS'components'
p55
(lp56
g48
(cgluon.html
TABLE
p57
g50
NtRp58
(dp59
g53
(dp60
S'level'
p61
I5
ssS'parent'
p62
Nsg55
(lp63
g48
(cgluon.html
TR
p64
g50
NtRp65
(dp66
g53
(dp67
sg62
g58
sg55
(lp68
g48
(cgluon.html
TD
p69
g50
NtRp70
(dp71
g53
(dp72
S'_style'
p73
S'font-weight:bold;'
p74
ssg62
g65
sg55
(lp75
S'ajax'
p76
asbag48
(g69
g50
NtRp77
(dp78
g53
(dp79
S'_valign'
p80
S'top'
p81
ssg62
g65
sg55
(lp82
S':'
asbag48
(g69
g50
NtRp83
(dp84
g53
(dp85
sg62
g65
sg55
(lp86
g48
(g49
g50
NtRp87
(dp88
g53
(dp89
g61
I5
ssg62
g83
sg55
(lp90
S'False'
p91
asbasbasbag48
(g64
g50
NtRp92
(dp93
g53
(dp94
sg62
g58
sg55
(lp95
g48
(g69
g50
NtRp96
(dp97
g53
(dp98
g73
g74
ssg62
g92
sg55
(lp99
S'application'
p100
asbag48
(g69
g50
NtRp101
(dp102
g53
(dp103
g80
g81
ssg62
g92
sg55
(lp104
S':'
asbag48
(g69
g50
NtRp105
(dp106
g53
(dp107
sg62
g92
sg55
(lp108
g48
(g49
g50
NtRp109
(dp110
g53
(dp111
g61
I5
ssg62
g105
sg55
(lp112
S'Casa_de_Apuestas'
p113
asbasbasbag48
(g64
g50
NtRp114
(dp115
g53
(dp116
sg62
g58
sg55
(lp117
g48
(g69
g50
NtRp118
(dp119
g53
(dp120
g73
g74
ssg62
g114
sg55
(lp121
g27
asbag48
(g69
g50
NtRp122
(dp123
g53
(dp124
g80
g81
ssg62
g114
sg55
(lp125
S':'
asbag48
(g69
g50
NtRp126
(dp127
g53
(dp128
sg62
g114
sg55
(lp129
g48
(g49
g50
NtRp130
(dp131
g53
(dp132
g61
I5
ssg62
g126
sg55
(lp133
g48
(g57
g50
NtRp134
(dp135
g53
(dp136
g61
I4
ssg62
Nsg55
(lp137
g48
(g64
g50
NtRp138
(dp139
g53
(dp140
sg62
g134
sg55
(lp141
g48
(g69
g50
NtRp142
(dp143
g53
(dp144
sg62
g138
sg55
(lp145
g48
(g49
g50
NtRp146
(dp147
g53
(dp148
g61
I4
ssg62
g142
sg55
(lp149
S'db'
p150
asbasbasbag48
(g64
g50
NtRp151
(dp152
g53
(dp153
sg62
g134
sg55
(lp154
g48
(g69
g50
NtRp155
(dp156
g53
(dp157
sg62
g151
sg55
(lp158
g48
(g49
g50
NtRp159
(dp160
g53
(dp161
g61
I4
ssg62
g155
sg55
(lp162
S'eventosparticipantes'
p163
asbasbasbasbasbasbasbag48
(g64
g50
NtRp164
(dp165
g53
(dp166
sg62
g58
sg55
(lp167
g48
(g69
g50
NtRp168
(dp169
g53
(dp170
g73
g74
ssg62
g164
sg55
(lp171
S'body'
p172
asbag48
(g69
g50
NtRp173
(dp174
g53
(dp175
g80
g81
ssg62
g164
sg55
(lp176
S':'
asbag48
(g69
g50
NtRp177
(dp178
g53
(dp179
sg62
g164
sg55
(lp180
g48
(g49
g50
NtRp181
(dp182
g53
(dp183
g61
I5
ssg62
g177
sg55
(lp184
S'<cStringIO.StringO object at 0x067FB580>'
p185
asbasbasbag48
(g64
g50
NtRp186
(dp187
g53
(dp188
sg62
g58
sg55
(lp189
g48
(g69
g50
NtRp190
(dp191
g53
(dp192
g73
g74
ssg62
g186
sg55
(lp193
S'client'
p194
asbag48
(g69
g50
NtRp195
(dp196
g53
(dp197
g80
g81
ssg62
g186
sg55
(lp198
S':'
asbag48
(g69
g50
NtRp199
(dp200
g53
(dp201
sg62
g186
sg55
(lp202
g48
(g49
g50
NtRp203
(dp204
g53
(dp205
g61
I5
ssg62
g199
sg55
(lp206
S'127.0.0.1'
p207
asbasbasbag48
(g64
g50
NtRp208
(dp209
g53
(dp210
sg62
g58
sg55
(lp211
g48
(g69
g50
NtRp212
(dp213
g53
(dp214
g73
g74
ssg62
g208
sg55
(lp215
S'controller'
p216
asbag48
(g69
g50
NtRp217
(dp218
g53
(dp219
g80
g81
ssg62
g208
sg55
(lp220
S':'
asbag48
(g69
g50
NtRp221
(dp222
g53
(dp223
sg62
g208
sg55
(lp224
g48
(g49
g50
NtRp225
(dp226
g53
(dp227
g61
I5
ssg62
g221
sg55
(lp228
S'appadmin'
p229
asbasbasbag48
(g64
g50
NtRp230
(dp231
g53
(dp232
sg62
g58
sg55
(lp233
g48
(g69
g50
NtRp234
(dp235
g53
(dp236
g73
g74
ssg62
g230
sg55
(lp237
S'cookies'
p238
asbag48
(g69
g50
NtRp239
(dp240
g53
(dp241
g80
g81
ssg62
g230
sg55
(lp242
S':'
asbag48
(g69
g50
NtRp243
(dp244
g53
(dp245
sg62
g230
sg55
(lp246
g48
(g49
g50
NtRp247
(dp248
g53
(dp249
g61
I5
ssg62
g243
sg55
(lp250
g48
(g57
g50
NtRp251
(dp252
g53
(dp253
g61
I4
ssg62
Nsg55
(lp254
g48
(g64
g50
NtRp255
(dp256
g53
(dp257
sg62
g251
sg55
(lp258
g48
(g69
g50
NtRp259
(dp260
g53
(dp261
g73
g74
ssg62
g255
sg55
(lp262
S'session_id_admin'
p263
asbag48
(g69
g50
NtRp264
(dp265
g53
(dp266
g80
g81
ssg62
g255
sg55
(lp267
S':'
asbag48
(g69
g50
NtRp268
(dp269
g53
(dp270
sg62
g255
sg55
(lp271
g48
(g49
g50
NtRp272
(dp273
g53
(dp274
g61
I4
ssg62
g268
sg55
(lp275
g48
(g57
g50
NtRp276
(dp277
g53
(dp278
g61
I3
ssg62
Nsg55
(lp279
g48
(g64
g50
NtRp280
(dp281
g53
(dp282
sg62
g276
sg55
(lp283
g48
(g69
g50
NtRp284
(dp285
g53
(dp286
g73
g74
ssg62
g280
sg55
(lp287
S'comment'
p288
asbag48
(g69
g50
NtRp289
(dp290
g53
(dp291
g80
g81
ssg62
g280
sg55
(lp292
S':'
asbag48
(g69
g50
NtRp293
(dp294
g53
(dp295
sg62
g280
sg55
(lp296
g48
(g49
g50
NtRp297
(dp298
g53
(dp299
g61
I3
ssg62
g293
sg55
(lp300
S''
asbasbasbag48
(g64
g50
NtRp301
(dp302
g53
(dp303
sg62
g276
sg55
(lp304
g48
(g69
g50
NtRp305
(dp306
g53
(dp307
g73
g74
ssg62
g301
sg55
(lp308
S'domain'
p309
asbag48
(g69
g50
NtRp310
(dp311
g53
(dp312
g80
g81
ssg62
g301
sg55
(lp313
S':'
asbag48
(g69
g50
NtRp314
(dp315
g53
(dp316
sg62
g301
sg55
(lp317
g48
(g49
g50
NtRp318
(dp319
g53
(dp320
g61
I3
ssg62
g314
sg55
(lp321
S''
asbasbasbag48
(g64
g50
NtRp322
(dp323
g53
(dp324
sg62
g276
sg55
(lp325
g48
(g69
g50
NtRp326
(dp327
g53
(dp328
g73
g74
ssg62
g322
sg55
(lp329
S'expires'
p330
asbag48
(g69
g50
NtRp331
(dp332
g53
(dp333
g80
g81
ssg62
g322
sg55
(lp334
S':'
asbag48
(g69
g50
NtRp335
(dp336
g53
(dp337
sg62
g322
sg55
(lp338
g48
(g49
g50
NtRp339
(dp340
g53
(dp341
g61
I3
ssg62
g335
sg55
(lp342
S''
asbasbasbag48
(g64
g50
NtRp343
(dp344
g53
(dp345
sg62
g276
sg55
(lp346
g48
(g69
g50
NtRp347
(dp348
g53
(dp349
g73
g74
ssg62
g343
sg55
(lp350
S'max-age'
p351
asbag48
(g69
g50
NtRp352
(dp353
g53
(dp354
g80
g81
ssg62
g343
sg55
(lp355
S':'
asbag48
(g69
g50
NtRp356
(dp357
g53
(dp358
sg62
g343
sg55
(lp359
g48
(g49
g50
NtRp360
(dp361
g53
(dp362
g61
I3
ssg62
g356
sg55
(lp363
S''
asbasbasbag48
(g64
g50
NtRp364
(dp365
g53
(dp366
sg62
g276
sg55
(lp367
g48
(g69
g50
NtRp368
(dp369
g53
(dp370
g73
g74
ssg62
g364
sg55
(lp371
S'path'
p372
asbag48
(g69
g50
NtRp373
(dp374
g53
(dp375
g80
g81
ssg62
g364
sg55
(lp376
S':'
asbag48
(g69
g50
NtRp377
(dp378
g53
(dp379
sg62
g364
sg55
(lp380
g48
(g49
g50
NtRp381
(dp382
g53
(dp383
g61
I3
ssg62
g377
sg55
(lp384
S''
asbasbasbag48
(g64
g50
NtRp385
(dp386
g53
(dp387
sg62
g276
sg55
(lp388
g48
(g69
g50
NtRp389
(dp390
g53
(dp391
g73
g74
ssg62
g385
sg55
(lp392
S'secure'
p393
asbag48
(g69
g50
NtRp394
(dp395
g53
(dp396
g80
g81
ssg62
g385
sg55
(lp397
S':'
asbag48
(g69
g50
NtRp398
(dp399
g53
(dp400
sg62
g385
sg55
(lp401
g48
(g49
g50
NtRp402
(dp403
g53
(dp404
g61
I3
ssg62
g398
sg55
(lp405
S''
asbasbasbag48
(g64
g50
NtRp406
(dp407
g53
(dp408
sg62
g276
sg55
(lp409
g48
(g69
g50
NtRp410
(dp411
g53
(dp412
g73
g74
ssg62
g406
sg55
(lp413
S'version'
p414
asbag48
(g69
g50
NtRp415
(dp416
g53
(dp417
g80
g81
ssg62
g406
sg55
(lp418
S':'
asbag48
(g69
g50
NtRp419
(dp420
g53
(dp421
sg62
g406
sg55
(lp422
g48
(g49
g50
NtRp423
(dp424
g53
(dp425
g61
I3
ssg62
g419
sg55
(lp426
S''
asbasbasbasbasbasbasbag48
(g64
g50
NtRp427
(dp428
g53
(dp429
sg62
g251
sg55
(lp430
g48
(g69
g50
NtRp431
(dp432
g53
(dp433
g73
g74
ssg62
g427
sg55
(lp434
S'session_id_casa_de_apuestas'
p435
asbag48
(g69
g50
NtRp436
(dp437
g53
(dp438
g80
g81
ssg62
g427
sg55
(lp439
S':'
asbag48
(g69
g50
NtRp440
(dp441
g53
(dp442
sg62
g427
sg55
(lp443
g48
(g49
g50
NtRp444
(dp445
g53
(dp446
g61
I4
ssg62
g440
sg55
(lp447
g48
(g57
g50
NtRp448
(dp449
g53
(dp450
g61
I3
ssg62
Nsg55
(lp451
g48
(g64
g50
NtRp452
(dp453
g53
(dp454
sg62
g448
sg55
(lp455
g48
(g69
g50
NtRp456
(dp457
g53
(dp458
g73
g74
ssg62
g452
sg55
(lp459
g288
asbag48
(g69
g50
NtRp460
(dp461
g53
(dp462
g80
g81
ssg62
g452
sg55
(lp463
S':'
asbag48
(g69
g50
NtRp464
(dp465
g53
(dp466
sg62
g452
sg55
(lp467
g48
(g49
g50
NtRp468
(dp469
g53
(dp470
g61
I3
ssg62
g464
sg55
(lp471
S''
asbasbasbag48
(g64
g50
NtRp472
(dp473
g53
(dp474
sg62
g448
sg55
(lp475
g48
(g69
g50
NtRp476
(dp477
g53
(dp478
g73
g74
ssg62
g472
sg55
(lp479
g309
asbag48
(g69
g50
NtRp480
(dp481
g53
(dp482
g80
g81
ssg62
g472
sg55
(lp483
S':'
asbag48
(g69
g50
NtRp484
(dp485
g53
(dp486
sg62
g472
sg55
(lp487
g48
(g49
g50
NtRp488
(dp489
g53
(dp490
g61
I3
ssg62
g484
sg55
(lp491
S''
asbasbasbag48
(g64
g50
NtRp492
(dp493
g53
(dp494
sg62
g448
sg55
(lp495
g48
(g69
g50
NtRp496
(dp497
g53
(dp498
g73
g74
ssg62
g492
sg55
(lp499
g330
asbag48
(g69
g50
NtRp500
(dp501
g53
(dp502
g80
g81
ssg62
g492
sg55
(lp503
S':'
asbag48
(g69
g50
NtRp504
(dp505
g53
(dp506
sg62
g492
sg55
(lp507
g48
(g49
g50
NtRp508
(dp509
g53
(dp510
g61
I3
ssg62
g504
sg55
(lp511
S''
asbasbasbag48
(g64
g50
NtRp512
(dp513
g53
(dp514
sg62
g448
sg55
(lp515
g48
(g69
g50
NtRp516
(dp517
g53
(dp518
g73
g74
ssg62
g512
sg55
(lp519
g351
asbag48
(g69
g50
NtRp520
(dp521
g53
(dp522
g80
g81
ssg62
g512
sg55
(lp523
S':'
asbag48
(g69
g50
NtRp524
(dp525
g53
(dp526
sg62
g512
sg55
(lp527
g48
(g49
g50
NtRp528
(dp529
g53
(dp530
g61
I3
ssg62
g524
sg55
(lp531
S''
asbasbasbag48
(g64
g50
NtRp532
(dp533
g53
(dp534
sg62
g448
sg55
(lp535
g48
(g69
g50
NtRp536
(dp537
g53
(dp538
g73
g74
ssg62
g532
sg55
(lp539
g372
asbag48
(g69
g50
NtRp540
(dp541
g53
(dp542
g80
g81
ssg62
g532
sg55
(lp543
S':'
asbag48
(g69
g50
NtRp544
(dp545
g53
(dp546
sg62
g532
sg55
(lp547
g48
(g49
g50
NtRp548
(dp549
g53
(dp550
g61
I3
ssg62
g544
sg55
(lp551
S''
asbasbasbag48
(g64
g50
NtRp552
(dp553
g53
(dp554
sg62
g448
sg55
(lp555
g48
(g69
g50
NtRp556
(dp557
g53
(dp558
g73
g74
ssg62
g552
sg55
(lp559
g393
asbag48
(g69
g50
NtRp560
(dp561
g53
(dp562
g80
g81
ssg62
g552
sg55
(lp563
S':'
asbag48
(g69
g50
NtRp564
(dp565
g53
(dp566
sg62
g552
sg55
(lp567
g48
(g49
g50
NtRp568
(dp569
g53
(dp570
g61
I3
ssg62
g564
sg55
(lp571
S''
asbasbasbag48
(g64
g50
NtRp572
(dp573
g53
(dp574
sg62
g448
sg55
(lp575
g48
(g69
g50
NtRp576
(dp577
g53
(dp578
g73
g74
ssg62
g572
sg55
(lp579
g414
asbag48
(g69
g50
NtRp580
(dp581
g53
(dp582
g80
g81
ssg62
g572
sg55
(lp583
S':'
asbag48
(g69
g50
NtRp584
(dp585
g53
(dp586
sg62
g572
sg55
(lp587
g48
(g49
g50
NtRp588
(dp589
g53
(dp590
g61
I3
ssg62
g584
sg55
(lp591
S''
asbasbasbasbasbasbasbag48
(g64
g50
NtRp592
(dp593
g53
(dp594
sg62
g251
sg55
(lp595
g48
(g69
g50
NtRp596
(dp597
g53
(dp598
g73
g74
ssg62
g592
sg55
(lp599
S'session_id_images'
p600
asbag48
(g69
g50
NtRp601
(dp602
g53
(dp603
g80
g81
ssg62
g592
sg55
(lp604
S':'
asbag48
(g69
g50
NtRp605
(dp606
g53
(dp607
sg62
g592
sg55
(lp608
g48
(g49
g50
NtRp609
(dp610
g53
(dp611
g61
I4
ssg62
g605
sg55
(lp612
g48
(g57
g50
NtRp613
(dp614
g53
(dp615
g61
I3
ssg62
Nsg55
(lp616
g48
(g64
g50
NtRp617
(dp618
g53
(dp619
sg62
g613
sg55
(lp620
g48
(g69
g50
NtRp621
(dp622
g53
(dp623
g73
g74
ssg62
g617
sg55
(lp624
g288
asbag48
(g69
g50
NtRp625
(dp626
g53
(dp627
g80
g81
ssg62
g617
sg55
(lp628
S':'
asbag48
(g69
g50
NtRp629
(dp630
g53
(dp631
sg62
g617
sg55
(lp632
g48
(g49
g50
NtRp633
(dp634
g53
(dp635
g61
I3
ssg62
g629
sg55
(lp636
S''
asbasbasbag48
(g64
g50
NtRp637
(dp638
g53
(dp639
sg62
g613
sg55
(lp640
g48
(g69
g50
NtRp641
(dp642
g53
(dp643
g73
g74
ssg62
g637
sg55
(lp644
g309
asbag48
(g69
g50
NtRp645
(dp646
g53
(dp647
g80
g81
ssg62
g637
sg55
(lp648
S':'
asbag48
(g69
g50
NtRp649
(dp650
g53
(dp651
sg62
g637
sg55
(lp652
g48
(g49
g50
NtRp653
(dp654
g53
(dp655
g61
I3
ssg62
g649
sg55
(lp656
S''
asbasbasbag48
(g64
g50
NtRp657
(dp658
g53
(dp659
sg62
g613
sg55
(lp660
g48
(g69
g50
NtRp661
(dp662
g53
(dp663
g73
g74
ssg62
g657
sg55
(lp664
g330
asbag48
(g69
g50
NtRp665
(dp666
g53
(dp667
g80
g81
ssg62
g657
sg55
(lp668
S':'
asbag48
(g69
g50
NtRp669
(dp670
g53
(dp671
sg62
g657
sg55
(lp672
g48
(g49
g50
NtRp673
(dp674
g53
(dp675
g61
I3
ssg62
g669
sg55
(lp676
S''
asbasbasbag48
(g64
g50
NtRp677
(dp678
g53
(dp679
sg62
g613
sg55
(lp680
g48
(g69
g50
NtRp681
(dp682
g53
(dp683
g73
g74
ssg62
g677
sg55
(lp684
g351
asbag48
(g69
g50
NtRp685
(dp686
g53
(dp687
g80
g81
ssg62
g677
sg55
(lp688
S':'
asbag48
(g69
g50
NtRp689
(dp690
g53
(dp691
sg62
g677
sg55
(lp692
g48
(g49
g50
NtRp693
(dp694
g53
(dp695
g61
I3
ssg62
g689
sg55
(lp696
S''
asbasbasbag48
(g64
g50
NtRp697
(dp698
g53
(dp699
sg62
g613
sg55
(lp700
g48
(g69
g50
NtRp701
(dp702
g53
(dp703
g73
g74
ssg62
g697
sg55
(lp704
g372
asbag48
(g69
g50
NtRp705
(dp706
g53
(dp707
g80
g81
ssg62
g697
sg55
(lp708
S':'
asbag48
(g69
g50
NtRp709
(dp710
g53
(dp711
sg62
g697
sg55
(lp712
g48
(g49
g50
NtRp713
(dp714
g53
(dp715
g61
I3
ssg62
g709
sg55
(lp716
S''
asbasbasbag48
(g64
g50
NtRp717
(dp718
g53
(dp719
sg62
g613
sg55
(lp720
g48
(g69
g50
NtRp721
(dp722
g53
(dp723
g73
g74
ssg62
g717
sg55
(lp724
g393
asbag48
(g69
g50
NtRp725
(dp726
g53
(dp727
g80
g81
ssg62
g717
sg55
(lp728
S':'
asbag48
(g69
g50
NtRp729
(dp730
g53
(dp731
sg62
g717
sg55
(lp732
g48
(g49
g50
NtRp733
(dp734
g53
(dp735
g61
I3
ssg62
g729
sg55
(lp736
S''
asbasbasbag48
(g64
g50
NtRp737
(dp738
g53
(dp739
sg62
g613
sg55
(lp740
g48
(g69
g50
NtRp741
(dp742
g53
(dp743
g73
g74
ssg62
g737
sg55
(lp744
g414
asbag48
(g69
g50
NtRp745
(dp746
g53
(dp747
g80
g81
ssg62
g737
sg55
(lp748
S':'
asbag48
(g69
g50
NtRp749
(dp750
g53
(dp751
sg62
g737
sg55
(lp752
g48
(g49
g50
NtRp753
(dp754
g53
(dp755
g61
I3
ssg62
g749
sg55
(lp756
S''
asbasbasbasbasbasbasbag48
(g64
g50
NtRp757
(dp758
g53
(dp759
sg62
g251
sg55
(lp760
g48
(g69
g50
NtRp761
(dp762
g53
(dp763
g73
g74
ssg62
g757
sg55
(lp764
S'session_id_welcome'
p765
asbag48
(g69
g50
NtRp766
(dp767
g53
(dp768
g80
g81
ssg62
g757
sg55
(lp769
S':'
asbag48
(g69
g50
NtRp770
(dp771
g53
(dp772
sg62
g757
sg55
(lp773
g48
(g49
g50
NtRp774
(dp775
g53
(dp776
g61
I4
ssg62
g770
sg55
(lp777
g48
(g57
g50
NtRp778
(dp779
g53
(dp780
g61
I3
ssg62
Nsg55
(lp781
g48
(g64
g50
NtRp782
(dp783
g53
(dp784
sg62
g778
sg55
(lp785
g48
(g69
g50
NtRp786
(dp787
g53
(dp788
g73
g74
ssg62
g782
sg55
(lp789
g288
asbag48
(g69
g50
NtRp790
(dp791
g53
(dp792
g80
g81
ssg62
g782
sg55
(lp793
S':'
asbag48
(g69
g50
NtRp794
(dp795
g53
(dp796
sg62
g782
sg55
(lp797
g48
(g49
g50
NtRp798
(dp799
g53
(dp800
g61
I3
ssg62
g794
sg55
(lp801
S''
asbasbasbag48
(g64
g50
NtRp802
(dp803
g53
(dp804
sg62
g778
sg55
(lp805
g48
(g69
g50
NtRp806
(dp807
g53
(dp808
g73
g74
ssg62
g802
sg55
(lp809
g309
asbag48
(g69
g50
NtRp810
(dp811
g53
(dp812
g80
g81
ssg62
g802
sg55
(lp813
S':'
asbag48
(g69
g50
NtRp814
(dp815
g53
(dp816
sg62
g802
sg55
(lp817
g48
(g49
g50
NtRp818
(dp819
g53
(dp820
g61
I3
ssg62
g814
sg55
(lp821
S''
asbasbasbag48
(g64
g50
NtRp822
(dp823
g53
(dp824
sg62
g778
sg55
(lp825
g48
(g69
g50
NtRp826
(dp827
g53
(dp828
g73
g74
ssg62
g822
sg55
(lp829
g330
asbag48
(g69
g50
NtRp830
(dp831
g53
(dp832
g80
g81
ssg62
g822
sg55
(lp833
S':'
asbag48
(g69
g50
NtRp834
(dp835
g53
(dp836
sg62
g822
sg55
(lp837
g48
(g49
g50
NtRp838
(dp839
g53
(dp840
g61
I3
ssg62
g834
sg55
(lp841
S''
asbasbasbag48
(g64
g50
NtRp842
(dp843
g53
(dp844
sg62
g778
sg55
(lp845
g48
(g69
g50
NtRp846
(dp847
g53
(dp848
g73
g74
ssg62
g842
sg55
(lp849
g351
asbag48
(g69
g50
NtRp850
(dp851
g53
(dp852
g80
g81
ssg62
g842
sg55
(lp853
S':'
asbag48
(g69
g50
NtRp854
(dp855
g53
(dp856
sg62
g842
sg55
(lp857
g48
(g49
g50
NtRp858
(dp859
g53
(dp860
g61
I3
ssg62
g854
sg55
(lp861
S''
asbasbasbag48
(g64
g50
NtRp862
(dp863
g53
(dp864
sg62
g778
sg55
(lp865
g48
(g69
g50
NtRp866
(dp867
g53
(dp868
g73
g74
ssg62
g862
sg55
(lp869
g372
asbag48
(g69
g50
NtRp870
(dp871
g53
(dp872
g80
g81
ssg62
g862
sg55
(lp873
S':'
asbag48
(g69
g50
NtRp874
(dp875
g53
(dp876
sg62
g862
sg55
(lp877
g48
(g49
g50
NtRp878
(dp879
g53
(dp880
g61
I3
ssg62
g874
sg55
(lp881
S''
asbasbasbag48
(g64
g50
NtRp882
(dp883
g53
(dp884
sg62
g778
sg55
(lp885
g48
(g69
g50
NtRp886
(dp887
g53
(dp888
g73
g74
ssg62
g882
sg55
(lp889
g393
asbag48
(g69
g50
NtRp890
(dp891
g53
(dp892
g80
g81
ssg62
g882
sg55
(lp893
S':'
asbag48
(g69
g50
NtRp894
(dp895
g53
(dp896
sg62
g882
sg55
(lp897
g48
(g49
g50
NtRp898
(dp899
g53
(dp900
g61
I3
ssg62
g894
sg55
(lp901
S''
asbasbasbag48
(g64
g50
NtRp902
(dp903
g53
(dp904
sg62
g778
sg55
(lp905
g48
(g69
g50
NtRp906
(dp907
g53
(dp908
g73
g74
ssg62
g902
sg55
(lp909
g414
asbag48
(g69
g50
NtRp910
(dp911
g53
(dp912
g80
g81
ssg62
g902
sg55
(lp913
S':'
asbag48
(g69
g50
NtRp914
(dp915
g53
(dp916
sg62
g902
sg55
(lp917
g48
(g49
g50
NtRp918
(dp919
g53
(dp920
g61
I3
ssg62
g914
sg55
(lp921
S''
asbasbasbasbasbasbasbasbasbasbasbag48
(g64
g50
NtRp922
(dp923
g53
(dp924
sg62
g58
sg55
(lp925
g48
(g69
g50
NtRp926
(dp927
g53
(dp928
g73
g74
ssg62
g922
sg55
(lp929
S'env'
p930
asbag48
(g69
g50
NtRp931
(dp932
g53
(dp933
g80
g81
ssg62
g922
sg55
(lp934
S':'
asbag48
(g69
g50
NtRp935
(dp936
g53
(dp937
sg62
g922
sg55
(lp938
g48
(g49
g50
NtRp939
(dp940
g53
(dp941
g61
I5
ssg62
g935
sg55
(lp942
g48
(g57
g50
NtRp943
(dp944
g53
(dp945
g61
I4
ssg62
Nsg55
(lp946
g48
(g64
g50
NtRp947
(dp948
g53
(dp949
sg62
g943
sg55
(lp950
g48
(g69
g50
NtRp951
(dp952
g53
(dp953
g73
g74
ssg62
g947
sg55
(lp954
S'app_folders'
p955
asbag48
(g69
g50
NtRp956
(dp957
g53
(dp958
g80
g81
ssg62
g947
sg55
(lp959
S':'
asbag48
(g69
g50
NtRp960
(dp961
g53
(dp962
sg62
g947
sg55
(lp963
g48
(g49
g50
NtRp964
(dp965
g53
(dp966
g61
I4
ssg62
g960
sg55
(lp967
S"set(['C:\\\\Python32\\\\web2py\\\\applications\\\\Casa_de_Apuestas\\\\', 'C:\\\\Python32\\\\web2py\\\\applications\\\\images\\\\', 'C:\\\\Python32\\\\web2py\\\\applications\\\\welcome\\\\', 'C:\\\\Python32\\\\web2py\\\\applications\\\\admin\\\\'])"
p968
asbasbasbag48
(g64
g50
NtRp969
(dp970
g53
(dp971
sg62
g943
sg55
(lp972
g48
(g69
g50
NtRp973
(dp974
g53
(dp975
g73
g74
ssg62
g969
sg55
(lp976
S'applications_parent'
p977
asbag48
(g69
g50
NtRp978
(dp979
g53
(dp980
g80
g81
ssg62
g969
sg55
(lp981
S':'
asbag48
(g69
g50
NtRp982
(dp983
g53
(dp984
sg62
g969
sg55
(lp985
g48
(g49
g50
NtRp986
(dp987
g53
(dp988
g61
I4
ssg62
g982
sg55
(lp989
S'C:\\Python32\\web2py'
p990
asbasbasbag48
(g64
g50
NtRp991
(dp992
g53
(dp993
sg62
g943
sg55
(lp994
g48
(g69
g50
NtRp995
(dp996
g53
(dp997
g73
g74
ssg62
g991
sg55
(lp998
S'cmd_args'
p999
asbag48
(g69
g50
NtRp1000
(dp1001
g53
(dp1002
g80
g81
ssg62
g991
sg55
(lp1003
S':'
asbag48
(g69
g50
NtRp1004
(dp1005
g53
(dp1006
sg62
g991
sg55
(lp1007
g48
(g49
g50
NtRp1008
(dp1009
g53
(dp1010
g61
I4
ssg62
g1004
sg55
(lp1011
g48
(g57
g50
NtRp1012
(dp1013
g53
(dp1014
g61
I3
ssg62
Nsg55
(lp1015
sbasbasbasbag48
(g64
g50
NtRp1016
(dp1017
g53
(dp1018
sg62
g943
sg55
(lp1019
g48
(g69
g50
NtRp1020
(dp1021
g53
(dp1022
g73
g74
ssg62
g1016
sg55
(lp1023
S'cmd_options'
p1024
asbag48
(g69
g50
NtRp1025
(dp1026
g53
(dp1027
g80
g81
ssg62
g1016
sg55
(lp1028
S':'
asbag48
(g69
g50
NtRp1029
(dp1030
g53
(dp1031
sg62
g1016
sg55
(lp1032
g48
(g49
g50
NtRp1033
(dp1034
g53
(dp1035
g61
I4
ssg62
g1029
sg55
(lp1036
S"<Values at 0x2d18f30: {'verbose': False, 'ip': '127.0.0.1', 'shutdown_timeout': 5, 'taskbar': False, 'nocron': False, 'pid_filename': 'httpserver.pid', 'maxthreads': None, 'softcron': False, 'server_name': 'hector-asus', 'bpython': False, 'nogui': False, 'port': 8000, 'extcron': False, 'debuglevel': 30, 'test': None, 'folder': 'C:\\\\Python32\\\\web2py', 'config': '', 'import_models': False, 'winservice': '', 'shell': None, 'run': '', 'log_filename': 'httpserver.log', 'args': [''], 'ssl_ca_certificate': None, 'scheduler': None, 'profiler_filename': None, 'ssl_private_key': '', 'password': '<ask>', 'request_queue_size': 5, 'ssl_certificate': '', 'cronjob': False, 'plain': False, 'quiet': False, 'interfaces': None, 'minthreads': None, 'timeout': 10, 'numthreads': None, 'nobanner': False}>"
p1037
asbasbasbag48
(g64
g50
NtRp1038
(dp1039
g53
(dp1040
sg62
g943
sg55
(lp1041
g48
(g69
g50
NtRp1042
(dp1043
g53
(dp1044
g73
g74
ssg62
g1038
sg55
(lp1045
S'db_sessions'
p1046
asbag48
(g69
g50
NtRp1047
(dp1048
g53
(dp1049
g80
g81
ssg62
g1038
sg55
(lp1050
S':'
asbag48
(g69
g50
NtRp1051
(dp1052
g53
(dp1053
sg62
g1038
sg55
(lp1054
g48
(g49
g50
NtRp1055
(dp1056
g53
(dp1057
g61
I4
ssg62
g1051
sg55
(lp1058
S'set([])'
p1059
asbasbasbag48
(g64
g50
NtRp1060
(dp1061
g53
(dp1062
sg62
g943
sg55
(lp1063
g48
(g69
g50
NtRp1064
(dp1065
g53
(dp1066
g73
g74
ssg62
g1060
sg55
(lp1067
S'debugging'
p1068
asbag48
(g69
g50
NtRp1069
(dp1070
g53
(dp1071
g80
g81
ssg62
g1060
sg55
(lp1072
S':'
asbag48
(g69
g50
NtRp1073
(dp1074
g53
(dp1075
sg62
g1060
sg55
(lp1076
g48
(g49
g50
NtRp1077
(dp1078
g53
(dp1079
g61
I4
ssg62
g1073
sg55
(lp1080
g91
asbasbasbag48
(g64
g50
NtRp1081
(dp1082
g53
(dp1083
sg62
g943
sg55
(lp1084
g48
(g69
g50
NtRp1085
(dp1086
g53
(dp1087
g73
g74
ssg62
g1081
sg55
(lp1088
S'gluon_parent'
p1089
asbag48
(g69
g50
NtRp1090
(dp1091
g53
(dp1092
g80
g81
ssg62
g1081
sg55
(lp1093
S':'
asbag48
(g69
g50
NtRp1094
(dp1095
g53
(dp1096
sg62
g1081
sg55
(lp1097
g48
(g49
g50
NtRp1098
(dp1099
g53
(dp1100
g61
I4
ssg62
g1094
sg55
(lp1101
S'C:\\Python32\\web2py'
p1102
asbasbasbag48
(g64
g50
NtRp1103
(dp1104
g53
(dp1105
sg62
g943
sg55
(lp1106
g48
(g69
g50
NtRp1107
(dp1108
g53
(dp1109
g73
g74
ssg62
g1103
sg55
(lp1110
S'http_accept'
p1111
asbag48
(g69
g50
NtRp1112
(dp1113
g53
(dp1114
g80
g81
ssg62
g1103
sg55
(lp1115
S':'
asbag48
(g69
g50
NtRp1116
(dp1117
g53
(dp1118
sg62
g1103
sg55
(lp1119
g48
(g49
g50
NtRp1120
(dp1121
g53
(dp1122
g61
I4
ssg62
g1116
sg55
(lp1123
S'text/html,application/xhtml+xml,application/xml;q=0.9,*/*;q=0.8'
p1124
asbasbasbag48
(g64
g50
NtRp1125
(dp1126
g53
(dp1127
sg62
g943
sg55
(lp1128
g48
(g69
g50
NtRp1129
(dp1130
g53
(dp1131
g73
g74
ssg62
g1125
sg55
(lp1132
S'http_accept_charset'
p1133
asbag48
(g69
g50
NtRp1134
(dp1135
g53
(dp1136
g80
g81
ssg62
g1125
sg55
(lp1137
S':'
asbag48
(g69
g50
NtRp1138
(dp1139
g53
(dp1140
sg62
g1125
sg55
(lp1141
g48
(g49
g50
NtRp1142
(dp1143
g53
(dp1144
g61
I4
ssg62
g1138
sg55
(lp1145
S'ISO-8859-1,utf-8;q=0.7,*;q=0.3'
p1146
asbasbasbag48
(g64
g50
NtRp1147
(dp1148
g53
(dp1149
sg62
g943
sg55
(lp1150
g48
(g69
g50
NtRp1151
(dp1152
g53
(dp1153
g73
g74
ssg62
g1147
sg55
(lp1154
S'http_accept_encoding'
p1155
asbag48
(g69
g50
NtRp1156
(dp1157
g53
(dp1158
g80
g81
ssg62
g1147
sg55
(lp1159
S':'
asbag48
(g69
g50
NtRp1160
(dp1161
g53
(dp1162
sg62
g1147
sg55
(lp1163
g48
(g49
g50
NtRp1164
(dp1165
g53
(dp1166
g61
I4
ssg62
g1160
sg55
(lp1167
S'gzip,deflate,sdch'
p1168
asbasbasbag48
(g64
g50
NtRp1169
(dp1170
g53
(dp1171
sg62
g943
sg55
(lp1172
g48
(g69
g50
NtRp1173
(dp1174
g53
(dp1175
g73
g74
ssg62
g1169
sg55
(lp1176
S'http_accept_language'
p1177
asbag48
(g69
g50
NtRp1178
(dp1179
g53
(dp1180
g80
g81
ssg62
g1169
sg55
(lp1181
S':'
asbag48
(g69
g50
NtRp1182
(dp1183
g53
(dp1184
sg62
g1169
sg55
(lp1185
g48
(g49
g50
NtRp1186
(dp1187
g53
(dp1188
g61
I4
ssg62
g1182
sg55
(lp1189
S'en-US,en;q=0.8'
p1190
asbasbasbag48
(g64
g50
NtRp1191
(dp1192
g53
(dp1193
sg62
g943
sg55
(lp1194
g48
(g69
g50
NtRp1195
(dp1196
g53
(dp1197
g73
g74
ssg62
g1191
sg55
(lp1198
S'http_connection'
p1199
asbag48
(g69
g50
NtRp1200
(dp1201
g53
(dp1202
g80
g81
ssg62
g1191
sg55
(lp1203
S':'
asbag48
(g69
g50
NtRp1204
(dp1205
g53
(dp1206
sg62
g1191
sg55
(lp1207
g48
(g49
g50
NtRp1208
(dp1209
g53
(dp1210
g61
I4
ssg62
g1204
sg55
(lp1211
S'keep-alive'
p1212
asbasbasbag48
(g64
g50
NtRp1213
(dp1214
g53
(dp1215
sg62
g943
sg55
(lp1216
g48
(g69
g50
NtRp1217
(dp1218
g53
(dp1219
g73
g74
ssg62
g1213
sg55
(lp1220
S'http_cookie'
p1221
asbag48
(g69
g50
NtRp1222
(dp1223
g53
(dp1224
g80
g81
ssg62
g1213
sg55
(lp1225
S':'
asbag48
(g69
g50
NtRp1226
(dp1227
g53
(dp1228
sg62
g1213
sg55
(lp1229
g48
(g49
g50
NtRp1230
(dp1231
g53
(dp1232
g61
I4
ssg62
g1226
sg55
(lp1233
S'session_id_welcome=127.0.0.1-07b05742-4fc1-4474-90ad-860dbbef112b; session_id_images=127.0.0.1-b7aa86f2-0acd-49d9-92fc-557581040429; session_id_casa_de_apuestas=127.0.0.1-ff075696-a054-47b7-bd6f-733e6903bb65; session_id_admin=127.0.0.1-5155ace7-c952-49d3-a385-f66534093f7a'
p1234
asbasbasbag48
(g64
g50
NtRp1235
(dp1236
g53
(dp1237
sg62
g943
sg55
(lp1238
g48
(g69
g50
NtRp1239
(dp1240
g53
(dp1241
g73
g74
ssg62
g1235
sg55
(lp1242
S'http_host'
p1243
asbag48
(g69
g50
NtRp1244
(dp1245
g53
(dp1246
g80
g81
ssg62
g1235
sg55
(lp1247
S':'
asbag48
(g69
g50
NtRp1248
(dp1249
g53
(dp1250
sg62
g1235
sg55
(lp1251
g48
(g49
g50
NtRp1252
(dp1253
g53
(dp1254
g61
I4
ssg62
g1248
sg55
(lp1255
S'127.0.0.1:8000'
p1256
asbasbasbag48
(g64
g50
NtRp1257
(dp1258
g53
(dp1259
sg62
g943
sg55
(lp1260
g48
(g69
g50
NtRp1261
(dp1262
g53
(dp1263
g73
g74
ssg62
g1257
sg55
(lp1264
S'http_referer'
p1265
asbag48
(g69
g50
NtRp1266
(dp1267
g53
(dp1268
g80
g81
ssg62
g1257
sg55
(lp1269
S':'
asbag48
(g69
g50
NtRp1270
(dp1271
g53
(dp1272
sg62
g1257
sg55
(lp1273
g48
(g49
g50
NtRp1274
(dp1275
g53
(dp1276
g61
I4
ssg62
g1270
sg55
(lp1277
S'http://127.0.0.1:8000/Casa_de_Apuestas/appadmin/index'
p1278
asbasbasbag48
(g64
g50
NtRp1279
(dp1280
g53
(dp1281
sg62
g943
sg55
(lp1282
g48
(g69
g50
NtRp1283
(dp1284
g53
(dp1285
g73
g74
ssg62
g1279
sg55
(lp1286
S'http_user_agent'
p1287
asbag48
(g69
g50
NtRp1288
(dp1289
g53
(dp1290
g80
g81
ssg62
g1279
sg55
(lp1291
S':'
asbag48
(g69
g50
NtRp1292
(dp1293
g53
(dp1294
sg62
g1279
sg55
(lp1295
g48
(g49
g50
NtRp1296
(dp1297
g53
(dp1298
g61
I4
ssg62
g1292
sg55
(lp1299
S'Mozilla/5.0 (Windows NT 6.1; WOW64) AppleWebKit/535.2 (KHTML, like Gecko) Chrome/15.0.874.106 Safari/535.2'
p1300
asbasbasbag48
(g64
g50
NtRp1301
(dp1302
g53
(dp1303
sg62
g943
sg55
(lp1304
g48
(g69
g50
NtRp1305
(dp1306
g53
(dp1307
g73
g74
ssg62
g1301
sg55
(lp1308
S'is_jython'
p1309
asbag48
(g69
g50
NtRp1310
(dp1311
g53
(dp1312
g80
g81
ssg62
g1301
sg55
(lp1313
S':'
asbag48
(g69
g50
NtRp1314
(dp1315
g53
(dp1316
sg62
g1301
sg55
(lp1317
g48
(g49
g50
NtRp1318
(dp1319
g53
(dp1320
g61
I4
ssg62
g1314
sg55
(lp1321
g91
asbasbasbag48
(g64
g50
NtRp1322
(dp1323
g53
(dp1324
sg62
g943
sg55
(lp1325
g48
(g69
g50
NtRp1326
(dp1327
g53
(dp1328
g73
g74
ssg62
g1322
sg55
(lp1329
S'path_info'
p1330
asbag48
(g69
g50
NtRp1331
(dp1332
g53
(dp1333
g80
g81
ssg62
g1322
sg55
(lp1334
S':'
asbag48
(g69
g50
NtRp1335
(dp1336
g53
(dp1337
sg62
g1322
sg55
(lp1338
g48
(g49
g50
NtRp1339
(dp1340
g53
(dp1341
g61
I4
ssg62
g1335
sg55
(lp1342
S'/Casa_de_Apuestas/appadmin/insert/db/eventosparticipantes'
p1343
asbasbasbag48
(g64
g50
NtRp1344
(dp1345
g53
(dp1346
sg62
g943
sg55
(lp1347
g48
(g69
g50
NtRp1348
(dp1349
g53
(dp1350
g73
g74
ssg62
g1344
sg55
(lp1351
S'query_string'
p1352
asbag48
(g69
g50
NtRp1353
(dp1354
g53
(dp1355
g80
g81
ssg62
g1344
sg55
(lp1356
S':'
asbag48
(g69
g50
NtRp1357
(dp1358
g53
(dp1359
sg62
g1344
sg55
(lp1360
g48
(g49
g50
NtRp1361
(dp1362
g53
(dp1363
g61
I4
ssg62
g1357
sg55
(lp1364
S''
asbasbasbag48
(g64
g50
NtRp1365
(dp1366
g53
(dp1367
sg62
g943
sg55
(lp1368
g48
(g69
g50
NtRp1369
(dp1370
g53
(dp1371
g73
g74
ssg62
g1365
sg55
(lp1372
S'remote_addr'
p1373
asbag48
(g69
g50
NtRp1374
(dp1375
g53
(dp1376
g80
g81
ssg62
g1365
sg55
(lp1377
S':'
asbag48
(g69
g50
NtRp1378
(dp1379
g53
(dp1380
sg62
g1365
sg55
(lp1381
g48
(g49
g50
NtRp1382
(dp1383
g53
(dp1384
g61
I4
ssg62
g1378
sg55
(lp1385
g207
asbasbasbag48
(g64
g50
NtRp1386
(dp1387
g53
(dp1388
sg62
g943
sg55
(lp1389
g48
(g69
g50
NtRp1390
(dp1391
g53
(dp1392
g73
g74
ssg62
g1386
sg55
(lp1393
S'remote_port'
p1394
asbag48
(g69
g50
NtRp1395
(dp1396
g53
(dp1397
g80
g81
ssg62
g1386
sg55
(lp1398
S':'
asbag48
(g69
g50
NtRp1399
(dp1400
g53
(dp1401
sg62
g1386
sg55
(lp1402
g48
(g49
g50
NtRp1403
(dp1404
g53
(dp1405
g61
I4
ssg62
g1399
sg55
(lp1406
S'49679'
p1407
asbasbasbag48
(g64
g50
NtRp1408
(dp1409
g53
(dp1410
sg62
g943
sg55
(lp1411
g48
(g69
g50
NtRp1412
(dp1413
g53
(dp1414
g73
g74
ssg62
g1408
sg55
(lp1415
S'request_method'
p1416
asbag48
(g69
g50
NtRp1417
(dp1418
g53
(dp1419
g80
g81
ssg62
g1408
sg55
(lp1420
S':'
asbag48
(g69
g50
NtRp1421
(dp1422
g53
(dp1423
sg62
g1408
sg55
(lp1424
g48
(g49
g50
NtRp1425
(dp1426
g53
(dp1427
g61
I4
ssg62
g1421
sg55
(lp1428
S'GET'
p1429
asbasbasbag48
(g64
g50
NtRp1430
(dp1431
g53
(dp1432
sg62
g943
sg55
(lp1433
g48
(g69
g50
NtRp1434
(dp1435
g53
(dp1436
g73
g74
ssg62
g1430
sg55
(lp1437
S'script_name'
p1438
asbag48
(g69
g50
NtRp1439
(dp1440
g53
(dp1441
g80
g81
ssg62
g1430
sg55
(lp1442
S':'
asbag48
(g69
g50
NtRp1443
(dp1444
g53
(dp1445
sg62
g1430
sg55
(lp1446
g48
(g49
g50
NtRp1447
(dp1448
g53
(dp1449
g61
I4
ssg62
g1443
sg55
(lp1450
S''
asbasbasbag48
(g64
g50
NtRp1451
(dp1452
g53
(dp1453
sg62
g943
sg55
(lp1454
g48
(g69
g50
NtRp1455
(dp1456
g53
(dp1457
g73
g74
ssg62
g1451
sg55
(lp1458
S'server_name'
p1459
asbag48
(g69
g50
NtRp1460
(dp1461
g53
(dp1462
g80
g81
ssg62
g1451
sg55
(lp1463
S':'
asbag48
(g69
g50
NtRp1464
(dp1465
g53
(dp1466
sg62
g1451
sg55
(lp1467
g48
(g49
g50
NtRp1468
(dp1469
g53
(dp1470
g61
I4
ssg62
g1464
sg55
(lp1471
S'hector-asus'
p1472
asbasbasbag48
(g64
g50
NtRp1473
(dp1474
g53
(dp1475
sg62
g943
sg55
(lp1476
g48
(g69
g50
NtRp1477
(dp1478
g53
(dp1479
g73
g74
ssg62
g1473
sg55
(lp1480
S'server_port'
p1481
asbag48
(g69
g50
NtRp1482
(dp1483
g53
(dp1484
g80
g81
ssg62
g1473
sg55
(lp1485
S':'
asbag48
(g69
g50
NtRp1486
(dp1487
g53
(dp1488
sg62
g1473
sg55
(lp1489
g48
(g49
g50
NtRp1490
(dp1491
g53
(dp1492
g61
I4
ssg62
g1486
sg55
(lp1493
S'8000'
p1494
asbasbasbag48
(g64
g50
NtRp1495
(dp1496
g53
(dp1497
sg62
g943
sg55
(lp1498
g48
(g69
g50
NtRp1499
(dp1500
g53
(dp1501
g73
g74
ssg62
g1495
sg55
(lp1502
S'server_protocol'
p1503
asbag48
(g69
g50
NtRp1504
(dp1505
g53
(dp1506
g80
g81
ssg62
g1495
sg55
(lp1507
S':'
asbag48
(g69
g50
NtRp1508
(dp1509
g53
(dp1510
sg62
g1495
sg55
(lp1511
g48
(g49
g50
NtRp1512
(dp1513
g53
(dp1514
g61
I4
ssg62
g1508
sg55
(lp1515
S'HTTP/1.1'
p1516
asbasbasbag48
(g64
g50
NtRp1517
(dp1518
g53
(dp1519
sg62
g943
sg55
(lp1520
g48
(g69
g50
NtRp1521
(dp1522
g53
(dp1523
g73
g74
ssg62
g1517
sg55
(lp1524
S'server_software'
p1525
asbag48
(g69
g50
NtRp1526
(dp1527
g53
(dp1528
g80
g81
ssg62
g1517
sg55
(lp1529
S':'
asbag48
(g69
g50
NtRp1530
(dp1531
g53
(dp1532
sg62
g1517
sg55
(lp1533
g48
(g49
g50
NtRp1534
(dp1535
g53
(dp1536
g61
I4
ssg62
g1530
sg55
(lp1537
S'Rocket 1.2.4'
p1538
asbasbasbag48
(g64
g50
NtRp1539
(dp1540
g53
(dp1541
sg62
g943
sg55
(lp1542
g48
(g69
g50
NtRp1543
(dp1544
g53
(dp1545
g73
g74
ssg62
g1539
sg55
(lp1546
S'web2py_crontype'
p1547
asbag48
(g69
g50
NtRp1548
(dp1549
g53
(dp1550
g80
g81
ssg62
g1539
sg55
(lp1551
S':'
asbag48
(g69
g50
NtRp1552
(dp1553
g53
(dp1554
sg62
g1539
sg55
(lp1555
g48
(g49
g50
NtRp1556
(dp1557
g53
(dp1558
g61
I4
ssg62
g1552
sg55
(lp1559
S'hard'
p1560
asbasbasbag48
(g64
g50
NtRp1561
(dp1562
g53
(dp1563
sg62
g943
sg55
(lp1564
g48
(g69
g50
NtRp1565
(dp1566
g53
(dp1567
g73
g74
ssg62
g1561
sg55
(lp1568
S'web2py_path'
p1569
asbag48
(g69
g50
NtRp1570
(dp1571
g53
(dp1572
g80
g81
ssg62
g1561
sg55
(lp1573
S':'
asbag48
(g69
g50
NtRp1574
(dp1575
g53
(dp1576
sg62
g1561
sg55
(lp1577
g48
(g49
g50
NtRp1578
(dp1579
g53
(dp1580
g61
I4
ssg62
g1574
sg55
(lp1581
g990
asbasbasbag48
(g64
g50
NtRp1582
(dp1583
g53
(dp1584
sg62
g943
sg55
(lp1585
g48
(g69
g50
NtRp1586
(dp1587
g53
(dp1588
g73
g74
ssg62
g1582
sg55
(lp1589
S'web2py_version'
p1590
asbag48
(g69
g50
NtRp1591
(dp1592
g53
(dp1593
g80
g81
ssg62
g1582
sg55
(lp1594
S':'
asbag48
(g69
g50
NtRp1595
(dp1596
g53
(dp1597
sg62
g1582
sg55
(lp1598
g48
(g49
g50
NtRp1599
(dp1600
g53
(dp1601
g61
I4
ssg62
g1595
sg55
(lp1602
g48
(g57
g50
NtRp1603
(dp1604
g53
(dp1605
g61
I3
ssg62
Nsg55
(lp1606
g48
(g64
g50
NtRp1607
(dp1608
g53
(dp1609
sg62
g1603
sg55
(lp1610
g48
(g69
g50
NtRp1611
(dp1612
g53
(dp1613
sg62
g1607
sg55
(lp1614
g48
(g49
g50
NtRp1615
(dp1616
g53
(dp1617
g61
I3
ssg62
g1611
sg55
(lp1618
S'1'
asbasbasbag48
(g64
g50
NtRp1619
(dp1620
g53
(dp1621
sg62
g1603
sg55
(lp1622
g48
(g69
g50
NtRp1623
(dp1624
g53
(dp1625
sg62
g1619
sg55
(lp1626
g48
(g49
g50
NtRp1627
(dp1628
g53
(dp1629
g61
I3
ssg62
g1623
sg55
(lp1630
S'99'
p1631
asbasbasbag48
(g64
g50
NtRp1632
(dp1633
g53
(dp1634
sg62
g1603
sg55
(lp1635
g48
(g69
g50
NtRp1636
(dp1637
g53
(dp1638
sg62
g1632
sg55
(lp1639
g48
(g49
g50
NtRp1640
(dp1641
g53
(dp1642
g61
I3
ssg62
g1636
sg55
(lp1643
S'2'
asbasbasbag48
(g64
g50
NtRp1644
(dp1645
g53
(dp1646
sg62
g1603
sg55
(lp1647
g48
(g69
g50
NtRp1648
(dp1649
g53
(dp1650
sg62
g1644
sg55
(lp1651
g48
(g49
g50
NtRp1652
(dp1653
g53
(dp1654
g61
I3
ssg62
g1648
sg55
(lp1655
S'datetime.datetime(2011, 9, 26, 6, 55, 33)'
p1656
asbasbasbag48
(g64
g50
NtRp1657
(dp1658
g53
(dp1659
sg62
g1603
sg55
(lp1660
g48
(g69
g50
NtRp1661
(dp1662
g53
(dp1663
sg62
g1657
sg55
(lp1664
g48
(g49
g50
NtRp1665
(dp1666
g53
(dp1667
g61
I3
ssg62
g1661
sg55
(lp1668
S'stable'
p1669
asbasbasbasbasbasbasbag48
(g64
g50
NtRp1670
(dp1671
g53
(dp1672
sg62
g943
sg55
(lp1673
g48
(g69
g50
NtRp1674
(dp1675
g53
(dp1676
g73
g74
ssg62
g1670
sg55
(lp1677
S'wsgi_errors'
p1678
asbag48
(g69
g50
NtRp1679
(dp1680
g53
(dp1681
g80
g81
ssg62
g1670
sg55
(lp1682
S':'
asbag48
(g69
g50
NtRp1683
(dp1684
g53
(dp1685
sg62
g1670
sg55
(lp1686
g48
(g49
g50
NtRp1687
(dp1688
g53
(dp1689
g61
I4
ssg62
g1683
sg55
(lp1690
S"<open file '<stderr>', mode 'w' at 0x01FA00B0>"
p1691
asbasbasbag48
(g64
g50
NtRp1692
(dp1693
g53
(dp1694
sg62
g943
sg55
(lp1695
g48
(g69
g50
NtRp1696
(dp1697
g53
(dp1698
g73
g74
ssg62
g1692
sg55
(lp1699
S'wsgi_file_wrapper'
p1700
asbag48
(g69
g50
NtRp1701
(dp1702
g53
(dp1703
g80
g81
ssg62
g1692
sg55
(lp1704
S':'
asbag48
(g69
g50
NtRp1705
(dp1706
g53
(dp1707
sg62
g1692
sg55
(lp1708
g48
(g49
g50
NtRp1709
(dp1710
g53
(dp1711
g61
I4
ssg62
g1705
sg55
(lp1712
S'<class wsgiref.util.FileWrapper at 0x02AB0D80>'
p1713
asbasbasbag48
(g64
g50
NtRp1714
(dp1715
g53
(dp1716
sg62
g943
sg55
(lp1717
g48
(g69
g50
NtRp1718
(dp1719
g53
(dp1720
g73
g74
ssg62
g1714
sg55
(lp1721
S'wsgi_input'
p1722
asbag48
(g69
g50
NtRp1723
(dp1724
g53
(dp1725
g80
g81
ssg62
g1714
sg55
(lp1726
S':'
asbag48
(g69
g50
NtRp1727
(dp1728
g53
(dp1729
sg62
g1714
sg55
(lp1730
g48
(g49
g50
NtRp1731
(dp1732
g53
(dp1733
g61
I4
ssg62
g1727
sg55
(lp1734
S'<socket._fileobject object at 0x02EA0B30>'
p1735
asbasbasbag48
(g64
g50
NtRp1736
(dp1737
g53
(dp1738
sg62
g943
sg55
(lp1739
g48
(g69
g50
NtRp1740
(dp1741
g53
(dp1742
g73
g74
ssg62
g1736
sg55
(lp1743
S'wsgi_multiprocess'
p1744
asbag48
(g69
g50
NtRp1745
(dp1746
g53
(dp1747
g80
g81
ssg62
g1736
sg55
(lp1748
S':'
asbag48
(g69
g50
NtRp1749
(dp1750
g53
(dp1751
sg62
g1736
sg55
(lp1752
g48
(g49
g50
NtRp1753
(dp1754
g53
(dp1755
g61
I4
ssg62
g1749
sg55
(lp1756
g91
asbasbasbag48
(g64
g50
NtRp1757
(dp1758
g53
(dp1759
sg62
g943
sg55
(lp1760
g48
(g69
g50
NtRp1761
(dp1762
g53
(dp1763
g73
g74
ssg62
g1757
sg55
(lp1764
S'wsgi_multithread'
p1765
asbag48
(g69
g50
NtRp1766
(dp1767
g53
(dp1768
g80
g81
ssg62
g1757
sg55
(lp1769
S':'
asbag48
(g69
g50
NtRp1770
(dp1771
g53
(dp1772
sg62
g1757
sg55
(lp1773
g48
(g49
g50
NtRp1774
(dp1775
g53
(dp1776
g61
I4
ssg62
g1770
sg55
(lp1777
S'True'
p1778
asbasbasbag48
(g64
g50
NtRp1779
(dp1780
g53
(dp1781
sg62
g943
sg55
(lp1782
g48
(g69
g50
NtRp1783
(dp1784
g53
(dp1785
g73
g74
ssg62
g1779
sg55
(lp1786
S'wsgi_run_once'
p1787
asbag48
(g69
g50
NtRp1788
(dp1789
g53
(dp1790
g80
g81
ssg62
g1779
sg55
(lp1791
S':'
asbag48
(g69
g50
NtRp1792
(dp1793
g53
(dp1794
sg62
g1779
sg55
(lp1795
g48
(g49
g50
NtRp1796
(dp1797
g53
(dp1798
g61
I4
ssg62
g1792
sg55
(lp1799
g91
asbasbasbag48
(g64
g50
NtRp1800
(dp1801
g53
(dp1802
sg62
g943
sg55
(lp1803
g48
(g69
g50
NtRp1804
(dp1805
g53
(dp1806
g73
g74
ssg62
g1800
sg55
(lp1807
S'wsgi_url_scheme'
p1808
asbag48
(g69
g50
NtRp1809
(dp1810
g53
(dp1811
g80
g81
ssg62
g1800
sg55
(lp1812
S':'
asbag48
(g69
g50
NtRp1813
(dp1814
g53
(dp1815
sg62
g1800
sg55
(lp1816
g48
(g49
g50
NtRp1817
(dp1818
g53
(dp1819
g61
I4
ssg62
g1813
sg55
(lp1820
S'http'
p1821
asbasbasbag48
(g64
g50
NtRp1822
(dp1823
g53
(dp1824
sg62
g943
sg55
(lp1825
g48
(g69
g50
NtRp1826
(dp1827
g53
(dp1828
g73
g74
ssg62
g1822
sg55
(lp1829
S'wsgi_version'
p1830
asbag48
(g69
g50
NtRp1831
(dp1832
g53
(dp1833
g80
g81
ssg62
g1822
sg55
(lp1834
S':'
asbag48
(g69
g50
NtRp1835
(dp1836
g53
(dp1837
sg62
g1822
sg55
(lp1838
g48
(g49
g50
NtRp1839
(dp1840
g53
(dp1841
g61
I4
ssg62
g1835
sg55
(lp1842
g48
(g57
g50
NtRp1843
(dp1844
g53
(dp1845
g61
I3
ssg62
Nsg55
(lp1846
g48
(g64
g50
NtRp1847
(dp1848
g53
(dp1849
sg62
g1843
sg55
(lp1850
g48
(g69
g50
NtRp1851
(dp1852
g53
(dp1853
sg62
g1847
sg55
(lp1854
g48
(g49
g50
NtRp1855
(dp1856
g53
(dp1857
g61
I3
ssg62
g1851
sg55
(lp1858
S'1'
asbasbasbag48
(g64
g50
NtRp1859
(dp1860
g53
(dp1861
sg62
g1843
sg55
(lp1862
g48
(g69
g50
NtRp1863
(dp1864
g53
(dp1865
sg62
g1859
sg55
(lp1866
g48
(g49
g50
NtRp1867
(dp1868
g53
(dp1869
g61
I3
ssg62
g1863
sg55
(lp1870
S'0'
asbasbasbasbasbasbasbasbasbasbasbag48
(g64
g50
NtRp1871
(dp1872
g53
(dp1873
sg62
g58
sg55
(lp1874
g48
(g69
g50
NtRp1875
(dp1876
g53
(dp1877
g73
g74
ssg62
g1871
sg55
(lp1878
S'extension'
p1879
asbag48
(g69
g50
NtRp1880
(dp1881
g53
(dp1882
g80
g81
ssg62
g1871
sg55
(lp1883
S':'
asbag48
(g69
g50
NtRp1884
(dp1885
g53
(dp1886
sg62
g1871
sg55
(lp1887
g48
(g49
g50
NtRp1888
(dp1889
g53
(dp1890
g61
I5
ssg62
g1884
sg55
(lp1891
S'html'
p1892
asbasbasbag48
(g64
g50
NtRp1893
(dp1894
g53
(dp1895
sg62
g58
sg55
(lp1896
g48
(g69
g50
NtRp1897
(dp1898
g53
(dp1899
g73
g74
ssg62
g1893
sg55
(lp1900
S'folder'
p1901
asbag48
(g69
g50
NtRp1902
(dp1903
g53
(dp1904
g80
g81
ssg62
g1893
sg55
(lp1905
S':'
asbag48
(g69
g50
NtRp1906
(dp1907
g53
(dp1908
sg62
g1893
sg55
(lp1909
g48
(g49
g50
NtRp1910
(dp1911
g53
(dp1912
g61
I5
ssg62
g1906
sg55
(lp1913
S'C:\\Python32\\web2py\\applications\\Casa_de_Apuestas\\'
p1914
asbasbasbag48
(g64
g50
NtRp1915
(dp1916
g53
(dp1917
sg62
g58
sg55
(lp1918
g48
(g69
g50
NtRp1919
(dp1920
g53
(dp1921
g73
g74
ssg62
g1915
sg55
(lp1922
S'function'
p1923
asbag48
(g69
g50
NtRp1924
(dp1925
g53
(dp1926
g80
g81
ssg62
g1915
sg55
(lp1927
S':'
asbag48
(g69
g50
NtRp1928
(dp1929
g53
(dp1930
sg62
g1915
sg55
(lp1931
g48
(g49
g50
NtRp1932
(dp1933
g53
(dp1934
g61
I5
ssg62
g1928
sg55
(lp1935
S'insert'
p1936
asbasbasbag48
(g64
g50
NtRp1937
(dp1938
g53
(dp1939
sg62
g58
sg55
(lp1940
g48
(g69
g50
NtRp1941
(dp1942
g53
(dp1943
g73
g74
ssg62
g1937
sg55
(lp1944
S'get_vars'
p1945
asbag48
(g69
g50
NtRp1946
(dp1947
g53
(dp1948
g80
g81
ssg62
g1937
sg55
(lp1949
S':'
asbag48
(g69
g50
NtRp1950
(dp1951
g53
(dp1952
sg62
g1937
sg55
(lp1953
g48
(g49
g50
NtRp1954
(dp1955
g53
(dp1956
g61
I5
ssg62
g1950
sg55
(lp1957
g48
(g57
g50
NtRp1958
(dp1959
g53
(dp1960
g61
I4
ssg62
Nsg55
(lp1961
sbasbasbasbag48
(g64
g50
NtRp1962
(dp1963
g53
(dp1964
sg62
g58
sg55
(lp1965
g48
(g69
g50
NtRp1966
(dp1967
g53
(dp1968
g73
g74
ssg62
g1962
sg55
(lp1969
S'global_settings'
p1970
asbag48
(g69
g50
NtRp1971
(dp1972
g53
(dp1973
g80
g81
ssg62
g1962
sg55
(lp1974
S':'
asbag48
(g69
g50
NtRp1975
(dp1976
g53
(dp1977
sg62
g1962
sg55
(lp1978
g48
(g49
g50
NtRp1979
(dp1980
g53
(dp1981
g61
I5
ssg62
g1975
sg55
(lp1982
g48
(g57
g50
NtRp1983
(dp1984
g53
(dp1985
g61
I4
ssg62
Nsg55
(lp1986
g48
(g64
g50
NtRp1987
(dp1988
g53
(dp1989
sg62
g1983
sg55
(lp1990
g48
(g69
g50
NtRp1991
(dp1992
g53
(dp1993
g73
g74
ssg62
g1987
sg55
(lp1994
g955
asbag48
(g69
g50
NtRp1995
(dp1996
g53
(dp1997
g80
g81
ssg62
g1987
sg55
(lp1998
S':'
asbag48
(g69
g50
NtRp1999
(dp2000
g53
(dp2001
sg62
g1987
sg55
(lp2002
g48
(g49
g50
NtRp2003
(dp2004
g53
(dp2005
g61
I4
ssg62
g1999
sg55
(lp2006
S"set(['C:\\\\Python32\\\\web2py\\\\applications\\\\Casa_de_Apuestas\\\\', 'C:\\\\Python32\\\\web2py\\\\applications\\\\images\\\\', 'C:\\\\Python32\\\\web2py\\\\applications\\\\welcome\\\\', 'C:\\\\Python32\\\\web2py\\\\applications\\\\admin\\\\'])"
p2007
asbasbasbag48
(g64
g50
NtRp2008
(dp2009
g53
(dp2010
sg62
g1983
sg55
(lp2011
g48
(g69
g50
NtRp2012
(dp2013
g53
(dp2014
g73
g74
ssg62
g2008
sg55
(lp2015
g977
asbag48
(g69
g50
NtRp2016
(dp2017
g53
(dp2018
g80
g81
ssg62
g2008
sg55
(lp2019
S':'
asbag48
(g69
g50
NtRp2020
(dp2021
g53
(dp2022
sg62
g2008
sg55
(lp2023
g48
(g49
g50
NtRp2024
(dp2025
g53
(dp2026
g61
I4
ssg62
g2020
sg55
(lp2027
g990
asbasbasbag48
(g64
g50
NtRp2028
(dp2029
g53
(dp2030
sg62
g1983
sg55
(lp2031
g48
(g69
g50
NtRp2032
(dp2033
g53
(dp2034
g73
g74
ssg62
g2028
sg55
(lp2035
g999
asbag48
(g69
g50
NtRp2036
(dp2037
g53
(dp2038
g80
g81
ssg62
g2028
sg55
(lp2039
S':'
asbag48
(g69
g50
NtRp2040
(dp2041
g53
(dp2042
sg62
g2028
sg55
(lp2043
g48
(g49
g50
NtRp2044
(dp2045
g53
(dp2046
g61
I4
ssg62
g2040
sg55
(lp2047
g48
(g57
g50
NtRp2048
(dp2049
g53
(dp2050
g61
I3
ssg62
Nsg55
(lp2051
sbasbasbasbag48
(g64
g50
NtRp2052
(dp2053
g53
(dp2054
sg62
g1983
sg55
(lp2055
g48
(g69
g50
NtRp2056
(dp2057
g53
(dp2058
g73
g74
ssg62
g2052
sg55
(lp2059
g1024
asbag48
(g69
g50
NtRp2060
(dp2061
g53
(dp2062
g80
g81
ssg62
g2052
sg55
(lp2063
S':'
asbag48
(g69
g50
NtRp2064
(dp2065
g53
(dp2066
sg62
g2052
sg55
(lp2067
g48
(g49
g50
NtRp2068
(dp2069
g53
(dp2070
g61
I4
ssg62
g2064
sg55
(lp2071
S"<Values at 0x2d18f30: {'verbose': False, 'ip': '127.0.0.1', 'shutdown_timeout': 5, 'taskbar': False, 'nocron': False, 'pid_filename': 'httpserver.pid', 'maxthreads': None, 'softcron': False, 'server_name': 'hector-asus', 'bpython': False, 'nogui': False, 'port': 8000, 'extcron': False, 'debuglevel': 30, 'test': None, 'folder': 'C:\\\\Python32\\\\web2py', 'config': '', 'import_models': False, 'winservice': '', 'shell': None, 'run': '', 'log_filename': 'httpserver.log', 'args': [''], 'ssl_ca_certificate': None, 'scheduler': None, 'profiler_filename': None, 'ssl_private_key': '', 'password': '<ask>', 'request_queue_size': 5, 'ssl_certificate': '', 'cronjob': False, 'plain': False, 'quiet': False, 'interfaces': None, 'minthreads': None, 'timeout': 10, 'numthreads': None, 'nobanner': False}>"
p2072
asbasbasbag48
(g64
g50
NtRp2073
(dp2074
g53
(dp2075
sg62
g1983
sg55
(lp2076
g48
(g69
g50
NtRp2077
(dp2078
g53
(dp2079
g73
g74
ssg62
g2073
sg55
(lp2080
g1046
asbag48
(g69
g50
NtRp2081
(dp2082
g53
(dp2083
g80
g81
ssg62
g2073
sg55
(lp2084
S':'
asbag48
(g69
g50
NtRp2085
(dp2086
g53
(dp2087
sg62
g2073
sg55
(lp2088
g48
(g49
g50
NtRp2089
(dp2090
g53
(dp2091
g61
I4
ssg62
g2085
sg55
(lp2092
S'set([])'
p2093
asbasbasbag48
(g64
g50
NtRp2094
(dp2095
g53
(dp2096
sg62
g1983
sg55
(lp2097
g48
(g69
g50
NtRp2098
(dp2099
g53
(dp2100
g73
g74
ssg62
g2094
sg55
(lp2101
g1068
asbag48
(g69
g50
NtRp2102
(dp2103
g53
(dp2104
g80
g81
ssg62
g2094
sg55
(lp2105
S':'
asbag48
(g69
g50
NtRp2106
(dp2107
g53
(dp2108
sg62
g2094
sg55
(lp2109
g48
(g49
g50
NtRp2110
(dp2111
g53
(dp2112
g61
I4
ssg62
g2106
sg55
(lp2113
g91
asbasbasbag48
(g64
g50
NtRp2114
(dp2115
g53
(dp2116
sg62
g1983
sg55
(lp2117
g48
(g69
g50
NtRp2118
(dp2119
g53
(dp2120
g73
g74
ssg62
g2114
sg55
(lp2121
g1089
asbag48
(g69
g50
NtRp2122
(dp2123
g53
(dp2124
g80
g81
ssg62
g2114
sg55
(lp2125
S':'
asbag48
(g69
g50
NtRp2126
(dp2127
g53
(dp2128
sg62
g2114
sg55
(lp2129
g48
(g49
g50
NtRp2130
(dp2131
g53
(dp2132
g61
I4
ssg62
g2126
sg55
(lp2133
g1102
asbasbasbag48
(g64
g50
NtRp2134
(dp2135
g53
(dp2136
sg62
g1983
sg55
(lp2137
g48
(g69
g50
NtRp2138
(dp2139
g53
(dp2140
g73
g74
ssg62
g2134
sg55
(lp2141
g1309
asbag48
(g69
g50
NtRp2142
(dp2143
g53
(dp2144
g80
g81
ssg62
g2134
sg55
(lp2145
S':'
asbag48
(g69
g50
NtRp2146
(dp2147
g53
(dp2148
sg62
g2134
sg55
(lp2149
g48
(g49
g50
NtRp2150
(dp2151
g53
(dp2152
g61
I4
ssg62
g2146
sg55
(lp2153
g91
asbasbasbag48
(g64
g50
NtRp2154
(dp2155
g53
(dp2156
sg62
g1983
sg55
(lp2157
g48
(g69
g50
NtRp2158
(dp2159
g53
(dp2160
g73
g74
ssg62
g2154
sg55
(lp2161
g1547
asbag48
(g69
g50
NtRp2162
(dp2163
g53
(dp2164
g80
g81
ssg62
g2154
sg55
(lp2165
S':'
asbag48
(g69
g50
NtRp2166
(dp2167
g53
(dp2168
sg62
g2154
sg55
(lp2169
g48
(g49
g50
NtRp2170
(dp2171
g53
(dp2172
g61
I4
ssg62
g2166
sg55
(lp2173
g1560
asbasbasbag48
(g64
g50
NtRp2174
(dp2175
g53
(dp2176
sg62
g1983
sg55
(lp2177
g48
(g69
g50
NtRp2178
(dp2179
g53
(dp2180
g73
g74
ssg62
g2174
sg55
(lp2181
g1590
asbag48
(g69
g50
NtRp2182
(dp2183
g53
(dp2184
g80
g81
ssg62
g2174
sg55
(lp2185
S':'
asbag48
(g69
g50
NtRp2186
(dp2187
g53
(dp2188
sg62
g2174
sg55
(lp2189
g48
(g49
g50
NtRp2190
(dp2191
g53
(dp2192
g61
I4
ssg62
g2186
sg55
(lp2193
g48
(g57
g50
NtRp2194
(dp2195
g53
(dp2196
g61
I3
ssg62
Nsg55
(lp2197
g48
(g64
g50
NtRp2198
(dp2199
g53
(dp2200
sg62
g2194
sg55
(lp2201
g48
(g69
g50
NtRp2202
(dp2203
g53
(dp2204
sg62
g2198
sg55
(lp2205
g48
(g49
g50
NtRp2206
(dp2207
g53
(dp2208
g61
I3
ssg62
g2202
sg55
(lp2209
S'1'
asbasbasbag48
(g64
g50
NtRp2210
(dp2211
g53
(dp2212
sg62
g2194
sg55
(lp2213
g48
(g69
g50
NtRp2214
(dp2215
g53
(dp2216
sg62
g2210
sg55
(lp2217
g48
(g49
g50
NtRp2218
(dp2219
g53
(dp2220
g61
I3
ssg62
g2214
sg55
(lp2221
S'99'
p2222
asbasbasbag48
(g64
g50
NtRp2223
(dp2224
g53
(dp2225
sg62
g2194
sg55
(lp2226
g48
(g69
g50
NtRp2227
(dp2228
g53
(dp2229
sg62
g2223
sg55
(lp2230
g48
(g49
g50
NtRp2231
(dp2232
g53
(dp2233
g61
I3
ssg62
g2227
sg55
(lp2234
S'2'
asbasbasbag48
(g64
g50
NtRp2235
(dp2236
g53
(dp2237
sg62
g2194
sg55
(lp2238
g48
(g69
g50
NtRp2239
(dp2240
g53
(dp2241
sg62
g2235
sg55
(lp2242
g48
(g49
g50
NtRp2243
(dp2244
g53
(dp2245
g61
I3
ssg62
g2239
sg55
(lp2246
S'datetime.datetime(2011, 9, 26, 6, 55, 33)'
p2247
asbasbasbag48
(g64
g50
NtRp2248
(dp2249
g53
(dp2250
sg62
g2194
sg55
(lp2251
g48
(g69
g50
NtRp2252
(dp2253
g53
(dp2254
sg62
g2248
sg55
(lp2255
g48
(g49
g50
NtRp2256
(dp2257
g53
(dp2258
g61
I3
ssg62
g2252
sg55
(lp2259
g1669
asbasbasbasbasbasbasbasbasbasbasbag48
(g64
g50
NtRp2260
(dp2261
g53
(dp2262
sg62
g58
sg55
(lp2263
g48
(g69
g50
NtRp2264
(dp2265
g53
(dp2266
g73
g74
ssg62
g2260
sg55
(lp2267
S'is_https'
p2268
asbag48
(g69
g50
NtRp2269
(dp2270
g53
(dp2271
g80
g81
ssg62
g2260
sg55
(lp2272
S':'
asbag48
(g69
g50
NtRp2273
(dp2274
g53
(dp2275
sg62
g2260
sg55
(lp2276
g48
(g49
g50
NtRp2277
(dp2278
g53
(dp2279
g61
I5
ssg62
g2273
sg55
(lp2280
g91
asbasbasbag48
(g64
g50
NtRp2281
(dp2282
g53
(dp2283
sg62
g58
sg55
(lp2284
g48
(g69
g50
NtRp2285
(dp2286
g53
(dp2287
g73
g74
ssg62
g2281
sg55
(lp2288
S'is_local'
p2289
asbag48
(g69
g50
NtRp2290
(dp2291
g53
(dp2292
g80
g81
ssg62
g2281
sg55
(lp2293
S':'
asbag48
(g69
g50
NtRp2294
(dp2295
g53
(dp2296
sg62
g2281
sg55
(lp2297
g48
(g49
g50
NtRp2298
(dp2299
g53
(dp2300
g61
I5
ssg62
g2294
sg55
(lp2301
g1778
asbasbasbag48
(g64
g50
NtRp2302
(dp2303
g53
(dp2304
sg62
g58
sg55
(lp2305
g48
(g69
g50
NtRp2306
(dp2307
g53
(dp2308
g73
g74
ssg62
g2302
sg55
(lp2309
S'is_restful'
p2310
asbag48
(g69
g50
NtRp2311
(dp2312
g53
(dp2313
g80
g81
ssg62
g2302
sg55
(lp2314
S':'
asbag48
(g69
g50
NtRp2315
(dp2316
g53
(dp2317
sg62
g2302
sg55
(lp2318
g48
(g49
g50
NtRp2319
(dp2320
g53
(dp2321
g61
I5
ssg62
g2315
sg55
(lp2322
g91
asbasbasbag48
(g64
g50
NtRp2323
(dp2324
g53
(dp2325
sg62
g58
sg55
(lp2326
g48
(g69
g50
NtRp2327
(dp2328
g53
(dp2329
g73
g74
ssg62
g2323
sg55
(lp2330
S'now'
p2331
asbag48
(g69
g50
NtRp2332
(dp2333
g53
(dp2334
g80
g81
ssg62
g2323
sg55
(lp2335
S':'
asbag48
(g69
g50
NtRp2336
(dp2337
g53
(dp2338
sg62
g2323
sg55
(lp2339
g48
(g49
g50
NtRp2340
(dp2341
g53
(dp2342
g61
I5
ssg62
g2336
sg55
(lp2343
S'datetime.datetime(2011, 11, 12, 17, 47, 50, 651000)'
p2344
asbasbasbag48
(g64
g50
NtRp2345
(dp2346
g53
(dp2347
sg62
g58
sg55
(lp2348
g48
(g69
g50
NtRp2349
(dp2350
g53
(dp2351
g73
g74
ssg62
g2345
sg55
(lp2352
S'post_vars'
p2353
asbag48
(g69
g50
NtRp2354
(dp2355
g53
(dp2356
g80
g81
ssg62
g2345
sg55
(lp2357
S':'
asbag48
(g69
g50
NtRp2358
(dp2359
g53
(dp2360
sg62
g2345
sg55
(lp2361
g48
(g49
g50
NtRp2362
(dp2363
g53
(dp2364
g61
I5
ssg62
g2358
sg55
(lp2365
g48
(g57
g50
NtRp2366
(dp2367
g53
(dp2368
g61
I4
ssg62
Nsg55
(lp2369
sbasbasbasbag48
(g64
g50
NtRp2370
(dp2371
g53
(dp2372
sg62
g58
sg55
(lp2373
g48
(g69
g50
NtRp2374
(dp2375
g53
(dp2376
g73
g74
ssg62
g2370
sg55
(lp2377
S'raw_args'
p2378
asbag48
(g69
g50
NtRp2379
(dp2380
g53
(dp2381
g80
g81
ssg62
g2370
sg55
(lp2382
S':'
asbag48
(g69
g50
NtRp2383
(dp2384
g53
(dp2385
sg62
g2370
sg55
(lp2386
g48
(g49
g50
NtRp2387
(dp2388
g53
(dp2389
g61
I5
ssg62
g2383
sg55
(lp2390
S'db/eventosparticipantes'
p2391
asbasbasbag48
(g64
g50
NtRp2392
(dp2393
g53
(dp2394
sg62
g58
sg55
(lp2395
g48
(g69
g50
NtRp2396
(dp2397
g53
(dp2398
g73
g74
ssg62
g2392
sg55
(lp2399
S'url'
p2400
asbag48
(g69
g50
NtRp2401
(dp2402
g53
(dp2403
g80
g81
ssg62
g2392
sg55
(lp2404
S':'
asbag48
(g69
g50
NtRp2405
(dp2406
g53
(dp2407
sg62
g2392
sg55
(lp2408
g48
(g49
g50
NtRp2409
(dp2410
g53
(dp2411
g61
I5
ssg62
g2405
sg55
(lp2412
S'/Casa_de_Apuestas/appadmin/insert/db/eventosparticipantes'
p2413
asbasbasbag48
(g64
g50
NtRp2414
(dp2415
g53
(dp2416
sg62
g58
sg55
(lp2417
g48
(g69
g50
NtRp2418
(dp2419
g53
(dp2420
g73
g74
ssg62
g2414
sg55
(lp2421
S'utcnow'
p2422
asbag48
(g69
g50
NtRp2423
(dp2424
g53
(dp2425
g80
g81
ssg62
g2414
sg55
(lp2426
S':'
asbag48
(g69
g50
NtRp2427
(dp2428
g53
(dp2429
sg62
g2414
sg55
(lp2430
g48
(g49
g50
NtRp2431
(dp2432
g53
(dp2433
g61
I5
ssg62
g2427
sg55
(lp2434
S'datetime.datetime(2011, 11, 12, 22, 17, 50, 651000)'
p2435
asbasbasbag48
(g64
g50
NtRp2436
(dp2437
g53
(dp2438
sg62
g58
sg55
(lp2439
g48
(g69
g50
NtRp2440
(dp2441
g53
(dp2442
g73
g74
ssg62
g2436
sg55
(lp2443
S'uuid'
p2444
asbag48
(g69
g50
NtRp2445
(dp2446
g53
(dp2447
g80
g81
ssg62
g2436
sg55
(lp2448
S':'
asbag48
(g69
g50
NtRp2449
(dp2450
g53
(dp2451
sg62
g2436
sg55
(lp2452
g48
(g49
g50
NtRp2453
(dp2454
g53
(dp2455
g61
I5
ssg62
g2449
sg55
(lp2456
S'Casa_de_Apuestas/127.0.0.1.2011-11-12.17-47-50.a0fc12fc-70e0-49d3-ae14-6db9cca4fd20'
p2457
asbasbasbag48
(g64
g50
NtRp2458
(dp2459
g53
(dp2460
sg62
g58
sg55
(lp2461
g48
(g69
g50
NtRp2462
(dp2463
g53
(dp2464
g73
g74
ssg62
g2458
sg55
(lp2465
S'vars'
p2466
asbag48
(g69
g50
NtRp2467
(dp2468
g53
(dp2469
g80
g81
ssg62
g2458
sg55
(lp2470
S':'
asbag48
(g69
g50
NtRp2471
(dp2472
g53
(dp2473
sg62
g2458
sg55
(lp2474
g48
(g49
g50
NtRp2475
(dp2476
g53
(dp2477
g61
I5
ssg62
g2471
sg55
(lp2478
g48
(g57
g50
NtRp2479
(dp2480
g53
(dp2481
g61
I4
ssg62
Nsg55
(lp2482
sbasbasbasbag48
(g64
g50
NtRp2483
(dp2484
g53
(dp2485
sg62
g58
sg55
(lp2486
g48
(g69
g50
NtRp2487
(dp2488
g53
(dp2489
g73
g74
ssg62
g2483
sg55
(lp2490
S'wsgi'
p2491
asbag48
(g69
g50
NtRp2492
(dp2493
g53
(dp2494
g80
g81
ssg62
g2483
sg55
(lp2495
S':'
asbag48
(g69
g50
NtRp2496
(dp2497
g53
(dp2498
sg62
g2483
sg55
(lp2499
g48
(g49
g50
NtRp2500
(dp2501
g53
(dp2502
g61
I5
ssg62
g2496
sg55
(lp2503
g48
(g57
g50
NtRp2504
(dp2505
g53
(dp2506
g61
I4
ssg62
Nsg55
(lp2507
g48
(g64
g50
NtRp2508
(dp2509
g53
(dp2510
sg62
g2504
sg55
(lp2511
g48
(g69
g50
NtRp2512
(dp2513
g53
(dp2514
g73
g74
ssg62
g2508
sg55
(lp2515
S'environ'
p2516
asbag48
(g69
g50
NtRp2517
(dp2518
g53
(dp2519
g80
g81
ssg62
g2508
sg55
(lp2520
S':'
asbag48
(g69
g50
NtRp2521
(dp2522
g53
(dp2523
sg62
g2508
sg55
(lp2524
g48
(g49
g50
NtRp2525
(dp2526
g53
(dp2527
g61
I4
ssg62
g2521
sg55
(lp2528
g48
(g57
g50
NtRp2529
(dp2530
g53
(dp2531
g61
I3
ssg62
Nsg55
(lp2532
g48
(g64
g50
NtRp2533
(dp2534
g53
(dp2535
sg62
g2529
sg55
(lp2536
g48
(g69
g50
NtRp2537
(dp2538
g53
(dp2539
g73
g74
ssg62
g2533
sg55
(lp2540
S'HTTP_ACCEPT'
p2541
asbag48
(g69
g50
NtRp2542
(dp2543
g53
(dp2544
g80
g81
ssg62
g2533
sg55
(lp2545
S':'
asbag48
(g69
g50
NtRp2546
(dp2547
g53
(dp2548
sg62
g2533
sg55
(lp2549
g48
(g49
g50
NtRp2550
(dp2551
g53
(dp2552
g61
I3
ssg62
g2546
sg55
(lp2553
g1124
asbasbasbag48
(g64
g50
NtRp2554
(dp2555
g53
(dp2556
sg62
g2529
sg55
(lp2557
g48
(g69
g50
NtRp2558
(dp2559
g53
(dp2560
g73
g74
ssg62
g2554
sg55
(lp2561
S'HTTP_ACCEPT_CHARSET'
p2562
asbag48
(g69
g50
NtRp2563
(dp2564
g53
(dp2565
g80
g81
ssg62
g2554
sg55
(lp2566
S':'
asbag48
(g69
g50
NtRp2567
(dp2568
g53
(dp2569
sg62
g2554
sg55
(lp2570
g48
(g49
g50
NtRp2571
(dp2572
g53
(dp2573
g61
I3
ssg62
g2567
sg55
(lp2574
g1146
asbasbasbag48
(g64
g50
NtRp2575
(dp2576
g53
(dp2577
sg62
g2529
sg55
(lp2578
g48
(g69
g50
NtRp2579
(dp2580
g53
(dp2581
g73
g74
ssg62
g2575
sg55
(lp2582
S'HTTP_ACCEPT_ENCODING'
p2583
asbag48
(g69
g50
NtRp2584
(dp2585
g53
(dp2586
g80
g81
ssg62
g2575
sg55
(lp2587
S':'
asbag48
(g69
g50
NtRp2588
(dp2589
g53
(dp2590
sg62
g2575
sg55
(lp2591
g48
(g49
g50
NtRp2592
(dp2593
g53
(dp2594
g61
I3
ssg62
g2588
sg55
(lp2595
g1168
asbasbasbag48
(g64
g50
NtRp2596
(dp2597
g53
(dp2598
sg62
g2529
sg55
(lp2599
g48
(g69
g50
NtRp2600
(dp2601
g53
(dp2602
g73
g74
ssg62
g2596
sg55
(lp2603
S'HTTP_ACCEPT_LANGUAGE'
p2604
asbag48
(g69
g50
NtRp2605
(dp2606
g53
(dp2607
g80
g81
ssg62
g2596
sg55
(lp2608
S':'
asbag48
(g69
g50
NtRp2609
(dp2610
g53
(dp2611
sg62
g2596
sg55
(lp2612
g48
(g49
g50
NtRp2613
(dp2614
g53
(dp2615
g61
I3
ssg62
g2609
sg55
(lp2616
g1190
asbasbasbag48
(g64
g50
NtRp2617
(dp2618
g53
(dp2619
sg62
g2529
sg55
(lp2620
g48
(g69
g50
NtRp2621
(dp2622
g53
(dp2623
g73
g74
ssg62
g2617
sg55
(lp2624
S'HTTP_CONNECTION'
p2625
asbag48
(g69
g50
NtRp2626
(dp2627
g53
(dp2628
g80
g81
ssg62
g2617
sg55
(lp2629
S':'
asbag48
(g69
g50
NtRp2630
(dp2631
g53
(dp2632
sg62
g2617
sg55
(lp2633
g48
(g49
g50
NtRp2634
(dp2635
g53
(dp2636
g61
I3
ssg62
g2630
sg55
(lp2637
g1212
asbasbasbag48
(g64
g50
NtRp2638
(dp2639
g53
(dp2640
sg62
g2529
sg55
(lp2641
g48
(g69
g50
NtRp2642
(dp2643
g53
(dp2644
g73
g74
ssg62
g2638
sg55
(lp2645
S'HTTP_COOKIE'
p2646
asbag48
(g69
g50
NtRp2647
(dp2648
g53
(dp2649
g80
g81
ssg62
g2638
sg55
(lp2650
S':'
asbag48
(g69
g50
NtRp2651
(dp2652
g53
(dp2653
sg62
g2638
sg55
(lp2654
g48
(g49
g50
NtRp2655
(dp2656
g53
(dp2657
g61
I3
ssg62
g2651
sg55
(lp2658
g1234
asbasbasbag48
(g64
g50
NtRp2659
(dp2660
g53
(dp2661
sg62
g2529
sg55
(lp2662
g48
(g69
g50
NtRp2663
(dp2664
g53
(dp2665
g73
g74
ssg62
g2659
sg55
(lp2666
S'HTTP_HOST'
p2667
asbag48
(g69
g50
NtRp2668
(dp2669
g53
(dp2670
g80
g81
ssg62
g2659
sg55
(lp2671
S':'
asbag48
(g69
g50
NtRp2672
(dp2673
g53
(dp2674
sg62
g2659
sg55
(lp2675
g48
(g49
g50
NtRp2676
(dp2677
g53
(dp2678
g61
I3
ssg62
g2672
sg55
(lp2679
g1256
asbasbasbag48
(g64
g50
NtRp2680
(dp2681
g53
(dp2682
sg62
g2529
sg55
(lp2683
g48
(g69
g50
NtRp2684
(dp2685
g53
(dp2686
g73
g74
ssg62
g2680
sg55
(lp2687
S'HTTP_REFERER'
p2688
asbag48
(g69
g50
NtRp2689
(dp2690
g53
(dp2691
g80
g81
ssg62
g2680
sg55
(lp2692
S':'
asbag48
(g69
g50
NtRp2693
(dp2694
g53
(dp2695
sg62
g2680
sg55
(lp2696
g48
(g49
g50
NtRp2697
(dp2698
g53
(dp2699
g61
I3
ssg62
g2693
sg55
(lp2700
g1278
asbasbasbag48
(g64
g50
NtRp2701
(dp2702
g53
(dp2703
sg62
g2529
sg55
(lp2704
g48
(g69
g50
NtRp2705
(dp2706
g53
(dp2707
g73
g74
ssg62
g2701
sg55
(lp2708
S'HTTP_USER_AGENT'
p2709
asbag48
(g69
g50
NtRp2710
(dp2711
g53
(dp2712
g80
g81
ssg62
g2701
sg55
(lp2713
S':'
asbag48
(g69
g50
NtRp2714
(dp2715
g53
(dp2716
sg62
g2701
sg55
(lp2717
g48
(g49
g50
NtRp2718
(dp2719
g53
(dp2720
g61
I3
ssg62
g2714
sg55
(lp2721
g1300
asbasbasbag48
(g64
g50
NtRp2722
(dp2723
g53
(dp2724
sg62
g2529
sg55
(lp2725
g48
(g69
g50
NtRp2726
(dp2727
g53
(dp2728
g73
g74
ssg62
g2722
sg55
(lp2729
S'PATH_INFO'
p2730
asbag48
(g69
g50
NtRp2731
(dp2732
g53
(dp2733
g80
g81
ssg62
g2722
sg55
(lp2734
S':'
asbag48
(g69
g50
NtRp2735
(dp2736
g53
(dp2737
sg62
g2722
sg55
(lp2738
g48
(g49
g50
NtRp2739
(dp2740
g53
(dp2741
g61
I3
ssg62
g2735
sg55
(lp2742
g1343
asbasbasbag48
(g64
g50
NtRp2743
(dp2744
g53
(dp2745
sg62
g2529
sg55
(lp2746
g48
(g69
g50
NtRp2747
(dp2748
g53
(dp2749
g73
g74
ssg62
g2743
sg55
(lp2750
S'QUERY_STRING'
p2751
asbag48
(g69
g50
NtRp2752
(dp2753
g53
(dp2754
g80
g81
ssg62
g2743
sg55
(lp2755
S':'
asbag48
(g69
g50
NtRp2756
(dp2757
g53
(dp2758
sg62
g2743
sg55
(lp2759
g48
(g49
g50
NtRp2760
(dp2761
g53
(dp2762
g61
I3
ssg62
g2756
sg55
(lp2763
S''
asbasbasbag48
(g64
g50
NtRp2764
(dp2765
g53
(dp2766
sg62
g2529
sg55
(lp2767
g48
(g69
g50
NtRp2768
(dp2769
g53
(dp2770
g73
g74
ssg62
g2764
sg55
(lp2771
S'REMOTE_ADDR'
p2772
asbag48
(g69
g50
NtRp2773
(dp2774
g53
(dp2775
g80
g81
ssg62
g2764
sg55
(lp2776
S':'
asbag48
(g69
g50
NtRp2777
(dp2778
g53
(dp2779
sg62
g2764
sg55
(lp2780
g48
(g49
g50
NtRp2781
(dp2782
g53
(dp2783
g61
I3
ssg62
g2777
sg55
(lp2784
g207
asbasbasbag48
(g64
g50
NtRp2785
(dp2786
g53
(dp2787
sg62
g2529
sg55
(lp2788
g48
(g69
g50
NtRp2789
(dp2790
g53
(dp2791
g73
g74
ssg62
g2785
sg55
(lp2792
S'REMOTE_PORT'
p2793
asbag48
(g69
g50
NtRp2794
(dp2795
g53
(dp2796
g80
g81
ssg62
g2785
sg55
(lp2797
S':'
asbag48
(g69
g50
NtRp2798
(dp2799
g53
(dp2800
sg62
g2785
sg55
(lp2801
g48
(g49
g50
NtRp2802
(dp2803
g53
(dp2804
g61
I3
ssg62
g2798
sg55
(lp2805
g1407
asbasbasbag48
(g64
g50
NtRp2806
(dp2807
g53
(dp2808
sg62
g2529
sg55
(lp2809
g48
(g69
g50
NtRp2810
(dp2811
g53
(dp2812
g73
g74
ssg62
g2806
sg55
(lp2813
S'REQUEST_METHOD'
p2814
asbag48
(g69
g50
NtRp2815
(dp2816
g53
(dp2817
g80
g81
ssg62
g2806
sg55
(lp2818
S':'
asbag48
(g69
g50
NtRp2819
(dp2820
g53
(dp2821
sg62
g2806
sg55
(lp2822
g48
(g49
g50
NtRp2823
(dp2824
g53
(dp2825
g61
I3
ssg62
g2819
sg55
(lp2826
g1429
asbasbasbag48
(g64
g50
NtRp2827
(dp2828
g53
(dp2829
sg62
g2529
sg55
(lp2830
g48
(g69
g50
NtRp2831
(dp2832
g53
(dp2833
g73
g74
ssg62
g2827
sg55
(lp2834
S'SCRIPT_NAME'
p2835
asbag48
(g69
g50
NtRp2836
(dp2837
g53
(dp2838
g80
g81
ssg62
g2827
sg55
(lp2839
S':'
asbag48
(g69
g50
NtRp2840
(dp2841
g53
(dp2842
sg62
g2827
sg55
(lp2843
g48
(g49
g50
NtRp2844
(dp2845
g53
(dp2846
g61
I3
ssg62
g2840
sg55
(lp2847
S''
asbasbasbag48
(g64
g50
NtRp2848
(dp2849
g53
(dp2850
sg62
g2529
sg55
(lp2851
g48
(g69
g50
NtRp2852
(dp2853
g53
(dp2854
g73
g74
ssg62
g2848
sg55
(lp2855
S'SERVER_NAME'
p2856
asbag48
(g69
g50
NtRp2857
(dp2858
g53
(dp2859
g80
g81
ssg62
g2848
sg55
(lp2860
S':'
asbag48
(g69
g50
NtRp2861
(dp2862
g53
(dp2863
sg62
g2848
sg55
(lp2864
g48
(g49
g50
NtRp2865
(dp2866
g53
(dp2867
g61
I3
ssg62
g2861
sg55
(lp2868
g1472
asbasbasbag48
(g64
g50
NtRp2869
(dp2870
g53
(dp2871
sg62
g2529
sg55
(lp2872
g48
(g69
g50
NtRp2873
(dp2874
g53
(dp2875
g73
g74
ssg62
g2869
sg55
(lp2876
S'SERVER_PORT'
p2877
asbag48
(g69
g50
NtRp2878
(dp2879
g53
(dp2880
g80
g81
ssg62
g2869
sg55
(lp2881
S':'
asbag48
(g69
g50
NtRp2882
(dp2883
g53
(dp2884
sg62
g2869
sg55
(lp2885
g48
(g49
g50
NtRp2886
(dp2887
g53
(dp2888
g61
I3
ssg62
g2882
sg55
(lp2889
g1494
asbasbasbag48
(g64
g50
NtRp2890
(dp2891
g53
(dp2892
sg62
g2529
sg55
(lp2893
g48
(g69
g50
NtRp2894
(dp2895
g53
(dp2896
g73
g74
ssg62
g2890
sg55
(lp2897
S'SERVER_PROTOCOL'
p2898
asbag48
(g69
g50
NtRp2899
(dp2900
g53
(dp2901
g80
g81
ssg62
g2890
sg55
(lp2902
S':'
asbag48
(g69
g50
NtRp2903
(dp2904
g53
(dp2905
sg62
g2890
sg55
(lp2906
g48
(g49
g50
NtRp2907
(dp2908
g53
(dp2909
g61
I3
ssg62
g2903
sg55
(lp2910
g1516
asbasbasbag48
(g64
g50
NtRp2911
(dp2912
g53
(dp2913
sg62
g2529
sg55
(lp2914
g48
(g69
g50
NtRp2915
(dp2916
g53
(dp2917
g73
g74
ssg62
g2911
sg55
(lp2918
S'SERVER_SOFTWARE'
p2919
asbag48
(g69
g50
NtRp2920
(dp2921
g53
(dp2922
g80
g81
ssg62
g2911
sg55
(lp2923
S':'
asbag48
(g69
g50
NtRp2924
(dp2925
g53
(dp2926
sg62
g2911
sg55
(lp2927
g48
(g49
g50
NtRp2928
(dp2929
g53
(dp2930
g61
I3
ssg62
g2924
sg55
(lp2931
g1538
asbasbasbag48
(g64
g50
NtRp2932
(dp2933
g53
(dp2934
sg62
g2529
sg55
(lp2935
g48
(g69
g50
NtRp2936
(dp2937
g53
(dp2938
g73
g74
ssg62
g2932
sg55
(lp2939
S'wsgi.errors'
p2940
asbag48
(g69
g50
NtRp2941
(dp2942
g53
(dp2943
g80
g81
ssg62
g2932
sg55
(lp2944
S':'
asbag48
(g69
g50
NtRp2945
(dp2946
g53
(dp2947
sg62
g2932
sg55
(lp2948
g48
(g49
g50
NtRp2949
(dp2950
g53
(dp2951
g61
I3
ssg62
g2945
sg55
(lp2952
S"<open file '<stderr>', mode 'w' at 0x01FA00B0>"
p2953
asbasbasbag48
(g64
g50
NtRp2954
(dp2955
g53
(dp2956
sg62
g2529
sg55
(lp2957
g48
(g69
g50
NtRp2958
(dp2959
g53
(dp2960
g73
g74
ssg62
g2954
sg55
(lp2961
S'wsgi.file_wrapper'
p2962
asbag48
(g69
g50
NtRp2963
(dp2964
g53
(dp2965
g80
g81
ssg62
g2954
sg55
(lp2966
S':'
asbag48
(g69
g50
NtRp2967
(dp2968
g53
(dp2969
sg62
g2954
sg55
(lp2970
g48
(g49
g50
NtRp2971
(dp2972
g53
(dp2973
g61
I3
ssg62
g2967
sg55
(lp2974
S'<class wsgiref.util.FileWrapper at 0x02AB0D80>'
p2975
asbasbasbag48
(g64
g50
NtRp2976
(dp2977
g53
(dp2978
sg62
g2529
sg55
(lp2979
g48
(g69
g50
NtRp2980
(dp2981
g53
(dp2982
g73
g74
ssg62
g2976
sg55
(lp2983
S'wsgi.input'
p2984
asbag48
(g69
g50
NtRp2985
(dp2986
g53
(dp2987
g80
g81
ssg62
g2976
sg55
(lp2988
S':'
asbag48
(g69
g50
NtRp2989
(dp2990
g53
(dp2991
sg62
g2976
sg55
(lp2992
g48
(g49
g50
NtRp2993
(dp2994
g53
(dp2995
g61
I3
ssg62
g2989
sg55
(lp2996
S'<cStringIO.StringO object at 0x067FB580>'
p2997
asbasbasbag48
(g64
g50
NtRp2998
(dp2999
g53
(dp3000
sg62
g2529
sg55
(lp3001
g48
(g69
g50
NtRp3002
(dp3003
g53
(dp3004
g73
g74
ssg62
g2998
sg55
(lp3005
S'wsgi.multiprocess'
p3006
asbag48
(g69
g50
NtRp3007
(dp3008
g53
(dp3009
g80
g81
ssg62
g2998
sg55
(lp3010
S':'
asbag48
(g69
g50
NtRp3011
(dp3012
g53
(dp3013
sg62
g2998
sg55
(lp3014
g48
(g49
g50
NtRp3015
(dp3016
g53
(dp3017
g61
I3
ssg62
g3011
sg55
(lp3018
g91
asbasbasbag48
(g64
g50
NtRp3019
(dp3020
g53
(dp3021
sg62
g2529
sg55
(lp3022
g48
(g69
g50
NtRp3023
(dp3024
g53
(dp3025
g73
g74
ssg62
g3019
sg55
(lp3026
S'wsgi.multithread'
p3027
asbag48
(g69
g50
NtRp3028
(dp3029
g53
(dp3030
g80
g81
ssg62
g3019
sg55
(lp3031
S':'
asbag48
(g69
g50
NtRp3032
(dp3033
g53
(dp3034
sg62
g3019
sg55
(lp3035
g48
(g49
g50
NtRp3036
(dp3037
g53
(dp3038
g61
I3
ssg62
g3032
sg55
(lp3039
g1778
asbasbasbag48
(g64
g50
NtRp3040
(dp3041
g53
(dp3042
sg62
g2529
sg55
(lp3043
g48
(g69
g50
NtRp3044
(dp3045
g53
(dp3046
g73
g74
ssg62
g3040
sg55
(lp3047
S'wsgi.run_once'
p3048
asbag48
(g69
g50
NtRp3049
(dp3050
g53
(dp3051
g80
g81
ssg62
g3040
sg55
(lp3052
S':'
asbag48
(g69
g50
NtRp3053
(dp3054
g53
(dp3055
sg62
g3040
sg55
(lp3056
g48
(g49
g50
NtRp3057
(dp3058
g53
(dp3059
g61
I3
ssg62
g3053
sg55
(lp3060
g91
asbasbasbag48
(g64
g50
NtRp3061
(dp3062
g53
(dp3063
sg62
g2529
sg55
(lp3064
g48
(g69
g50
NtRp3065
(dp3066
g53
(dp3067
g73
g74
ssg62
g3061
sg55
(lp3068
S'wsgi.url_scheme'
p3069
asbag48
(g69
g50
NtRp3070
(dp3071
g53
(dp3072
g80
g81
ssg62
g3061
sg55
(lp3073
S':'
asbag48
(g69
g50
NtRp3074
(dp3075
g53
(dp3076
sg62
g3061
sg55
(lp3077
g48
(g49
g50
NtRp3078
(dp3079
g53
(dp3080
g61
I3
ssg62
g3074
sg55
(lp3081
g1821
asbasbasbag48
(g64
g50
NtRp3082
(dp3083
g53
(dp3084
sg62
g2529
sg55
(lp3085
g48
(g69
g50
NtRp3086
(dp3087
g53
(dp3088
g73
g74
ssg62
g3082
sg55
(lp3089
S'wsgi.version'
p3090
asbag48
(g69
g50
NtRp3091
(dp3092
g53
(dp3093
g80
g81
ssg62
g3082
sg55
(lp3094
S':'
asbag48
(g69
g50
NtRp3095
(dp3096
g53
(dp3097
sg62
g3082
sg55
(lp3098
g48
(g49
g50
NtRp3099
(dp3100
g53
(dp3101
g61
I3
ssg62
g3095
sg55
(lp3102
S'1'
asbasbasbasbasbasbasbasbasbasbasbasbasbsS'frames'
p3103
(lp3104
(dp3105
S'file'
p3106
S'C:\\Python32\\web2py\\gluon\\restricted.py'
p3107
sS'dump'
p3108
(dp3109
sS'lnum'
p3110
I194
sS'lines'
p3111
(dp3112
sS'call'
p3113
S"(code='# -*- coding: utf-8 -*-\\n\\n#######################...ender\\nmail.settings.login = settings.email_login\\n', environment={'A': <class 'gluon.html.A'>, 'B': <class 'gluon.html.B'>, 'BEAUTIFY': <class 'gluon.html.BEAUTIFY'>, 'BODY': <class 'gluon.html.BODY'>, 'BR': <class 'gluon.html.BR'>, 'BUTTON': <class 'gluon.html.BUTTON'>, 'CAT': <class 'gluon.html.CAT'>, 'CENTER': <class 'gluon.html.CENTER'>, 'CLEANUP': <class 'gluon.validators.CLEANUP'>, 'CODE': <class 'gluon.html.CODE'>, ...}, layer=r'C:\\Python32\\web2py\\applications\\Casa_de_Apuestas\\models\\db.py')"
p3114
sS'func'
p3115
S'restricted'
p3116
sa(dp3117
g3106
S'C:\\Python32\\web2py\\applications\\Casa_de_Apuestas\\models\\db.py'
p3118
sg3108
(dp3119
sg3110
I31
sg3111
(dp3120
I32
S''
sI33
S'    )'
p3121
sI34
S''
sI35
S"    db.define_table('usuarios',"
p3122
sI26
S''
sI27
S"    db.define_table('eventosparticipantes',"
p3123
sI28
S"        Field('eventos_id',db.eventos),"
p3124
sI29
S"        Field('participantes_id',db.participantes),"
p3125
sI30
S"        Field('limite_apuesta','integer'),"
p3126
sI31
S"        primarykey=['eventos_id','participantes_id']"
p3127
ssg3113
S'()'
p3128
sg3115
S'<module>'
p3129
sa(dp3130
g3106
S'C:\\Python32\\web2py\\gluon\\dal.py'
p3131
sg3108
(dp3132
sg3110
I4491
sg3111
(dp3133
sg3113
S"(self=<DAL {'participantes': <Table {'ALL': <gluon.dal...erences': {}, '_uri': 'sqlite://storage.sqlite'}>, tablename='eventosparticipantes', *fields=(<gluon.dal.Field object at 0x06597690>, <gluon.dal.Field object at 0x06597490>, <gluon.dal.Field object at 0x06597770>), **args={'primarykey': ['eventos_id', 'participantes_id']})"
p3134
sg3115
S'define_table'
p3135
sa(dp3136
g3106
S'C:\\Python32\\web2py\\gluon\\dal.py'
p3137
sg3108
(dp3138
sg3110
I558
sg3111
(dp3139
sg3113
S"(self=<gluon.dal.SQLiteAdapter object at 0x067FB430>, table=<Table {'ALL': <gluon.dal.SQLALL object at 0x065...puesta': <gluon.dal.Field object at 0x06597770>}>, migrate=True, fake_migrate=False, polymodel=None)"
p3140
sg3115
S'create_table'
p3141
sasS'pyver'
p3142
S'Python 2.5.4: C:\\Python32\\web2py\\web2py.exe'
p3143
sS'session'
p3144
g48
(g49
g50
NtRp3145
(dp3146
g53
(dp3147
sg55
(lp3148
g48
(g57
g50
NtRp3149
(dp3150
g53
(dp3151
g61
I5
ssg62
Nsg55
(lp3152
g48
(g64
g50
NtRp3153
(dp3154
g53
(dp3155
sg62
g3149
sg55
(lp3156
g48
(g69
g50
NtRp3157
(dp3158
g53
(dp3159
g73
g74
ssg62
g3153
sg55
(lp3160
S'last_query'
p3161
asbag48
(g69
g50
NtRp3162
(dp3163
g53
(dp3164
g80
g81
ssg62
g3153
sg55
(lp3165
S':'
asbag48
(g69
g50
NtRp3166
(dp3167
g53
(dp3168
sg62
g3153
sg55
(lp3169
g48
(g49
g50
NtRp3170
(dp3171
g53
(dp3172
g61
I5
ssg62
g3166
sg55
(lp3173
S'db.eventos_participantes.eventos_id>0'
p3174
asbasbasbasbasbsS'etype'
p3175
S"<type 'exceptions.ValueError'>"
p3176
sS'date'
p3177
S'Sat Nov 12 17:47:50 2011'
p3178
sS'response'
p3179
g48
(g49
g50
NtRp3180
(dp3181
g53
(dp3182
sg55
(lp3183
g48
(g57
g50
NtRp3184
(dp3185
g53
(dp3186
g61
I5
ssg62
Nsg55
(lp3187
g48
(g64
g50
NtRp3188
(dp3189
g53
(dp3190
sg62
g3184
sg55
(lp3191
g48
(g69
g50
NtRp3192
(dp3193
g53
(dp3194
g73
g74
ssg62
g3188
sg55
(lp3195
g172
asbag48
(g69
g50
NtRp3196
(dp3197
g53
(dp3198
g80
g81
ssg62
g3188
sg55
(lp3199
S':'
asbag48
(g69
g50
NtRp3200
(dp3201
g53
(dp3202
sg62
g3188
sg55
(lp3203
g48
(g49
g50
NtRp3204
(dp3205
g53
(dp3206
g61
I5
ssg62
g3200
sg55
(lp3207
S'<cStringIO.StringO object at 0x067FB080>'
p3208
asbasbasbag48
(g64
g50
NtRp3209
(dp3210
g53
(dp3211
sg62
g3184
sg55
(lp3212
g48
(g69
g50
NtRp3213
(dp3214
g53
(dp3215
g73
g74
ssg62
g3209
sg55
(lp3216
g238
asbag48
(g69
g50
NtRp3217
(dp3218
g53
(dp3219
g80
g81
ssg62
g3209
sg55
(lp3220
S':'
asbag48
(g69
g50
NtRp3221
(dp3222
g53
(dp3223
sg62
g3209
sg55
(lp3224
g48
(g49
g50
NtRp3225
(dp3226
g53
(dp3227
g61
I5
ssg62
g3221
sg55
(lp3228
g48
(g57
g50
NtRp3229
(dp3230
g53
(dp3231
g61
I4
ssg62
Nsg55
(lp3232
g48
(g64
g50
NtRp3233
(dp3234
g53
(dp3235
sg62
g3229
sg55
(lp3236
g48
(g69
g50
NtRp3237
(dp3238
g53
(dp3239
g73
g74
ssg62
g3233
sg55
(lp3240
S'session_id_casa_de_apuestas'
p3241
asbag48
(g69
g50
NtRp3242
(dp3243
g53
(dp3244
g80
g81
ssg62
g3233
sg55
(lp3245
S':'
asbag48
(g69
g50
NtRp3246
(dp3247
g53
(dp3248
sg62
g3233
sg55
(lp3249
g48
(g49
g50
NtRp3250
(dp3251
g53
(dp3252
g61
I4
ssg62
g3246
sg55
(lp3253
g48
(g57
g50
NtRp3254
(dp3255
g53
(dp3256
g61
I3
ssg62
Nsg55
(lp3257
g48
(g64
g50
NtRp3258
(dp3259
g53
(dp3260
sg62
g3254
sg55
(lp3261
g48
(g69
g50
NtRp3262
(dp3263
g53
(dp3264
g73
g74
ssg62
g3258
sg55
(lp3265
g288
asbag48
(g69
g50
NtRp3266
(dp3267
g53
(dp3268
g80
g81
ssg62
g3258
sg55
(lp3269
S':'
asbag48
(g69
g50
NtRp3270
(dp3271
g53
(dp3272
sg62
g3258
sg55
(lp3273
g48
(g49
g50
NtRp3274
(dp3275
g53
(dp3276
g61
I3
ssg62
g3270
sg55
(lp3277
S''
asbasbasbag48
(g64
g50
NtRp3278
(dp3279
g53
(dp3280
sg62
g3254
sg55
(lp3281
g48
(g69
g50
NtRp3282
(dp3283
g53
(dp3284
g73
g74
ssg62
g3278
sg55
(lp3285
g309
asbag48
(g69
g50
NtRp3286
(dp3287
g53
(dp3288
g80
g81
ssg62
g3278
sg55
(lp3289
S':'
asbag48
(g69
g50
NtRp3290
(dp3291
g53
(dp3292
sg62
g3278
sg55
(lp3293
g48
(g49
g50
NtRp3294
(dp3295
g53
(dp3296
g61
I3
ssg62
g3290
sg55
(lp3297
S''
asbasbasbag48
(g64
g50
NtRp3298
(dp3299
g53
(dp3300
sg62
g3254
sg55
(lp3301
g48
(g69
g50
NtRp3302
(dp3303
g53
(dp3304
g73
g74
ssg62
g3298
sg55
(lp3305
g330
asbag48
(g69
g50
NtRp3306
(dp3307
g53
(dp3308
g80
g81
ssg62
g3298
sg55
(lp3309
S':'
asbag48
(g69
g50
NtRp3310
(dp3311
g53
(dp3312
sg62
g3298
sg55
(lp3313
g48
(g49
g50
NtRp3314
(dp3315
g53
(dp3316
g61
I3
ssg62
g3310
sg55
(lp3317
S''
asbasbasbag48
(g64
g50
NtRp3318
(dp3319
g53
(dp3320
sg62
g3254
sg55
(lp3321
g48
(g69
g50
NtRp3322
(dp3323
g53
(dp3324
g73
g74
ssg62
g3318
sg55
(lp3325
g351
asbag48
(g69
g50
NtRp3326
(dp3327
g53
(dp3328
g80
g81
ssg62
g3318
sg55
(lp3329
S':'
asbag48
(g69
g50
NtRp3330
(dp3331
g53
(dp3332
sg62
g3318
sg55
(lp3333
g48
(g49
g50
NtRp3334
(dp3335
g53
(dp3336
g61
I3
ssg62
g3330
sg55
(lp3337
S''
asbasbasbag48
(g64
g50
NtRp3338
(dp3339
g53
(dp3340
sg62
g3254
sg55
(lp3341
g48
(g69
g50
NtRp3342
(dp3343
g53
(dp3344
g73
g74
ssg62
g3338
sg55
(lp3345
g372
asbag48
(g69
g50
NtRp3346
(dp3347
g53
(dp3348
g80
g81
ssg62
g3338
sg55
(lp3349
S':'
asbag48
(g69
g50
NtRp3350
(dp3351
g53
(dp3352
sg62
g3338
sg55
(lp3353
g48
(g49
g50
NtRp3354
(dp3355
g53
(dp3356
g61
I3
ssg62
g3350
sg55
(lp3357
S'/'
asbasbasbag48
(g64
g50
NtRp3358
(dp3359
g53
(dp3360
sg62
g3254
sg55
(lp3361
g48
(g69
g50
NtRp3362
(dp3363
g53
(dp3364
g73
g74
ssg62
g3358
sg55
(lp3365
g393
asbag48
(g69
g50
NtRp3366
(dp3367
g53
(dp3368
g80
g81
ssg62
g3358
sg55
(lp3369
S':'
asbag48
(g69
g50
NtRp3370
(dp3371
g53
(dp3372
sg62
g3358
sg55
(lp3373
g48
(g49
g50
NtRp3374
(dp3375
g53
(dp3376
g61
I3
ssg62
g3370
sg55
(lp3377
S''
asbasbasbag48
(g64
g50
NtRp3378
(dp3379
g53
(dp3380
sg62
g3254
sg55
(lp3381
g48
(g69
g50
NtRp3382
(dp3383
g53
(dp3384
g73
g74
ssg62
g3378
sg55
(lp3385
g414
asbag48
(g69
g50
NtRp3386
(dp3387
g53
(dp3388
g80
g81
ssg62
g3378
sg55
(lp3389
S':'
asbag48
(g69
g50
NtRp3390
(dp3391
g53
(dp3392
sg62
g3378
sg55
(lp3393
g48
(g49
g50
NtRp3394
(dp3395
g53
(dp3396
g61
I3
ssg62
g3390
sg55
(lp3397
S''
asbasbasbasbasbasbasbasbasbasbasbag48
(g64
g50
NtRp3398
(dp3399
g53
(dp3400
sg62
g3184
sg55
(lp3401
g48
(g69
g50
NtRp3402
(dp3403
g53
(dp3404
g73
g74
ssg62
g3398
sg55
(lp3405
S'files'
p3406
asbag48
(g69
g50
NtRp3407
(dp3408
g53
(dp3409
g80
g81
ssg62
g3398
sg55
(lp3410
S':'
asbag48
(g69
g50
NtRp3411
(dp3412
g53
(dp3413
sg62
g3398
sg55
(lp3414
g48
(g49
g50
NtRp3415
(dp3416
g53
(dp3417
g61
I5
ssg62
g3411
sg55
(lp3418
g48
(g57
g50
NtRp3419
(dp3420
g53
(dp3421
g61
I4
ssg62
Nsg55
(lp3422
sbasbasbasbag48
(g64
g50
NtRp3423
(dp3424
g53
(dp3425
sg62
g3184
sg55
(lp3426
g48
(g69
g50
NtRp3427
(dp3428
g53
(dp3429
g73
g74
ssg62
g3423
sg55
(lp3430
S'flash'
p3431
asbag48
(g69
g50
NtRp3432
(dp3433
g53
(dp3434
g80
g81
ssg62
g3423
sg55
(lp3435
S':'
asbag48
(g69
g50
NtRp3436
(dp3437
g53
(dp3438
sg62
g3423
sg55
(lp3439
g48
(g49
g50
NtRp3440
(dp3441
g53
(dp3442
g61
I5
ssg62
g3436
sg55
(lp3443
S''
asbasbasbag48
(g64
g50
NtRp3444
(dp3445
g53
(dp3446
sg62
g3184
sg55
(lp3447
g48
(g69
g50
NtRp3448
(dp3449
g53
(dp3450
g73
g74
ssg62
g3444
sg55
(lp3451
S'generic_patterns'
p3452
asbag48
(g69
g50
NtRp3453
(dp3454
g53
(dp3455
g80
g81
ssg62
g3444
sg55
(lp3456
S':'
asbag48
(g69
g50
NtRp3457
(dp3458
g53
(dp3459
sg62
g3444
sg55
(lp3460
g48
(g49
g50
NtRp3461
(dp3462
g53
(dp3463
g61
I5
ssg62
g3457
sg55
(lp3464
g48
(g57
g50
NtRp3465
(dp3466
g53
(dp3467
g61
I4
ssg62
Nsg55
(lp3468
sbasbasbasbag48
(g64
g50
NtRp3469
(dp3470
g53
(dp3471
sg62
g3184
sg55
(lp3472
g48
(g69
g50
NtRp3473
(dp3474
g53
(dp3475
g73
g74
ssg62
g3469
sg55
(lp3476
S'headers'
p3477
asbag48
(g69
g50
NtRp3478
(dp3479
g53
(dp3480
g80
g81
ssg62
g3469
sg55
(lp3481
S':'
asbag48
(g69
g50
NtRp3482
(dp3483
g53
(dp3484
sg62
g3469
sg55
(lp3485
g48
(g49
g50
NtRp3486
(dp3487
g53
(dp3488
g61
I5
ssg62
g3482
sg55
(lp3489
g48
(g57
g50
NtRp3490
(dp3491
g53
(dp3492
g61
I4
ssg62
Nsg55
(lp3493
g48
(g64
g50
NtRp3494
(dp3495
g53
(dp3496
sg62
g3490
sg55
(lp3497
g48
(g69
g50
NtRp3498
(dp3499
g53
(dp3500
g73
g74
ssg62
g3494
sg55
(lp3501
S'Cache-Control'
p3502
asbag48
(g69
g50
NtRp3503
(dp3504
g53
(dp3505
g80
g81
ssg62
g3494
sg55
(lp3506
S':'
asbag48
(g69
g50
NtRp3507
(dp3508
g53
(dp3509
sg62
g3494
sg55
(lp3510
g48
(g49
g50
NtRp3511
(dp3512
g53
(dp3513
g61
I4
ssg62
g3507
sg55
(lp3514
S'no-store, no-cache, must-revalidate, post-check=0, pre-check=0'
p3515
asbasbasbag48
(g64
g50
NtRp3516
(dp3517
g53
(dp3518
sg62
g3490
sg55
(lp3519
g48
(g69
g50
NtRp3520
(dp3521
g53
(dp3522
g73
g74
ssg62
g3516
sg55
(lp3523
S'Content-Type'
p3524
asbag48
(g69
g50
NtRp3525
(dp3526
g53
(dp3527
g80
g81
ssg62
g3516
sg55
(lp3528
S':'
asbag48
(g69
g50
NtRp3529
(dp3530
g53
(dp3531
sg62
g3516
sg55
(lp3532
g48
(g49
g50
NtRp3533
(dp3534
g53
(dp3535
g61
I4
ssg62
g3529
sg55
(lp3536
S'text/html; charset=utf-8'
p3537
asbasbasbag48
(g64
g50
NtRp3538
(dp3539
g53
(dp3540
sg62
g3490
sg55
(lp3541
g48
(g69
g50
NtRp3542
(dp3543
g53
(dp3544
g73
g74
ssg62
g3538
sg55
(lp3545
S'Expires'
p3546
asbag48
(g69
g50
NtRp3547
(dp3548
g53
(dp3549
g80
g81
ssg62
g3538
sg55
(lp3550
S':'
asbag48
(g69
g50
NtRp3551
(dp3552
g53
(dp3553
sg62
g3538
sg55
(lp3554
g48
(g49
g50
NtRp3555
(dp3556
g53
(dp3557
g61
I4
ssg62
g3551
sg55
(lp3558
S'Sat, 12 Nov 2011 22:17:50 GMT'
p3559
asbasbasbag48
(g64
g50
NtRp3560
(dp3561
g53
(dp3562
sg62
g3490
sg55
(lp3563
g48
(g69
g50
NtRp3564
(dp3565
g53
(dp3566
g73
g74
ssg62
g3560
sg55
(lp3567
S'Pragma'
p3568
asbag48
(g69
g50
NtRp3569
(dp3570
g53
(dp3571
g80
g81
ssg62
g3560
sg55
(lp3572
S':'
asbag48
(g69
g50
NtRp3573
(dp3574
g53
(dp3575
sg62
g3560
sg55
(lp3576
g48
(g49
g50
NtRp3577
(dp3578
g53
(dp3579
g61
I4
ssg62
g3573
sg55
(lp3580
S'no-cache'
p3581
asbasbasbag48
(g64
g50
NtRp3582
(dp3583
g53
(dp3584
sg62
g3490
sg55
(lp3585
g48
(g69
g50
NtRp3586
(dp3587
g53
(dp3588
g73
g74
ssg62
g3582
sg55
(lp3589
S'X-Powered-By'
p3590
asbag48
(g69
g50
NtRp3591
(dp3592
g53
(dp3593
g80
g81
ssg62
g3582
sg55
(lp3594
S':'
asbag48
(g69
g50
NtRp3595
(dp3596
g53
(dp3597
sg62
g3582
sg55
(lp3598
g48
(g49
g50
NtRp3599
(dp3600
g53
(dp3601
g61
I4
ssg62
g3595
sg55
(lp3602
S'web2py'
p3603
asbasbasbasbasbasbasbag48
(g64
g50
NtRp3604
(dp3605
g53
(dp3606
sg62
g3184
sg55
(lp3607
g48
(g69
g50
NtRp3608
(dp3609
g53
(dp3610
g73
g74
ssg62
g3604
sg55
(lp3611
S'menu'
p3612
asbag48
(g69
g50
NtRp3613
(dp3614
g53
(dp3615
g80
g81
ssg62
g3604
sg55
(lp3616
S':'
asbag48
(g69
g50
NtRp3617
(dp3618
g53
(dp3619
sg62
g3604
sg55
(lp3620
g48
(g49
g50
NtRp3621
(dp3622
g53
(dp3623
g61
I5
ssg62
g3617
sg55
(lp3624
g48
(g57
g50
NtRp3625
(dp3626
g53
(dp3627
g61
I4
ssg62
Nsg55
(lp3628
sbasbasbasbag48
(g64
g50
NtRp3629
(dp3630
g53
(dp3631
sg62
g3184
sg55
(lp3632
g48
(g69
g50
NtRp3633
(dp3634
g53
(dp3635
g73
g74
ssg62
g3629
sg55
(lp3636
S'meta'
p3637
asbag48
(g69
g50
NtRp3638
(dp3639
g53
(dp3640
g80
g81
ssg62
g3629
sg55
(lp3641
S':'
asbag48
(g69
g50
NtRp3642
(dp3643
g53
(dp3644
sg62
g3629
sg55
(lp3645
g48
(g49
g50
NtRp3646
(dp3647
g53
(dp3648
g61
I5
ssg62
g3642
sg55
(lp3649
g48
(g57
g50
NtRp3650
(dp3651
g53
(dp3652
g61
I4
ssg62
Nsg55
(lp3653
sbasbasbasbag48
(g64
g50
NtRp3654
(dp3655
g53
(dp3656
sg62
g3184
sg55
(lp3657
g48
(g69
g50
NtRp3658
(dp3659
g53
(dp3660
g73
g74
ssg62
g3654
sg55
(lp3661
S'postprocessing'
p3662
asbag48
(g69
g50
NtRp3663
(dp3664
g53
(dp3665
g80
g81
ssg62
g3654
sg55
(lp3666
S':'
asbag48
(g69
g50
NtRp3667
(dp3668
g53
(dp3669
sg62
g3654
sg55
(lp3670
g48
(g49
g50
NtRp3671
(dp3672
g53
(dp3673
g61
I5
ssg62
g3667
sg55
(lp3674
g48
(g57
g50
NtRp3675
(dp3676
g53
(dp3677
g61
I4
ssg62
Nsg55
(lp3678
sbasbasbasbag48
(g64
g50
NtRp3679
(dp3680
g53
(dp3681
sg62
g3184
sg55
(lp3682
g48
(g69
g50
NtRp3683
(dp3684
g53
(dp3685
g73
g74
ssg62
g3679
sg55
(lp3686
S'session_file'
p3687
asbag48
(g69
g50
NtRp3688
(dp3689
g53
(dp3690
g80
g81
ssg62
g3679
sg55
(lp3691
S':'
asbag48
(g69
g50
NtRp3692
(dp3693
g53
(dp3694
sg62
g3679
sg55
(lp3695
g48
(g49
g50
NtRp3696
(dp3697
g53
(dp3698
g61
I5
ssg62
g3692
sg55
(lp3699
S"<open file 'C:\\Python32\\web2py\\applications\\Casa_de_Apuestas\\sessions\\127.0.0.1-ff075696-a054-47b7-bd6f-733e6903bb65', mode 'rb+' at 0x02EB76E0>"
p3700
asbasbasbag48
(g64
g50
NtRp3701
(dp3702
g53
(dp3703
sg62
g3184
sg55
(lp3704
g48
(g69
g50
NtRp3705
(dp3706
g53
(dp3707
g73
g74
ssg62
g3701
sg55
(lp3708
S'session_filename'
p3709
asbag48
(g69
g50
NtRp3710
(dp3711
g53
(dp3712
g80
g81
ssg62
g3701
sg55
(lp3713
S':'
asbag48
(g69
g50
NtRp3714
(dp3715
g53
(dp3716
sg62
g3701
sg55
(lp3717
g48
(g49
g50
NtRp3718
(dp3719
g53
(dp3720
g61
I5
ssg62
g3714
sg55
(lp3721
S'C:\\Python32\\web2py\\applications\\Casa_de_Apuestas\\sessions\\127.0.0.1-ff075696-a054-47b7-bd6f-733e6903bb65'
p3722
asbasbasbag48
(g64
g50
NtRp3723
(dp3724
g53
(dp3725
sg62
g3184
sg55
(lp3726
g48
(g69
g50
NtRp3727
(dp3728
g53
(dp3729
g73
g74
ssg62
g3723
sg55
(lp3730
S'session_id'
p3731
asbag48
(g69
g50
NtRp3732
(dp3733
g53
(dp3734
g80
g81
ssg62
g3723
sg55
(lp3735
S':'
asbag48
(g69
g50
NtRp3736
(dp3737
g53
(dp3738
sg62
g3723
sg55
(lp3739
g48
(g49
g50
NtRp3740
(dp3741
g53
(dp3742
g61
I5
ssg62
g3736
sg55
(lp3743
S'127.0.0.1-ff075696-a054-47b7-bd6f-733e6903bb65'
p3744
asbasbasbag48
(g64
g50
NtRp3745
(dp3746
g53
(dp3747
sg62
g3184
sg55
(lp3748
g48
(g69
g50
NtRp3749
(dp3750
g53
(dp3751
g73
g74
ssg62
g3745
sg55
(lp3752
S'session_id_name'
p3753
asbag48
(g69
g50
NtRp3754
(dp3755
g53
(dp3756
g80
g81
ssg62
g3745
sg55
(lp3757
S':'
asbag48
(g69
g50
NtRp3758
(dp3759
g53
(dp3760
sg62
g3745
sg55
(lp3761
g48
(g49
g50
NtRp3762
(dp3763
g53
(dp3764
g61
I5
ssg62
g3758
sg55
(lp3765
g3241
asbasbasbag48
(g64
g50
NtRp3766
(dp3767
g53
(dp3768
sg62
g3184
sg55
(lp3769
g48
(g69
g50
NtRp3770
(dp3771
g53
(dp3772
g73
g74
ssg62
g3766
sg55
(lp3773
S'session_locked'
p3774
asbag48
(g69
g50
NtRp3775
(dp3776
g53
(dp3777
g80
g81
ssg62
g3766
sg55
(lp3778
S':'
asbag48
(g69
g50
NtRp3779
(dp3780
g53
(dp3781
sg62
g3766
sg55
(lp3782
g48
(g49
g50
NtRp3783
(dp3784
g53
(dp3785
g61
I5
ssg62
g3779
sg55
(lp3786
g1778
asbasbasbag48
(g64
g50
NtRp3787
(dp3788
g53
(dp3789
sg62
g3184
sg55
(lp3790
g48
(g69
g50
NtRp3791
(dp3792
g53
(dp3793
g73
g74
ssg62
g3787
sg55
(lp3794
S'session_new'
p3795
asbag48
(g69
g50
NtRp3796
(dp3797
g53
(dp3798
g80
g81
ssg62
g3787
sg55
(lp3799
S':'
asbag48
(g69
g50
NtRp3800
(dp3801
g53
(dp3802
sg62
g3787
sg55
(lp3803
g48
(g49
g50
NtRp3804
(dp3805
g53
(dp3806
g61
I5
ssg62
g3800
sg55
(lp3807
g91
asbasbasbag48
(g64
g50
NtRp3808
(dp3809
g53
(dp3810
sg62
g3184
sg55
(lp3811
g48
(g69
g50
NtRp3812
(dp3813
g53
(dp3814
g73
g74
ssg62
g3808
sg55
(lp3815
S'status'
p3816
asbag48
(g69
g50
NtRp3817
(dp3818
g53
(dp3819
g80
g81
ssg62
g3808
sg55
(lp3820
S':'
asbag48
(g69
g50
NtRp3821
(dp3822
g53
(dp3823
sg62
g3808
sg55
(lp3824
g48
(g49
g50
NtRp3825
(dp3826
g53
(dp3827
g61
I5
ssg62
g3821
sg55
(lp3828
S'200'
p3829
asbasbasbag48
(g64
g50
NtRp3830
(dp3831
g53
(dp3832
sg62
g3184
sg55
(lp3833
g48
(g69
g50
NtRp3834
(dp3835
g53
(dp3836
g73
g74
ssg62
g3830
sg55
(lp3837
g2444
asbag48
(g69
g50
NtRp3838
(dp3839
g53
(dp3840
g80
g81
ssg62
g3830
sg55
(lp3841
S':'
asbag48
(g69
g50
NtRp3842
(dp3843
g53
(dp3844
sg62
g3830
sg55
(lp3845
g48
(g49
g50
NtRp3846
(dp3847
g53
(dp3848
g61
I5
ssg62
g3842
sg55
(lp3849
g2457
asbasbasbag48
(g64
g50
NtRp3850
(dp3851
g53
(dp3852
sg62
g3184
sg55
(lp3853
g48
(g69
g50
NtRp3854
(dp3855
g53
(dp3856
g73
g74
ssg62
g3850
sg55
(lp3857
S'view'
p3858
asbag48
(g69
g50
NtRp3859
(dp3860
g53
(dp3861
g80
g81
ssg62
g3850
sg55
(lp3862
S':'
asbag48
(g69
g50
NtRp3863
(dp3864
g53
(dp3865
sg62
g3850
sg55
(lp3866
g48
(g49
g50
NtRp3867
(dp3868
g53
(dp3869
g61
I5
ssg62
g3863
sg55
(lp3870
S'appadmin/insert.html'
p3871
asbasbasbasbasbsS'locals'
p3872
(dp3873
S'polymodel'
p3874
S'None'
p3875
sS'referenced'
p3876
S"'eventos'"
p3877
sS'sortable'
p3878
S'1'
sS'sql_fields_aux'
p3879
g38
sS'TFK'
p3880
g38
sS'migrate'
p3881
g1778
sS'fields'
p3882
S'[]'
p3883
sS'k'
S"'eventos_id'"
p3884
sS'tablename'
p3885
S"'eventosparticipantes'"
p3886
sS'fake_migrate'
p3887
g91
sS'field'
p3888
S'<gluon.dal.Field object at 0x06597690>'
p3889
sS'constraint_name'
p3890
S"'eventosparticipantes_eventos_id__constraint'"
p3891
sS'table'
p3892
S"<Table {'ALL': <gluon.dal.SQLALL object at 0x065...puesta': <gluon.dal.Field object at 0x06597770>}>"
p3893
sS'sql_fields'
p3894
g38
sS'self'
p3895
S'<gluon.dal.SQLiteAdapter object at 0x067FB430>'
p3896
sssS'traceback'
p3897
S'Traceback (most recent call last):\n  File "gluon/restricted.py", line 194, in restricted\n  File "C:\\Python32\\web2py\\applications\\Casa_de_Apuestas\\models\\db.py", line 31, in <module>\n  File "gluon/dal.py", line 4491, in define_table\n  File "gluon/dal.py", line 558, in create_table\nValueError: need more than 1 value to unpack\n'
p3898
s.