(dp1
S'output'
p2
S''
sS'layer'
p3
S'C:\\Python32\\web2py_win\\web2py\\applications\\Casa_de_Apuestas\\models\\db.py'
p4
sS'code'
p5
S"# -*- coding: utf-8 -*-\n\n#########################################################################\n## This scaffolding model makes your app work on Google App Engine too\n## File is released under public domain and you can use without limitations\n#########################################################################\n\nif not request.env.web2py_runtime_gae:     \n    ## if NOT running on Google App Engine use SQLite or other DB\n    db = DAL('sqlite://storage.sqlite')\n    db.define_table('categorias',\n        Field('nombre'),\n        Field('descripcion', 'text'))\n    db.define_table('eventos',    \n       Field('categoria_id', db.categorias),\n       Field('nombre'),\n       Field('fecha','date'),\n       Field('descripcion', 'text'),\n       Field('relacionpago','string'))\n  ##  db.image.title.requires = IS_NOT_IN_DB(db, db.image.title)\n  \n    db.define_table('participantes',\n        Field('nombre'),\n        Field('descripcion','text')\n    )\n    \n    db.define_table('eventos_participantes',\n        Field('eventos_id',db.eventos),\n        Field('participantes_id',db.participantes),\n        Field('limite_apuesta','integer'),\n        primarykey=['eventos_id','participantes_id'],\n        migrate=False\n\n    )\n    \n    db.define_table('usuarios',\n        Field('nombre'),\n        Field('apellido'),\n        Field('correo'),\n        Field('password','password')\n    )\n    \n    db.define_table('maquinas',\n        Field('usuario_id',db.usuarios),\n        Field('estado','boolean'),\n        Field('ubicacion','string'),\n        Field('anho','integer'),\n        Field('descripcion','text')\n    )\n    \n      \n  \n    db.eventos.categoria_id.requires = IS_IN_DB(db, db.categorias.id, '%(nombre)s')\n    db.eventos.nombre.requires = IS_NOT_EMPTY()\n    db.eventos.fecha.requires = IS_NOT_EMPTY()\n    db.eventos.descripcion.requires = IS_NOT_EMPTY()\n    db.eventos.relacionpago.requires = IS_NOT_EMPTY()\n    \n    \n    db.participantes.nombre.requires = IS_NOT_EMPTY()\n    db.participantes.descripcion.requires = IS_NOT_EMPTY()\n    \n    db.eventos_participantes.eventos_id.requires = IS_IN_DB(db, db.eventos.id, '%(nombre)s')\n    db.eventos_participantes.participantes_id.requires = IS_IN_DB(db, db.participantes.id, '%(nombre)s')\n    \n    db.usuarios.nombre.requires = IS_NOT_EMPTY()\n    db.usuarios.apellido.requires = IS_NOT_EMPTY()\n    db.usuarios.correo.requires = IS_NOT_EMPTY()\n    db.usuarios.correo.requires = IS_EMAIL()    \n    db.usuarios.password.requires = IS_NOT_EMPTY()\n    \n    db.maquinas.usuario_id.requires = IS_IN_DB(db, db.usuarios.id, '%(correo)s')\n    db.maquinas.estado.requires = IS_NOT_EMPTY()    \n    db.maquinas.ubicacion.requires = IS_NOT_EMPTY()\n    db.maquinas.anho.requires = IS_NOT_EMPTY()\n    db.maquinas.descripcion.requires = IS_NOT_EMPTY() \nelse:\n    ## connect to Google BigTable (optional 'google:datastore://namespace')\n    db = DAL('google:datastore') \n    ## store sessions and tickets there\n    session.connect(request, response, db = db) \n    ## or store session in Memcache, Redis, etc.\n    ## from gluon.contrib.memdb import MEMDB\n    ## from google.appengine.api.memcache import Client\n    ## session.connect(request, response, db = MEMDB(Client()))\n\n## by default give a view/generic.extension to all actions from localhost\n## none otherwise. a pattern can be 'controller/function.extension'\nresponse.generic_patterns = ['*'] if request.is_local else []\n\n#########################################################################\n## Here is sample code if you need for\n## - email capabilities\n## - authentication (registration, login, logout, ... )\n## - authorization (role based authorization)\n## - services (xml, csv, json, xmlrpc, jsonrpc, amf, rss)\n## - old style crud actions\n## (more options discussed in gluon/tools.py)\n#########################################################################\n\nfrom gluon.tools import Auth, Crud, Service, PluginManager, prettydate\nauth = Auth(db, hmac_key=Auth.get_or_create_key()) \ncrud, service, plugins = Crud(db), Service(), PluginManager()\n\n## create all tables needed by auth if not custom tables\n\n########################################\ndb.define_table('auth_user',\n    Field('nick', type='string',\n          label=T('Nick')),\n    Field('nombre', type='string',\n          label=T('Nombre')),\n    Field('apellido', type='string',\n          label=T('Apellido')),\n    Field('email', type='string',\n          label=T('Email')),\n    Field('password', type='password',\n          readable=False,\n          label=T('Password')),\n    Field('created_on','datetime',default=request.now,\n          label=T('Created On'),writable=False,readable=False),\n    Field('modified_on','datetime',default=request.now,\n          label=T('Modified On'),writable=False,readable=False,\n          update=request.now),\n    Field('registration_key',default='',\n          writable=False,readable=False),\n    Field('reset_password_key',default='',\n          writable=False,readable=False),\n    Field('registration_id',default='',\n          writable=False,readable=False),\n    format='%(nick)s',\n    migrate=settings.migrate)\n\n\ndb.auth_user.first_name.requires = IS_NOT_EMPTY(error_message=auth.messages.is_empty)\ndb.auth_user.last_name.requires = IS_NOT_EMPTY(error_message=auth.messages.is_empty)\ndb.auth_user.password.requires = CRYPT(key=auth.settings.hmac_key)\ndb.auth_user.username.requires = IS_NOT_IN_DB(db, db.auth_user.username)\ndb.auth_user.registration_id.requires = IS_NOT_IN_DB(db, db.auth_user.registration_id)\ndb.auth_user.email.requires = (IS_EMAIL(error_message=auth.messages.invalid_email),\n                               IS_NOT_IN_DB(db, db.auth_user.email))\nauth.define_tables(migrate = settings.migrate) \n\n## configure email\nmail=auth.settings.mailer\nmail.settings.server = 'logging' or 'smtp.gmail.com:587'\nmail.settings.sender = 'you@gmail.com'\nmail.settings.login = 'username:password'\n\n## configure auth policy\nauth.settings.registration_requires_verification = False\nauth.settings.registration_requires_approval = False\nauth.settings.reset_password_requires_verification = True\n\n## if you need to use OpenID, Facebook, MySpace, Twitter, Linkedin, etc.\n## register with janrain.com, write your domain:api_key in private/janrain.key\nfrom gluon.contrib.login_methods.rpx_account import use_janrain\nuse_janrain(auth,filename='private/janrain.key')\n\n#########################################################################\n## Define your tables below (or better in another model file) for example\n##\n## >>> db.define_table('mytable',Field('myfield','string'))\n##\n## Fields can be 'string','text','password','integer','double','boolean'\n##       'date','time','datetime','blob','upload', 'reference TABLENAME'\n## There is an implicit 'id integer autoincrement' field\n## Consult manual for more options, validators, etc.\n##\n## More API examples for controllers:\n##\n## >>> db.mytable.insert(myfield='value')\n## >>> rows=db(db.mytable.myfield=='value').select(db.mytable.ALL)\n## >>> for row in rows: print row.id, row.myfield\n#########################################################################\n\nmail.settings.server = settings.email_server\nmail.settings.sender = settings.email_sender\nmail.settings.login = settings.email_login\n"
p6
sS'snapshot'
p7
(dp8
S'exception'
p9
(dp10
S'__hash__'
p11
S"<method-wrapper '__hash__' of exceptions.KeyError object at 0x062D1FD0>"
p12
sS'__setattr__'
p13
S"<method-wrapper '__setattr__' of exceptions.KeyError object at 0x062D1FD0>"
p14
sS'__reduce_ex__'
p15
S'<built-in method __reduce_ex__ of exceptions.KeyError object at 0x062D1FD0>'
p16
sS'__getslice__'
p17
S"<method-wrapper '__getslice__' of exceptions.KeyError object at 0x062D1FD0>"
p18
sS'__getitem__'
p19
S"<method-wrapper '__getitem__' of exceptions.KeyError object at 0x062D1FD0>"
p20
sS'__setstate__'
p21
S'<built-in method __setstate__ of exceptions.KeyError object at 0x062D1FD0>'
p22
sS'__reduce__'
p23
S'<built-in method __reduce__ of exceptions.KeyError object at 0x062D1FD0>'
p24
sS'__str__'
p25
S"<method-wrapper '__str__' of exceptions.KeyError object at 0x062D1FD0>"
p26
sS'args'
p27
S"('first_name',)"
p28
sS'__getattribute__'
p29
S"<method-wrapper '__getattribute__' of exceptions.KeyError object at 0x062D1FD0>"
p30
sS'__class__'
p31
S"<type 'exceptions.KeyError'>"
p32
sS'__delattr__'
p33
S"<method-wrapper '__delattr__' of exceptions.KeyError object at 0x062D1FD0>"
p34
sS'__repr__'
p35
S"<method-wrapper '__repr__' of exceptions.KeyError object at 0x062D1FD0>"
p36
sS'__dict__'
p37
S'{}'
p38
sS'__doc__'
p39
S"'Mapping key not found.'"
p40
sS'__init__'
p41
S"<method-wrapper '__init__' of exceptions.KeyError object at 0x062D1FD0>"
p42
sS'__new__'
p43
S'<built-in method __new__ of type object at 0x1E1CDFB8>'
p44
ssS'evalue'
p45
S"'first_name'"
p46
sS'request'
p47
ccopy_reg
_reconstructor
p48
(cgluon.html
BEAUTIFY
p49
c__builtin__
object
p50
NtRp51
(dp52
S'attributes'
p53
(dp54
sS'components'
p55
(lp56
g48
(cgluon.html
TABLE
p57
g50
NtRp58
(dp59
g53
(dp60
S'level'
p61
I5
ssS'parent'
p62
Nsg55
(lp63
g48
(cgluon.html
TR
p64
g50
NtRp65
(dp66
g53
(dp67
sg62
g58
sg55
(lp68
g48
(cgluon.html
TD
p69
g50
NtRp70
(dp71
g53
(dp72
S'_style'
p73
S'font-weight:bold;'
p74
ssg62
g65
sg55
(lp75
S'ajax'
p76
asbag48
(g69
g50
NtRp77
(dp78
g53
(dp79
S'_valign'
p80
S'top'
p81
ssg62
g65
sg55
(lp82
S':'
asbag48
(g69
g50
NtRp83
(dp84
g53
(dp85
sg62
g65
sg55
(lp86
g48
(g49
g50
NtRp87
(dp88
g53
(dp89
g61
I5
ssg62
g83
sg55
(lp90
S'False'
p91
asbasbasbag48
(g64
g50
NtRp92
(dp93
g53
(dp94
sg62
g58
sg55
(lp95
g48
(g69
g50
NtRp96
(dp97
g53
(dp98
g73
g74
ssg62
g92
sg55
(lp99
S'application'
p100
asbag48
(g69
g50
NtRp101
(dp102
g53
(dp103
g80
g81
ssg62
g92
sg55
(lp104
S':'
asbag48
(g69
g50
NtRp105
(dp106
g53
(dp107
sg62
g92
sg55
(lp108
g48
(g49
g50
NtRp109
(dp110
g53
(dp111
g61
I5
ssg62
g105
sg55
(lp112
S'Casa_de_Apuestas'
p113
asbasbasbag48
(g64
g50
NtRp114
(dp115
g53
(dp116
sg62
g58
sg55
(lp117
g48
(g69
g50
NtRp118
(dp119
g53
(dp120
g73
g74
ssg62
g114
sg55
(lp121
g27
asbag48
(g69
g50
NtRp122
(dp123
g53
(dp124
g80
g81
ssg62
g114
sg55
(lp125
S':'
asbag48
(g69
g50
NtRp126
(dp127
g53
(dp128
sg62
g114
sg55
(lp129
g48
(g49
g50
NtRp130
(dp131
g53
(dp132
g61
I5
ssg62
g126
sg55
(lp133
g48
(g57
g50
NtRp134
(dp135
g53
(dp136
g61
I4
ssg62
Nsg55
(lp137
g48
(g64
g50
NtRp138
(dp139
g53
(dp140
sg62
g134
sg55
(lp141
g48
(g69
g50
NtRp142
(dp143
g53
(dp144
sg62
g138
sg55
(lp145
g48
(g49
g50
NtRp146
(dp147
g53
(dp148
g61
I4
ssg62
g142
sg55
(lp149
S'login'
p150
asbasbasbasbasbasbasbag48
(g64
g50
NtRp151
(dp152
g53
(dp153
sg62
g58
sg55
(lp154
g48
(g69
g50
NtRp155
(dp156
g53
(dp157
g73
g74
ssg62
g151
sg55
(lp158
S'body'
p159
asbag48
(g69
g50
NtRp160
(dp161
g53
(dp162
g80
g81
ssg62
g151
sg55
(lp163
S':'
asbag48
(g69
g50
NtRp164
(dp165
g53
(dp166
sg62
g151
sg55
(lp167
g48
(g49
g50
NtRp168
(dp169
g53
(dp170
g61
I5
ssg62
g164
sg55
(lp171
S'<cStringIO.StringO object at 0x0615C160>'
p172
asbasbasbag48
(g64
g50
NtRp173
(dp174
g53
(dp175
sg62
g58
sg55
(lp176
g48
(g69
g50
NtRp177
(dp178
g53
(dp179
g73
g74
ssg62
g173
sg55
(lp180
S'client'
p181
asbag48
(g69
g50
NtRp182
(dp183
g53
(dp184
g80
g81
ssg62
g173
sg55
(lp185
S':'
asbag48
(g69
g50
NtRp186
(dp187
g53
(dp188
sg62
g173
sg55
(lp189
g48
(g49
g50
NtRp190
(dp191
g53
(dp192
g61
I5
ssg62
g186
sg55
(lp193
S'127.0.0.1'
p194
asbasbasbag48
(g64
g50
NtRp195
(dp196
g53
(dp197
sg62
g58
sg55
(lp198
g48
(g69
g50
NtRp199
(dp200
g53
(dp201
g73
g74
ssg62
g195
sg55
(lp202
S'controller'
p203
asbag48
(g69
g50
NtRp204
(dp205
g53
(dp206
g80
g81
ssg62
g195
sg55
(lp207
S':'
asbag48
(g69
g50
NtRp208
(dp209
g53
(dp210
sg62
g195
sg55
(lp211
g48
(g49
g50
NtRp212
(dp213
g53
(dp214
g61
I5
ssg62
g208
sg55
(lp215
S'default'
p216
asbasbasbag48
(g64
g50
NtRp217
(dp218
g53
(dp219
sg62
g58
sg55
(lp220
g48
(g69
g50
NtRp221
(dp222
g53
(dp223
g73
g74
ssg62
g217
sg55
(lp224
S'cookies'
p225
asbag48
(g69
g50
NtRp226
(dp227
g53
(dp228
g80
g81
ssg62
g217
sg55
(lp229
S':'
asbag48
(g69
g50
NtRp230
(dp231
g53
(dp232
sg62
g217
sg55
(lp233
g48
(g49
g50
NtRp234
(dp235
g53
(dp236
g61
I5
ssg62
g230
sg55
(lp237
g48
(g57
g50
NtRp238
(dp239
g53
(dp240
g61
I4
ssg62
Nsg55
(lp241
g48
(g64
g50
NtRp242
(dp243
g53
(dp244
sg62
g238
sg55
(lp245
g48
(g69
g50
NtRp246
(dp247
g53
(dp248
g73
g74
ssg62
g242
sg55
(lp249
S'session_id_admin'
p250
asbag48
(g69
g50
NtRp251
(dp252
g53
(dp253
g80
g81
ssg62
g242
sg55
(lp254
S':'
asbag48
(g69
g50
NtRp255
(dp256
g53
(dp257
sg62
g242
sg55
(lp258
g48
(g49
g50
NtRp259
(dp260
g53
(dp261
g61
I4
ssg62
g255
sg55
(lp262
g48
(g57
g50
NtRp263
(dp264
g53
(dp265
g61
I3
ssg62
Nsg55
(lp266
g48
(g64
g50
NtRp267
(dp268
g53
(dp269
sg62
g263
sg55
(lp270
g48
(g69
g50
NtRp271
(dp272
g53
(dp273
g73
g74
ssg62
g267
sg55
(lp274
S'comment'
p275
asbag48
(g69
g50
NtRp276
(dp277
g53
(dp278
g80
g81
ssg62
g267
sg55
(lp279
S':'
asbag48
(g69
g50
NtRp280
(dp281
g53
(dp282
sg62
g267
sg55
(lp283
g48
(g49
g50
NtRp284
(dp285
g53
(dp286
g61
I3
ssg62
g280
sg55
(lp287
S''
asbasbasbag48
(g64
g50
NtRp288
(dp289
g53
(dp290
sg62
g263
sg55
(lp291
g48
(g69
g50
NtRp292
(dp293
g53
(dp294
g73
g74
ssg62
g288
sg55
(lp295
S'domain'
p296
asbag48
(g69
g50
NtRp297
(dp298
g53
(dp299
g80
g81
ssg62
g288
sg55
(lp300
S':'
asbag48
(g69
g50
NtRp301
(dp302
g53
(dp303
sg62
g288
sg55
(lp304
g48
(g49
g50
NtRp305
(dp306
g53
(dp307
g61
I3
ssg62
g301
sg55
(lp308
S''
asbasbasbag48
(g64
g50
NtRp309
(dp310
g53
(dp311
sg62
g263
sg55
(lp312
g48
(g69
g50
NtRp313
(dp314
g53
(dp315
g73
g74
ssg62
g309
sg55
(lp316
S'expires'
p317
asbag48
(g69
g50
NtRp318
(dp319
g53
(dp320
g80
g81
ssg62
g309
sg55
(lp321
S':'
asbag48
(g69
g50
NtRp322
(dp323
g53
(dp324
sg62
g309
sg55
(lp325
g48
(g49
g50
NtRp326
(dp327
g53
(dp328
g61
I3
ssg62
g322
sg55
(lp329
S''
asbasbasbag48
(g64
g50
NtRp330
(dp331
g53
(dp332
sg62
g263
sg55
(lp333
g48
(g69
g50
NtRp334
(dp335
g53
(dp336
g73
g74
ssg62
g330
sg55
(lp337
S'max-age'
p338
asbag48
(g69
g50
NtRp339
(dp340
g53
(dp341
g80
g81
ssg62
g330
sg55
(lp342
S':'
asbag48
(g69
g50
NtRp343
(dp344
g53
(dp345
sg62
g330
sg55
(lp346
g48
(g49
g50
NtRp347
(dp348
g53
(dp349
g61
I3
ssg62
g343
sg55
(lp350
S''
asbasbasbag48
(g64
g50
NtRp351
(dp352
g53
(dp353
sg62
g263
sg55
(lp354
g48
(g69
g50
NtRp355
(dp356
g53
(dp357
g73
g74
ssg62
g351
sg55
(lp358
S'path'
p359
asbag48
(g69
g50
NtRp360
(dp361
g53
(dp362
g80
g81
ssg62
g351
sg55
(lp363
S':'
asbag48
(g69
g50
NtRp364
(dp365
g53
(dp366
sg62
g351
sg55
(lp367
g48
(g49
g50
NtRp368
(dp369
g53
(dp370
g61
I3
ssg62
g364
sg55
(lp371
S''
asbasbasbag48
(g64
g50
NtRp372
(dp373
g53
(dp374
sg62
g263
sg55
(lp375
g48
(g69
g50
NtRp376
(dp377
g53
(dp378
g73
g74
ssg62
g372
sg55
(lp379
S'secure'
p380
asbag48
(g69
g50
NtRp381
(dp382
g53
(dp383
g80
g81
ssg62
g372
sg55
(lp384
S':'
asbag48
(g69
g50
NtRp385
(dp386
g53
(dp387
sg62
g372
sg55
(lp388
g48
(g49
g50
NtRp389
(dp390
g53
(dp391
g61
I3
ssg62
g385
sg55
(lp392
S''
asbasbasbag48
(g64
g50
NtRp393
(dp394
g53
(dp395
sg62
g263
sg55
(lp396
g48
(g69
g50
NtRp397
(dp398
g53
(dp399
g73
g74
ssg62
g393
sg55
(lp400
S'version'
p401
asbag48
(g69
g50
NtRp402
(dp403
g53
(dp404
g80
g81
ssg62
g393
sg55
(lp405
S':'
asbag48
(g69
g50
NtRp406
(dp407
g53
(dp408
sg62
g393
sg55
(lp409
g48
(g49
g50
NtRp410
(dp411
g53
(dp412
g61
I3
ssg62
g406
sg55
(lp413
S''
asbasbasbasbasbasbasbag48
(g64
g50
NtRp414
(dp415
g53
(dp416
sg62
g238
sg55
(lp417
g48
(g69
g50
NtRp418
(dp419
g53
(dp420
g73
g74
ssg62
g414
sg55
(lp421
S'session_id_casa_de_apuestas'
p422
asbag48
(g69
g50
NtRp423
(dp424
g53
(dp425
g80
g81
ssg62
g414
sg55
(lp426
S':'
asbag48
(g69
g50
NtRp427
(dp428
g53
(dp429
sg62
g414
sg55
(lp430
g48
(g49
g50
NtRp431
(dp432
g53
(dp433
g61
I4
ssg62
g427
sg55
(lp434
g48
(g57
g50
NtRp435
(dp436
g53
(dp437
g61
I3
ssg62
Nsg55
(lp438
g48
(g64
g50
NtRp439
(dp440
g53
(dp441
sg62
g435
sg55
(lp442
g48
(g69
g50
NtRp443
(dp444
g53
(dp445
g73
g74
ssg62
g439
sg55
(lp446
g275
asbag48
(g69
g50
NtRp447
(dp448
g53
(dp449
g80
g81
ssg62
g439
sg55
(lp450
S':'
asbag48
(g69
g50
NtRp451
(dp452
g53
(dp453
sg62
g439
sg55
(lp454
g48
(g49
g50
NtRp455
(dp456
g53
(dp457
g61
I3
ssg62
g451
sg55
(lp458
S''
asbasbasbag48
(g64
g50
NtRp459
(dp460
g53
(dp461
sg62
g435
sg55
(lp462
g48
(g69
g50
NtRp463
(dp464
g53
(dp465
g73
g74
ssg62
g459
sg55
(lp466
g296
asbag48
(g69
g50
NtRp467
(dp468
g53
(dp469
g80
g81
ssg62
g459
sg55
(lp470
S':'
asbag48
(g69
g50
NtRp471
(dp472
g53
(dp473
sg62
g459
sg55
(lp474
g48
(g49
g50
NtRp475
(dp476
g53
(dp477
g61
I3
ssg62
g471
sg55
(lp478
S''
asbasbasbag48
(g64
g50
NtRp479
(dp480
g53
(dp481
sg62
g435
sg55
(lp482
g48
(g69
g50
NtRp483
(dp484
g53
(dp485
g73
g74
ssg62
g479
sg55
(lp486
g317
asbag48
(g69
g50
NtRp487
(dp488
g53
(dp489
g80
g81
ssg62
g479
sg55
(lp490
S':'
asbag48
(g69
g50
NtRp491
(dp492
g53
(dp493
sg62
g479
sg55
(lp494
g48
(g49
g50
NtRp495
(dp496
g53
(dp497
g61
I3
ssg62
g491
sg55
(lp498
S''
asbasbasbag48
(g64
g50
NtRp499
(dp500
g53
(dp501
sg62
g435
sg55
(lp502
g48
(g69
g50
NtRp503
(dp504
g53
(dp505
g73
g74
ssg62
g499
sg55
(lp506
g338
asbag48
(g69
g50
NtRp507
(dp508
g53
(dp509
g80
g81
ssg62
g499
sg55
(lp510
S':'
asbag48
(g69
g50
NtRp511
(dp512
g53
(dp513
sg62
g499
sg55
(lp514
g48
(g49
g50
NtRp515
(dp516
g53
(dp517
g61
I3
ssg62
g511
sg55
(lp518
S''
asbasbasbag48
(g64
g50
NtRp519
(dp520
g53
(dp521
sg62
g435
sg55
(lp522
g48
(g69
g50
NtRp523
(dp524
g53
(dp525
g73
g74
ssg62
g519
sg55
(lp526
g359
asbag48
(g69
g50
NtRp527
(dp528
g53
(dp529
g80
g81
ssg62
g519
sg55
(lp530
S':'
asbag48
(g69
g50
NtRp531
(dp532
g53
(dp533
sg62
g519
sg55
(lp534
g48
(g49
g50
NtRp535
(dp536
g53
(dp537
g61
I3
ssg62
g531
sg55
(lp538
S''
asbasbasbag48
(g64
g50
NtRp539
(dp540
g53
(dp541
sg62
g435
sg55
(lp542
g48
(g69
g50
NtRp543
(dp544
g53
(dp545
g73
g74
ssg62
g539
sg55
(lp546
g380
asbag48
(g69
g50
NtRp547
(dp548
g53
(dp549
g80
g81
ssg62
g539
sg55
(lp550
S':'
asbag48
(g69
g50
NtRp551
(dp552
g53
(dp553
sg62
g539
sg55
(lp554
g48
(g49
g50
NtRp555
(dp556
g53
(dp557
g61
I3
ssg62
g551
sg55
(lp558
S''
asbasbasbag48
(g64
g50
NtRp559
(dp560
g53
(dp561
sg62
g435
sg55
(lp562
g48
(g69
g50
NtRp563
(dp564
g53
(dp565
g73
g74
ssg62
g559
sg55
(lp566
g401
asbag48
(g69
g50
NtRp567
(dp568
g53
(dp569
g80
g81
ssg62
g559
sg55
(lp570
S':'
asbag48
(g69
g50
NtRp571
(dp572
g53
(dp573
sg62
g559
sg55
(lp574
g48
(g49
g50
NtRp575
(dp576
g53
(dp577
g61
I3
ssg62
g571
sg55
(lp578
S''
asbasbasbasbasbasbasbag48
(g64
g50
NtRp579
(dp580
g53
(dp581
sg62
g238
sg55
(lp582
g48
(g69
g50
NtRp583
(dp584
g53
(dp585
g73
g74
ssg62
g579
sg55
(lp586
S'session_id_welcome'
p587
asbag48
(g69
g50
NtRp588
(dp589
g53
(dp590
g80
g81
ssg62
g579
sg55
(lp591
S':'
asbag48
(g69
g50
NtRp592
(dp593
g53
(dp594
sg62
g579
sg55
(lp595
g48
(g49
g50
NtRp596
(dp597
g53
(dp598
g61
I4
ssg62
g592
sg55
(lp599
g48
(g57
g50
NtRp600
(dp601
g53
(dp602
g61
I3
ssg62
Nsg55
(lp603
g48
(g64
g50
NtRp604
(dp605
g53
(dp606
sg62
g600
sg55
(lp607
g48
(g69
g50
NtRp608
(dp609
g53
(dp610
g73
g74
ssg62
g604
sg55
(lp611
g275
asbag48
(g69
g50
NtRp612
(dp613
g53
(dp614
g80
g81
ssg62
g604
sg55
(lp615
S':'
asbag48
(g69
g50
NtRp616
(dp617
g53
(dp618
sg62
g604
sg55
(lp619
g48
(g49
g50
NtRp620
(dp621
g53
(dp622
g61
I3
ssg62
g616
sg55
(lp623
S''
asbasbasbag48
(g64
g50
NtRp624
(dp625
g53
(dp626
sg62
g600
sg55
(lp627
g48
(g69
g50
NtRp628
(dp629
g53
(dp630
g73
g74
ssg62
g624
sg55
(lp631
g296
asbag48
(g69
g50
NtRp632
(dp633
g53
(dp634
g80
g81
ssg62
g624
sg55
(lp635
S':'
asbag48
(g69
g50
NtRp636
(dp637
g53
(dp638
sg62
g624
sg55
(lp639
g48
(g49
g50
NtRp640
(dp641
g53
(dp642
g61
I3
ssg62
g636
sg55
(lp643
S''
asbasbasbag48
(g64
g50
NtRp644
(dp645
g53
(dp646
sg62
g600
sg55
(lp647
g48
(g69
g50
NtRp648
(dp649
g53
(dp650
g73
g74
ssg62
g644
sg55
(lp651
g317
asbag48
(g69
g50
NtRp652
(dp653
g53
(dp654
g80
g81
ssg62
g644
sg55
(lp655
S':'
asbag48
(g69
g50
NtRp656
(dp657
g53
(dp658
sg62
g644
sg55
(lp659
g48
(g49
g50
NtRp660
(dp661
g53
(dp662
g61
I3
ssg62
g656
sg55
(lp663
S''
asbasbasbag48
(g64
g50
NtRp664
(dp665
g53
(dp666
sg62
g600
sg55
(lp667
g48
(g69
g50
NtRp668
(dp669
g53
(dp670
g73
g74
ssg62
g664
sg55
(lp671
g338
asbag48
(g69
g50
NtRp672
(dp673
g53
(dp674
g80
g81
ssg62
g664
sg55
(lp675
S':'
asbag48
(g69
g50
NtRp676
(dp677
g53
(dp678
sg62
g664
sg55
(lp679
g48
(g49
g50
NtRp680
(dp681
g53
(dp682
g61
I3
ssg62
g676
sg55
(lp683
S''
asbasbasbag48
(g64
g50
NtRp684
(dp685
g53
(dp686
sg62
g600
sg55
(lp687
g48
(g69
g50
NtRp688
(dp689
g53
(dp690
g73
g74
ssg62
g684
sg55
(lp691
g359
asbag48
(g69
g50
NtRp692
(dp693
g53
(dp694
g80
g81
ssg62
g684
sg55
(lp695
S':'
asbag48
(g69
g50
NtRp696
(dp697
g53
(dp698
sg62
g684
sg55
(lp699
g48
(g49
g50
NtRp700
(dp701
g53
(dp702
g61
I3
ssg62
g696
sg55
(lp703
S''
asbasbasbag48
(g64
g50
NtRp704
(dp705
g53
(dp706
sg62
g600
sg55
(lp707
g48
(g69
g50
NtRp708
(dp709
g53
(dp710
g73
g74
ssg62
g704
sg55
(lp711
g380
asbag48
(g69
g50
NtRp712
(dp713
g53
(dp714
g80
g81
ssg62
g704
sg55
(lp715
S':'
asbag48
(g69
g50
NtRp716
(dp717
g53
(dp718
sg62
g704
sg55
(lp719
g48
(g49
g50
NtRp720
(dp721
g53
(dp722
g61
I3
ssg62
g716
sg55
(lp723
S''
asbasbasbag48
(g64
g50
NtRp724
(dp725
g53
(dp726
sg62
g600
sg55
(lp727
g48
(g69
g50
NtRp728
(dp729
g53
(dp730
g73
g74
ssg62
g724
sg55
(lp731
g401
asbag48
(g69
g50
NtRp732
(dp733
g53
(dp734
g80
g81
ssg62
g724
sg55
(lp735
S':'
asbag48
(g69
g50
NtRp736
(dp737
g53
(dp738
sg62
g724
sg55
(lp739
g48
(g49
g50
NtRp740
(dp741
g53
(dp742
g61
I3
ssg62
g736
sg55
(lp743
S''
asbasbasbasbasbasbasbasbasbasbasbag48
(g64
g50
NtRp744
(dp745
g53
(dp746
sg62
g58
sg55
(lp747
g48
(g69
g50
NtRp748
(dp749
g53
(dp750
g73
g74
ssg62
g744
sg55
(lp751
S'env'
p752
asbag48
(g69
g50
NtRp753
(dp754
g53
(dp755
g80
g81
ssg62
g744
sg55
(lp756
S':'
asbag48
(g69
g50
NtRp757
(dp758
g53
(dp759
sg62
g744
sg55
(lp760
g48
(g49
g50
NtRp761
(dp762
g53
(dp763
g61
I5
ssg62
g757
sg55
(lp764
g48
(g57
g50
NtRp765
(dp766
g53
(dp767
g61
I4
ssg62
Nsg55
(lp768
g48
(g64
g50
NtRp769
(dp770
g53
(dp771
sg62
g765
sg55
(lp772
g48
(g69
g50
NtRp773
(dp774
g53
(dp775
g73
g74
ssg62
g769
sg55
(lp776
S'app_folders'
p777
asbag48
(g69
g50
NtRp778
(dp779
g53
(dp780
g80
g81
ssg62
g769
sg55
(lp781
S':'
asbag48
(g69
g50
NtRp782
(dp783
g53
(dp784
sg62
g769
sg55
(lp785
g48
(g49
g50
NtRp786
(dp787
g53
(dp788
g61
I4
ssg62
g782
sg55
(lp789
S"set(['C:\\\\Python32\\\\web2py_win\\\\web2py\\\\applications\\\\admin\\\\', 'C:\\\\Python32\\\\web2py_win\\\\web2py\\\\applications\\\\welcome\\\\', 'C:\\\\Python32\\\\web2py_win\\\\web2py\\\\applications\\\\Casa_de_Apuestas\\\\'])"
p790
asbasbasbag48
(g64
g50
NtRp791
(dp792
g53
(dp793
sg62
g765
sg55
(lp794
g48
(g69
g50
NtRp795
(dp796
g53
(dp797
g73
g74
ssg62
g791
sg55
(lp798
S'applications_parent'
p799
asbag48
(g69
g50
NtRp800
(dp801
g53
(dp802
g80
g81
ssg62
g791
sg55
(lp803
S':'
asbag48
(g69
g50
NtRp804
(dp805
g53
(dp806
sg62
g791
sg55
(lp807
g48
(g49
g50
NtRp808
(dp809
g53
(dp810
g61
I4
ssg62
g804
sg55
(lp811
S'C:\\Python32\\web2py_win\\web2py'
p812
asbasbasbag48
(g64
g50
NtRp813
(dp814
g53
(dp815
sg62
g765
sg55
(lp816
g48
(g69
g50
NtRp817
(dp818
g53
(dp819
g73
g74
ssg62
g813
sg55
(lp820
S'cmd_args'
p821
asbag48
(g69
g50
NtRp822
(dp823
g53
(dp824
g80
g81
ssg62
g813
sg55
(lp825
S':'
asbag48
(g69
g50
NtRp826
(dp827
g53
(dp828
sg62
g813
sg55
(lp829
g48
(g49
g50
NtRp830
(dp831
g53
(dp832
g61
I4
ssg62
g826
sg55
(lp833
g48
(g57
g50
NtRp834
(dp835
g53
(dp836
g61
I3
ssg62
Nsg55
(lp837
sbasbasbasbag48
(g64
g50
NtRp838
(dp839
g53
(dp840
sg62
g765
sg55
(lp841
g48
(g69
g50
NtRp842
(dp843
g53
(dp844
g73
g74
ssg62
g838
sg55
(lp845
S'cmd_options'
p846
asbag48
(g69
g50
NtRp847
(dp848
g53
(dp849
g80
g81
ssg62
g838
sg55
(lp850
S':'
asbag48
(g69
g50
NtRp851
(dp852
g53
(dp853
sg62
g838
sg55
(lp854
g48
(g49
g50
NtRp855
(dp856
g53
(dp857
g61
I4
ssg62
g851
sg55
(lp858
S"<Values at 0x2665fa8: {'verbose': False, 'ip': '127.0.0.1', 'shutdown_timeout': 5, 'taskbar': False, 'nocron': False, 'pid_filename': 'httpserver.pid', 'maxthreads': None, 'softcron': False, 'server_name': 'hector-vaio', 'bpython': False, 'nogui': False, 'port': 8000, 'extcron': False, 'debuglevel': 30, 'test': None, 'folder': 'C:\\\\Python32\\\\web2py_win\\\\web2py', 'config': '', 'import_models': False, 'winservice': '', 'shell': None, 'run': '', 'log_filename': 'httpserver.log', 'args': [''], 'ssl_ca_certificate': None, 'scheduler': None, 'profiler_filename': None, 'ssl_private_key': '', 'password': '<ask>', 'request_queue_size': 5, 'ssl_certificate': '', 'cronjob': False, 'plain': False, 'quiet': False, 'interfaces': None, 'minthreads': None, 'timeout': 10, 'numthreads': None, 'nobanner': False}>"
p859
asbasbasbag48
(g64
g50
NtRp860
(dp861
g53
(dp862
sg62
g765
sg55
(lp863
g48
(g69
g50
NtRp864
(dp865
g53
(dp866
g73
g74
ssg62
g860
sg55
(lp867
S'db_sessions'
p868
asbag48
(g69
g50
NtRp869
(dp870
g53
(dp871
g80
g81
ssg62
g860
sg55
(lp872
S':'
asbag48
(g69
g50
NtRp873
(dp874
g53
(dp875
sg62
g860
sg55
(lp876
g48
(g49
g50
NtRp877
(dp878
g53
(dp879
g61
I4
ssg62
g873
sg55
(lp880
S'set([])'
p881
asbasbasbag48
(g64
g50
NtRp882
(dp883
g53
(dp884
sg62
g765
sg55
(lp885
g48
(g69
g50
NtRp886
(dp887
g53
(dp888
g73
g74
ssg62
g882
sg55
(lp889
S'debugging'
p890
asbag48
(g69
g50
NtRp891
(dp892
g53
(dp893
g80
g81
ssg62
g882
sg55
(lp894
S':'
asbag48
(g69
g50
NtRp895
(dp896
g53
(dp897
sg62
g882
sg55
(lp898
g48
(g49
g50
NtRp899
(dp900
g53
(dp901
g61
I4
ssg62
g895
sg55
(lp902
g91
asbasbasbag48
(g64
g50
NtRp903
(dp904
g53
(dp905
sg62
g765
sg55
(lp906
g48
(g69
g50
NtRp907
(dp908
g53
(dp909
g73
g74
ssg62
g903
sg55
(lp910
S'gluon_parent'
p911
asbag48
(g69
g50
NtRp912
(dp913
g53
(dp914
g80
g81
ssg62
g903
sg55
(lp915
S':'
asbag48
(g69
g50
NtRp916
(dp917
g53
(dp918
sg62
g903
sg55
(lp919
g48
(g49
g50
NtRp920
(dp921
g53
(dp922
g61
I4
ssg62
g916
sg55
(lp923
S'C:\\Python32\\web2py_win\\web2py'
p924
asbasbasbag48
(g64
g50
NtRp925
(dp926
g53
(dp927
sg62
g765
sg55
(lp928
g48
(g69
g50
NtRp929
(dp930
g53
(dp931
g73
g74
ssg62
g925
sg55
(lp932
S'http_accept'
p933
asbag48
(g69
g50
NtRp934
(dp935
g53
(dp936
g80
g81
ssg62
g925
sg55
(lp937
S':'
asbag48
(g69
g50
NtRp938
(dp939
g53
(dp940
sg62
g925
sg55
(lp941
g48
(g49
g50
NtRp942
(dp943
g53
(dp944
g61
I4
ssg62
g938
sg55
(lp945
S'text/html,application/xhtml+xml,application/xml;q=0.9,*/*;q=0.8'
p946
asbasbasbag48
(g64
g50
NtRp947
(dp948
g53
(dp949
sg62
g765
sg55
(lp950
g48
(g69
g50
NtRp951
(dp952
g53
(dp953
g73
g74
ssg62
g947
sg55
(lp954
S'http_accept_charset'
p955
asbag48
(g69
g50
NtRp956
(dp957
g53
(dp958
g80
g81
ssg62
g947
sg55
(lp959
S':'
asbag48
(g69
g50
NtRp960
(dp961
g53
(dp962
sg62
g947
sg55
(lp963
g48
(g49
g50
NtRp964
(dp965
g53
(dp966
g61
I4
ssg62
g960
sg55
(lp967
S'ISO-8859-1,utf-8;q=0.7,*;q=0.3'
p968
asbasbasbag48
(g64
g50
NtRp969
(dp970
g53
(dp971
sg62
g765
sg55
(lp972
g48
(g69
g50
NtRp973
(dp974
g53
(dp975
g73
g74
ssg62
g969
sg55
(lp976
S'http_accept_encoding'
p977
asbag48
(g69
g50
NtRp978
(dp979
g53
(dp980
g80
g81
ssg62
g969
sg55
(lp981
S':'
asbag48
(g69
g50
NtRp982
(dp983
g53
(dp984
sg62
g969
sg55
(lp985
g48
(g49
g50
NtRp986
(dp987
g53
(dp988
g61
I4
ssg62
g982
sg55
(lp989
S'gzip,deflate,sdch'
p990
asbasbasbag48
(g64
g50
NtRp991
(dp992
g53
(dp993
sg62
g765
sg55
(lp994
g48
(g69
g50
NtRp995
(dp996
g53
(dp997
g73
g74
ssg62
g991
sg55
(lp998
S'http_accept_language'
p999
asbag48
(g69
g50
NtRp1000
(dp1001
g53
(dp1002
g80
g81
ssg62
g991
sg55
(lp1003
S':'
asbag48
(g69
g50
NtRp1004
(dp1005
g53
(dp1006
sg62
g991
sg55
(lp1007
g48
(g49
g50
NtRp1008
(dp1009
g53
(dp1010
g61
I4
ssg62
g1004
sg55
(lp1011
S'en-US,en;q=0.8'
p1012
asbasbasbag48
(g64
g50
NtRp1013
(dp1014
g53
(dp1015
sg62
g765
sg55
(lp1016
g48
(g69
g50
NtRp1017
(dp1018
g53
(dp1019
g73
g74
ssg62
g1013
sg55
(lp1020
S'http_cache_control'
p1021
asbag48
(g69
g50
NtRp1022
(dp1023
g53
(dp1024
g80
g81
ssg62
g1013
sg55
(lp1025
S':'
asbag48
(g69
g50
NtRp1026
(dp1027
g53
(dp1028
sg62
g1013
sg55
(lp1029
g48
(g49
g50
NtRp1030
(dp1031
g53
(dp1032
g61
I4
ssg62
g1026
sg55
(lp1033
S'max-age=0'
p1034
asbasbasbag48
(g64
g50
NtRp1035
(dp1036
g53
(dp1037
sg62
g765
sg55
(lp1038
g48
(g69
g50
NtRp1039
(dp1040
g53
(dp1041
g73
g74
ssg62
g1035
sg55
(lp1042
S'http_connection'
p1043
asbag48
(g69
g50
NtRp1044
(dp1045
g53
(dp1046
g80
g81
ssg62
g1035
sg55
(lp1047
S':'
asbag48
(g69
g50
NtRp1048
(dp1049
g53
(dp1050
sg62
g1035
sg55
(lp1051
g48
(g49
g50
NtRp1052
(dp1053
g53
(dp1054
g61
I4
ssg62
g1048
sg55
(lp1055
S'keep-alive'
p1056
asbasbasbag48
(g64
g50
NtRp1057
(dp1058
g53
(dp1059
sg62
g765
sg55
(lp1060
g48
(g69
g50
NtRp1061
(dp1062
g53
(dp1063
g73
g74
ssg62
g1057
sg55
(lp1064
S'http_cookie'
p1065
asbag48
(g69
g50
NtRp1066
(dp1067
g53
(dp1068
g80
g81
ssg62
g1057
sg55
(lp1069
S':'
asbag48
(g69
g50
NtRp1070
(dp1071
g53
(dp1072
sg62
g1057
sg55
(lp1073
g48
(g49
g50
NtRp1074
(dp1075
g53
(dp1076
g61
I4
ssg62
g1070
sg55
(lp1077
S'session_id_welcome=127.0.0.1-84b09f99-598b-4fb9-85b4-32c79cf5eac7; session_id_casa_de_apuestas=127.0.0.1-e6356fb0-adec-49e7-b0a9-949176dd84ed; session_id_admin=127.0.0.1-c09011cb-eb7d-4a4e-9965-ec1c2397d382'
p1078
asbasbasbag48
(g64
g50
NtRp1079
(dp1080
g53
(dp1081
sg62
g765
sg55
(lp1082
g48
(g69
g50
NtRp1083
(dp1084
g53
(dp1085
g73
g74
ssg62
g1079
sg55
(lp1086
S'http_host'
p1087
asbag48
(g69
g50
NtRp1088
(dp1089
g53
(dp1090
g80
g81
ssg62
g1079
sg55
(lp1091
S':'
asbag48
(g69
g50
NtRp1092
(dp1093
g53
(dp1094
sg62
g1079
sg55
(lp1095
g48
(g49
g50
NtRp1096
(dp1097
g53
(dp1098
g61
I4
ssg62
g1092
sg55
(lp1099
S'127.0.0.1:8000'
p1100
asbasbasbag48
(g64
g50
NtRp1101
(dp1102
g53
(dp1103
sg62
g765
sg55
(lp1104
g48
(g69
g50
NtRp1105
(dp1106
g53
(dp1107
g73
g74
ssg62
g1101
sg55
(lp1108
S'http_user_agent'
p1109
asbag48
(g69
g50
NtRp1110
(dp1111
g53
(dp1112
g80
g81
ssg62
g1101
sg55
(lp1113
S':'
asbag48
(g69
g50
NtRp1114
(dp1115
g53
(dp1116
sg62
g1101
sg55
(lp1117
g48
(g49
g50
NtRp1118
(dp1119
g53
(dp1120
g61
I4
ssg62
g1114
sg55
(lp1121
S'Mozilla/5.0 (Windows NT 6.1) AppleWebKit/535.2 (KHTML, like Gecko) Chrome/15.0.874.106 Safari/535.2'
p1122
asbasbasbag48
(g64
g50
NtRp1123
(dp1124
g53
(dp1125
sg62
g765
sg55
(lp1126
g48
(g69
g50
NtRp1127
(dp1128
g53
(dp1129
g73
g74
ssg62
g1123
sg55
(lp1130
S'is_jython'
p1131
asbag48
(g69
g50
NtRp1132
(dp1133
g53
(dp1134
g80
g81
ssg62
g1123
sg55
(lp1135
S':'
asbag48
(g69
g50
NtRp1136
(dp1137
g53
(dp1138
sg62
g1123
sg55
(lp1139
g48
(g49
g50
NtRp1140
(dp1141
g53
(dp1142
g61
I4
ssg62
g1136
sg55
(lp1143
g91
asbasbasbag48
(g64
g50
NtRp1144
(dp1145
g53
(dp1146
sg62
g765
sg55
(lp1147
g48
(g69
g50
NtRp1148
(dp1149
g53
(dp1150
g73
g74
ssg62
g1144
sg55
(lp1151
S'path_info'
p1152
asbag48
(g69
g50
NtRp1153
(dp1154
g53
(dp1155
g80
g81
ssg62
g1144
sg55
(lp1156
S':'
asbag48
(g69
g50
NtRp1157
(dp1158
g53
(dp1159
sg62
g1144
sg55
(lp1160
g48
(g49
g50
NtRp1161
(dp1162
g53
(dp1163
g61
I4
ssg62
g1157
sg55
(lp1164
S'/Casa_de_Apuestas/default/user/login'
p1165
asbasbasbag48
(g64
g50
NtRp1166
(dp1167
g53
(dp1168
sg62
g765
sg55
(lp1169
g48
(g69
g50
NtRp1170
(dp1171
g53
(dp1172
g73
g74
ssg62
g1166
sg55
(lp1173
S'query_string'
p1174
asbag48
(g69
g50
NtRp1175
(dp1176
g53
(dp1177
g80
g81
ssg62
g1166
sg55
(lp1178
S':'
asbag48
(g69
g50
NtRp1179
(dp1180
g53
(dp1181
sg62
g1166
sg55
(lp1182
g48
(g49
g50
NtRp1183
(dp1184
g53
(dp1185
g61
I4
ssg62
g1179
sg55
(lp1186
S'_next=/Casa_de_Apuestas/default/index'
p1187
asbasbasbag48
(g64
g50
NtRp1188
(dp1189
g53
(dp1190
sg62
g765
sg55
(lp1191
g48
(g69
g50
NtRp1192
(dp1193
g53
(dp1194
g73
g74
ssg62
g1188
sg55
(lp1195
S'remote_addr'
p1196
asbag48
(g69
g50
NtRp1197
(dp1198
g53
(dp1199
g80
g81
ssg62
g1188
sg55
(lp1200
S':'
asbag48
(g69
g50
NtRp1201
(dp1202
g53
(dp1203
sg62
g1188
sg55
(lp1204
g48
(g49
g50
NtRp1205
(dp1206
g53
(dp1207
g61
I4
ssg62
g1201
sg55
(lp1208
g194
asbasbasbag48
(g64
g50
NtRp1209
(dp1210
g53
(dp1211
sg62
g765
sg55
(lp1212
g48
(g69
g50
NtRp1213
(dp1214
g53
(dp1215
g73
g74
ssg62
g1209
sg55
(lp1216
S'remote_port'
p1217
asbag48
(g69
g50
NtRp1218
(dp1219
g53
(dp1220
g80
g81
ssg62
g1209
sg55
(lp1221
S':'
asbag48
(g69
g50
NtRp1222
(dp1223
g53
(dp1224
sg62
g1209
sg55
(lp1225
g48
(g49
g50
NtRp1226
(dp1227
g53
(dp1228
g61
I4
ssg62
g1222
sg55
(lp1229
S'50787'
p1230
asbasbasbag48
(g64
g50
NtRp1231
(dp1232
g53
(dp1233
sg62
g765
sg55
(lp1234
g48
(g69
g50
NtRp1235
(dp1236
g53
(dp1237
g73
g74
ssg62
g1231
sg55
(lp1238
S'request_method'
p1239
asbag48
(g69
g50
NtRp1240
(dp1241
g53
(dp1242
g80
g81
ssg62
g1231
sg55
(lp1243
S':'
asbag48
(g69
g50
NtRp1244
(dp1245
g53
(dp1246
sg62
g1231
sg55
(lp1247
g48
(g49
g50
NtRp1248
(dp1249
g53
(dp1250
g61
I4
ssg62
g1244
sg55
(lp1251
S'GET'
p1252
asbasbasbag48
(g64
g50
NtRp1253
(dp1254
g53
(dp1255
sg62
g765
sg55
(lp1256
g48
(g69
g50
NtRp1257
(dp1258
g53
(dp1259
g73
g74
ssg62
g1253
sg55
(lp1260
S'script_name'
p1261
asbag48
(g69
g50
NtRp1262
(dp1263
g53
(dp1264
g80
g81
ssg62
g1253
sg55
(lp1265
S':'
asbag48
(g69
g50
NtRp1266
(dp1267
g53
(dp1268
sg62
g1253
sg55
(lp1269
g48
(g49
g50
NtRp1270
(dp1271
g53
(dp1272
g61
I4
ssg62
g1266
sg55
(lp1273
S''
asbasbasbag48
(g64
g50
NtRp1274
(dp1275
g53
(dp1276
sg62
g765
sg55
(lp1277
g48
(g69
g50
NtRp1278
(dp1279
g53
(dp1280
g73
g74
ssg62
g1274
sg55
(lp1281
S'server_name'
p1282
asbag48
(g69
g50
NtRp1283
(dp1284
g53
(dp1285
g80
g81
ssg62
g1274
sg55
(lp1286
S':'
asbag48
(g69
g50
NtRp1287
(dp1288
g53
(dp1289
sg62
g1274
sg55
(lp1290
g48
(g49
g50
NtRp1291
(dp1292
g53
(dp1293
g61
I4
ssg62
g1287
sg55
(lp1294
S'hector-vaio'
p1295
asbasbasbag48
(g64
g50
NtRp1296
(dp1297
g53
(dp1298
sg62
g765
sg55
(lp1299
g48
(g69
g50
NtRp1300
(dp1301
g53
(dp1302
g73
g74
ssg62
g1296
sg55
(lp1303
S'server_port'
p1304
asbag48
(g69
g50
NtRp1305
(dp1306
g53
(dp1307
g80
g81
ssg62
g1296
sg55
(lp1308
S':'
asbag48
(g69
g50
NtRp1309
(dp1310
g53
(dp1311
sg62
g1296
sg55
(lp1312
g48
(g49
g50
NtRp1313
(dp1314
g53
(dp1315
g61
I4
ssg62
g1309
sg55
(lp1316
S'8000'
p1317
asbasbasbag48
(g64
g50
NtRp1318
(dp1319
g53
(dp1320
sg62
g765
sg55
(lp1321
g48
(g69
g50
NtRp1322
(dp1323
g53
(dp1324
g73
g74
ssg62
g1318
sg55
(lp1325
S'server_protocol'
p1326
asbag48
(g69
g50
NtRp1327
(dp1328
g53
(dp1329
g80
g81
ssg62
g1318
sg55
(lp1330
S':'
asbag48
(g69
g50
NtRp1331
(dp1332
g53
(dp1333
sg62
g1318
sg55
(lp1334
g48
(g49
g50
NtRp1335
(dp1336
g53
(dp1337
g61
I4
ssg62
g1331
sg55
(lp1338
S'HTTP/1.1'
p1339
asbasbasbag48
(g64
g50
NtRp1340
(dp1341
g53
(dp1342
sg62
g765
sg55
(lp1343
g48
(g69
g50
NtRp1344
(dp1345
g53
(dp1346
g73
g74
ssg62
g1340
sg55
(lp1347
S'server_software'
p1348
asbag48
(g69
g50
NtRp1349
(dp1350
g53
(dp1351
g80
g81
ssg62
g1340
sg55
(lp1352
S':'
asbag48
(g69
g50
NtRp1353
(dp1354
g53
(dp1355
sg62
g1340
sg55
(lp1356
g48
(g49
g50
NtRp1357
(dp1358
g53
(dp1359
g61
I4
ssg62
g1353
sg55
(lp1360
S'Rocket 1.2.4'
p1361
asbasbasbag48
(g64
g50
NtRp1362
(dp1363
g53
(dp1364
sg62
g765
sg55
(lp1365
g48
(g69
g50
NtRp1366
(dp1367
g53
(dp1368
g73
g74
ssg62
g1362
sg55
(lp1369
S'web2py_crontype'
p1370
asbag48
(g69
g50
NtRp1371
(dp1372
g53
(dp1373
g80
g81
ssg62
g1362
sg55
(lp1374
S':'
asbag48
(g69
g50
NtRp1375
(dp1376
g53
(dp1377
sg62
g1362
sg55
(lp1378
g48
(g49
g50
NtRp1379
(dp1380
g53
(dp1381
g61
I4
ssg62
g1375
sg55
(lp1382
S'hard'
p1383
asbasbasbag48
(g64
g50
NtRp1384
(dp1385
g53
(dp1386
sg62
g765
sg55
(lp1387
g48
(g69
g50
NtRp1388
(dp1389
g53
(dp1390
g73
g74
ssg62
g1384
sg55
(lp1391
S'web2py_path'
p1392
asbag48
(g69
g50
NtRp1393
(dp1394
g53
(dp1395
g80
g81
ssg62
g1384
sg55
(lp1396
S':'
asbag48
(g69
g50
NtRp1397
(dp1398
g53
(dp1399
sg62
g1384
sg55
(lp1400
g48
(g49
g50
NtRp1401
(dp1402
g53
(dp1403
g61
I4
ssg62
g1397
sg55
(lp1404
g812
asbasbasbag48
(g64
g50
NtRp1405
(dp1406
g53
(dp1407
sg62
g765
sg55
(lp1408
g48
(g69
g50
NtRp1409
(dp1410
g53
(dp1411
g73
g74
ssg62
g1405
sg55
(lp1412
S'web2py_version'
p1413
asbag48
(g69
g50
NtRp1414
(dp1415
g53
(dp1416
g80
g81
ssg62
g1405
sg55
(lp1417
S':'
asbag48
(g69
g50
NtRp1418
(dp1419
g53
(dp1420
sg62
g1405
sg55
(lp1421
g48
(g49
g50
NtRp1422
(dp1423
g53
(dp1424
g61
I4
ssg62
g1418
sg55
(lp1425
g48
(g57
g50
NtRp1426
(dp1427
g53
(dp1428
g61
I3
ssg62
Nsg55
(lp1429
g48
(g64
g50
NtRp1430
(dp1431
g53
(dp1432
sg62
g1426
sg55
(lp1433
g48
(g69
g50
NtRp1434
(dp1435
g53
(dp1436
sg62
g1430
sg55
(lp1437
g48
(g49
g50
NtRp1438
(dp1439
g53
(dp1440
g61
I3
ssg62
g1434
sg55
(lp1441
S'1'
asbasbasbag48
(g64
g50
NtRp1442
(dp1443
g53
(dp1444
sg62
g1426
sg55
(lp1445
g48
(g69
g50
NtRp1446
(dp1447
g53
(dp1448
sg62
g1442
sg55
(lp1449
g48
(g49
g50
NtRp1450
(dp1451
g53
(dp1452
g61
I3
ssg62
g1446
sg55
(lp1453
S'99'
p1454
asbasbasbag48
(g64
g50
NtRp1455
(dp1456
g53
(dp1457
sg62
g1426
sg55
(lp1458
g48
(g69
g50
NtRp1459
(dp1460
g53
(dp1461
sg62
g1455
sg55
(lp1462
g48
(g49
g50
NtRp1463
(dp1464
g53
(dp1465
g61
I3
ssg62
g1459
sg55
(lp1466
S'2'
asbasbasbag48
(g64
g50
NtRp1467
(dp1468
g53
(dp1469
sg62
g1426
sg55
(lp1470
g48
(g69
g50
NtRp1471
(dp1472
g53
(dp1473
sg62
g1467
sg55
(lp1474
g48
(g49
g50
NtRp1475
(dp1476
g53
(dp1477
g61
I3
ssg62
g1471
sg55
(lp1478
S'datetime.datetime(2011, 9, 26, 6, 55, 33)'
p1479
asbasbasbag48
(g64
g50
NtRp1480
(dp1481
g53
(dp1482
sg62
g1426
sg55
(lp1483
g48
(g69
g50
NtRp1484
(dp1485
g53
(dp1486
sg62
g1480
sg55
(lp1487
g48
(g49
g50
NtRp1488
(dp1489
g53
(dp1490
g61
I3
ssg62
g1484
sg55
(lp1491
S'stable'
p1492
asbasbasbasbasbasbasbag48
(g64
g50
NtRp1493
(dp1494
g53
(dp1495
sg62
g765
sg55
(lp1496
g48
(g69
g50
NtRp1497
(dp1498
g53
(dp1499
g73
g74
ssg62
g1493
sg55
(lp1500
S'wsgi_errors'
p1501
asbag48
(g69
g50
NtRp1502
(dp1503
g53
(dp1504
g80
g81
ssg62
g1493
sg55
(lp1505
S':'
asbag48
(g69
g50
NtRp1506
(dp1507
g53
(dp1508
sg62
g1493
sg55
(lp1509
g48
(g49
g50
NtRp1510
(dp1511
g53
(dp1512
g61
I4
ssg62
g1506
sg55
(lp1513
S"<open file '<stderr>', mode 'w' at 0x015700B0>"
p1514
asbasbasbag48
(g64
g50
NtRp1515
(dp1516
g53
(dp1517
sg62
g765
sg55
(lp1518
g48
(g69
g50
NtRp1519
(dp1520
g53
(dp1521
g73
g74
ssg62
g1515
sg55
(lp1522
S'wsgi_file_wrapper'
p1523
asbag48
(g69
g50
NtRp1524
(dp1525
g53
(dp1526
g80
g81
ssg62
g1515
sg55
(lp1527
S':'
asbag48
(g69
g50
NtRp1528
(dp1529
g53
(dp1530
sg62
g1515
sg55
(lp1531
g48
(g49
g50
NtRp1532
(dp1533
g53
(dp1534
g61
I4
ssg62
g1528
sg55
(lp1535
S'<class wsgiref.util.FileWrapper at 0x02409AB0>'
p1536
asbasbasbag48
(g64
g50
NtRp1537
(dp1538
g53
(dp1539
sg62
g765
sg55
(lp1540
g48
(g69
g50
NtRp1541
(dp1542
g53
(dp1543
g73
g74
ssg62
g1537
sg55
(lp1544
S'wsgi_input'
p1545
asbag48
(g69
g50
NtRp1546
(dp1547
g53
(dp1548
g80
g81
ssg62
g1537
sg55
(lp1549
S':'
asbag48
(g69
g50
NtRp1550
(dp1551
g53
(dp1552
sg62
g1537
sg55
(lp1553
g48
(g49
g50
NtRp1554
(dp1555
g53
(dp1556
g61
I4
ssg62
g1550
sg55
(lp1557
S'<socket._fileobject object at 0x05C7E7F0>'
p1558
asbasbasbag48
(g64
g50
NtRp1559
(dp1560
g53
(dp1561
sg62
g765
sg55
(lp1562
g48
(g69
g50
NtRp1563
(dp1564
g53
(dp1565
g73
g74
ssg62
g1559
sg55
(lp1566
S'wsgi_multiprocess'
p1567
asbag48
(g69
g50
NtRp1568
(dp1569
g53
(dp1570
g80
g81
ssg62
g1559
sg55
(lp1571
S':'
asbag48
(g69
g50
NtRp1572
(dp1573
g53
(dp1574
sg62
g1559
sg55
(lp1575
g48
(g49
g50
NtRp1576
(dp1577
g53
(dp1578
g61
I4
ssg62
g1572
sg55
(lp1579
g91
asbasbasbag48
(g64
g50
NtRp1580
(dp1581
g53
(dp1582
sg62
g765
sg55
(lp1583
g48
(g69
g50
NtRp1584
(dp1585
g53
(dp1586
g73
g74
ssg62
g1580
sg55
(lp1587
S'wsgi_multithread'
p1588
asbag48
(g69
g50
NtRp1589
(dp1590
g53
(dp1591
g80
g81
ssg62
g1580
sg55
(lp1592
S':'
asbag48
(g69
g50
NtRp1593
(dp1594
g53
(dp1595
sg62
g1580
sg55
(lp1596
g48
(g49
g50
NtRp1597
(dp1598
g53
(dp1599
g61
I4
ssg62
g1593
sg55
(lp1600
S'True'
p1601
asbasbasbag48
(g64
g50
NtRp1602
(dp1603
g53
(dp1604
sg62
g765
sg55
(lp1605
g48
(g69
g50
NtRp1606
(dp1607
g53
(dp1608
g73
g74
ssg62
g1602
sg55
(lp1609
S'wsgi_run_once'
p1610
asbag48
(g69
g50
NtRp1611
(dp1612
g53
(dp1613
g80
g81
ssg62
g1602
sg55
(lp1614
S':'
asbag48
(g69
g50
NtRp1615
(dp1616
g53
(dp1617
sg62
g1602
sg55
(lp1618
g48
(g49
g50
NtRp1619
(dp1620
g53
(dp1621
g61
I4
ssg62
g1615
sg55
(lp1622
g91
asbasbasbag48
(g64
g50
NtRp1623
(dp1624
g53
(dp1625
sg62
g765
sg55
(lp1626
g48
(g69
g50
NtRp1627
(dp1628
g53
(dp1629
g73
g74
ssg62
g1623
sg55
(lp1630
S'wsgi_url_scheme'
p1631
asbag48
(g69
g50
NtRp1632
(dp1633
g53
(dp1634
g80
g81
ssg62
g1623
sg55
(lp1635
S':'
asbag48
(g69
g50
NtRp1636
(dp1637
g53
(dp1638
sg62
g1623
sg55
(lp1639
g48
(g49
g50
NtRp1640
(dp1641
g53
(dp1642
g61
I4
ssg62
g1636
sg55
(lp1643
S'http'
p1644
asbasbasbag48
(g64
g50
NtRp1645
(dp1646
g53
(dp1647
sg62
g765
sg55
(lp1648
g48
(g69
g50
NtRp1649
(dp1650
g53
(dp1651
g73
g74
ssg62
g1645
sg55
(lp1652
S'wsgi_version'
p1653
asbag48
(g69
g50
NtRp1654
(dp1655
g53
(dp1656
g80
g81
ssg62
g1645
sg55
(lp1657
S':'
asbag48
(g69
g50
NtRp1658
(dp1659
g53
(dp1660
sg62
g1645
sg55
(lp1661
g48
(g49
g50
NtRp1662
(dp1663
g53
(dp1664
g61
I4
ssg62
g1658
sg55
(lp1665
g48
(g57
g50
NtRp1666
(dp1667
g53
(dp1668
g61
I3
ssg62
Nsg55
(lp1669
g48
(g64
g50
NtRp1670
(dp1671
g53
(dp1672
sg62
g1666
sg55
(lp1673
g48
(g69
g50
NtRp1674
(dp1675
g53
(dp1676
sg62
g1670
sg55
(lp1677
g48
(g49
g50
NtRp1678
(dp1679
g53
(dp1680
g61
I3
ssg62
g1674
sg55
(lp1681
S'1'
asbasbasbag48
(g64
g50
NtRp1682
(dp1683
g53
(dp1684
sg62
g1666
sg55
(lp1685
g48
(g69
g50
NtRp1686
(dp1687
g53
(dp1688
sg62
g1682
sg55
(lp1689
g48
(g49
g50
NtRp1690
(dp1691
g53
(dp1692
g61
I3
ssg62
g1686
sg55
(lp1693
S'0'
asbasbasbasbasbasbasbasbasbasbasbag48
(g64
g50
NtRp1694
(dp1695
g53
(dp1696
sg62
g58
sg55
(lp1697
g48
(g69
g50
NtRp1698
(dp1699
g53
(dp1700
g73
g74
ssg62
g1694
sg55
(lp1701
S'extension'
p1702
asbag48
(g69
g50
NtRp1703
(dp1704
g53
(dp1705
g80
g81
ssg62
g1694
sg55
(lp1706
S':'
asbag48
(g69
g50
NtRp1707
(dp1708
g53
(dp1709
sg62
g1694
sg55
(lp1710
g48
(g49
g50
NtRp1711
(dp1712
g53
(dp1713
g61
I5
ssg62
g1707
sg55
(lp1714
S'html'
p1715
asbasbasbag48
(g64
g50
NtRp1716
(dp1717
g53
(dp1718
sg62
g58
sg55
(lp1719
g48
(g69
g50
NtRp1720
(dp1721
g53
(dp1722
g73
g74
ssg62
g1716
sg55
(lp1723
S'folder'
p1724
asbag48
(g69
g50
NtRp1725
(dp1726
g53
(dp1727
g80
g81
ssg62
g1716
sg55
(lp1728
S':'
asbag48
(g69
g50
NtRp1729
(dp1730
g53
(dp1731
sg62
g1716
sg55
(lp1732
g48
(g49
g50
NtRp1733
(dp1734
g53
(dp1735
g61
I5
ssg62
g1729
sg55
(lp1736
S'C:\\Python32\\web2py_win\\web2py\\applications\\Casa_de_Apuestas\\'
p1737
asbasbasbag48
(g64
g50
NtRp1738
(dp1739
g53
(dp1740
sg62
g58
sg55
(lp1741
g48
(g69
g50
NtRp1742
(dp1743
g53
(dp1744
g73
g74
ssg62
g1738
sg55
(lp1745
S'function'
p1746
asbag48
(g69
g50
NtRp1747
(dp1748
g53
(dp1749
g80
g81
ssg62
g1738
sg55
(lp1750
S':'
asbag48
(g69
g50
NtRp1751
(dp1752
g53
(dp1753
sg62
g1738
sg55
(lp1754
g48
(g49
g50
NtRp1755
(dp1756
g53
(dp1757
g61
I5
ssg62
g1751
sg55
(lp1758
S'user'
p1759
asbasbasbag48
(g64
g50
NtRp1760
(dp1761
g53
(dp1762
sg62
g58
sg55
(lp1763
g48
(g69
g50
NtRp1764
(dp1765
g53
(dp1766
g73
g74
ssg62
g1760
sg55
(lp1767
S'get_vars'
p1768
asbag48
(g69
g50
NtRp1769
(dp1770
g53
(dp1771
g80
g81
ssg62
g1760
sg55
(lp1772
S':'
asbag48
(g69
g50
NtRp1773
(dp1774
g53
(dp1775
sg62
g1760
sg55
(lp1776
g48
(g49
g50
NtRp1777
(dp1778
g53
(dp1779
g61
I5
ssg62
g1773
sg55
(lp1780
g48
(g57
g50
NtRp1781
(dp1782
g53
(dp1783
g61
I4
ssg62
Nsg55
(lp1784
sbasbasbasbag48
(g64
g50
NtRp1785
(dp1786
g53
(dp1787
sg62
g58
sg55
(lp1788
g48
(g69
g50
NtRp1789
(dp1790
g53
(dp1791
g73
g74
ssg62
g1785
sg55
(lp1792
S'global_settings'
p1793
asbag48
(g69
g50
NtRp1794
(dp1795
g53
(dp1796
g80
g81
ssg62
g1785
sg55
(lp1797
S':'
asbag48
(g69
g50
NtRp1798
(dp1799
g53
(dp1800
sg62
g1785
sg55
(lp1801
g48
(g49
g50
NtRp1802
(dp1803
g53
(dp1804
g61
I5
ssg62
g1798
sg55
(lp1805
g48
(g57
g50
NtRp1806
(dp1807
g53
(dp1808
g61
I4
ssg62
Nsg55
(lp1809
g48
(g64
g50
NtRp1810
(dp1811
g53
(dp1812
sg62
g1806
sg55
(lp1813
g48
(g69
g50
NtRp1814
(dp1815
g53
(dp1816
g73
g74
ssg62
g1810
sg55
(lp1817
g777
asbag48
(g69
g50
NtRp1818
(dp1819
g53
(dp1820
g80
g81
ssg62
g1810
sg55
(lp1821
S':'
asbag48
(g69
g50
NtRp1822
(dp1823
g53
(dp1824
sg62
g1810
sg55
(lp1825
g48
(g49
g50
NtRp1826
(dp1827
g53
(dp1828
g61
I4
ssg62
g1822
sg55
(lp1829
S"set(['C:\\\\Python32\\\\web2py_win\\\\web2py\\\\applications\\\\admin\\\\', 'C:\\\\Python32\\\\web2py_win\\\\web2py\\\\applications\\\\welcome\\\\', 'C:\\\\Python32\\\\web2py_win\\\\web2py\\\\applications\\\\Casa_de_Apuestas\\\\'])"
p1830
asbasbasbag48
(g64
g50
NtRp1831
(dp1832
g53
(dp1833
sg62
g1806
sg55
(lp1834
g48
(g69
g50
NtRp1835
(dp1836
g53
(dp1837
g73
g74
ssg62
g1831
sg55
(lp1838
g799
asbag48
(g69
g50
NtRp1839
(dp1840
g53
(dp1841
g80
g81
ssg62
g1831
sg55
(lp1842
S':'
asbag48
(g69
g50
NtRp1843
(dp1844
g53
(dp1845
sg62
g1831
sg55
(lp1846
g48
(g49
g50
NtRp1847
(dp1848
g53
(dp1849
g61
I4
ssg62
g1843
sg55
(lp1850
g812
asbasbasbag48
(g64
g50
NtRp1851
(dp1852
g53
(dp1853
sg62
g1806
sg55
(lp1854
g48
(g69
g50
NtRp1855
(dp1856
g53
(dp1857
g73
g74
ssg62
g1851
sg55
(lp1858
g821
asbag48
(g69
g50
NtRp1859
(dp1860
g53
(dp1861
g80
g81
ssg62
g1851
sg55
(lp1862
S':'
asbag48
(g69
g50
NtRp1863
(dp1864
g53
(dp1865
sg62
g1851
sg55
(lp1866
g48
(g49
g50
NtRp1867
(dp1868
g53
(dp1869
g61
I4
ssg62
g1863
sg55
(lp1870
g48
(g57
g50
NtRp1871
(dp1872
g53
(dp1873
g61
I3
ssg62
Nsg55
(lp1874
sbasbasbasbag48
(g64
g50
NtRp1875
(dp1876
g53
(dp1877
sg62
g1806
sg55
(lp1878
g48
(g69
g50
NtRp1879
(dp1880
g53
(dp1881
g73
g74
ssg62
g1875
sg55
(lp1882
g846
asbag48
(g69
g50
NtRp1883
(dp1884
g53
(dp1885
g80
g81
ssg62
g1875
sg55
(lp1886
S':'
asbag48
(g69
g50
NtRp1887
(dp1888
g53
(dp1889
sg62
g1875
sg55
(lp1890
g48
(g49
g50
NtRp1891
(dp1892
g53
(dp1893
g61
I4
ssg62
g1887
sg55
(lp1894
S"<Values at 0x2665fa8: {'verbose': False, 'ip': '127.0.0.1', 'shutdown_timeout': 5, 'taskbar': False, 'nocron': False, 'pid_filename': 'httpserver.pid', 'maxthreads': None, 'softcron': False, 'server_name': 'hector-vaio', 'bpython': False, 'nogui': False, 'port': 8000, 'extcron': False, 'debuglevel': 30, 'test': None, 'folder': 'C:\\\\Python32\\\\web2py_win\\\\web2py', 'config': '', 'import_models': False, 'winservice': '', 'shell': None, 'run': '', 'log_filename': 'httpserver.log', 'args': [''], 'ssl_ca_certificate': None, 'scheduler': None, 'profiler_filename': None, 'ssl_private_key': '', 'password': '<ask>', 'request_queue_size': 5, 'ssl_certificate': '', 'cronjob': False, 'plain': False, 'quiet': False, 'interfaces': None, 'minthreads': None, 'timeout': 10, 'numthreads': None, 'nobanner': False}>"
p1895
asbasbasbag48
(g64
g50
NtRp1896
(dp1897
g53
(dp1898
sg62
g1806
sg55
(lp1899
g48
(g69
g50
NtRp1900
(dp1901
g53
(dp1902
g73
g74
ssg62
g1896
sg55
(lp1903
g868
asbag48
(g69
g50
NtRp1904
(dp1905
g53
(dp1906
g80
g81
ssg62
g1896
sg55
(lp1907
S':'
asbag48
(g69
g50
NtRp1908
(dp1909
g53
(dp1910
sg62
g1896
sg55
(lp1911
g48
(g49
g50
NtRp1912
(dp1913
g53
(dp1914
g61
I4
ssg62
g1908
sg55
(lp1915
S'set([])'
p1916
asbasbasbag48
(g64
g50
NtRp1917
(dp1918
g53
(dp1919
sg62
g1806
sg55
(lp1920
g48
(g69
g50
NtRp1921
(dp1922
g53
(dp1923
g73
g74
ssg62
g1917
sg55
(lp1924
g890
asbag48
(g69
g50
NtRp1925
(dp1926
g53
(dp1927
g80
g81
ssg62
g1917
sg55
(lp1928
S':'
asbag48
(g69
g50
NtRp1929
(dp1930
g53
(dp1931
sg62
g1917
sg55
(lp1932
g48
(g49
g50
NtRp1933
(dp1934
g53
(dp1935
g61
I4
ssg62
g1929
sg55
(lp1936
g91
asbasbasbag48
(g64
g50
NtRp1937
(dp1938
g53
(dp1939
sg62
g1806
sg55
(lp1940
g48
(g69
g50
NtRp1941
(dp1942
g53
(dp1943
g73
g74
ssg62
g1937
sg55
(lp1944
g911
asbag48
(g69
g50
NtRp1945
(dp1946
g53
(dp1947
g80
g81
ssg62
g1937
sg55
(lp1948
S':'
asbag48
(g69
g50
NtRp1949
(dp1950
g53
(dp1951
sg62
g1937
sg55
(lp1952
g48
(g49
g50
NtRp1953
(dp1954
g53
(dp1955
g61
I4
ssg62
g1949
sg55
(lp1956
g924
asbasbasbag48
(g64
g50
NtRp1957
(dp1958
g53
(dp1959
sg62
g1806
sg55
(lp1960
g48
(g69
g50
NtRp1961
(dp1962
g53
(dp1963
g73
g74
ssg62
g1957
sg55
(lp1964
g1131
asbag48
(g69
g50
NtRp1965
(dp1966
g53
(dp1967
g80
g81
ssg62
g1957
sg55
(lp1968
S':'
asbag48
(g69
g50
NtRp1969
(dp1970
g53
(dp1971
sg62
g1957
sg55
(lp1972
g48
(g49
g50
NtRp1973
(dp1974
g53
(dp1975
g61
I4
ssg62
g1969
sg55
(lp1976
g91
asbasbasbag48
(g64
g50
NtRp1977
(dp1978
g53
(dp1979
sg62
g1806
sg55
(lp1980
g48
(g69
g50
NtRp1981
(dp1982
g53
(dp1983
g73
g74
ssg62
g1977
sg55
(lp1984
g1370
asbag48
(g69
g50
NtRp1985
(dp1986
g53
(dp1987
g80
g81
ssg62
g1977
sg55
(lp1988
S':'
asbag48
(g69
g50
NtRp1989
(dp1990
g53
(dp1991
sg62
g1977
sg55
(lp1992
g48
(g49
g50
NtRp1993
(dp1994
g53
(dp1995
g61
I4
ssg62
g1989
sg55
(lp1996
g1383
asbasbasbag48
(g64
g50
NtRp1997
(dp1998
g53
(dp1999
sg62
g1806
sg55
(lp2000
g48
(g69
g50
NtRp2001
(dp2002
g53
(dp2003
g73
g74
ssg62
g1997
sg55
(lp2004
g1413
asbag48
(g69
g50
NtRp2005
(dp2006
g53
(dp2007
g80
g81
ssg62
g1997
sg55
(lp2008
S':'
asbag48
(g69
g50
NtRp2009
(dp2010
g53
(dp2011
sg62
g1997
sg55
(lp2012
g48
(g49
g50
NtRp2013
(dp2014
g53
(dp2015
g61
I4
ssg62
g2009
sg55
(lp2016
g48
(g57
g50
NtRp2017
(dp2018
g53
(dp2019
g61
I3
ssg62
Nsg55
(lp2020
g48
(g64
g50
NtRp2021
(dp2022
g53
(dp2023
sg62
g2017
sg55
(lp2024
g48
(g69
g50
NtRp2025
(dp2026
g53
(dp2027
sg62
g2021
sg55
(lp2028
g48
(g49
g50
NtRp2029
(dp2030
g53
(dp2031
g61
I3
ssg62
g2025
sg55
(lp2032
S'1'
asbasbasbag48
(g64
g50
NtRp2033
(dp2034
g53
(dp2035
sg62
g2017
sg55
(lp2036
g48
(g69
g50
NtRp2037
(dp2038
g53
(dp2039
sg62
g2033
sg55
(lp2040
g48
(g49
g50
NtRp2041
(dp2042
g53
(dp2043
g61
I3
ssg62
g2037
sg55
(lp2044
S'99'
p2045
asbasbasbag48
(g64
g50
NtRp2046
(dp2047
g53
(dp2048
sg62
g2017
sg55
(lp2049
g48
(g69
g50
NtRp2050
(dp2051
g53
(dp2052
sg62
g2046
sg55
(lp2053
g48
(g49
g50
NtRp2054
(dp2055
g53
(dp2056
g61
I3
ssg62
g2050
sg55
(lp2057
S'2'
asbasbasbag48
(g64
g50
NtRp2058
(dp2059
g53
(dp2060
sg62
g2017
sg55
(lp2061
g48
(g69
g50
NtRp2062
(dp2063
g53
(dp2064
sg62
g2058
sg55
(lp2065
g48
(g49
g50
NtRp2066
(dp2067
g53
(dp2068
g61
I3
ssg62
g2062
sg55
(lp2069
S'datetime.datetime(2011, 9, 26, 6, 55, 33)'
p2070
asbasbasbag48
(g64
g50
NtRp2071
(dp2072
g53
(dp2073
sg62
g2017
sg55
(lp2074
g48
(g69
g50
NtRp2075
(dp2076
g53
(dp2077
sg62
g2071
sg55
(lp2078
g48
(g49
g50
NtRp2079
(dp2080
g53
(dp2081
g61
I3
ssg62
g2075
sg55
(lp2082
g1492
asbasbasbasbasbasbasbasbasbasbasbag48
(g64
g50
NtRp2083
(dp2084
g53
(dp2085
sg62
g58
sg55
(lp2086
g48
(g69
g50
NtRp2087
(dp2088
g53
(dp2089
g73
g74
ssg62
g2083
sg55
(lp2090
S'is_https'
p2091
asbag48
(g69
g50
NtRp2092
(dp2093
g53
(dp2094
g80
g81
ssg62
g2083
sg55
(lp2095
S':'
asbag48
(g69
g50
NtRp2096
(dp2097
g53
(dp2098
sg62
g2083
sg55
(lp2099
g48
(g49
g50
NtRp2100
(dp2101
g53
(dp2102
g61
I5
ssg62
g2096
sg55
(lp2103
g91
asbasbasbag48
(g64
g50
NtRp2104
(dp2105
g53
(dp2106
sg62
g58
sg55
(lp2107
g48
(g69
g50
NtRp2108
(dp2109
g53
(dp2110
g73
g74
ssg62
g2104
sg55
(lp2111
S'is_local'
p2112
asbag48
(g69
g50
NtRp2113
(dp2114
g53
(dp2115
g80
g81
ssg62
g2104
sg55
(lp2116
S':'
asbag48
(g69
g50
NtRp2117
(dp2118
g53
(dp2119
sg62
g2104
sg55
(lp2120
g48
(g49
g50
NtRp2121
(dp2122
g53
(dp2123
g61
I5
ssg62
g2117
sg55
(lp2124
g1601
asbasbasbag48
(g64
g50
NtRp2125
(dp2126
g53
(dp2127
sg62
g58
sg55
(lp2128
g48
(g69
g50
NtRp2129
(dp2130
g53
(dp2131
g73
g74
ssg62
g2125
sg55
(lp2132
S'is_restful'
p2133
asbag48
(g69
g50
NtRp2134
(dp2135
g53
(dp2136
g80
g81
ssg62
g2125
sg55
(lp2137
S':'
asbag48
(g69
g50
NtRp2138
(dp2139
g53
(dp2140
sg62
g2125
sg55
(lp2141
g48
(g49
g50
NtRp2142
(dp2143
g53
(dp2144
g61
I5
ssg62
g2138
sg55
(lp2145
g91
asbasbasbag48
(g64
g50
NtRp2146
(dp2147
g53
(dp2148
sg62
g58
sg55
(lp2149
g48
(g69
g50
NtRp2150
(dp2151
g53
(dp2152
g73
g74
ssg62
g2146
sg55
(lp2153
S'now'
p2154
asbag48
(g69
g50
NtRp2155
(dp2156
g53
(dp2157
g80
g81
ssg62
g2146
sg55
(lp2158
S':'
asbag48
(g69
g50
NtRp2159
(dp2160
g53
(dp2161
sg62
g2146
sg55
(lp2162
g48
(g49
g50
NtRp2163
(dp2164
g53
(dp2165
g61
I5
ssg62
g2159
sg55
(lp2166
S'datetime.datetime(2011, 11, 12, 17, 43, 20, 35000)'
p2167
asbasbasbag48
(g64
g50
NtRp2168
(dp2169
g53
(dp2170
sg62
g58
sg55
(lp2171
g48
(g69
g50
NtRp2172
(dp2173
g53
(dp2174
g73
g74
ssg62
g2168
sg55
(lp2175
S'post_vars'
p2176
asbag48
(g69
g50
NtRp2177
(dp2178
g53
(dp2179
g80
g81
ssg62
g2168
sg55
(lp2180
S':'
asbag48
(g69
g50
NtRp2181
(dp2182
g53
(dp2183
sg62
g2168
sg55
(lp2184
g48
(g49
g50
NtRp2185
(dp2186
g53
(dp2187
g61
I5
ssg62
g2181
sg55
(lp2188
g48
(g57
g50
NtRp2189
(dp2190
g53
(dp2191
g61
I4
ssg62
Nsg55
(lp2192
sbasbasbasbag48
(g64
g50
NtRp2193
(dp2194
g53
(dp2195
sg62
g58
sg55
(lp2196
g48
(g69
g50
NtRp2197
(dp2198
g53
(dp2199
g73
g74
ssg62
g2193
sg55
(lp2200
S'raw_args'
p2201
asbag48
(g69
g50
NtRp2202
(dp2203
g53
(dp2204
g80
g81
ssg62
g2193
sg55
(lp2205
S':'
asbag48
(g69
g50
NtRp2206
(dp2207
g53
(dp2208
sg62
g2193
sg55
(lp2209
g48
(g49
g50
NtRp2210
(dp2211
g53
(dp2212
g61
I5
ssg62
g2206
sg55
(lp2213
S'login'
p2214
asbasbasbag48
(g64
g50
NtRp2215
(dp2216
g53
(dp2217
sg62
g58
sg55
(lp2218
g48
(g69
g50
NtRp2219
(dp2220
g53
(dp2221
g73
g74
ssg62
g2215
sg55
(lp2222
S'url'
p2223
asbag48
(g69
g50
NtRp2224
(dp2225
g53
(dp2226
g80
g81
ssg62
g2215
sg55
(lp2227
S':'
asbag48
(g69
g50
NtRp2228
(dp2229
g53
(dp2230
sg62
g2215
sg55
(lp2231
g48
(g49
g50
NtRp2232
(dp2233
g53
(dp2234
g61
I5
ssg62
g2228
sg55
(lp2235
S'/Casa_de_Apuestas/default/user/login'
p2236
asbasbasbag48
(g64
g50
NtRp2237
(dp2238
g53
(dp2239
sg62
g58
sg55
(lp2240
g48
(g69
g50
NtRp2241
(dp2242
g53
(dp2243
g73
g74
ssg62
g2237
sg55
(lp2244
S'utcnow'
p2245
asbag48
(g69
g50
NtRp2246
(dp2247
g53
(dp2248
g80
g81
ssg62
g2237
sg55
(lp2249
S':'
asbag48
(g69
g50
NtRp2250
(dp2251
g53
(dp2252
sg62
g2237
sg55
(lp2253
g48
(g49
g50
NtRp2254
(dp2255
g53
(dp2256
g61
I5
ssg62
g2250
sg55
(lp2257
S'datetime.datetime(2011, 11, 12, 22, 13, 20, 35000)'
p2258
asbasbasbag48
(g64
g50
NtRp2259
(dp2260
g53
(dp2261
sg62
g58
sg55
(lp2262
g48
(g69
g50
NtRp2263
(dp2264
g53
(dp2265
g73
g74
ssg62
g2259
sg55
(lp2266
S'uuid'
p2267
asbag48
(g69
g50
NtRp2268
(dp2269
g53
(dp2270
g80
g81
ssg62
g2259
sg55
(lp2271
S':'
asbag48
(g69
g50
NtRp2272
(dp2273
g53
(dp2274
sg62
g2259
sg55
(lp2275
g48
(g49
g50
NtRp2276
(dp2277
g53
(dp2278
g61
I5
ssg62
g2272
sg55
(lp2279
S'Casa_de_Apuestas/127.0.0.1.2011-11-12.17-43-20.ae47a86c-3114-46c4-9b90-e5f3d8956b48'
p2280
asbasbasbag48
(g64
g50
NtRp2281
(dp2282
g53
(dp2283
sg62
g58
sg55
(lp2284
g48
(g69
g50
NtRp2285
(dp2286
g53
(dp2287
g73
g74
ssg62
g2281
sg55
(lp2288
S'vars'
p2289
asbag48
(g69
g50
NtRp2290
(dp2291
g53
(dp2292
g80
g81
ssg62
g2281
sg55
(lp2293
S':'
asbag48
(g69
g50
NtRp2294
(dp2295
g53
(dp2296
sg62
g2281
sg55
(lp2297
g48
(g49
g50
NtRp2298
(dp2299
g53
(dp2300
g61
I5
ssg62
g2294
sg55
(lp2301
g48
(g57
g50
NtRp2302
(dp2303
g53
(dp2304
g61
I4
ssg62
Nsg55
(lp2305
sbasbasbasbag48
(g64
g50
NtRp2306
(dp2307
g53
(dp2308
sg62
g58
sg55
(lp2309
g48
(g69
g50
NtRp2310
(dp2311
g53
(dp2312
g73
g74
ssg62
g2306
sg55
(lp2313
S'wsgi'
p2314
asbag48
(g69
g50
NtRp2315
(dp2316
g53
(dp2317
g80
g81
ssg62
g2306
sg55
(lp2318
S':'
asbag48
(g69
g50
NtRp2319
(dp2320
g53
(dp2321
sg62
g2306
sg55
(lp2322
g48
(g49
g50
NtRp2323
(dp2324
g53
(dp2325
g61
I5
ssg62
g2319
sg55
(lp2326
g48
(g57
g50
NtRp2327
(dp2328
g53
(dp2329
g61
I4
ssg62
Nsg55
(lp2330
g48
(g64
g50
NtRp2331
(dp2332
g53
(dp2333
sg62
g2327
sg55
(lp2334
g48
(g69
g50
NtRp2335
(dp2336
g53
(dp2337
g73
g74
ssg62
g2331
sg55
(lp2338
S'environ'
p2339
asbag48
(g69
g50
NtRp2340
(dp2341
g53
(dp2342
g80
g81
ssg62
g2331
sg55
(lp2343
S':'
asbag48
(g69
g50
NtRp2344
(dp2345
g53
(dp2346
sg62
g2331
sg55
(lp2347
g48
(g49
g50
NtRp2348
(dp2349
g53
(dp2350
g61
I4
ssg62
g2344
sg55
(lp2351
g48
(g57
g50
NtRp2352
(dp2353
g53
(dp2354
g61
I3
ssg62
Nsg55
(lp2355
g48
(g64
g50
NtRp2356
(dp2357
g53
(dp2358
sg62
g2352
sg55
(lp2359
g48
(g69
g50
NtRp2360
(dp2361
g53
(dp2362
g73
g74
ssg62
g2356
sg55
(lp2363
S'HTTP_ACCEPT'
p2364
asbag48
(g69
g50
NtRp2365
(dp2366
g53
(dp2367
g80
g81
ssg62
g2356
sg55
(lp2368
S':'
asbag48
(g69
g50
NtRp2369
(dp2370
g53
(dp2371
sg62
g2356
sg55
(lp2372
g48
(g49
g50
NtRp2373
(dp2374
g53
(dp2375
g61
I3
ssg62
g2369
sg55
(lp2376
g946
asbasbasbag48
(g64
g50
NtRp2377
(dp2378
g53
(dp2379
sg62
g2352
sg55
(lp2380
g48
(g69
g50
NtRp2381
(dp2382
g53
(dp2383
g73
g74
ssg62
g2377
sg55
(lp2384
S'HTTP_ACCEPT_CHARSET'
p2385
asbag48
(g69
g50
NtRp2386
(dp2387
g53
(dp2388
g80
g81
ssg62
g2377
sg55
(lp2389
S':'
asbag48
(g69
g50
NtRp2390
(dp2391
g53
(dp2392
sg62
g2377
sg55
(lp2393
g48
(g49
g50
NtRp2394
(dp2395
g53
(dp2396
g61
I3
ssg62
g2390
sg55
(lp2397
g968
asbasbasbag48
(g64
g50
NtRp2398
(dp2399
g53
(dp2400
sg62
g2352
sg55
(lp2401
g48
(g69
g50
NtRp2402
(dp2403
g53
(dp2404
g73
g74
ssg62
g2398
sg55
(lp2405
S'HTTP_ACCEPT_ENCODING'
p2406
asbag48
(g69
g50
NtRp2407
(dp2408
g53
(dp2409
g80
g81
ssg62
g2398
sg55
(lp2410
S':'
asbag48
(g69
g50
NtRp2411
(dp2412
g53
(dp2413
sg62
g2398
sg55
(lp2414
g48
(g49
g50
NtRp2415
(dp2416
g53
(dp2417
g61
I3
ssg62
g2411
sg55
(lp2418
g990
asbasbasbag48
(g64
g50
NtRp2419
(dp2420
g53
(dp2421
sg62
g2352
sg55
(lp2422
g48
(g69
g50
NtRp2423
(dp2424
g53
(dp2425
g73
g74
ssg62
g2419
sg55
(lp2426
S'HTTP_ACCEPT_LANGUAGE'
p2427
asbag48
(g69
g50
NtRp2428
(dp2429
g53
(dp2430
g80
g81
ssg62
g2419
sg55
(lp2431
S':'
asbag48
(g69
g50
NtRp2432
(dp2433
g53
(dp2434
sg62
g2419
sg55
(lp2435
g48
(g49
g50
NtRp2436
(dp2437
g53
(dp2438
g61
I3
ssg62
g2432
sg55
(lp2439
g1012
asbasbasbag48
(g64
g50
NtRp2440
(dp2441
g53
(dp2442
sg62
g2352
sg55
(lp2443
g48
(g69
g50
NtRp2444
(dp2445
g53
(dp2446
g73
g74
ssg62
g2440
sg55
(lp2447
S'HTTP_CACHE_CONTROL'
p2448
asbag48
(g69
g50
NtRp2449
(dp2450
g53
(dp2451
g80
g81
ssg62
g2440
sg55
(lp2452
S':'
asbag48
(g69
g50
NtRp2453
(dp2454
g53
(dp2455
sg62
g2440
sg55
(lp2456
g48
(g49
g50
NtRp2457
(dp2458
g53
(dp2459
g61
I3
ssg62
g2453
sg55
(lp2460
g1034
asbasbasbag48
(g64
g50
NtRp2461
(dp2462
g53
(dp2463
sg62
g2352
sg55
(lp2464
g48
(g69
g50
NtRp2465
(dp2466
g53
(dp2467
g73
g74
ssg62
g2461
sg55
(lp2468
S'HTTP_CONNECTION'
p2469
asbag48
(g69
g50
NtRp2470
(dp2471
g53
(dp2472
g80
g81
ssg62
g2461
sg55
(lp2473
S':'
asbag48
(g69
g50
NtRp2474
(dp2475
g53
(dp2476
sg62
g2461
sg55
(lp2477
g48
(g49
g50
NtRp2478
(dp2479
g53
(dp2480
g61
I3
ssg62
g2474
sg55
(lp2481
g1056
asbasbasbag48
(g64
g50
NtRp2482
(dp2483
g53
(dp2484
sg62
g2352
sg55
(lp2485
g48
(g69
g50
NtRp2486
(dp2487
g53
(dp2488
g73
g74
ssg62
g2482
sg55
(lp2489
S'HTTP_COOKIE'
p2490
asbag48
(g69
g50
NtRp2491
(dp2492
g53
(dp2493
g80
g81
ssg62
g2482
sg55
(lp2494
S':'
asbag48
(g69
g50
NtRp2495
(dp2496
g53
(dp2497
sg62
g2482
sg55
(lp2498
g48
(g49
g50
NtRp2499
(dp2500
g53
(dp2501
g61
I3
ssg62
g2495
sg55
(lp2502
g1078
asbasbasbag48
(g64
g50
NtRp2503
(dp2504
g53
(dp2505
sg62
g2352
sg55
(lp2506
g48
(g69
g50
NtRp2507
(dp2508
g53
(dp2509
g73
g74
ssg62
g2503
sg55
(lp2510
S'HTTP_HOST'
p2511
asbag48
(g69
g50
NtRp2512
(dp2513
g53
(dp2514
g80
g81
ssg62
g2503
sg55
(lp2515
S':'
asbag48
(g69
g50
NtRp2516
(dp2517
g53
(dp2518
sg62
g2503
sg55
(lp2519
g48
(g49
g50
NtRp2520
(dp2521
g53
(dp2522
g61
I3
ssg62
g2516
sg55
(lp2523
g1100
asbasbasbag48
(g64
g50
NtRp2524
(dp2525
g53
(dp2526
sg62
g2352
sg55
(lp2527
g48
(g69
g50
NtRp2528
(dp2529
g53
(dp2530
g73
g74
ssg62
g2524
sg55
(lp2531
S'HTTP_USER_AGENT'
p2532
asbag48
(g69
g50
NtRp2533
(dp2534
g53
(dp2535
g80
g81
ssg62
g2524
sg55
(lp2536
S':'
asbag48
(g69
g50
NtRp2537
(dp2538
g53
(dp2539
sg62
g2524
sg55
(lp2540
g48
(g49
g50
NtRp2541
(dp2542
g53
(dp2543
g61
I3
ssg62
g2537
sg55
(lp2544
g1122
asbasbasbag48
(g64
g50
NtRp2545
(dp2546
g53
(dp2547
sg62
g2352
sg55
(lp2548
g48
(g69
g50
NtRp2549
(dp2550
g53
(dp2551
g73
g74
ssg62
g2545
sg55
(lp2552
S'PATH_INFO'
p2553
asbag48
(g69
g50
NtRp2554
(dp2555
g53
(dp2556
g80
g81
ssg62
g2545
sg55
(lp2557
S':'
asbag48
(g69
g50
NtRp2558
(dp2559
g53
(dp2560
sg62
g2545
sg55
(lp2561
g48
(g49
g50
NtRp2562
(dp2563
g53
(dp2564
g61
I3
ssg62
g2558
sg55
(lp2565
g1165
asbasbasbag48
(g64
g50
NtRp2566
(dp2567
g53
(dp2568
sg62
g2352
sg55
(lp2569
g48
(g69
g50
NtRp2570
(dp2571
g53
(dp2572
g73
g74
ssg62
g2566
sg55
(lp2573
S'QUERY_STRING'
p2574
asbag48
(g69
g50
NtRp2575
(dp2576
g53
(dp2577
g80
g81
ssg62
g2566
sg55
(lp2578
S':'
asbag48
(g69
g50
NtRp2579
(dp2580
g53
(dp2581
sg62
g2566
sg55
(lp2582
g48
(g49
g50
NtRp2583
(dp2584
g53
(dp2585
g61
I3
ssg62
g2579
sg55
(lp2586
g1187
asbasbasbag48
(g64
g50
NtRp2587
(dp2588
g53
(dp2589
sg62
g2352
sg55
(lp2590
g48
(g69
g50
NtRp2591
(dp2592
g53
(dp2593
g73
g74
ssg62
g2587
sg55
(lp2594
S'REMOTE_ADDR'
p2595
asbag48
(g69
g50
NtRp2596
(dp2597
g53
(dp2598
g80
g81
ssg62
g2587
sg55
(lp2599
S':'
asbag48
(g69
g50
NtRp2600
(dp2601
g53
(dp2602
sg62
g2587
sg55
(lp2603
g48
(g49
g50
NtRp2604
(dp2605
g53
(dp2606
g61
I3
ssg62
g2600
sg55
(lp2607
g194
asbasbasbag48
(g64
g50
NtRp2608
(dp2609
g53
(dp2610
sg62
g2352
sg55
(lp2611
g48
(g69
g50
NtRp2612
(dp2613
g53
(dp2614
g73
g74
ssg62
g2608
sg55
(lp2615
S'REMOTE_PORT'
p2616
asbag48
(g69
g50
NtRp2617
(dp2618
g53
(dp2619
g80
g81
ssg62
g2608
sg55
(lp2620
S':'
asbag48
(g69
g50
NtRp2621
(dp2622
g53
(dp2623
sg62
g2608
sg55
(lp2624
g48
(g49
g50
NtRp2625
(dp2626
g53
(dp2627
g61
I3
ssg62
g2621
sg55
(lp2628
g1230
asbasbasbag48
(g64
g50
NtRp2629
(dp2630
g53
(dp2631
sg62
g2352
sg55
(lp2632
g48
(g69
g50
NtRp2633
(dp2634
g53
(dp2635
g73
g74
ssg62
g2629
sg55
(lp2636
S'REQUEST_METHOD'
p2637
asbag48
(g69
g50
NtRp2638
(dp2639
g53
(dp2640
g80
g81
ssg62
g2629
sg55
(lp2641
S':'
asbag48
(g69
g50
NtRp2642
(dp2643
g53
(dp2644
sg62
g2629
sg55
(lp2645
g48
(g49
g50
NtRp2646
(dp2647
g53
(dp2648
g61
I3
ssg62
g2642
sg55
(lp2649
g1252
asbasbasbag48
(g64
g50
NtRp2650
(dp2651
g53
(dp2652
sg62
g2352
sg55
(lp2653
g48
(g69
g50
NtRp2654
(dp2655
g53
(dp2656
g73
g74
ssg62
g2650
sg55
(lp2657
S'SCRIPT_NAME'
p2658
asbag48
(g69
g50
NtRp2659
(dp2660
g53
(dp2661
g80
g81
ssg62
g2650
sg55
(lp2662
S':'
asbag48
(g69
g50
NtRp2663
(dp2664
g53
(dp2665
sg62
g2650
sg55
(lp2666
g48
(g49
g50
NtRp2667
(dp2668
g53
(dp2669
g61
I3
ssg62
g2663
sg55
(lp2670
S''
asbasbasbag48
(g64
g50
NtRp2671
(dp2672
g53
(dp2673
sg62
g2352
sg55
(lp2674
g48
(g69
g50
NtRp2675
(dp2676
g53
(dp2677
g73
g74
ssg62
g2671
sg55
(lp2678
S'SERVER_NAME'
p2679
asbag48
(g69
g50
NtRp2680
(dp2681
g53
(dp2682
g80
g81
ssg62
g2671
sg55
(lp2683
S':'
asbag48
(g69
g50
NtRp2684
(dp2685
g53
(dp2686
sg62
g2671
sg55
(lp2687
g48
(g49
g50
NtRp2688
(dp2689
g53
(dp2690
g61
I3
ssg62
g2684
sg55
(lp2691
g1295
asbasbasbag48
(g64
g50
NtRp2692
(dp2693
g53
(dp2694
sg62
g2352
sg55
(lp2695
g48
(g69
g50
NtRp2696
(dp2697
g53
(dp2698
g73
g74
ssg62
g2692
sg55
(lp2699
S'SERVER_PORT'
p2700
asbag48
(g69
g50
NtRp2701
(dp2702
g53
(dp2703
g80
g81
ssg62
g2692
sg55
(lp2704
S':'
asbag48
(g69
g50
NtRp2705
(dp2706
g53
(dp2707
sg62
g2692
sg55
(lp2708
g48
(g49
g50
NtRp2709
(dp2710
g53
(dp2711
g61
I3
ssg62
g2705
sg55
(lp2712
g1317
asbasbasbag48
(g64
g50
NtRp2713
(dp2714
g53
(dp2715
sg62
g2352
sg55
(lp2716
g48
(g69
g50
NtRp2717
(dp2718
g53
(dp2719
g73
g74
ssg62
g2713
sg55
(lp2720
S'SERVER_PROTOCOL'
p2721
asbag48
(g69
g50
NtRp2722
(dp2723
g53
(dp2724
g80
g81
ssg62
g2713
sg55
(lp2725
S':'
asbag48
(g69
g50
NtRp2726
(dp2727
g53
(dp2728
sg62
g2713
sg55
(lp2729
g48
(g49
g50
NtRp2730
(dp2731
g53
(dp2732
g61
I3
ssg62
g2726
sg55
(lp2733
g1339
asbasbasbag48
(g64
g50
NtRp2734
(dp2735
g53
(dp2736
sg62
g2352
sg55
(lp2737
g48
(g69
g50
NtRp2738
(dp2739
g53
(dp2740
g73
g74
ssg62
g2734
sg55
(lp2741
S'SERVER_SOFTWARE'
p2742
asbag48
(g69
g50
NtRp2743
(dp2744
g53
(dp2745
g80
g81
ssg62
g2734
sg55
(lp2746
S':'
asbag48
(g69
g50
NtRp2747
(dp2748
g53
(dp2749
sg62
g2734
sg55
(lp2750
g48
(g49
g50
NtRp2751
(dp2752
g53
(dp2753
g61
I3
ssg62
g2747
sg55
(lp2754
g1361
asbasbasbag48
(g64
g50
NtRp2755
(dp2756
g53
(dp2757
sg62
g2352
sg55
(lp2758
g48
(g69
g50
NtRp2759
(dp2760
g53
(dp2761
g73
g74
ssg62
g2755
sg55
(lp2762
S'wsgi.errors'
p2763
asbag48
(g69
g50
NtRp2764
(dp2765
g53
(dp2766
g80
g81
ssg62
g2755
sg55
(lp2767
S':'
asbag48
(g69
g50
NtRp2768
(dp2769
g53
(dp2770
sg62
g2755
sg55
(lp2771
g48
(g49
g50
NtRp2772
(dp2773
g53
(dp2774
g61
I3
ssg62
g2768
sg55
(lp2775
S"<open file '<stderr>', mode 'w' at 0x015700B0>"
p2776
asbasbasbag48
(g64
g50
NtRp2777
(dp2778
g53
(dp2779
sg62
g2352
sg55
(lp2780
g48
(g69
g50
NtRp2781
(dp2782
g53
(dp2783
g73
g74
ssg62
g2777
sg55
(lp2784
S'wsgi.file_wrapper'
p2785
asbag48
(g69
g50
NtRp2786
(dp2787
g53
(dp2788
g80
g81
ssg62
g2777
sg55
(lp2789
S':'
asbag48
(g69
g50
NtRp2790
(dp2791
g53
(dp2792
sg62
g2777
sg55
(lp2793
g48
(g49
g50
NtRp2794
(dp2795
g53
(dp2796
g61
I3
ssg62
g2790
sg55
(lp2797
S'<class wsgiref.util.FileWrapper at 0x02409AB0>'
p2798
asbasbasbag48
(g64
g50
NtRp2799
(dp2800
g53
(dp2801
sg62
g2352
sg55
(lp2802
g48
(g69
g50
NtRp2803
(dp2804
g53
(dp2805
g73
g74
ssg62
g2799
sg55
(lp2806
S'wsgi.input'
p2807
asbag48
(g69
g50
NtRp2808
(dp2809
g53
(dp2810
g80
g81
ssg62
g2799
sg55
(lp2811
S':'
asbag48
(g69
g50
NtRp2812
(dp2813
g53
(dp2814
sg62
g2799
sg55
(lp2815
g48
(g49
g50
NtRp2816
(dp2817
g53
(dp2818
g61
I3
ssg62
g2812
sg55
(lp2819
S'<cStringIO.StringO object at 0x0615C160>'
p2820
asbasbasbag48
(g64
g50
NtRp2821
(dp2822
g53
(dp2823
sg62
g2352
sg55
(lp2824
g48
(g69
g50
NtRp2825
(dp2826
g53
(dp2827
g73
g74
ssg62
g2821
sg55
(lp2828
S'wsgi.multiprocess'
p2829
asbag48
(g69
g50
NtRp2830
(dp2831
g53
(dp2832
g80
g81
ssg62
g2821
sg55
(lp2833
S':'
asbag48
(g69
g50
NtRp2834
(dp2835
g53
(dp2836
sg62
g2821
sg55
(lp2837
g48
(g49
g50
NtRp2838
(dp2839
g53
(dp2840
g61
I3
ssg62
g2834
sg55
(lp2841
g91
asbasbasbag48
(g64
g50
NtRp2842
(dp2843
g53
(dp2844
sg62
g2352
sg55
(lp2845
g48
(g69
g50
NtRp2846
(dp2847
g53
(dp2848
g73
g74
ssg62
g2842
sg55
(lp2849
S'wsgi.multithread'
p2850
asbag48
(g69
g50
NtRp2851
(dp2852
g53
(dp2853
g80
g81
ssg62
g2842
sg55
(lp2854
S':'
asbag48
(g69
g50
NtRp2855
(dp2856
g53
(dp2857
sg62
g2842
sg55
(lp2858
g48
(g49
g50
NtRp2859
(dp2860
g53
(dp2861
g61
I3
ssg62
g2855
sg55
(lp2862
g1601
asbasbasbag48
(g64
g50
NtRp2863
(dp2864
g53
(dp2865
sg62
g2352
sg55
(lp2866
g48
(g69
g50
NtRp2867
(dp2868
g53
(dp2869
g73
g74
ssg62
g2863
sg55
(lp2870
S'wsgi.run_once'
p2871
asbag48
(g69
g50
NtRp2872
(dp2873
g53
(dp2874
g80
g81
ssg62
g2863
sg55
(lp2875
S':'
asbag48
(g69
g50
NtRp2876
(dp2877
g53
(dp2878
sg62
g2863
sg55
(lp2879
g48
(g49
g50
NtRp2880
(dp2881
g53
(dp2882
g61
I3
ssg62
g2876
sg55
(lp2883
g91
asbasbasbag48
(g64
g50
NtRp2884
(dp2885
g53
(dp2886
sg62
g2352
sg55
(lp2887
g48
(g69
g50
NtRp2888
(dp2889
g53
(dp2890
g73
g74
ssg62
g2884
sg55
(lp2891
S'wsgi.url_scheme'
p2892
asbag48
(g69
g50
NtRp2893
(dp2894
g53
(dp2895
g80
g81
ssg62
g2884
sg55
(lp2896
S':'
asbag48
(g69
g50
NtRp2897
(dp2898
g53
(dp2899
sg62
g2884
sg55
(lp2900
g48
(g49
g50
NtRp2901
(dp2902
g53
(dp2903
g61
I3
ssg62
g2897
sg55
(lp2904
g1644
asbasbasbag48
(g64
g50
NtRp2905
(dp2906
g53
(dp2907
sg62
g2352
sg55
(lp2908
g48
(g69
g50
NtRp2909
(dp2910
g53
(dp2911
g73
g74
ssg62
g2905
sg55
(lp2912
S'wsgi.version'
p2913
asbag48
(g69
g50
NtRp2914
(dp2915
g53
(dp2916
g80
g81
ssg62
g2905
sg55
(lp2917
S':'
asbag48
(g69
g50
NtRp2918
(dp2919
g53
(dp2920
sg62
g2905
sg55
(lp2921
g48
(g49
g50
NtRp2922
(dp2923
g53
(dp2924
g61
I3
ssg62
g2918
sg55
(lp2925
S'1'
asbasbasbasbasbasbasbasbasbasbasbasbasbsS'frames'
p2926
(lp2927
(dp2928
S'file'
p2929
S'C:\\Python32\\web2py_win\\web2py\\gluon\\restricted.py'
p2930
sS'dump'
p2931
(dp2932
sS'lnum'
p2933
I194
sS'lines'
p2934
(dp2935
sS'call'
p2936
S"(code='# -*- coding: utf-8 -*-\\n\\n#######################...ender\\nmail.settings.login = settings.email_login\\n', environment={'A': <class 'gluon.html.A'>, 'Auth': <class 'gluon.tools.Auth'>, 'B': <class 'gluon.html.B'>, 'BEAUTIFY': <class 'gluon.html.BEAUTIFY'>, 'BODY': <class 'gluon.html.BODY'>, 'BR': <class 'gluon.html.BR'>, 'BUTTON': <class 'gluon.html.BUTTON'>, 'CAT': <class 'gluon.html.CAT'>, 'CENTER': <class 'gluon.html.CENTER'>, 'CLEANUP': <class 'gluon.validators.CLEANUP'>, ...}, layer=r'C:\\Python32\\web2py_win\\web2py\\applications\\Casa_de_Apuestas\\models\\db.py')"
p2937
sS'func'
p2938
S'restricted'
p2939
sa(dp2940
g2929
S'C:\\Python32\\web2py_win\\web2py\\applications\\Casa_de_Apuestas\\models\\db.py'
p2941
sg2931
(dp2942
sg2933
I135
sg2934
(dp2943
I130
S'          writable=False,readable=False),'
p2944
sI131
S"    format='%(nick)s',"
p2945
sI132
S'    migrate=settings.migrate)'
p2946
sI133
S''
sI134
S''
sI135
S'db.auth_user.first_name.requires = IS_NOT_EMPTY(error_message=auth.messages.is_empty)'
p2947
sI136
S'db.auth_user.last_name.requires = IS_NOT_EMPTY(error_message=auth.messages.is_empty)'
p2948
sI137
S'db.auth_user.password.requires = CRYPT(key=auth.settings.hmac_key)'
p2949
sI138
S'db.auth_user.username.requires = IS_NOT_IN_DB(db, db.auth_user.username)'
p2950
sI139
S'db.auth_user.registration_id.requires = IS_NOT_IN_DB(db, db.auth_user.registration_id)'
p2951
ssg2936
S'()'
p2952
sg2938
S'<module>'
p2953
sa(dp2954
g2929
S'C:\\Python32\\web2py_win\\web2py\\gluon\\dal.py'
p2955
sg2931
(dp2956
sg2933
I4921
sg2934
(dp2957
sg2936
S"(self=<Table {'_db': <DAL {'participantes': <Table {'A..., '_id': <gluon.dal.Field object at 0x05F9DCF0>}>, key='first_name')"
p2958
sg2938
S'__getattr__'
p2959
sa(dp2960
g2929
S'C:\\Python32\\web2py_win\\web2py\\gluon\\dal.py'
p2961
sg2931
(dp2962
sg2933
I4865
sg2934
(dp2963
sg2936
S"(self=<Table {'_db': <DAL {'participantes': <Table {'A..., '_id': <gluon.dal.Field object at 0x05F9DCF0>}>, key='first_name')"
p2964
sg2938
g19
sasS'pyver'
p2965
S'Python 2.5.4: C:\\Python32\\web2py_win\\web2py\\web2py.exe'
p2966
sS'session'
p2967
g48
(g49
g50
NtRp2968
(dp2969
g53
(dp2970
sg55
(lp2971
g48
(g57
g50
NtRp2972
(dp2973
g53
(dp2974
g61
I5
ssg62
Nsg55
(lp2975
g48
(g64
g50
NtRp2976
(dp2977
g53
(dp2978
sg62
g2972
sg55
(lp2979
g48
(g69
g50
NtRp2980
(dp2981
g53
(dp2982
g73
g74
ssg62
g2976
sg55
(lp2983
S'flash'
p2984
asbag48
(g69
g50
NtRp2985
(dp2986
g53
(dp2987
g80
g81
ssg62
g2976
sg55
(lp2988
S':'
asbag48
(g69
g50
NtRp2989
(dp2990
g53
(dp2991
sg62
g2976
sg55
(lp2992
g48
(g49
g50
NtRp2993
(dp2994
g53
(dp2995
g61
I5
ssg62
g2989
sg55
(lp2996
S''
asbasbasbasbasbsS'etype'
p2997
S"<type 'exceptions.KeyError'>"
p2998
sS'date'
p2999
S'Sat Nov 12 17:43:20 2011'
p3000
sS'response'
p3001
g48
(g49
g50
NtRp3002
(dp3003
g53
(dp3004
sg55
(lp3005
g48
(g57
g50
NtRp3006
(dp3007
g53
(dp3008
g61
I5
ssg62
Nsg55
(lp3009
g48
(g64
g50
NtRp3010
(dp3011
g53
(dp3012
sg62
g3006
sg55
(lp3013
g48
(g69
g50
NtRp3014
(dp3015
g53
(dp3016
g73
g74
ssg62
g3010
sg55
(lp3017
g159
asbag48
(g69
g50
NtRp3018
(dp3019
g53
(dp3020
g80
g81
ssg62
g3010
sg55
(lp3021
S':'
asbag48
(g69
g50
NtRp3022
(dp3023
g53
(dp3024
sg62
g3010
sg55
(lp3025
g48
(g49
g50
NtRp3026
(dp3027
g53
(dp3028
g61
I5
ssg62
g3022
sg55
(lp3029
S'<cStringIO.StringO object at 0x065622C0>'
p3030
asbasbasbag48
(g64
g50
NtRp3031
(dp3032
g53
(dp3033
sg62
g3006
sg55
(lp3034
g48
(g69
g50
NtRp3035
(dp3036
g53
(dp3037
g73
g74
ssg62
g3031
sg55
(lp3038
g225
asbag48
(g69
g50
NtRp3039
(dp3040
g53
(dp3041
g80
g81
ssg62
g3031
sg55
(lp3042
S':'
asbag48
(g69
g50
NtRp3043
(dp3044
g53
(dp3045
sg62
g3031
sg55
(lp3046
g48
(g49
g50
NtRp3047
(dp3048
g53
(dp3049
g61
I5
ssg62
g3043
sg55
(lp3050
g48
(g57
g50
NtRp3051
(dp3052
g53
(dp3053
g61
I4
ssg62
Nsg55
(lp3054
g48
(g64
g50
NtRp3055
(dp3056
g53
(dp3057
sg62
g3051
sg55
(lp3058
g48
(g69
g50
NtRp3059
(dp3060
g53
(dp3061
g73
g74
ssg62
g3055
sg55
(lp3062
S'session_id_casa_de_apuestas'
p3063
asbag48
(g69
g50
NtRp3064
(dp3065
g53
(dp3066
g80
g81
ssg62
g3055
sg55
(lp3067
S':'
asbag48
(g69
g50
NtRp3068
(dp3069
g53
(dp3070
sg62
g3055
sg55
(lp3071
g48
(g49
g50
NtRp3072
(dp3073
g53
(dp3074
g61
I4
ssg62
g3068
sg55
(lp3075
g48
(g57
g50
NtRp3076
(dp3077
g53
(dp3078
g61
I3
ssg62
Nsg55
(lp3079
g48
(g64
g50
NtRp3080
(dp3081
g53
(dp3082
sg62
g3076
sg55
(lp3083
g48
(g69
g50
NtRp3084
(dp3085
g53
(dp3086
g73
g74
ssg62
g3080
sg55
(lp3087
g275
asbag48
(g69
g50
NtRp3088
(dp3089
g53
(dp3090
g80
g81
ssg62
g3080
sg55
(lp3091
S':'
asbag48
(g69
g50
NtRp3092
(dp3093
g53
(dp3094
sg62
g3080
sg55
(lp3095
g48
(g49
g50
NtRp3096
(dp3097
g53
(dp3098
g61
I3
ssg62
g3092
sg55
(lp3099
S''
asbasbasbag48
(g64
g50
NtRp3100
(dp3101
g53
(dp3102
sg62
g3076
sg55
(lp3103
g48
(g69
g50
NtRp3104
(dp3105
g53
(dp3106
g73
g74
ssg62
g3100
sg55
(lp3107
g296
asbag48
(g69
g50
NtRp3108
(dp3109
g53
(dp3110
g80
g81
ssg62
g3100
sg55
(lp3111
S':'
asbag48
(g69
g50
NtRp3112
(dp3113
g53
(dp3114
sg62
g3100
sg55
(lp3115
g48
(g49
g50
NtRp3116
(dp3117
g53
(dp3118
g61
I3
ssg62
g3112
sg55
(lp3119
S''
asbasbasbag48
(g64
g50
NtRp3120
(dp3121
g53
(dp3122
sg62
g3076
sg55
(lp3123
g48
(g69
g50
NtRp3124
(dp3125
g53
(dp3126
g73
g74
ssg62
g3120
sg55
(lp3127
g317
asbag48
(g69
g50
NtRp3128
(dp3129
g53
(dp3130
g80
g81
ssg62
g3120
sg55
(lp3131
S':'
asbag48
(g69
g50
NtRp3132
(dp3133
g53
(dp3134
sg62
g3120
sg55
(lp3135
g48
(g49
g50
NtRp3136
(dp3137
g53
(dp3138
g61
I3
ssg62
g3132
sg55
(lp3139
S''
asbasbasbag48
(g64
g50
NtRp3140
(dp3141
g53
(dp3142
sg62
g3076
sg55
(lp3143
g48
(g69
g50
NtRp3144
(dp3145
g53
(dp3146
g73
g74
ssg62
g3140
sg55
(lp3147
g338
asbag48
(g69
g50
NtRp3148
(dp3149
g53
(dp3150
g80
g81
ssg62
g3140
sg55
(lp3151
S':'
asbag48
(g69
g50
NtRp3152
(dp3153
g53
(dp3154
sg62
g3140
sg55
(lp3155
g48
(g49
g50
NtRp3156
(dp3157
g53
(dp3158
g61
I3
ssg62
g3152
sg55
(lp3159
S''
asbasbasbag48
(g64
g50
NtRp3160
(dp3161
g53
(dp3162
sg62
g3076
sg55
(lp3163
g48
(g69
g50
NtRp3164
(dp3165
g53
(dp3166
g73
g74
ssg62
g3160
sg55
(lp3167
g359
asbag48
(g69
g50
NtRp3168
(dp3169
g53
(dp3170
g80
g81
ssg62
g3160
sg55
(lp3171
S':'
asbag48
(g69
g50
NtRp3172
(dp3173
g53
(dp3174
sg62
g3160
sg55
(lp3175
g48
(g49
g50
NtRp3176
(dp3177
g53
(dp3178
g61
I3
ssg62
g3172
sg55
(lp3179
S'/'
asbasbasbag48
(g64
g50
NtRp3180
(dp3181
g53
(dp3182
sg62
g3076
sg55
(lp3183
g48
(g69
g50
NtRp3184
(dp3185
g53
(dp3186
g73
g74
ssg62
g3180
sg55
(lp3187
g380
asbag48
(g69
g50
NtRp3188
(dp3189
g53
(dp3190
g80
g81
ssg62
g3180
sg55
(lp3191
S':'
asbag48
(g69
g50
NtRp3192
(dp3193
g53
(dp3194
sg62
g3180
sg55
(lp3195
g48
(g49
g50
NtRp3196
(dp3197
g53
(dp3198
g61
I3
ssg62
g3192
sg55
(lp3199
S''
asbasbasbag48
(g64
g50
NtRp3200
(dp3201
g53
(dp3202
sg62
g3076
sg55
(lp3203
g48
(g69
g50
NtRp3204
(dp3205
g53
(dp3206
g73
g74
ssg62
g3200
sg55
(lp3207
g401
asbag48
(g69
g50
NtRp3208
(dp3209
g53
(dp3210
g80
g81
ssg62
g3200
sg55
(lp3211
S':'
asbag48
(g69
g50
NtRp3212
(dp3213
g53
(dp3214
sg62
g3200
sg55
(lp3215
g48
(g49
g50
NtRp3216
(dp3217
g53
(dp3218
g61
I3
ssg62
g3212
sg55
(lp3219
S''
asbasbasbasbasbasbasbasbasbasbasbag48
(g64
g50
NtRp3220
(dp3221
g53
(dp3222
sg62
g3006
sg55
(lp3223
g48
(g69
g50
NtRp3224
(dp3225
g53
(dp3226
g73
g74
ssg62
g3220
sg55
(lp3227
S'files'
p3228
asbag48
(g69
g50
NtRp3229
(dp3230
g53
(dp3231
g80
g81
ssg62
g3220
sg55
(lp3232
S':'
asbag48
(g69
g50
NtRp3233
(dp3234
g53
(dp3235
sg62
g3220
sg55
(lp3236
g48
(g49
g50
NtRp3237
(dp3238
g53
(dp3239
g61
I5
ssg62
g3233
sg55
(lp3240
g48
(g57
g50
NtRp3241
(dp3242
g53
(dp3243
g61
I4
ssg62
Nsg55
(lp3244
sbasbasbasbag48
(g64
g50
NtRp3245
(dp3246
g53
(dp3247
sg62
g3006
sg55
(lp3248
g48
(g69
g50
NtRp3249
(dp3250
g53
(dp3251
g73
g74
ssg62
g3245
sg55
(lp3252
S'flash'
p3253
asbag48
(g69
g50
NtRp3254
(dp3255
g53
(dp3256
g80
g81
ssg62
g3245
sg55
(lp3257
S':'
asbag48
(g69
g50
NtRp3258
(dp3259
g53
(dp3260
sg62
g3245
sg55
(lp3261
g48
(g49
g50
NtRp3262
(dp3263
g53
(dp3264
g61
I5
ssg62
g3258
sg55
(lp3265
S''
asbasbasbag48
(g64
g50
NtRp3266
(dp3267
g53
(dp3268
sg62
g3006
sg55
(lp3269
g48
(g69
g50
NtRp3270
(dp3271
g53
(dp3272
g73
g74
ssg62
g3266
sg55
(lp3273
S'generic_patterns'
p3274
asbag48
(g69
g50
NtRp3275
(dp3276
g53
(dp3277
g80
g81
ssg62
g3266
sg55
(lp3278
S':'
asbag48
(g69
g50
NtRp3279
(dp3280
g53
(dp3281
sg62
g3266
sg55
(lp3282
g48
(g49
g50
NtRp3283
(dp3284
g53
(dp3285
g61
I5
ssg62
g3279
sg55
(lp3286
g48
(g57
g50
NtRp3287
(dp3288
g53
(dp3289
g61
I4
ssg62
Nsg55
(lp3290
g48
(g64
g50
NtRp3291
(dp3292
g53
(dp3293
sg62
g3287
sg55
(lp3294
g48
(g69
g50
NtRp3295
(dp3296
g53
(dp3297
sg62
g3291
sg55
(lp3298
g48
(g49
g50
NtRp3299
(dp3300
g53
(dp3301
g61
I4
ssg62
g3295
sg55
(lp3302
S'*'
asbasbasbasbasbasbasbag48
(g64
g50
NtRp3303
(dp3304
g53
(dp3305
sg62
g3006
sg55
(lp3306
g48
(g69
g50
NtRp3307
(dp3308
g53
(dp3309
g73
g74
ssg62
g3303
sg55
(lp3310
S'headers'
p3311
asbag48
(g69
g50
NtRp3312
(dp3313
g53
(dp3314
g80
g81
ssg62
g3303
sg55
(lp3315
S':'
asbag48
(g69
g50
NtRp3316
(dp3317
g53
(dp3318
sg62
g3303
sg55
(lp3319
g48
(g49
g50
NtRp3320
(dp3321
g53
(dp3322
g61
I5
ssg62
g3316
sg55
(lp3323
g48
(g57
g50
NtRp3324
(dp3325
g53
(dp3326
g61
I4
ssg62
Nsg55
(lp3327
g48
(g64
g50
NtRp3328
(dp3329
g53
(dp3330
sg62
g3324
sg55
(lp3331
g48
(g69
g50
NtRp3332
(dp3333
g53
(dp3334
g73
g74
ssg62
g3328
sg55
(lp3335
S'Cache-Control'
p3336
asbag48
(g69
g50
NtRp3337
(dp3338
g53
(dp3339
g80
g81
ssg62
g3328
sg55
(lp3340
S':'
asbag48
(g69
g50
NtRp3341
(dp3342
g53
(dp3343
sg62
g3328
sg55
(lp3344
g48
(g49
g50
NtRp3345
(dp3346
g53
(dp3347
g61
I4
ssg62
g3341
sg55
(lp3348
S'no-store, no-cache, must-revalidate, post-check=0, pre-check=0'
p3349
asbasbasbag48
(g64
g50
NtRp3350
(dp3351
g53
(dp3352
sg62
g3324
sg55
(lp3353
g48
(g69
g50
NtRp3354
(dp3355
g53
(dp3356
g73
g74
ssg62
g3350
sg55
(lp3357
S'Content-Type'
p3358
asbag48
(g69
g50
NtRp3359
(dp3360
g53
(dp3361
g80
g81
ssg62
g3350
sg55
(lp3362
S':'
asbag48
(g69
g50
NtRp3363
(dp3364
g53
(dp3365
sg62
g3350
sg55
(lp3366
g48
(g49
g50
NtRp3367
(dp3368
g53
(dp3369
g61
I4
ssg62
g3363
sg55
(lp3370
S'text/html; charset=utf-8'
p3371
asbasbasbag48
(g64
g50
NtRp3372
(dp3373
g53
(dp3374
sg62
g3324
sg55
(lp3375
g48
(g69
g50
NtRp3376
(dp3377
g53
(dp3378
g73
g74
ssg62
g3372
sg55
(lp3379
S'Expires'
p3380
asbag48
(g69
g50
NtRp3381
(dp3382
g53
(dp3383
g80
g81
ssg62
g3372
sg55
(lp3384
S':'
asbag48
(g69
g50
NtRp3385
(dp3386
g53
(dp3387
sg62
g3372
sg55
(lp3388
g48
(g49
g50
NtRp3389
(dp3390
g53
(dp3391
g61
I4
ssg62
g3385
sg55
(lp3392
S'Sat, 12 Nov 2011 22:13:20 GMT'
p3393
asbasbasbag48
(g64
g50
NtRp3394
(dp3395
g53
(dp3396
sg62
g3324
sg55
(lp3397
g48
(g69
g50
NtRp3398
(dp3399
g53
(dp3400
g73
g74
ssg62
g3394
sg55
(lp3401
S'Pragma'
p3402
asbag48
(g69
g50
NtRp3403
(dp3404
g53
(dp3405
g80
g81
ssg62
g3394
sg55
(lp3406
S':'
asbag48
(g69
g50
NtRp3407
(dp3408
g53
(dp3409
sg62
g3394
sg55
(lp3410
g48
(g49
g50
NtRp3411
(dp3412
g53
(dp3413
g61
I4
ssg62
g3407
sg55
(lp3414
S'no-cache'
p3415
asbasbasbag48
(g64
g50
NtRp3416
(dp3417
g53
(dp3418
sg62
g3324
sg55
(lp3419
g48
(g69
g50
NtRp3420
(dp3421
g53
(dp3422
g73
g74
ssg62
g3416
sg55
(lp3423
S'X-Powered-By'
p3424
asbag48
(g69
g50
NtRp3425
(dp3426
g53
(dp3427
g80
g81
ssg62
g3416
sg55
(lp3428
S':'
asbag48
(g69
g50
NtRp3429
(dp3430
g53
(dp3431
sg62
g3416
sg55
(lp3432
g48
(g49
g50
NtRp3433
(dp3434
g53
(dp3435
g61
I4
ssg62
g3429
sg55
(lp3436
S'web2py'
p3437
asbasbasbasbasbasbasbag48
(g64
g50
NtRp3438
(dp3439
g53
(dp3440
sg62
g3006
sg55
(lp3441
g48
(g69
g50
NtRp3442
(dp3443
g53
(dp3444
g73
g74
ssg62
g3438
sg55
(lp3445
S'menu'
p3446
asbag48
(g69
g50
NtRp3447
(dp3448
g53
(dp3449
g80
g81
ssg62
g3438
sg55
(lp3450
S':'
asbag48
(g69
g50
NtRp3451
(dp3452
g53
(dp3453
sg62
g3438
sg55
(lp3454
g48
(g49
g50
NtRp3455
(dp3456
g53
(dp3457
g61
I5
ssg62
g3451
sg55
(lp3458
g48
(g57
g50
NtRp3459
(dp3460
g53
(dp3461
g61
I4
ssg62
Nsg55
(lp3462
sbasbasbasbag48
(g64
g50
NtRp3463
(dp3464
g53
(dp3465
sg62
g3006
sg55
(lp3466
g48
(g69
g50
NtRp3467
(dp3468
g53
(dp3469
g73
g74
ssg62
g3463
sg55
(lp3470
S'meta'
p3471
asbag48
(g69
g50
NtRp3472
(dp3473
g53
(dp3474
g80
g81
ssg62
g3463
sg55
(lp3475
S':'
asbag48
(g69
g50
NtRp3476
(dp3477
g53
(dp3478
sg62
g3463
sg55
(lp3479
g48
(g49
g50
NtRp3480
(dp3481
g53
(dp3482
g61
I5
ssg62
g3476
sg55
(lp3483
g48
(g57
g50
NtRp3484
(dp3485
g53
(dp3486
g61
I4
ssg62
Nsg55
(lp3487
sbasbasbasbag48
(g64
g50
NtRp3488
(dp3489
g53
(dp3490
sg62
g3006
sg55
(lp3491
g48
(g69
g50
NtRp3492
(dp3493
g53
(dp3494
g73
g74
ssg62
g3488
sg55
(lp3495
S'postprocessing'
p3496
asbag48
(g69
g50
NtRp3497
(dp3498
g53
(dp3499
g80
g81
ssg62
g3488
sg55
(lp3500
S':'
asbag48
(g69
g50
NtRp3501
(dp3502
g53
(dp3503
sg62
g3488
sg55
(lp3504
g48
(g49
g50
NtRp3505
(dp3506
g53
(dp3507
g61
I5
ssg62
g3501
sg55
(lp3508
g48
(g57
g50
NtRp3509
(dp3510
g53
(dp3511
g61
I4
ssg62
Nsg55
(lp3512
sbasbasbasbag48
(g64
g50
NtRp3513
(dp3514
g53
(dp3515
sg62
g3006
sg55
(lp3516
g48
(g69
g50
NtRp3517
(dp3518
g53
(dp3519
g73
g74
ssg62
g3513
sg55
(lp3520
S'session_file'
p3521
asbag48
(g69
g50
NtRp3522
(dp3523
g53
(dp3524
g80
g81
ssg62
g3513
sg55
(lp3525
S':'
asbag48
(g69
g50
NtRp3526
(dp3527
g53
(dp3528
sg62
g3513
sg55
(lp3529
g48
(g49
g50
NtRp3530
(dp3531
g53
(dp3532
g61
I5
ssg62
g3526
sg55
(lp3533
S"<open file 'C:\\Python32\\web2py_win\\web2py\\applications\\Casa_de_Apuestas\\sessions\\127.0.0.1-e6356fb0-adec-49e7-b0a9-949176dd84ed', mode 'rb+' at 0x05B53E30>"
p3534
asbasbasbag48
(g64
g50
NtRp3535
(dp3536
g53
(dp3537
sg62
g3006
sg55
(lp3538
g48
(g69
g50
NtRp3539
(dp3540
g53
(dp3541
g73
g74
ssg62
g3535
sg55
(lp3542
S'session_filename'
p3543
asbag48
(g69
g50
NtRp3544
(dp3545
g53
(dp3546
g80
g81
ssg62
g3535
sg55
(lp3547
S':'
asbag48
(g69
g50
NtRp3548
(dp3549
g53
(dp3550
sg62
g3535
sg55
(lp3551
g48
(g49
g50
NtRp3552
(dp3553
g53
(dp3554
g61
I5
ssg62
g3548
sg55
(lp3555
S'C:\\Python32\\web2py_win\\web2py\\applications\\Casa_de_Apuestas\\sessions\\127.0.0.1-e6356fb0-adec-49e7-b0a9-949176dd84ed'
p3556
asbasbasbag48
(g64
g50
NtRp3557
(dp3558
g53
(dp3559
sg62
g3006
sg55
(lp3560
g48
(g69
g50
NtRp3561
(dp3562
g53
(dp3563
g73
g74
ssg62
g3557
sg55
(lp3564
S'session_id'
p3565
asbag48
(g69
g50
NtRp3566
(dp3567
g53
(dp3568
g80
g81
ssg62
g3557
sg55
(lp3569
S':'
asbag48
(g69
g50
NtRp3570
(dp3571
g53
(dp3572
sg62
g3557
sg55
(lp3573
g48
(g49
g50
NtRp3574
(dp3575
g53
(dp3576
g61
I5
ssg62
g3570
sg55
(lp3577
S'127.0.0.1-e6356fb0-adec-49e7-b0a9-949176dd84ed'
p3578
asbasbasbag48
(g64
g50
NtRp3579
(dp3580
g53
(dp3581
sg62
g3006
sg55
(lp3582
g48
(g69
g50
NtRp3583
(dp3584
g53
(dp3585
g73
g74
ssg62
g3579
sg55
(lp3586
S'session_id_name'
p3587
asbag48
(g69
g50
NtRp3588
(dp3589
g53
(dp3590
g80
g81
ssg62
g3579
sg55
(lp3591
S':'
asbag48
(g69
g50
NtRp3592
(dp3593
g53
(dp3594
sg62
g3579
sg55
(lp3595
g48
(g49
g50
NtRp3596
(dp3597
g53
(dp3598
g61
I5
ssg62
g3592
sg55
(lp3599
g3063
asbasbasbag48
(g64
g50
NtRp3600
(dp3601
g53
(dp3602
sg62
g3006
sg55
(lp3603
g48
(g69
g50
NtRp3604
(dp3605
g53
(dp3606
g73
g74
ssg62
g3600
sg55
(lp3607
S'session_locked'
p3608
asbag48
(g69
g50
NtRp3609
(dp3610
g53
(dp3611
g80
g81
ssg62
g3600
sg55
(lp3612
S':'
asbag48
(g69
g50
NtRp3613
(dp3614
g53
(dp3615
sg62
g3600
sg55
(lp3616
g48
(g49
g50
NtRp3617
(dp3618
g53
(dp3619
g61
I5
ssg62
g3613
sg55
(lp3620
g1601
asbasbasbag48
(g64
g50
NtRp3621
(dp3622
g53
(dp3623
sg62
g3006
sg55
(lp3624
g48
(g69
g50
NtRp3625
(dp3626
g53
(dp3627
g73
g74
ssg62
g3621
sg55
(lp3628
S'session_new'
p3629
asbag48
(g69
g50
NtRp3630
(dp3631
g53
(dp3632
g80
g81
ssg62
g3621
sg55
(lp3633
S':'
asbag48
(g69
g50
NtRp3634
(dp3635
g53
(dp3636
sg62
g3621
sg55
(lp3637
g48
(g49
g50
NtRp3638
(dp3639
g53
(dp3640
g61
I5
ssg62
g3634
sg55
(lp3641
g91
asbasbasbag48
(g64
g50
NtRp3642
(dp3643
g53
(dp3644
sg62
g3006
sg55
(lp3645
g48
(g69
g50
NtRp3646
(dp3647
g53
(dp3648
g73
g74
ssg62
g3642
sg55
(lp3649
S'status'
p3650
asbag48
(g69
g50
NtRp3651
(dp3652
g53
(dp3653
g80
g81
ssg62
g3642
sg55
(lp3654
S':'
asbag48
(g69
g50
NtRp3655
(dp3656
g53
(dp3657
sg62
g3642
sg55
(lp3658
g48
(g49
g50
NtRp3659
(dp3660
g53
(dp3661
g61
I5
ssg62
g3655
sg55
(lp3662
S'200'
p3663
asbasbasbag48
(g64
g50
NtRp3664
(dp3665
g53
(dp3666
sg62
g3006
sg55
(lp3667
g48
(g69
g50
NtRp3668
(dp3669
g53
(dp3670
g73
g74
ssg62
g3664
sg55
(lp3671
g2267
asbag48
(g69
g50
NtRp3672
(dp3673
g53
(dp3674
g80
g81
ssg62
g3664
sg55
(lp3675
S':'
asbag48
(g69
g50
NtRp3676
(dp3677
g53
(dp3678
sg62
g3664
sg55
(lp3679
g48
(g49
g50
NtRp3680
(dp3681
g53
(dp3682
g61
I5
ssg62
g3676
sg55
(lp3683
g2280
asbasbasbag48
(g64
g50
NtRp3684
(dp3685
g53
(dp3686
sg62
g3006
sg55
(lp3687
g48
(g69
g50
NtRp3688
(dp3689
g53
(dp3690
g73
g74
ssg62
g3684
sg55
(lp3691
S'view'
p3692
asbag48
(g69
g50
NtRp3693
(dp3694
g53
(dp3695
g80
g81
ssg62
g3684
sg55
(lp3696
S':'
asbag48
(g69
g50
NtRp3697
(dp3698
g53
(dp3699
sg62
g3684
sg55
(lp3700
g48
(g49
g50
NtRp3701
(dp3702
g53
(dp3703
g61
I5
ssg62
g3697
sg55
(lp3704
S'default/user.html'
p3705
asbasbasbasbasbsS'locals'
p3706
(dp3707
S'self'
p3708
S"<Table {'_db': <DAL {'participantes': <Table {'A..., '_id': <gluon.dal.Field object at 0x05F9DCF0>}>"
p3709
sS'key'
p3710
S"'first_name'"
p3711
sssS'traceback'
p3712
S'Traceback (most recent call last):\n  File "gluon/restricted.py", line 194, in restricted\n  File "C:\\Python32\\web2py_win\\web2py\\applications\\Casa_de_Apuestas\\models\\db.py", line 135, in <module>\n  File "gluon/dal.py", line 4921, in __getattr__\n  File "gluon/dal.py", line 4865, in __getitem__\nKeyError: \'first_name\'\n'
p3713
s.