(dp1
S'output'
p2
S''
sS'layer'
p3
S'C:\\Python32\\web2py_win\\web2py\\applications\\Casa_de_Apuestas\\views\\default/crearEvento.html'
p4
sS'code'
p5
S'response.write(\'<!DOCTYPE html PUBLIC "-//W3C//DTD XHTML 1.0 Strict//EN" "http://www.w3.org/TR/xhtml1/DTD/xhtml1-strict.dtd">\\r\\n<!--\\r\\nDesign by Free CSS Templates\\r\\nhttp://www.freecsstemplates.org\\r\\nReleased for free under a Creative Commons Attribution 2.5 License\\r\\n\\r\\nName       : Balanced\\r\\nDescription: A two-column, fixed-width design suitable for blogs and small websites.\\r\\nVersion    : 1.0\\r\\nReleased   : 20090927\\r\\n\\r\\n-->\\r\\n<html xmlns="http://www.w3.org/1999/xhtml">\\r\\n <head>\\r\\n  <title>\\r\\n   \', escape=False)\nresponse.write(response.title or request.application)\nresponse.write(\'\\r\\n  </title>\\r\\n  \', escape=False)\nresponse.files.append(URL(request.application,\'static\',\'plugin_layouts/layouts/Balanced/default.css\'))\nresponse.write(\'\\r\\n  \', escape=False)\nresponse.files.append(URL(\'static\',\'plugin_layouts/superfish.js\'))\nresponse.write(\'\\r\\n  \', escape=False)\nresponse.files.insert(0,URL(\'static\',\'js/jquery.js\'))\nresponse.files.insert(1,URL(\'static\',\'css/anytime.css\'))\nresponse.files.insert(2,URL(\'static\',\'js/anytime.js\'))\nresponse.include_meta()\nresponse.include_files()\nresponse.write(\'\\r\\n<script type="text/javascript"><!--\\r\\n    // These variables are used by the web2py_ajax_init function in web2py_ajax.js (which is loaded below).\\r\\n    var w2p_ajax_confirm_message = "\', escape=False)\nresponse.write(T(\'Are you sure you want to delete this object?\'))\nresponse.write(\'";\\r\\n    var w2p_ajax_date_format = "\', escape=False)\nresponse.write(T(\'%Y-%m-%d\'))\nresponse.write(\'";\\r\\n    var w2p_ajax_datetime_format = "\', escape=False)\nresponse.write(T(\'%Y-%m-%d %H:%M:%S\'))\nresponse.write(\'";\\r\\n    //--></script>\\r\\n    <script src="\', escape=False)\nresponse.write(URL(\'static\',\'js/web2py_ajax.js\'))\nresponse.write(\'" type="text/javascript"></script>\\r\\n\', escape=False)\nresponse.write(\'\\r\\n  <style>\\r\\nul.web2py-menu-vertical { width: 150px; position: relative; top:1em; left:1em;  z-index:30; border:0; margin:0; padding: 0; list-style: none; text-decoration: none;}\\r\\nul.web2py-menu-vertical li { margin:0; padding:0; border:0; width: 150px; background: black; text-align:left;}\\r\\nul.web2py-menu-vertical li a { margin:0; padding: 1px 3px 1px 3px; border:0; width: 144px; color: white; font-size:12px;}\\r\\ndiv.flash { position: fixed; float: right; padding: 10px; top: 10px; right: 30px; opacity: 0.75; margin: 10px 10px 10px 10px; text-align: center; clear: both; color: #fff; font-size: 11pt; text-align: center; vertical-align: middle; cursor: pointer; background: black; border: 2px solid #fff; -moz-border-radius: 5px; -webkit-border-radius: 5px; z-index: 2; }\\r\\ndiv.error { background-color: red; color: white; padding: 3px; }\\r\\n.auth_navbar { text-align:right; z-index:20; position: absolute; top: 2px; right:30px; border:0; padding:0 }\\r\\n  </style>\\r\\n </head>\\r\\n <body>\\r\\n  <!-- start header -->\\r\\n  \', escape=False)\ntry:\n    response.write(auth.navbar(action=URL(\'default\',\'user\')))\nexcept:pass\nresponse.write(\'\\r\\n\\r\\n  <!-- start header -->\\r\\n  <div id="header">\\r\\n   <div id="logo">\\r\\n    <h1>\\r\\n     Sistema de Gesti\\xc3\\xb3n 1.0\\r\\n    </h1>\\r\\n   </div>\\r\\n  </div>\\r\\n  <!-- end header -->\\r\\n  <!-- start page -->\\r\\n  <div id="page">\\r\\n   <!-- start content -->\\r\\n   <!-- end content -->\\r\\n   \', escape=False)\nresponse.write(\'\\r\\n<div id="content">\\r\\n    <div class="post greenbox">\\r\\n           <div class="title">\\r\\n                <h1>Insertar \', escape=False)\nresponse.write(response.title)\nresponse.write(\'</h1>\\r\\n           </div>\\r\\n           <div class="entry">\\r\\n                    \', escape=False)\nresponse.write(response.form)\nresponse.write(\'\\r\\n           </div>\\r\\n           <div class="btm" align="center">\\r\\n              <div class="l">\\r\\n                  <div class="r">\\r\\n                       <small>*Por favor llenar todos los campos solicitados</small>\\r\\n                  </div>\\r\\n              </div>\\r\\n           </div>\\r\\n     </div>\\r\\n</div>\\r\\n<!--<div id="sidebar">\\r\\n  <ul>\\r\\n    <li>\\r\\n      <h2>\\r\\n       Categorias Agregadas\\r\\n      </h2>\\r\\n      <ul align="center">\\r\\n        \', escape=False)\ncont = 0\nresponse.write(\'\\r\\n        \', escape=False)\nfor cat in categorias:\n    response.write(\'\\r\\n        \', escape=False)\n    cont += 1\n    response.write(\' \\r\\n        \', escape=False)\n    if (cont < 5):\n        response.write(\'\\r\\n        \', escape=False)\n        response.write(LI(A(cat.nombre, _href=URL("showCategoria", args=cat.id))))\n        response.write(\'\\r\\n        \', escape=False)\n        pass\n    response.write(\'\\r\\n        \', escape=False)\nelse:\n    response.write(\'\\r\\n        <small> \', escape=False)\n    response.write(LI(A("Ver Mas", _href=(URL("mostrarCategoria")))))\n    response.write(\'</small>\\r\\n        \', escape=False)\n    pass\nresponse.write(\'        \\r\\n      </ul>\\r\\n    </li>\\r\\n     \\r\\n     <!--<h2>\\r\\n      Titulo2\\r\\n     </h2>\\r\\n     <ul>\\r\\n      Mundo\\r\\n     </ul>\\r\\n   </ul>\\r\\n</div>-->\\r\\n\', escape=False)\npass\nresponse.write(\'\\r\\n\', escape=False)\nresponse.write(\'\\r\\n   <!-- start sidebar -->\\r\\n   <!-- end sidebar -->\\r\\n  </div>\\r\\n  <!-- end page -->\\r\\n  <div style="clear: both;">\\r\\n   &nbsp;\\r\\n  </div>\\r\\n  <div id="footer">\\r\\n   <p>\\r\\n    &copy;2011 All Rights Reserved. &nbsp;&bull;&nbsp; Design by JSG Systems\\r\\n   </p>\\r\\n  </div>\\r\\n </body>\\r\\n</html>\\r\\n\', escape=False)'
p6
sS'snapshot'
p7
(dp8
S'exception'
p9
(dp10
S'__hash__'
p11
S"<method-wrapper '__hash__' of exceptions.NameError object at 0x06391B20>"
p12
sS'__setattr__'
p13
S"<method-wrapper '__setattr__' of exceptions.NameError object at 0x06391B20>"
p14
sS'__reduce_ex__'
p15
S'<built-in method __reduce_ex__ of exceptions.NameError object at 0x06391B20>'
p16
sS'__getslice__'
p17
S"<method-wrapper '__getslice__' of exceptions.NameError object at 0x06391B20>"
p18
sS'__getitem__'
p19
S"<method-wrapper '__getitem__' of exceptions.NameError object at 0x06391B20>"
p20
sS'__setstate__'
p21
S'<built-in method __setstate__ of exceptions.NameError object at 0x06391B20>'
p22
sS'__reduce__'
p23
S'<built-in method __reduce__ of exceptions.NameError object at 0x06391B20>'
p24
sS'__str__'
p25
S"<method-wrapper '__str__' of exceptions.NameError object at 0x06391B20>"
p26
sS'args'
p27
S'("name \'categorias\' is not defined",)'
p28
sS'__getattribute__'
p29
S"<method-wrapper '__getattribute__' of exceptions.NameError object at 0x06391B20>"
p30
sS'__class__'
p31
S"<type 'exceptions.NameError'>"
p32
sS'__delattr__'
p33
S"<method-wrapper '__delattr__' of exceptions.NameError object at 0x06391B20>"
p34
sS'__repr__'
p35
S"<method-wrapper '__repr__' of exceptions.NameError object at 0x06391B20>"
p36
sS'__dict__'
p37
S'{}'
p38
sS'__doc__'
p39
S"'Name not found globally.'"
p40
sS'__init__'
p41
S"<method-wrapper '__init__' of exceptions.NameError object at 0x06391B20>"
p42
sS'__new__'
p43
S'<built-in method __new__ of type object at 0x1E1CD8D8>'
p44
ssS'evalue'
p45
S"name 'categorias' is not defined"
p46
sS'request'
p47
ccopy_reg
_reconstructor
p48
(cgluon.html
BEAUTIFY
p49
c__builtin__
object
p50
NtRp51
(dp52
S'attributes'
p53
(dp54
sS'components'
p55
(lp56
g48
(cgluon.html
TABLE
p57
g50
NtRp58
(dp59
g53
(dp60
S'level'
p61
I5
ssS'parent'
p62
Nsg55
(lp63
g48
(cgluon.html
TR
p64
g50
NtRp65
(dp66
g53
(dp67
sg62
g58
sg55
(lp68
g48
(cgluon.html
TD
p69
g50
NtRp70
(dp71
g53
(dp72
S'_style'
p73
S'font-weight:bold;'
p74
ssg62
g65
sg55
(lp75
S'ajax'
p76
asbag48
(g69
g50
NtRp77
(dp78
g53
(dp79
S'_valign'
p80
S'top'
p81
ssg62
g65
sg55
(lp82
S':'
asbag48
(g69
g50
NtRp83
(dp84
g53
(dp85
sg62
g65
sg55
(lp86
g48
(g49
g50
NtRp87
(dp88
g53
(dp89
g61
I5
ssg62
g83
sg55
(lp90
S'False'
p91
asbasbasbag48
(g64
g50
NtRp92
(dp93
g53
(dp94
sg62
g58
sg55
(lp95
g48
(g69
g50
NtRp96
(dp97
g53
(dp98
g73
g74
ssg62
g92
sg55
(lp99
S'application'
p100
asbag48
(g69
g50
NtRp101
(dp102
g53
(dp103
g80
g81
ssg62
g92
sg55
(lp104
S':'
asbag48
(g69
g50
NtRp105
(dp106
g53
(dp107
sg62
g92
sg55
(lp108
g48
(g49
g50
NtRp109
(dp110
g53
(dp111
g61
I5
ssg62
g105
sg55
(lp112
S'Casa_de_Apuestas'
p113
asbasbasbag48
(g64
g50
NtRp114
(dp115
g53
(dp116
sg62
g58
sg55
(lp117
g48
(g69
g50
NtRp118
(dp119
g53
(dp120
g73
g74
ssg62
g114
sg55
(lp121
g27
asbag48
(g69
g50
NtRp122
(dp123
g53
(dp124
g80
g81
ssg62
g114
sg55
(lp125
S':'
asbag48
(g69
g50
NtRp126
(dp127
g53
(dp128
sg62
g114
sg55
(lp129
g48
(g49
g50
NtRp130
(dp131
g53
(dp132
g61
I5
ssg62
g126
sg55
(lp133
g48
(g57
g50
NtRp134
(dp135
g53
(dp136
g61
I4
ssg62
Nsg55
(lp137
sbasbasbasbag48
(g64
g50
NtRp138
(dp139
g53
(dp140
sg62
g58
sg55
(lp141
g48
(g69
g50
NtRp142
(dp143
g53
(dp144
g73
g74
ssg62
g138
sg55
(lp145
S'body'
p146
asbag48
(g69
g50
NtRp147
(dp148
g53
(dp149
g80
g81
ssg62
g138
sg55
(lp150
S':'
asbag48
(g69
g50
NtRp151
(dp152
g53
(dp153
sg62
g138
sg55
(lp154
g48
(g49
g50
NtRp155
(dp156
g53
(dp157
g61
I5
ssg62
g151
sg55
(lp158
S'<cStringIO.StringO object at 0x06A23740>'
p159
asbasbasbag48
(g64
g50
NtRp160
(dp161
g53
(dp162
sg62
g58
sg55
(lp163
g48
(g69
g50
NtRp164
(dp165
g53
(dp166
g73
g74
ssg62
g160
sg55
(lp167
S'client'
p168
asbag48
(g69
g50
NtRp169
(dp170
g53
(dp171
g80
g81
ssg62
g160
sg55
(lp172
S':'
asbag48
(g69
g50
NtRp173
(dp174
g53
(dp175
sg62
g160
sg55
(lp176
g48
(g49
g50
NtRp177
(dp178
g53
(dp179
g61
I5
ssg62
g173
sg55
(lp180
S'127.0.0.1'
p181
asbasbasbag48
(g64
g50
NtRp182
(dp183
g53
(dp184
sg62
g58
sg55
(lp185
g48
(g69
g50
NtRp186
(dp187
g53
(dp188
g73
g74
ssg62
g182
sg55
(lp189
S'controller'
p190
asbag48
(g69
g50
NtRp191
(dp192
g53
(dp193
g80
g81
ssg62
g182
sg55
(lp194
S':'
asbag48
(g69
g50
NtRp195
(dp196
g53
(dp197
sg62
g182
sg55
(lp198
g48
(g49
g50
NtRp199
(dp200
g53
(dp201
g61
I5
ssg62
g195
sg55
(lp202
S'default'
p203
asbasbasbag48
(g64
g50
NtRp204
(dp205
g53
(dp206
sg62
g58
sg55
(lp207
g48
(g69
g50
NtRp208
(dp209
g53
(dp210
g73
g74
ssg62
g204
sg55
(lp211
S'cookies'
p212
asbag48
(g69
g50
NtRp213
(dp214
g53
(dp215
g80
g81
ssg62
g204
sg55
(lp216
S':'
asbag48
(g69
g50
NtRp217
(dp218
g53
(dp219
sg62
g204
sg55
(lp220
g48
(g49
g50
NtRp221
(dp222
g53
(dp223
g61
I5
ssg62
g217
sg55
(lp224
g48
(g57
g50
NtRp225
(dp226
g53
(dp227
g61
I4
ssg62
Nsg55
(lp228
g48
(g64
g50
NtRp229
(dp230
g53
(dp231
sg62
g225
sg55
(lp232
g48
(g69
g50
NtRp233
(dp234
g53
(dp235
g73
g74
ssg62
g229
sg55
(lp236
S'session_id_admin'
p237
asbag48
(g69
g50
NtRp238
(dp239
g53
(dp240
g80
g81
ssg62
g229
sg55
(lp241
S':'
asbag48
(g69
g50
NtRp242
(dp243
g53
(dp244
sg62
g229
sg55
(lp245
g48
(g49
g50
NtRp246
(dp247
g53
(dp248
g61
I4
ssg62
g242
sg55
(lp249
g48
(g57
g50
NtRp250
(dp251
g53
(dp252
g61
I3
ssg62
Nsg55
(lp253
g48
(g64
g50
NtRp254
(dp255
g53
(dp256
sg62
g250
sg55
(lp257
g48
(g69
g50
NtRp258
(dp259
g53
(dp260
g73
g74
ssg62
g254
sg55
(lp261
S'comment'
p262
asbag48
(g69
g50
NtRp263
(dp264
g53
(dp265
g80
g81
ssg62
g254
sg55
(lp266
S':'
asbag48
(g69
g50
NtRp267
(dp268
g53
(dp269
sg62
g254
sg55
(lp270
g48
(g49
g50
NtRp271
(dp272
g53
(dp273
g61
I3
ssg62
g267
sg55
(lp274
S''
asbasbasbag48
(g64
g50
NtRp275
(dp276
g53
(dp277
sg62
g250
sg55
(lp278
g48
(g69
g50
NtRp279
(dp280
g53
(dp281
g73
g74
ssg62
g275
sg55
(lp282
S'domain'
p283
asbag48
(g69
g50
NtRp284
(dp285
g53
(dp286
g80
g81
ssg62
g275
sg55
(lp287
S':'
asbag48
(g69
g50
NtRp288
(dp289
g53
(dp290
sg62
g275
sg55
(lp291
g48
(g49
g50
NtRp292
(dp293
g53
(dp294
g61
I3
ssg62
g288
sg55
(lp295
S''
asbasbasbag48
(g64
g50
NtRp296
(dp297
g53
(dp298
sg62
g250
sg55
(lp299
g48
(g69
g50
NtRp300
(dp301
g53
(dp302
g73
g74
ssg62
g296
sg55
(lp303
S'expires'
p304
asbag48
(g69
g50
NtRp305
(dp306
g53
(dp307
g80
g81
ssg62
g296
sg55
(lp308
S':'
asbag48
(g69
g50
NtRp309
(dp310
g53
(dp311
sg62
g296
sg55
(lp312
g48
(g49
g50
NtRp313
(dp314
g53
(dp315
g61
I3
ssg62
g309
sg55
(lp316
S''
asbasbasbag48
(g64
g50
NtRp317
(dp318
g53
(dp319
sg62
g250
sg55
(lp320
g48
(g69
g50
NtRp321
(dp322
g53
(dp323
g73
g74
ssg62
g317
sg55
(lp324
S'max-age'
p325
asbag48
(g69
g50
NtRp326
(dp327
g53
(dp328
g80
g81
ssg62
g317
sg55
(lp329
S':'
asbag48
(g69
g50
NtRp330
(dp331
g53
(dp332
sg62
g317
sg55
(lp333
g48
(g49
g50
NtRp334
(dp335
g53
(dp336
g61
I3
ssg62
g330
sg55
(lp337
S''
asbasbasbag48
(g64
g50
NtRp338
(dp339
g53
(dp340
sg62
g250
sg55
(lp341
g48
(g69
g50
NtRp342
(dp343
g53
(dp344
g73
g74
ssg62
g338
sg55
(lp345
S'path'
p346
asbag48
(g69
g50
NtRp347
(dp348
g53
(dp349
g80
g81
ssg62
g338
sg55
(lp350
S':'
asbag48
(g69
g50
NtRp351
(dp352
g53
(dp353
sg62
g338
sg55
(lp354
g48
(g49
g50
NtRp355
(dp356
g53
(dp357
g61
I3
ssg62
g351
sg55
(lp358
S''
asbasbasbag48
(g64
g50
NtRp359
(dp360
g53
(dp361
sg62
g250
sg55
(lp362
g48
(g69
g50
NtRp363
(dp364
g53
(dp365
g73
g74
ssg62
g359
sg55
(lp366
S'secure'
p367
asbag48
(g69
g50
NtRp368
(dp369
g53
(dp370
g80
g81
ssg62
g359
sg55
(lp371
S':'
asbag48
(g69
g50
NtRp372
(dp373
g53
(dp374
sg62
g359
sg55
(lp375
g48
(g49
g50
NtRp376
(dp377
g53
(dp378
g61
I3
ssg62
g372
sg55
(lp379
S''
asbasbasbag48
(g64
g50
NtRp380
(dp381
g53
(dp382
sg62
g250
sg55
(lp383
g48
(g69
g50
NtRp384
(dp385
g53
(dp386
g73
g74
ssg62
g380
sg55
(lp387
S'version'
p388
asbag48
(g69
g50
NtRp389
(dp390
g53
(dp391
g80
g81
ssg62
g380
sg55
(lp392
S':'
asbag48
(g69
g50
NtRp393
(dp394
g53
(dp395
sg62
g380
sg55
(lp396
g48
(g49
g50
NtRp397
(dp398
g53
(dp399
g61
I3
ssg62
g393
sg55
(lp400
S''
asbasbasbasbasbasbasbag48
(g64
g50
NtRp401
(dp402
g53
(dp403
sg62
g225
sg55
(lp404
g48
(g69
g50
NtRp405
(dp406
g53
(dp407
g73
g74
ssg62
g401
sg55
(lp408
S'session_id_casa_de_apuestas'
p409
asbag48
(g69
g50
NtRp410
(dp411
g53
(dp412
g80
g81
ssg62
g401
sg55
(lp413
S':'
asbag48
(g69
g50
NtRp414
(dp415
g53
(dp416
sg62
g401
sg55
(lp417
g48
(g49
g50
NtRp418
(dp419
g53
(dp420
g61
I4
ssg62
g414
sg55
(lp421
g48
(g57
g50
NtRp422
(dp423
g53
(dp424
g61
I3
ssg62
Nsg55
(lp425
g48
(g64
g50
NtRp426
(dp427
g53
(dp428
sg62
g422
sg55
(lp429
g48
(g69
g50
NtRp430
(dp431
g53
(dp432
g73
g74
ssg62
g426
sg55
(lp433
g262
asbag48
(g69
g50
NtRp434
(dp435
g53
(dp436
g80
g81
ssg62
g426
sg55
(lp437
S':'
asbag48
(g69
g50
NtRp438
(dp439
g53
(dp440
sg62
g426
sg55
(lp441
g48
(g49
g50
NtRp442
(dp443
g53
(dp444
g61
I3
ssg62
g438
sg55
(lp445
S''
asbasbasbag48
(g64
g50
NtRp446
(dp447
g53
(dp448
sg62
g422
sg55
(lp449
g48
(g69
g50
NtRp450
(dp451
g53
(dp452
g73
g74
ssg62
g446
sg55
(lp453
g283
asbag48
(g69
g50
NtRp454
(dp455
g53
(dp456
g80
g81
ssg62
g446
sg55
(lp457
S':'
asbag48
(g69
g50
NtRp458
(dp459
g53
(dp460
sg62
g446
sg55
(lp461
g48
(g49
g50
NtRp462
(dp463
g53
(dp464
g61
I3
ssg62
g458
sg55
(lp465
S''
asbasbasbag48
(g64
g50
NtRp466
(dp467
g53
(dp468
sg62
g422
sg55
(lp469
g48
(g69
g50
NtRp470
(dp471
g53
(dp472
g73
g74
ssg62
g466
sg55
(lp473
g304
asbag48
(g69
g50
NtRp474
(dp475
g53
(dp476
g80
g81
ssg62
g466
sg55
(lp477
S':'
asbag48
(g69
g50
NtRp478
(dp479
g53
(dp480
sg62
g466
sg55
(lp481
g48
(g49
g50
NtRp482
(dp483
g53
(dp484
g61
I3
ssg62
g478
sg55
(lp485
S''
asbasbasbag48
(g64
g50
NtRp486
(dp487
g53
(dp488
sg62
g422
sg55
(lp489
g48
(g69
g50
NtRp490
(dp491
g53
(dp492
g73
g74
ssg62
g486
sg55
(lp493
g325
asbag48
(g69
g50
NtRp494
(dp495
g53
(dp496
g80
g81
ssg62
g486
sg55
(lp497
S':'
asbag48
(g69
g50
NtRp498
(dp499
g53
(dp500
sg62
g486
sg55
(lp501
g48
(g49
g50
NtRp502
(dp503
g53
(dp504
g61
I3
ssg62
g498
sg55
(lp505
S''
asbasbasbag48
(g64
g50
NtRp506
(dp507
g53
(dp508
sg62
g422
sg55
(lp509
g48
(g69
g50
NtRp510
(dp511
g53
(dp512
g73
g74
ssg62
g506
sg55
(lp513
g346
asbag48
(g69
g50
NtRp514
(dp515
g53
(dp516
g80
g81
ssg62
g506
sg55
(lp517
S':'
asbag48
(g69
g50
NtRp518
(dp519
g53
(dp520
sg62
g506
sg55
(lp521
g48
(g49
g50
NtRp522
(dp523
g53
(dp524
g61
I3
ssg62
g518
sg55
(lp525
S''
asbasbasbag48
(g64
g50
NtRp526
(dp527
g53
(dp528
sg62
g422
sg55
(lp529
g48
(g69
g50
NtRp530
(dp531
g53
(dp532
g73
g74
ssg62
g526
sg55
(lp533
g367
asbag48
(g69
g50
NtRp534
(dp535
g53
(dp536
g80
g81
ssg62
g526
sg55
(lp537
S':'
asbag48
(g69
g50
NtRp538
(dp539
g53
(dp540
sg62
g526
sg55
(lp541
g48
(g49
g50
NtRp542
(dp543
g53
(dp544
g61
I3
ssg62
g538
sg55
(lp545
S''
asbasbasbag48
(g64
g50
NtRp546
(dp547
g53
(dp548
sg62
g422
sg55
(lp549
g48
(g69
g50
NtRp550
(dp551
g53
(dp552
g73
g74
ssg62
g546
sg55
(lp553
g388
asbag48
(g69
g50
NtRp554
(dp555
g53
(dp556
g80
g81
ssg62
g546
sg55
(lp557
S':'
asbag48
(g69
g50
NtRp558
(dp559
g53
(dp560
sg62
g546
sg55
(lp561
g48
(g49
g50
NtRp562
(dp563
g53
(dp564
g61
I3
ssg62
g558
sg55
(lp565
S''
asbasbasbasbasbasbasbag48
(g64
g50
NtRp566
(dp567
g53
(dp568
sg62
g225
sg55
(lp569
g48
(g69
g50
NtRp570
(dp571
g53
(dp572
g73
g74
ssg62
g566
sg55
(lp573
S'session_id_welcome'
p574
asbag48
(g69
g50
NtRp575
(dp576
g53
(dp577
g80
g81
ssg62
g566
sg55
(lp578
S':'
asbag48
(g69
g50
NtRp579
(dp580
g53
(dp581
sg62
g566
sg55
(lp582
g48
(g49
g50
NtRp583
(dp584
g53
(dp585
g61
I4
ssg62
g579
sg55
(lp586
g48
(g57
g50
NtRp587
(dp588
g53
(dp589
g61
I3
ssg62
Nsg55
(lp590
g48
(g64
g50
NtRp591
(dp592
g53
(dp593
sg62
g587
sg55
(lp594
g48
(g69
g50
NtRp595
(dp596
g53
(dp597
g73
g74
ssg62
g591
sg55
(lp598
g262
asbag48
(g69
g50
NtRp599
(dp600
g53
(dp601
g80
g81
ssg62
g591
sg55
(lp602
S':'
asbag48
(g69
g50
NtRp603
(dp604
g53
(dp605
sg62
g591
sg55
(lp606
g48
(g49
g50
NtRp607
(dp608
g53
(dp609
g61
I3
ssg62
g603
sg55
(lp610
S''
asbasbasbag48
(g64
g50
NtRp611
(dp612
g53
(dp613
sg62
g587
sg55
(lp614
g48
(g69
g50
NtRp615
(dp616
g53
(dp617
g73
g74
ssg62
g611
sg55
(lp618
g283
asbag48
(g69
g50
NtRp619
(dp620
g53
(dp621
g80
g81
ssg62
g611
sg55
(lp622
S':'
asbag48
(g69
g50
NtRp623
(dp624
g53
(dp625
sg62
g611
sg55
(lp626
g48
(g49
g50
NtRp627
(dp628
g53
(dp629
g61
I3
ssg62
g623
sg55
(lp630
S''
asbasbasbag48
(g64
g50
NtRp631
(dp632
g53
(dp633
sg62
g587
sg55
(lp634
g48
(g69
g50
NtRp635
(dp636
g53
(dp637
g73
g74
ssg62
g631
sg55
(lp638
g304
asbag48
(g69
g50
NtRp639
(dp640
g53
(dp641
g80
g81
ssg62
g631
sg55
(lp642
S':'
asbag48
(g69
g50
NtRp643
(dp644
g53
(dp645
sg62
g631
sg55
(lp646
g48
(g49
g50
NtRp647
(dp648
g53
(dp649
g61
I3
ssg62
g643
sg55
(lp650
S''
asbasbasbag48
(g64
g50
NtRp651
(dp652
g53
(dp653
sg62
g587
sg55
(lp654
g48
(g69
g50
NtRp655
(dp656
g53
(dp657
g73
g74
ssg62
g651
sg55
(lp658
g325
asbag48
(g69
g50
NtRp659
(dp660
g53
(dp661
g80
g81
ssg62
g651
sg55
(lp662
S':'
asbag48
(g69
g50
NtRp663
(dp664
g53
(dp665
sg62
g651
sg55
(lp666
g48
(g49
g50
NtRp667
(dp668
g53
(dp669
g61
I3
ssg62
g663
sg55
(lp670
S''
asbasbasbag48
(g64
g50
NtRp671
(dp672
g53
(dp673
sg62
g587
sg55
(lp674
g48
(g69
g50
NtRp675
(dp676
g53
(dp677
g73
g74
ssg62
g671
sg55
(lp678
g346
asbag48
(g69
g50
NtRp679
(dp680
g53
(dp681
g80
g81
ssg62
g671
sg55
(lp682
S':'
asbag48
(g69
g50
NtRp683
(dp684
g53
(dp685
sg62
g671
sg55
(lp686
g48
(g49
g50
NtRp687
(dp688
g53
(dp689
g61
I3
ssg62
g683
sg55
(lp690
S''
asbasbasbag48
(g64
g50
NtRp691
(dp692
g53
(dp693
sg62
g587
sg55
(lp694
g48
(g69
g50
NtRp695
(dp696
g53
(dp697
g73
g74
ssg62
g691
sg55
(lp698
g367
asbag48
(g69
g50
NtRp699
(dp700
g53
(dp701
g80
g81
ssg62
g691
sg55
(lp702
S':'
asbag48
(g69
g50
NtRp703
(dp704
g53
(dp705
sg62
g691
sg55
(lp706
g48
(g49
g50
NtRp707
(dp708
g53
(dp709
g61
I3
ssg62
g703
sg55
(lp710
S''
asbasbasbag48
(g64
g50
NtRp711
(dp712
g53
(dp713
sg62
g587
sg55
(lp714
g48
(g69
g50
NtRp715
(dp716
g53
(dp717
g73
g74
ssg62
g711
sg55
(lp718
g388
asbag48
(g69
g50
NtRp719
(dp720
g53
(dp721
g80
g81
ssg62
g711
sg55
(lp722
S':'
asbag48
(g69
g50
NtRp723
(dp724
g53
(dp725
sg62
g711
sg55
(lp726
g48
(g49
g50
NtRp727
(dp728
g53
(dp729
g61
I3
ssg62
g723
sg55
(lp730
S''
asbasbasbasbasbasbasbasbasbasbasbag48
(g64
g50
NtRp731
(dp732
g53
(dp733
sg62
g58
sg55
(lp734
g48
(g69
g50
NtRp735
(dp736
g53
(dp737
g73
g74
ssg62
g731
sg55
(lp738
S'env'
p739
asbag48
(g69
g50
NtRp740
(dp741
g53
(dp742
g80
g81
ssg62
g731
sg55
(lp743
S':'
asbag48
(g69
g50
NtRp744
(dp745
g53
(dp746
sg62
g731
sg55
(lp747
g48
(g49
g50
NtRp748
(dp749
g53
(dp750
g61
I5
ssg62
g744
sg55
(lp751
g48
(g57
g50
NtRp752
(dp753
g53
(dp754
g61
I4
ssg62
Nsg55
(lp755
g48
(g64
g50
NtRp756
(dp757
g53
(dp758
sg62
g752
sg55
(lp759
g48
(g69
g50
NtRp760
(dp761
g53
(dp762
g73
g74
ssg62
g756
sg55
(lp763
S'app_folders'
p764
asbag48
(g69
g50
NtRp765
(dp766
g53
(dp767
g80
g81
ssg62
g756
sg55
(lp768
S':'
asbag48
(g69
g50
NtRp769
(dp770
g53
(dp771
sg62
g756
sg55
(lp772
g48
(g49
g50
NtRp773
(dp774
g53
(dp775
g61
I4
ssg62
g769
sg55
(lp776
S"set(['C:\\\\Python32\\\\web2py_win\\\\web2py\\\\applications\\\\admin\\\\', 'C:\\\\Python32\\\\web2py_win\\\\web2py\\\\applications\\\\welcome\\\\', 'C:\\\\Python32\\\\web2py_win\\\\web2py\\\\applications\\\\Casa_de_Apuestas\\\\'])"
p777
asbasbasbag48
(g64
g50
NtRp778
(dp779
g53
(dp780
sg62
g752
sg55
(lp781
g48
(g69
g50
NtRp782
(dp783
g53
(dp784
g73
g74
ssg62
g778
sg55
(lp785
S'applications_parent'
p786
asbag48
(g69
g50
NtRp787
(dp788
g53
(dp789
g80
g81
ssg62
g778
sg55
(lp790
S':'
asbag48
(g69
g50
NtRp791
(dp792
g53
(dp793
sg62
g778
sg55
(lp794
g48
(g49
g50
NtRp795
(dp796
g53
(dp797
g61
I4
ssg62
g791
sg55
(lp798
S'C:\\Python32\\web2py_win\\web2py'
p799
asbasbasbag48
(g64
g50
NtRp800
(dp801
g53
(dp802
sg62
g752
sg55
(lp803
g48
(g69
g50
NtRp804
(dp805
g53
(dp806
g73
g74
ssg62
g800
sg55
(lp807
S'cmd_args'
p808
asbag48
(g69
g50
NtRp809
(dp810
g53
(dp811
g80
g81
ssg62
g800
sg55
(lp812
S':'
asbag48
(g69
g50
NtRp813
(dp814
g53
(dp815
sg62
g800
sg55
(lp816
g48
(g49
g50
NtRp817
(dp818
g53
(dp819
g61
I4
ssg62
g813
sg55
(lp820
g48
(g57
g50
NtRp821
(dp822
g53
(dp823
g61
I3
ssg62
Nsg55
(lp824
sbasbasbasbag48
(g64
g50
NtRp825
(dp826
g53
(dp827
sg62
g752
sg55
(lp828
g48
(g69
g50
NtRp829
(dp830
g53
(dp831
g73
g74
ssg62
g825
sg55
(lp832
S'cmd_options'
p833
asbag48
(g69
g50
NtRp834
(dp835
g53
(dp836
g80
g81
ssg62
g825
sg55
(lp837
S':'
asbag48
(g69
g50
NtRp838
(dp839
g53
(dp840
sg62
g825
sg55
(lp841
g48
(g49
g50
NtRp842
(dp843
g53
(dp844
g61
I4
ssg62
g838
sg55
(lp845
S"<Values at 0x2675fa8: {'verbose': False, 'ip': '127.0.0.1', 'shutdown_timeout': 5, 'taskbar': False, 'nocron': False, 'pid_filename': 'httpserver.pid', 'maxthreads': None, 'softcron': False, 'server_name': 'hector-vaio', 'bpython': False, 'nogui': False, 'port': 8000, 'extcron': False, 'debuglevel': 30, 'test': None, 'folder': 'C:\\\\Python32\\\\web2py_win\\\\web2py', 'config': '', 'import_models': False, 'winservice': '', 'shell': None, 'run': '', 'log_filename': 'httpserver.log', 'args': [''], 'ssl_ca_certificate': None, 'scheduler': None, 'profiler_filename': None, 'ssl_private_key': '', 'password': '<ask>', 'request_queue_size': 5, 'ssl_certificate': '', 'cronjob': False, 'plain': False, 'quiet': False, 'interfaces': None, 'minthreads': None, 'timeout': 10, 'numthreads': None, 'nobanner': False}>"
p846
asbasbasbag48
(g64
g50
NtRp847
(dp848
g53
(dp849
sg62
g752
sg55
(lp850
g48
(g69
g50
NtRp851
(dp852
g53
(dp853
g73
g74
ssg62
g847
sg55
(lp854
S'db_sessions'
p855
asbag48
(g69
g50
NtRp856
(dp857
g53
(dp858
g80
g81
ssg62
g847
sg55
(lp859
S':'
asbag48
(g69
g50
NtRp860
(dp861
g53
(dp862
sg62
g847
sg55
(lp863
g48
(g49
g50
NtRp864
(dp865
g53
(dp866
g61
I4
ssg62
g860
sg55
(lp867
S'set([])'
p868
asbasbasbag48
(g64
g50
NtRp869
(dp870
g53
(dp871
sg62
g752
sg55
(lp872
g48
(g69
g50
NtRp873
(dp874
g53
(dp875
g73
g74
ssg62
g869
sg55
(lp876
S'debugging'
p877
asbag48
(g69
g50
NtRp878
(dp879
g53
(dp880
g80
g81
ssg62
g869
sg55
(lp881
S':'
asbag48
(g69
g50
NtRp882
(dp883
g53
(dp884
sg62
g869
sg55
(lp885
g48
(g49
g50
NtRp886
(dp887
g53
(dp888
g61
I4
ssg62
g882
sg55
(lp889
g91
asbasbasbag48
(g64
g50
NtRp890
(dp891
g53
(dp892
sg62
g752
sg55
(lp893
g48
(g69
g50
NtRp894
(dp895
g53
(dp896
g73
g74
ssg62
g890
sg55
(lp897
S'gluon_parent'
p898
asbag48
(g69
g50
NtRp899
(dp900
g53
(dp901
g80
g81
ssg62
g890
sg55
(lp902
S':'
asbag48
(g69
g50
NtRp903
(dp904
g53
(dp905
sg62
g890
sg55
(lp906
g48
(g49
g50
NtRp907
(dp908
g53
(dp909
g61
I4
ssg62
g903
sg55
(lp910
S'C:\\Python32\\web2py_win\\web2py'
p911
asbasbasbag48
(g64
g50
NtRp912
(dp913
g53
(dp914
sg62
g752
sg55
(lp915
g48
(g69
g50
NtRp916
(dp917
g53
(dp918
g73
g74
ssg62
g912
sg55
(lp919
S'http_accept'
p920
asbag48
(g69
g50
NtRp921
(dp922
g53
(dp923
g80
g81
ssg62
g912
sg55
(lp924
S':'
asbag48
(g69
g50
NtRp925
(dp926
g53
(dp927
sg62
g912
sg55
(lp928
g48
(g49
g50
NtRp929
(dp930
g53
(dp931
g61
I4
ssg62
g925
sg55
(lp932
S'text/html,application/xhtml+xml,application/xml;q=0.9,*/*;q=0.8'
p933
asbasbasbag48
(g64
g50
NtRp934
(dp935
g53
(dp936
sg62
g752
sg55
(lp937
g48
(g69
g50
NtRp938
(dp939
g53
(dp940
g73
g74
ssg62
g934
sg55
(lp941
S'http_accept_charset'
p942
asbag48
(g69
g50
NtRp943
(dp944
g53
(dp945
g80
g81
ssg62
g934
sg55
(lp946
S':'
asbag48
(g69
g50
NtRp947
(dp948
g53
(dp949
sg62
g934
sg55
(lp950
g48
(g49
g50
NtRp951
(dp952
g53
(dp953
g61
I4
ssg62
g947
sg55
(lp954
S'ISO-8859-1,utf-8;q=0.7,*;q=0.3'
p955
asbasbasbag48
(g64
g50
NtRp956
(dp957
g53
(dp958
sg62
g752
sg55
(lp959
g48
(g69
g50
NtRp960
(dp961
g53
(dp962
g73
g74
ssg62
g956
sg55
(lp963
S'http_accept_encoding'
p964
asbag48
(g69
g50
NtRp965
(dp966
g53
(dp967
g80
g81
ssg62
g956
sg55
(lp968
S':'
asbag48
(g69
g50
NtRp969
(dp970
g53
(dp971
sg62
g956
sg55
(lp972
g48
(g49
g50
NtRp973
(dp974
g53
(dp975
g61
I4
ssg62
g969
sg55
(lp976
S'gzip,deflate,sdch'
p977
asbasbasbag48
(g64
g50
NtRp978
(dp979
g53
(dp980
sg62
g752
sg55
(lp981
g48
(g69
g50
NtRp982
(dp983
g53
(dp984
g73
g74
ssg62
g978
sg55
(lp985
S'http_accept_language'
p986
asbag48
(g69
g50
NtRp987
(dp988
g53
(dp989
g80
g81
ssg62
g978
sg55
(lp990
S':'
asbag48
(g69
g50
NtRp991
(dp992
g53
(dp993
sg62
g978
sg55
(lp994
g48
(g49
g50
NtRp995
(dp996
g53
(dp997
g61
I4
ssg62
g991
sg55
(lp998
S'en-US,en;q=0.8'
p999
asbasbasbag48
(g64
g50
NtRp1000
(dp1001
g53
(dp1002
sg62
g752
sg55
(lp1003
g48
(g69
g50
NtRp1004
(dp1005
g53
(dp1006
g73
g74
ssg62
g1000
sg55
(lp1007
S'http_cache_control'
p1008
asbag48
(g69
g50
NtRp1009
(dp1010
g53
(dp1011
g80
g81
ssg62
g1000
sg55
(lp1012
S':'
asbag48
(g69
g50
NtRp1013
(dp1014
g53
(dp1015
sg62
g1000
sg55
(lp1016
g48
(g49
g50
NtRp1017
(dp1018
g53
(dp1019
g61
I4
ssg62
g1013
sg55
(lp1020
S'max-age=0'
p1021
asbasbasbag48
(g64
g50
NtRp1022
(dp1023
g53
(dp1024
sg62
g752
sg55
(lp1025
g48
(g69
g50
NtRp1026
(dp1027
g53
(dp1028
g73
g74
ssg62
g1022
sg55
(lp1029
S'http_connection'
p1030
asbag48
(g69
g50
NtRp1031
(dp1032
g53
(dp1033
g80
g81
ssg62
g1022
sg55
(lp1034
S':'
asbag48
(g69
g50
NtRp1035
(dp1036
g53
(dp1037
sg62
g1022
sg55
(lp1038
g48
(g49
g50
NtRp1039
(dp1040
g53
(dp1041
g61
I4
ssg62
g1035
sg55
(lp1042
S'keep-alive'
p1043
asbasbasbag48
(g64
g50
NtRp1044
(dp1045
g53
(dp1046
sg62
g752
sg55
(lp1047
g48
(g69
g50
NtRp1048
(dp1049
g53
(dp1050
g73
g74
ssg62
g1044
sg55
(lp1051
S'http_cookie'
p1052
asbag48
(g69
g50
NtRp1053
(dp1054
g53
(dp1055
g80
g81
ssg62
g1044
sg55
(lp1056
S':'
asbag48
(g69
g50
NtRp1057
(dp1058
g53
(dp1059
sg62
g1044
sg55
(lp1060
g48
(g49
g50
NtRp1061
(dp1062
g53
(dp1063
g61
I4
ssg62
g1057
sg55
(lp1064
S'session_id_welcome=127.0.0.1-5968f43b-af92-4aa3-97aa-46d100e6e102; session_id_casa_de_apuestas=127.0.0.1-ad3d7307-1e97-4b61-b85a-1916727dbc1e; session_id_admin=127.0.0.1-87f892ed-3d70-4ece-9778-80417a6996bd'
p1065
asbasbasbag48
(g64
g50
NtRp1066
(dp1067
g53
(dp1068
sg62
g752
sg55
(lp1069
g48
(g69
g50
NtRp1070
(dp1071
g53
(dp1072
g73
g74
ssg62
g1066
sg55
(lp1073
S'http_host'
p1074
asbag48
(g69
g50
NtRp1075
(dp1076
g53
(dp1077
g80
g81
ssg62
g1066
sg55
(lp1078
S':'
asbag48
(g69
g50
NtRp1079
(dp1080
g53
(dp1081
sg62
g1066
sg55
(lp1082
g48
(g49
g50
NtRp1083
(dp1084
g53
(dp1085
g61
I4
ssg62
g1079
sg55
(lp1086
S'127.0.0.1:8000'
p1087
asbasbasbag48
(g64
g50
NtRp1088
(dp1089
g53
(dp1090
sg62
g752
sg55
(lp1091
g48
(g69
g50
NtRp1092
(dp1093
g53
(dp1094
g73
g74
ssg62
g1088
sg55
(lp1095
S'http_user_agent'
p1096
asbag48
(g69
g50
NtRp1097
(dp1098
g53
(dp1099
g80
g81
ssg62
g1088
sg55
(lp1100
S':'
asbag48
(g69
g50
NtRp1101
(dp1102
g53
(dp1103
sg62
g1088
sg55
(lp1104
g48
(g49
g50
NtRp1105
(dp1106
g53
(dp1107
g61
I4
ssg62
g1101
sg55
(lp1108
S'Mozilla/5.0 (Windows NT 6.1) AppleWebKit/535.2 (KHTML, like Gecko) Chrome/15.0.874.106 Safari/535.2'
p1109
asbasbasbag48
(g64
g50
NtRp1110
(dp1111
g53
(dp1112
sg62
g752
sg55
(lp1113
g48
(g69
g50
NtRp1114
(dp1115
g53
(dp1116
g73
g74
ssg62
g1110
sg55
(lp1117
S'is_jython'
p1118
asbag48
(g69
g50
NtRp1119
(dp1120
g53
(dp1121
g80
g81
ssg62
g1110
sg55
(lp1122
S':'
asbag48
(g69
g50
NtRp1123
(dp1124
g53
(dp1125
sg62
g1110
sg55
(lp1126
g48
(g49
g50
NtRp1127
(dp1128
g53
(dp1129
g61
I4
ssg62
g1123
sg55
(lp1130
g91
asbasbasbag48
(g64
g50
NtRp1131
(dp1132
g53
(dp1133
sg62
g752
sg55
(lp1134
g48
(g69
g50
NtRp1135
(dp1136
g53
(dp1137
g73
g74
ssg62
g1131
sg55
(lp1138
S'path_info'
p1139
asbag48
(g69
g50
NtRp1140
(dp1141
g53
(dp1142
g80
g81
ssg62
g1131
sg55
(lp1143
S':'
asbag48
(g69
g50
NtRp1144
(dp1145
g53
(dp1146
sg62
g1131
sg55
(lp1147
g48
(g49
g50
NtRp1148
(dp1149
g53
(dp1150
g61
I4
ssg62
g1144
sg55
(lp1151
S'/Casa_de_Apuestas/default/crearEvento'
p1152
asbasbasbag48
(g64
g50
NtRp1153
(dp1154
g53
(dp1155
sg62
g752
sg55
(lp1156
g48
(g69
g50
NtRp1157
(dp1158
g53
(dp1159
g73
g74
ssg62
g1153
sg55
(lp1160
S'query_string'
p1161
asbag48
(g69
g50
NtRp1162
(dp1163
g53
(dp1164
g80
g81
ssg62
g1153
sg55
(lp1165
S':'
asbag48
(g69
g50
NtRp1166
(dp1167
g53
(dp1168
sg62
g1153
sg55
(lp1169
g48
(g49
g50
NtRp1170
(dp1171
g53
(dp1172
g61
I4
ssg62
g1166
sg55
(lp1173
S''
asbasbasbag48
(g64
g50
NtRp1174
(dp1175
g53
(dp1176
sg62
g752
sg55
(lp1177
g48
(g69
g50
NtRp1178
(dp1179
g53
(dp1180
g73
g74
ssg62
g1174
sg55
(lp1181
S'remote_addr'
p1182
asbag48
(g69
g50
NtRp1183
(dp1184
g53
(dp1185
g80
g81
ssg62
g1174
sg55
(lp1186
S':'
asbag48
(g69
g50
NtRp1187
(dp1188
g53
(dp1189
sg62
g1174
sg55
(lp1190
g48
(g49
g50
NtRp1191
(dp1192
g53
(dp1193
g61
I4
ssg62
g1187
sg55
(lp1194
g181
asbasbasbag48
(g64
g50
NtRp1195
(dp1196
g53
(dp1197
sg62
g752
sg55
(lp1198
g48
(g69
g50
NtRp1199
(dp1200
g53
(dp1201
g73
g74
ssg62
g1195
sg55
(lp1202
S'remote_port'
p1203
asbag48
(g69
g50
NtRp1204
(dp1205
g53
(dp1206
g80
g81
ssg62
g1195
sg55
(lp1207
S':'
asbag48
(g69
g50
NtRp1208
(dp1209
g53
(dp1210
sg62
g1195
sg55
(lp1211
g48
(g49
g50
NtRp1212
(dp1213
g53
(dp1214
g61
I4
ssg62
g1208
sg55
(lp1215
S'51208'
p1216
asbasbasbag48
(g64
g50
NtRp1217
(dp1218
g53
(dp1219
sg62
g752
sg55
(lp1220
g48
(g69
g50
NtRp1221
(dp1222
g53
(dp1223
g73
g74
ssg62
g1217
sg55
(lp1224
S'request_method'
p1225
asbag48
(g69
g50
NtRp1226
(dp1227
g53
(dp1228
g80
g81
ssg62
g1217
sg55
(lp1229
S':'
asbag48
(g69
g50
NtRp1230
(dp1231
g53
(dp1232
sg62
g1217
sg55
(lp1233
g48
(g49
g50
NtRp1234
(dp1235
g53
(dp1236
g61
I4
ssg62
g1230
sg55
(lp1237
S'GET'
p1238
asbasbasbag48
(g64
g50
NtRp1239
(dp1240
g53
(dp1241
sg62
g752
sg55
(lp1242
g48
(g69
g50
NtRp1243
(dp1244
g53
(dp1245
g73
g74
ssg62
g1239
sg55
(lp1246
S'script_name'
p1247
asbag48
(g69
g50
NtRp1248
(dp1249
g53
(dp1250
g80
g81
ssg62
g1239
sg55
(lp1251
S':'
asbag48
(g69
g50
NtRp1252
(dp1253
g53
(dp1254
sg62
g1239
sg55
(lp1255
g48
(g49
g50
NtRp1256
(dp1257
g53
(dp1258
g61
I4
ssg62
g1252
sg55
(lp1259
S''
asbasbasbag48
(g64
g50
NtRp1260
(dp1261
g53
(dp1262
sg62
g752
sg55
(lp1263
g48
(g69
g50
NtRp1264
(dp1265
g53
(dp1266
g73
g74
ssg62
g1260
sg55
(lp1267
S'server_name'
p1268
asbag48
(g69
g50
NtRp1269
(dp1270
g53
(dp1271
g80
g81
ssg62
g1260
sg55
(lp1272
S':'
asbag48
(g69
g50
NtRp1273
(dp1274
g53
(dp1275
sg62
g1260
sg55
(lp1276
g48
(g49
g50
NtRp1277
(dp1278
g53
(dp1279
g61
I4
ssg62
g1273
sg55
(lp1280
S'hector-vaio'
p1281
asbasbasbag48
(g64
g50
NtRp1282
(dp1283
g53
(dp1284
sg62
g752
sg55
(lp1285
g48
(g69
g50
NtRp1286
(dp1287
g53
(dp1288
g73
g74
ssg62
g1282
sg55
(lp1289
S'server_port'
p1290
asbag48
(g69
g50
NtRp1291
(dp1292
g53
(dp1293
g80
g81
ssg62
g1282
sg55
(lp1294
S':'
asbag48
(g69
g50
NtRp1295
(dp1296
g53
(dp1297
sg62
g1282
sg55
(lp1298
g48
(g49
g50
NtRp1299
(dp1300
g53
(dp1301
g61
I4
ssg62
g1295
sg55
(lp1302
S'8000'
p1303
asbasbasbag48
(g64
g50
NtRp1304
(dp1305
g53
(dp1306
sg62
g752
sg55
(lp1307
g48
(g69
g50
NtRp1308
(dp1309
g53
(dp1310
g73
g74
ssg62
g1304
sg55
(lp1311
S'server_protocol'
p1312
asbag48
(g69
g50
NtRp1313
(dp1314
g53
(dp1315
g80
g81
ssg62
g1304
sg55
(lp1316
S':'
asbag48
(g69
g50
NtRp1317
(dp1318
g53
(dp1319
sg62
g1304
sg55
(lp1320
g48
(g49
g50
NtRp1321
(dp1322
g53
(dp1323
g61
I4
ssg62
g1317
sg55
(lp1324
S'HTTP/1.1'
p1325
asbasbasbag48
(g64
g50
NtRp1326
(dp1327
g53
(dp1328
sg62
g752
sg55
(lp1329
g48
(g69
g50
NtRp1330
(dp1331
g53
(dp1332
g73
g74
ssg62
g1326
sg55
(lp1333
S'server_software'
p1334
asbag48
(g69
g50
NtRp1335
(dp1336
g53
(dp1337
g80
g81
ssg62
g1326
sg55
(lp1338
S':'
asbag48
(g69
g50
NtRp1339
(dp1340
g53
(dp1341
sg62
g1326
sg55
(lp1342
g48
(g49
g50
NtRp1343
(dp1344
g53
(dp1345
g61
I4
ssg62
g1339
sg55
(lp1346
S'Rocket 1.2.4'
p1347
asbasbasbag48
(g64
g50
NtRp1348
(dp1349
g53
(dp1350
sg62
g752
sg55
(lp1351
g48
(g69
g50
NtRp1352
(dp1353
g53
(dp1354
g73
g74
ssg62
g1348
sg55
(lp1355
S'web2py_crontype'
p1356
asbag48
(g69
g50
NtRp1357
(dp1358
g53
(dp1359
g80
g81
ssg62
g1348
sg55
(lp1360
S':'
asbag48
(g69
g50
NtRp1361
(dp1362
g53
(dp1363
sg62
g1348
sg55
(lp1364
g48
(g49
g50
NtRp1365
(dp1366
g53
(dp1367
g61
I4
ssg62
g1361
sg55
(lp1368
S'hard'
p1369
asbasbasbag48
(g64
g50
NtRp1370
(dp1371
g53
(dp1372
sg62
g752
sg55
(lp1373
g48
(g69
g50
NtRp1374
(dp1375
g53
(dp1376
g73
g74
ssg62
g1370
sg55
(lp1377
S'web2py_path'
p1378
asbag48
(g69
g50
NtRp1379
(dp1380
g53
(dp1381
g80
g81
ssg62
g1370
sg55
(lp1382
S':'
asbag48
(g69
g50
NtRp1383
(dp1384
g53
(dp1385
sg62
g1370
sg55
(lp1386
g48
(g49
g50
NtRp1387
(dp1388
g53
(dp1389
g61
I4
ssg62
g1383
sg55
(lp1390
g799
asbasbasbag48
(g64
g50
NtRp1391
(dp1392
g53
(dp1393
sg62
g752
sg55
(lp1394
g48
(g69
g50
NtRp1395
(dp1396
g53
(dp1397
g73
g74
ssg62
g1391
sg55
(lp1398
S'web2py_version'
p1399
asbag48
(g69
g50
NtRp1400
(dp1401
g53
(dp1402
g80
g81
ssg62
g1391
sg55
(lp1403
S':'
asbag48
(g69
g50
NtRp1404
(dp1405
g53
(dp1406
sg62
g1391
sg55
(lp1407
g48
(g49
g50
NtRp1408
(dp1409
g53
(dp1410
g61
I4
ssg62
g1404
sg55
(lp1411
g48
(g57
g50
NtRp1412
(dp1413
g53
(dp1414
g61
I3
ssg62
Nsg55
(lp1415
g48
(g64
g50
NtRp1416
(dp1417
g53
(dp1418
sg62
g1412
sg55
(lp1419
g48
(g69
g50
NtRp1420
(dp1421
g53
(dp1422
sg62
g1416
sg55
(lp1423
g48
(g49
g50
NtRp1424
(dp1425
g53
(dp1426
g61
I3
ssg62
g1420
sg55
(lp1427
S'1'
asbasbasbag48
(g64
g50
NtRp1428
(dp1429
g53
(dp1430
sg62
g1412
sg55
(lp1431
g48
(g69
g50
NtRp1432
(dp1433
g53
(dp1434
sg62
g1428
sg55
(lp1435
g48
(g49
g50
NtRp1436
(dp1437
g53
(dp1438
g61
I3
ssg62
g1432
sg55
(lp1439
S'99'
p1440
asbasbasbag48
(g64
g50
NtRp1441
(dp1442
g53
(dp1443
sg62
g1412
sg55
(lp1444
g48
(g69
g50
NtRp1445
(dp1446
g53
(dp1447
sg62
g1441
sg55
(lp1448
g48
(g49
g50
NtRp1449
(dp1450
g53
(dp1451
g61
I3
ssg62
g1445
sg55
(lp1452
S'2'
asbasbasbag48
(g64
g50
NtRp1453
(dp1454
g53
(dp1455
sg62
g1412
sg55
(lp1456
g48
(g69
g50
NtRp1457
(dp1458
g53
(dp1459
sg62
g1453
sg55
(lp1460
g48
(g49
g50
NtRp1461
(dp1462
g53
(dp1463
g61
I3
ssg62
g1457
sg55
(lp1464
S'datetime.datetime(2011, 9, 26, 6, 55, 33)'
p1465
asbasbasbag48
(g64
g50
NtRp1466
(dp1467
g53
(dp1468
sg62
g1412
sg55
(lp1469
g48
(g69
g50
NtRp1470
(dp1471
g53
(dp1472
sg62
g1466
sg55
(lp1473
g48
(g49
g50
NtRp1474
(dp1475
g53
(dp1476
g61
I3
ssg62
g1470
sg55
(lp1477
S'stable'
p1478
asbasbasbasbasbasbasbag48
(g64
g50
NtRp1479
(dp1480
g53
(dp1481
sg62
g752
sg55
(lp1482
g48
(g69
g50
NtRp1483
(dp1484
g53
(dp1485
g73
g74
ssg62
g1479
sg55
(lp1486
S'wsgi_errors'
p1487
asbag48
(g69
g50
NtRp1488
(dp1489
g53
(dp1490
g80
g81
ssg62
g1479
sg55
(lp1491
S':'
asbag48
(g69
g50
NtRp1492
(dp1493
g53
(dp1494
sg62
g1479
sg55
(lp1495
g48
(g49
g50
NtRp1496
(dp1497
g53
(dp1498
g61
I4
ssg62
g1492
sg55
(lp1499
S"<open file '<stderr>', mode 'w' at 0x014B00B0>"
p1500
asbasbasbag48
(g64
g50
NtRp1501
(dp1502
g53
(dp1503
sg62
g752
sg55
(lp1504
g48
(g69
g50
NtRp1505
(dp1506
g53
(dp1507
g73
g74
ssg62
g1501
sg55
(lp1508
S'wsgi_file_wrapper'
p1509
asbag48
(g69
g50
NtRp1510
(dp1511
g53
(dp1512
g80
g81
ssg62
g1501
sg55
(lp1513
S':'
asbag48
(g69
g50
NtRp1514
(dp1515
g53
(dp1516
sg62
g1501
sg55
(lp1517
g48
(g49
g50
NtRp1518
(dp1519
g53
(dp1520
g61
I4
ssg62
g1514
sg55
(lp1521
S'<class wsgiref.util.FileWrapper at 0x02419AB0>'
p1522
asbasbasbag48
(g64
g50
NtRp1523
(dp1524
g53
(dp1525
sg62
g752
sg55
(lp1526
g48
(g69
g50
NtRp1527
(dp1528
g53
(dp1529
g73
g74
ssg62
g1523
sg55
(lp1530
S'wsgi_input'
p1531
asbag48
(g69
g50
NtRp1532
(dp1533
g53
(dp1534
g80
g81
ssg62
g1523
sg55
(lp1535
S':'
asbag48
(g69
g50
NtRp1536
(dp1537
g53
(dp1538
sg62
g1523
sg55
(lp1539
g48
(g49
g50
NtRp1540
(dp1541
g53
(dp1542
g61
I4
ssg62
g1536
sg55
(lp1543
S'<socket._fileobject object at 0x0653FD70>'
p1544
asbasbasbag48
(g64
g50
NtRp1545
(dp1546
g53
(dp1547
sg62
g752
sg55
(lp1548
g48
(g69
g50
NtRp1549
(dp1550
g53
(dp1551
g73
g74
ssg62
g1545
sg55
(lp1552
S'wsgi_multiprocess'
p1553
asbag48
(g69
g50
NtRp1554
(dp1555
g53
(dp1556
g80
g81
ssg62
g1545
sg55
(lp1557
S':'
asbag48
(g69
g50
NtRp1558
(dp1559
g53
(dp1560
sg62
g1545
sg55
(lp1561
g48
(g49
g50
NtRp1562
(dp1563
g53
(dp1564
g61
I4
ssg62
g1558
sg55
(lp1565
g91
asbasbasbag48
(g64
g50
NtRp1566
(dp1567
g53
(dp1568
sg62
g752
sg55
(lp1569
g48
(g69
g50
NtRp1570
(dp1571
g53
(dp1572
g73
g74
ssg62
g1566
sg55
(lp1573
S'wsgi_multithread'
p1574
asbag48
(g69
g50
NtRp1575
(dp1576
g53
(dp1577
g80
g81
ssg62
g1566
sg55
(lp1578
S':'
asbag48
(g69
g50
NtRp1579
(dp1580
g53
(dp1581
sg62
g1566
sg55
(lp1582
g48
(g49
g50
NtRp1583
(dp1584
g53
(dp1585
g61
I4
ssg62
g1579
sg55
(lp1586
S'True'
p1587
asbasbasbag48
(g64
g50
NtRp1588
(dp1589
g53
(dp1590
sg62
g752
sg55
(lp1591
g48
(g69
g50
NtRp1592
(dp1593
g53
(dp1594
g73
g74
ssg62
g1588
sg55
(lp1595
S'wsgi_run_once'
p1596
asbag48
(g69
g50
NtRp1597
(dp1598
g53
(dp1599
g80
g81
ssg62
g1588
sg55
(lp1600
S':'
asbag48
(g69
g50
NtRp1601
(dp1602
g53
(dp1603
sg62
g1588
sg55
(lp1604
g48
(g49
g50
NtRp1605
(dp1606
g53
(dp1607
g61
I4
ssg62
g1601
sg55
(lp1608
g91
asbasbasbag48
(g64
g50
NtRp1609
(dp1610
g53
(dp1611
sg62
g752
sg55
(lp1612
g48
(g69
g50
NtRp1613
(dp1614
g53
(dp1615
g73
g74
ssg62
g1609
sg55
(lp1616
S'wsgi_url_scheme'
p1617
asbag48
(g69
g50
NtRp1618
(dp1619
g53
(dp1620
g80
g81
ssg62
g1609
sg55
(lp1621
S':'
asbag48
(g69
g50
NtRp1622
(dp1623
g53
(dp1624
sg62
g1609
sg55
(lp1625
g48
(g49
g50
NtRp1626
(dp1627
g53
(dp1628
g61
I4
ssg62
g1622
sg55
(lp1629
S'http'
p1630
asbasbasbag48
(g64
g50
NtRp1631
(dp1632
g53
(dp1633
sg62
g752
sg55
(lp1634
g48
(g69
g50
NtRp1635
(dp1636
g53
(dp1637
g73
g74
ssg62
g1631
sg55
(lp1638
S'wsgi_version'
p1639
asbag48
(g69
g50
NtRp1640
(dp1641
g53
(dp1642
g80
g81
ssg62
g1631
sg55
(lp1643
S':'
asbag48
(g69
g50
NtRp1644
(dp1645
g53
(dp1646
sg62
g1631
sg55
(lp1647
g48
(g49
g50
NtRp1648
(dp1649
g53
(dp1650
g61
I4
ssg62
g1644
sg55
(lp1651
g48
(g57
g50
NtRp1652
(dp1653
g53
(dp1654
g61
I3
ssg62
Nsg55
(lp1655
g48
(g64
g50
NtRp1656
(dp1657
g53
(dp1658
sg62
g1652
sg55
(lp1659
g48
(g69
g50
NtRp1660
(dp1661
g53
(dp1662
sg62
g1656
sg55
(lp1663
g48
(g49
g50
NtRp1664
(dp1665
g53
(dp1666
g61
I3
ssg62
g1660
sg55
(lp1667
S'1'
asbasbasbag48
(g64
g50
NtRp1668
(dp1669
g53
(dp1670
sg62
g1652
sg55
(lp1671
g48
(g69
g50
NtRp1672
(dp1673
g53
(dp1674
sg62
g1668
sg55
(lp1675
g48
(g49
g50
NtRp1676
(dp1677
g53
(dp1678
g61
I3
ssg62
g1672
sg55
(lp1679
S'0'
asbasbasbasbasbasbasbasbasbasbasbag48
(g64
g50
NtRp1680
(dp1681
g53
(dp1682
sg62
g58
sg55
(lp1683
g48
(g69
g50
NtRp1684
(dp1685
g53
(dp1686
g73
g74
ssg62
g1680
sg55
(lp1687
S'extension'
p1688
asbag48
(g69
g50
NtRp1689
(dp1690
g53
(dp1691
g80
g81
ssg62
g1680
sg55
(lp1692
S':'
asbag48
(g69
g50
NtRp1693
(dp1694
g53
(dp1695
sg62
g1680
sg55
(lp1696
g48
(g49
g50
NtRp1697
(dp1698
g53
(dp1699
g61
I5
ssg62
g1693
sg55
(lp1700
S'html'
p1701
asbasbasbag48
(g64
g50
NtRp1702
(dp1703
g53
(dp1704
sg62
g58
sg55
(lp1705
g48
(g69
g50
NtRp1706
(dp1707
g53
(dp1708
g73
g74
ssg62
g1702
sg55
(lp1709
S'folder'
p1710
asbag48
(g69
g50
NtRp1711
(dp1712
g53
(dp1713
g80
g81
ssg62
g1702
sg55
(lp1714
S':'
asbag48
(g69
g50
NtRp1715
(dp1716
g53
(dp1717
sg62
g1702
sg55
(lp1718
g48
(g49
g50
NtRp1719
(dp1720
g53
(dp1721
g61
I5
ssg62
g1715
sg55
(lp1722
S'C:\\Python32\\web2py_win\\web2py\\applications\\Casa_de_Apuestas\\'
p1723
asbasbasbag48
(g64
g50
NtRp1724
(dp1725
g53
(dp1726
sg62
g58
sg55
(lp1727
g48
(g69
g50
NtRp1728
(dp1729
g53
(dp1730
g73
g74
ssg62
g1724
sg55
(lp1731
S'function'
p1732
asbag48
(g69
g50
NtRp1733
(dp1734
g53
(dp1735
g80
g81
ssg62
g1724
sg55
(lp1736
S':'
asbag48
(g69
g50
NtRp1737
(dp1738
g53
(dp1739
sg62
g1724
sg55
(lp1740
g48
(g49
g50
NtRp1741
(dp1742
g53
(dp1743
g61
I5
ssg62
g1737
sg55
(lp1744
S'crearEvento'
p1745
asbasbasbag48
(g64
g50
NtRp1746
(dp1747
g53
(dp1748
sg62
g58
sg55
(lp1749
g48
(g69
g50
NtRp1750
(dp1751
g53
(dp1752
g73
g74
ssg62
g1746
sg55
(lp1753
S'get_vars'
p1754
asbag48
(g69
g50
NtRp1755
(dp1756
g53
(dp1757
g80
g81
ssg62
g1746
sg55
(lp1758
S':'
asbag48
(g69
g50
NtRp1759
(dp1760
g53
(dp1761
sg62
g1746
sg55
(lp1762
g48
(g49
g50
NtRp1763
(dp1764
g53
(dp1765
g61
I5
ssg62
g1759
sg55
(lp1766
g48
(g57
g50
NtRp1767
(dp1768
g53
(dp1769
g61
I4
ssg62
Nsg55
(lp1770
sbasbasbasbag48
(g64
g50
NtRp1771
(dp1772
g53
(dp1773
sg62
g58
sg55
(lp1774
g48
(g69
g50
NtRp1775
(dp1776
g53
(dp1777
g73
g74
ssg62
g1771
sg55
(lp1778
S'global_settings'
p1779
asbag48
(g69
g50
NtRp1780
(dp1781
g53
(dp1782
g80
g81
ssg62
g1771
sg55
(lp1783
S':'
asbag48
(g69
g50
NtRp1784
(dp1785
g53
(dp1786
sg62
g1771
sg55
(lp1787
g48
(g49
g50
NtRp1788
(dp1789
g53
(dp1790
g61
I5
ssg62
g1784
sg55
(lp1791
g48
(g57
g50
NtRp1792
(dp1793
g53
(dp1794
g61
I4
ssg62
Nsg55
(lp1795
g48
(g64
g50
NtRp1796
(dp1797
g53
(dp1798
sg62
g1792
sg55
(lp1799
g48
(g69
g50
NtRp1800
(dp1801
g53
(dp1802
g73
g74
ssg62
g1796
sg55
(lp1803
g764
asbag48
(g69
g50
NtRp1804
(dp1805
g53
(dp1806
g80
g81
ssg62
g1796
sg55
(lp1807
S':'
asbag48
(g69
g50
NtRp1808
(dp1809
g53
(dp1810
sg62
g1796
sg55
(lp1811
g48
(g49
g50
NtRp1812
(dp1813
g53
(dp1814
g61
I4
ssg62
g1808
sg55
(lp1815
S"set(['C:\\\\Python32\\\\web2py_win\\\\web2py\\\\applications\\\\admin\\\\', 'C:\\\\Python32\\\\web2py_win\\\\web2py\\\\applications\\\\welcome\\\\', 'C:\\\\Python32\\\\web2py_win\\\\web2py\\\\applications\\\\Casa_de_Apuestas\\\\'])"
p1816
asbasbasbag48
(g64
g50
NtRp1817
(dp1818
g53
(dp1819
sg62
g1792
sg55
(lp1820
g48
(g69
g50
NtRp1821
(dp1822
g53
(dp1823
g73
g74
ssg62
g1817
sg55
(lp1824
g786
asbag48
(g69
g50
NtRp1825
(dp1826
g53
(dp1827
g80
g81
ssg62
g1817
sg55
(lp1828
S':'
asbag48
(g69
g50
NtRp1829
(dp1830
g53
(dp1831
sg62
g1817
sg55
(lp1832
g48
(g49
g50
NtRp1833
(dp1834
g53
(dp1835
g61
I4
ssg62
g1829
sg55
(lp1836
g799
asbasbasbag48
(g64
g50
NtRp1837
(dp1838
g53
(dp1839
sg62
g1792
sg55
(lp1840
g48
(g69
g50
NtRp1841
(dp1842
g53
(dp1843
g73
g74
ssg62
g1837
sg55
(lp1844
g808
asbag48
(g69
g50
NtRp1845
(dp1846
g53
(dp1847
g80
g81
ssg62
g1837
sg55
(lp1848
S':'
asbag48
(g69
g50
NtRp1849
(dp1850
g53
(dp1851
sg62
g1837
sg55
(lp1852
g48
(g49
g50
NtRp1853
(dp1854
g53
(dp1855
g61
I4
ssg62
g1849
sg55
(lp1856
g48
(g57
g50
NtRp1857
(dp1858
g53
(dp1859
g61
I3
ssg62
Nsg55
(lp1860
sbasbasbasbag48
(g64
g50
NtRp1861
(dp1862
g53
(dp1863
sg62
g1792
sg55
(lp1864
g48
(g69
g50
NtRp1865
(dp1866
g53
(dp1867
g73
g74
ssg62
g1861
sg55
(lp1868
g833
asbag48
(g69
g50
NtRp1869
(dp1870
g53
(dp1871
g80
g81
ssg62
g1861
sg55
(lp1872
S':'
asbag48
(g69
g50
NtRp1873
(dp1874
g53
(dp1875
sg62
g1861
sg55
(lp1876
g48
(g49
g50
NtRp1877
(dp1878
g53
(dp1879
g61
I4
ssg62
g1873
sg55
(lp1880
S"<Values at 0x2675fa8: {'verbose': False, 'ip': '127.0.0.1', 'shutdown_timeout': 5, 'taskbar': False, 'nocron': False, 'pid_filename': 'httpserver.pid', 'maxthreads': None, 'softcron': False, 'server_name': 'hector-vaio', 'bpython': False, 'nogui': False, 'port': 8000, 'extcron': False, 'debuglevel': 30, 'test': None, 'folder': 'C:\\\\Python32\\\\web2py_win\\\\web2py', 'config': '', 'import_models': False, 'winservice': '', 'shell': None, 'run': '', 'log_filename': 'httpserver.log', 'args': [''], 'ssl_ca_certificate': None, 'scheduler': None, 'profiler_filename': None, 'ssl_private_key': '', 'password': '<ask>', 'request_queue_size': 5, 'ssl_certificate': '', 'cronjob': False, 'plain': False, 'quiet': False, 'interfaces': None, 'minthreads': None, 'timeout': 10, 'numthreads': None, 'nobanner': False}>"
p1881
asbasbasbag48
(g64
g50
NtRp1882
(dp1883
g53
(dp1884
sg62
g1792
sg55
(lp1885
g48
(g69
g50
NtRp1886
(dp1887
g53
(dp1888
g73
g74
ssg62
g1882
sg55
(lp1889
g855
asbag48
(g69
g50
NtRp1890
(dp1891
g53
(dp1892
g80
g81
ssg62
g1882
sg55
(lp1893
S':'
asbag48
(g69
g50
NtRp1894
(dp1895
g53
(dp1896
sg62
g1882
sg55
(lp1897
g48
(g49
g50
NtRp1898
(dp1899
g53
(dp1900
g61
I4
ssg62
g1894
sg55
(lp1901
S'set([])'
p1902
asbasbasbag48
(g64
g50
NtRp1903
(dp1904
g53
(dp1905
sg62
g1792
sg55
(lp1906
g48
(g69
g50
NtRp1907
(dp1908
g53
(dp1909
g73
g74
ssg62
g1903
sg55
(lp1910
g877
asbag48
(g69
g50
NtRp1911
(dp1912
g53
(dp1913
g80
g81
ssg62
g1903
sg55
(lp1914
S':'
asbag48
(g69
g50
NtRp1915
(dp1916
g53
(dp1917
sg62
g1903
sg55
(lp1918
g48
(g49
g50
NtRp1919
(dp1920
g53
(dp1921
g61
I4
ssg62
g1915
sg55
(lp1922
g91
asbasbasbag48
(g64
g50
NtRp1923
(dp1924
g53
(dp1925
sg62
g1792
sg55
(lp1926
g48
(g69
g50
NtRp1927
(dp1928
g53
(dp1929
g73
g74
ssg62
g1923
sg55
(lp1930
g898
asbag48
(g69
g50
NtRp1931
(dp1932
g53
(dp1933
g80
g81
ssg62
g1923
sg55
(lp1934
S':'
asbag48
(g69
g50
NtRp1935
(dp1936
g53
(dp1937
sg62
g1923
sg55
(lp1938
g48
(g49
g50
NtRp1939
(dp1940
g53
(dp1941
g61
I4
ssg62
g1935
sg55
(lp1942
g911
asbasbasbag48
(g64
g50
NtRp1943
(dp1944
g53
(dp1945
sg62
g1792
sg55
(lp1946
g48
(g69
g50
NtRp1947
(dp1948
g53
(dp1949
g73
g74
ssg62
g1943
sg55
(lp1950
g1118
asbag48
(g69
g50
NtRp1951
(dp1952
g53
(dp1953
g80
g81
ssg62
g1943
sg55
(lp1954
S':'
asbag48
(g69
g50
NtRp1955
(dp1956
g53
(dp1957
sg62
g1943
sg55
(lp1958
g48
(g49
g50
NtRp1959
(dp1960
g53
(dp1961
g61
I4
ssg62
g1955
sg55
(lp1962
g91
asbasbasbag48
(g64
g50
NtRp1963
(dp1964
g53
(dp1965
sg62
g1792
sg55
(lp1966
g48
(g69
g50
NtRp1967
(dp1968
g53
(dp1969
g73
g74
ssg62
g1963
sg55
(lp1970
g1356
asbag48
(g69
g50
NtRp1971
(dp1972
g53
(dp1973
g80
g81
ssg62
g1963
sg55
(lp1974
S':'
asbag48
(g69
g50
NtRp1975
(dp1976
g53
(dp1977
sg62
g1963
sg55
(lp1978
g48
(g49
g50
NtRp1979
(dp1980
g53
(dp1981
g61
I4
ssg62
g1975
sg55
(lp1982
g1369
asbasbasbag48
(g64
g50
NtRp1983
(dp1984
g53
(dp1985
sg62
g1792
sg55
(lp1986
g48
(g69
g50
NtRp1987
(dp1988
g53
(dp1989
g73
g74
ssg62
g1983
sg55
(lp1990
g1399
asbag48
(g69
g50
NtRp1991
(dp1992
g53
(dp1993
g80
g81
ssg62
g1983
sg55
(lp1994
S':'
asbag48
(g69
g50
NtRp1995
(dp1996
g53
(dp1997
sg62
g1983
sg55
(lp1998
g48
(g49
g50
NtRp1999
(dp2000
g53
(dp2001
g61
I4
ssg62
g1995
sg55
(lp2002
g48
(g57
g50
NtRp2003
(dp2004
g53
(dp2005
g61
I3
ssg62
Nsg55
(lp2006
g48
(g64
g50
NtRp2007
(dp2008
g53
(dp2009
sg62
g2003
sg55
(lp2010
g48
(g69
g50
NtRp2011
(dp2012
g53
(dp2013
sg62
g2007
sg55
(lp2014
g48
(g49
g50
NtRp2015
(dp2016
g53
(dp2017
g61
I3
ssg62
g2011
sg55
(lp2018
S'1'
asbasbasbag48
(g64
g50
NtRp2019
(dp2020
g53
(dp2021
sg62
g2003
sg55
(lp2022
g48
(g69
g50
NtRp2023
(dp2024
g53
(dp2025
sg62
g2019
sg55
(lp2026
g48
(g49
g50
NtRp2027
(dp2028
g53
(dp2029
g61
I3
ssg62
g2023
sg55
(lp2030
S'99'
p2031
asbasbasbag48
(g64
g50
NtRp2032
(dp2033
g53
(dp2034
sg62
g2003
sg55
(lp2035
g48
(g69
g50
NtRp2036
(dp2037
g53
(dp2038
sg62
g2032
sg55
(lp2039
g48
(g49
g50
NtRp2040
(dp2041
g53
(dp2042
g61
I3
ssg62
g2036
sg55
(lp2043
S'2'
asbasbasbag48
(g64
g50
NtRp2044
(dp2045
g53
(dp2046
sg62
g2003
sg55
(lp2047
g48
(g69
g50
NtRp2048
(dp2049
g53
(dp2050
sg62
g2044
sg55
(lp2051
g48
(g49
g50
NtRp2052
(dp2053
g53
(dp2054
g61
I3
ssg62
g2048
sg55
(lp2055
S'datetime.datetime(2011, 9, 26, 6, 55, 33)'
p2056
asbasbasbag48
(g64
g50
NtRp2057
(dp2058
g53
(dp2059
sg62
g2003
sg55
(lp2060
g48
(g69
g50
NtRp2061
(dp2062
g53
(dp2063
sg62
g2057
sg55
(lp2064
g48
(g49
g50
NtRp2065
(dp2066
g53
(dp2067
g61
I3
ssg62
g2061
sg55
(lp2068
g1478
asbasbasbasbasbasbasbasbasbasbasbag48
(g64
g50
NtRp2069
(dp2070
g53
(dp2071
sg62
g58
sg55
(lp2072
g48
(g69
g50
NtRp2073
(dp2074
g53
(dp2075
g73
g74
ssg62
g2069
sg55
(lp2076
S'is_https'
p2077
asbag48
(g69
g50
NtRp2078
(dp2079
g53
(dp2080
g80
g81
ssg62
g2069
sg55
(lp2081
S':'
asbag48
(g69
g50
NtRp2082
(dp2083
g53
(dp2084
sg62
g2069
sg55
(lp2085
g48
(g49
g50
NtRp2086
(dp2087
g53
(dp2088
g61
I5
ssg62
g2082
sg55
(lp2089
g91
asbasbasbag48
(g64
g50
NtRp2090
(dp2091
g53
(dp2092
sg62
g58
sg55
(lp2093
g48
(g69
g50
NtRp2094
(dp2095
g53
(dp2096
g73
g74
ssg62
g2090
sg55
(lp2097
S'is_local'
p2098
asbag48
(g69
g50
NtRp2099
(dp2100
g53
(dp2101
g80
g81
ssg62
g2090
sg55
(lp2102
S':'
asbag48
(g69
g50
NtRp2103
(dp2104
g53
(dp2105
sg62
g2090
sg55
(lp2106
g48
(g49
g50
NtRp2107
(dp2108
g53
(dp2109
g61
I5
ssg62
g2103
sg55
(lp2110
g1587
asbasbasbag48
(g64
g50
NtRp2111
(dp2112
g53
(dp2113
sg62
g58
sg55
(lp2114
g48
(g69
g50
NtRp2115
(dp2116
g53
(dp2117
g73
g74
ssg62
g2111
sg55
(lp2118
S'is_restful'
p2119
asbag48
(g69
g50
NtRp2120
(dp2121
g53
(dp2122
g80
g81
ssg62
g2111
sg55
(lp2123
S':'
asbag48
(g69
g50
NtRp2124
(dp2125
g53
(dp2126
sg62
g2111
sg55
(lp2127
g48
(g49
g50
NtRp2128
(dp2129
g53
(dp2130
g61
I5
ssg62
g2124
sg55
(lp2131
g91
asbasbasbag48
(g64
g50
NtRp2132
(dp2133
g53
(dp2134
sg62
g58
sg55
(lp2135
g48
(g69
g50
NtRp2136
(dp2137
g53
(dp2138
g73
g74
ssg62
g2132
sg55
(lp2139
S'now'
p2140
asbag48
(g69
g50
NtRp2141
(dp2142
g53
(dp2143
g80
g81
ssg62
g2132
sg55
(lp2144
S':'
asbag48
(g69
g50
NtRp2145
(dp2146
g53
(dp2147
sg62
g2132
sg55
(lp2148
g48
(g49
g50
NtRp2149
(dp2150
g53
(dp2151
g61
I5
ssg62
g2145
sg55
(lp2152
S'datetime.datetime(2011, 11, 13, 19, 29, 4, 519000)'
p2153
asbasbasbag48
(g64
g50
NtRp2154
(dp2155
g53
(dp2156
sg62
g58
sg55
(lp2157
g48
(g69
g50
NtRp2158
(dp2159
g53
(dp2160
g73
g74
ssg62
g2154
sg55
(lp2161
S'post_vars'
p2162
asbag48
(g69
g50
NtRp2163
(dp2164
g53
(dp2165
g80
g81
ssg62
g2154
sg55
(lp2166
S':'
asbag48
(g69
g50
NtRp2167
(dp2168
g53
(dp2169
sg62
g2154
sg55
(lp2170
g48
(g49
g50
NtRp2171
(dp2172
g53
(dp2173
g61
I5
ssg62
g2167
sg55
(lp2174
g48
(g57
g50
NtRp2175
(dp2176
g53
(dp2177
g61
I4
ssg62
Nsg55
(lp2178
sbasbasbasbag48
(g64
g50
NtRp2179
(dp2180
g53
(dp2181
sg62
g58
sg55
(lp2182
g48
(g69
g50
NtRp2183
(dp2184
g53
(dp2185
g73
g74
ssg62
g2179
sg55
(lp2186
S'url'
p2187
asbag48
(g69
g50
NtRp2188
(dp2189
g53
(dp2190
g80
g81
ssg62
g2179
sg55
(lp2191
S':'
asbag48
(g69
g50
NtRp2192
(dp2193
g53
(dp2194
sg62
g2179
sg55
(lp2195
g48
(g49
g50
NtRp2196
(dp2197
g53
(dp2198
g61
I5
ssg62
g2192
sg55
(lp2199
S'/Casa_de_Apuestas/default/crearEvento'
p2200
asbasbasbag48
(g64
g50
NtRp2201
(dp2202
g53
(dp2203
sg62
g58
sg55
(lp2204
g48
(g69
g50
NtRp2205
(dp2206
g53
(dp2207
g73
g74
ssg62
g2201
sg55
(lp2208
S'utcnow'
p2209
asbag48
(g69
g50
NtRp2210
(dp2211
g53
(dp2212
g80
g81
ssg62
g2201
sg55
(lp2213
S':'
asbag48
(g69
g50
NtRp2214
(dp2215
g53
(dp2216
sg62
g2201
sg55
(lp2217
g48
(g49
g50
NtRp2218
(dp2219
g53
(dp2220
g61
I5
ssg62
g2214
sg55
(lp2221
S'datetime.datetime(2011, 11, 13, 23, 59, 4, 519000)'
p2222
asbasbasbag48
(g64
g50
NtRp2223
(dp2224
g53
(dp2225
sg62
g58
sg55
(lp2226
g48
(g69
g50
NtRp2227
(dp2228
g53
(dp2229
g73
g74
ssg62
g2223
sg55
(lp2230
S'uuid'
p2231
asbag48
(g69
g50
NtRp2232
(dp2233
g53
(dp2234
g80
g81
ssg62
g2223
sg55
(lp2235
S':'
asbag48
(g69
g50
NtRp2236
(dp2237
g53
(dp2238
sg62
g2223
sg55
(lp2239
g48
(g49
g50
NtRp2240
(dp2241
g53
(dp2242
g61
I5
ssg62
g2236
sg55
(lp2243
S'Casa_de_Apuestas/127.0.0.1.2011-11-13.19-29-04.426e71a5-45d2-48d6-9a67-39d32a192e2c'
p2244
asbasbasbag48
(g64
g50
NtRp2245
(dp2246
g53
(dp2247
sg62
g58
sg55
(lp2248
g48
(g69
g50
NtRp2249
(dp2250
g53
(dp2251
g73
g74
ssg62
g2245
sg55
(lp2252
S'vars'
p2253
asbag48
(g69
g50
NtRp2254
(dp2255
g53
(dp2256
g80
g81
ssg62
g2245
sg55
(lp2257
S':'
asbag48
(g69
g50
NtRp2258
(dp2259
g53
(dp2260
sg62
g2245
sg55
(lp2261
g48
(g49
g50
NtRp2262
(dp2263
g53
(dp2264
g61
I5
ssg62
g2258
sg55
(lp2265
g48
(g57
g50
NtRp2266
(dp2267
g53
(dp2268
g61
I4
ssg62
Nsg55
(lp2269
sbasbasbasbag48
(g64
g50
NtRp2270
(dp2271
g53
(dp2272
sg62
g58
sg55
(lp2273
g48
(g69
g50
NtRp2274
(dp2275
g53
(dp2276
g73
g74
ssg62
g2270
sg55
(lp2277
S'wsgi'
p2278
asbag48
(g69
g50
NtRp2279
(dp2280
g53
(dp2281
g80
g81
ssg62
g2270
sg55
(lp2282
S':'
asbag48
(g69
g50
NtRp2283
(dp2284
g53
(dp2285
sg62
g2270
sg55
(lp2286
g48
(g49
g50
NtRp2287
(dp2288
g53
(dp2289
g61
I5
ssg62
g2283
sg55
(lp2290
g48
(g57
g50
NtRp2291
(dp2292
g53
(dp2293
g61
I4
ssg62
Nsg55
(lp2294
g48
(g64
g50
NtRp2295
(dp2296
g53
(dp2297
sg62
g2291
sg55
(lp2298
g48
(g69
g50
NtRp2299
(dp2300
g53
(dp2301
g73
g74
ssg62
g2295
sg55
(lp2302
S'environ'
p2303
asbag48
(g69
g50
NtRp2304
(dp2305
g53
(dp2306
g80
g81
ssg62
g2295
sg55
(lp2307
S':'
asbag48
(g69
g50
NtRp2308
(dp2309
g53
(dp2310
sg62
g2295
sg55
(lp2311
g48
(g49
g50
NtRp2312
(dp2313
g53
(dp2314
g61
I4
ssg62
g2308
sg55
(lp2315
g48
(g57
g50
NtRp2316
(dp2317
g53
(dp2318
g61
I3
ssg62
Nsg55
(lp2319
g48
(g64
g50
NtRp2320
(dp2321
g53
(dp2322
sg62
g2316
sg55
(lp2323
g48
(g69
g50
NtRp2324
(dp2325
g53
(dp2326
g73
g74
ssg62
g2320
sg55
(lp2327
S'HTTP_ACCEPT'
p2328
asbag48
(g69
g50
NtRp2329
(dp2330
g53
(dp2331
g80
g81
ssg62
g2320
sg55
(lp2332
S':'
asbag48
(g69
g50
NtRp2333
(dp2334
g53
(dp2335
sg62
g2320
sg55
(lp2336
g48
(g49
g50
NtRp2337
(dp2338
g53
(dp2339
g61
I3
ssg62
g2333
sg55
(lp2340
g933
asbasbasbag48
(g64
g50
NtRp2341
(dp2342
g53
(dp2343
sg62
g2316
sg55
(lp2344
g48
(g69
g50
NtRp2345
(dp2346
g53
(dp2347
g73
g74
ssg62
g2341
sg55
(lp2348
S'HTTP_ACCEPT_CHARSET'
p2349
asbag48
(g69
g50
NtRp2350
(dp2351
g53
(dp2352
g80
g81
ssg62
g2341
sg55
(lp2353
S':'
asbag48
(g69
g50
NtRp2354
(dp2355
g53
(dp2356
sg62
g2341
sg55
(lp2357
g48
(g49
g50
NtRp2358
(dp2359
g53
(dp2360
g61
I3
ssg62
g2354
sg55
(lp2361
g955
asbasbasbag48
(g64
g50
NtRp2362
(dp2363
g53
(dp2364
sg62
g2316
sg55
(lp2365
g48
(g69
g50
NtRp2366
(dp2367
g53
(dp2368
g73
g74
ssg62
g2362
sg55
(lp2369
S'HTTP_ACCEPT_ENCODING'
p2370
asbag48
(g69
g50
NtRp2371
(dp2372
g53
(dp2373
g80
g81
ssg62
g2362
sg55
(lp2374
S':'
asbag48
(g69
g50
NtRp2375
(dp2376
g53
(dp2377
sg62
g2362
sg55
(lp2378
g48
(g49
g50
NtRp2379
(dp2380
g53
(dp2381
g61
I3
ssg62
g2375
sg55
(lp2382
g977
asbasbasbag48
(g64
g50
NtRp2383
(dp2384
g53
(dp2385
sg62
g2316
sg55
(lp2386
g48
(g69
g50
NtRp2387
(dp2388
g53
(dp2389
g73
g74
ssg62
g2383
sg55
(lp2390
S'HTTP_ACCEPT_LANGUAGE'
p2391
asbag48
(g69
g50
NtRp2392
(dp2393
g53
(dp2394
g80
g81
ssg62
g2383
sg55
(lp2395
S':'
asbag48
(g69
g50
NtRp2396
(dp2397
g53
(dp2398
sg62
g2383
sg55
(lp2399
g48
(g49
g50
NtRp2400
(dp2401
g53
(dp2402
g61
I3
ssg62
g2396
sg55
(lp2403
g999
asbasbasbag48
(g64
g50
NtRp2404
(dp2405
g53
(dp2406
sg62
g2316
sg55
(lp2407
g48
(g69
g50
NtRp2408
(dp2409
g53
(dp2410
g73
g74
ssg62
g2404
sg55
(lp2411
S'HTTP_CACHE_CONTROL'
p2412
asbag48
(g69
g50
NtRp2413
(dp2414
g53
(dp2415
g80
g81
ssg62
g2404
sg55
(lp2416
S':'
asbag48
(g69
g50
NtRp2417
(dp2418
g53
(dp2419
sg62
g2404
sg55
(lp2420
g48
(g49
g50
NtRp2421
(dp2422
g53
(dp2423
g61
I3
ssg62
g2417
sg55
(lp2424
g1021
asbasbasbag48
(g64
g50
NtRp2425
(dp2426
g53
(dp2427
sg62
g2316
sg55
(lp2428
g48
(g69
g50
NtRp2429
(dp2430
g53
(dp2431
g73
g74
ssg62
g2425
sg55
(lp2432
S'HTTP_CONNECTION'
p2433
asbag48
(g69
g50
NtRp2434
(dp2435
g53
(dp2436
g80
g81
ssg62
g2425
sg55
(lp2437
S':'
asbag48
(g69
g50
NtRp2438
(dp2439
g53
(dp2440
sg62
g2425
sg55
(lp2441
g48
(g49
g50
NtRp2442
(dp2443
g53
(dp2444
g61
I3
ssg62
g2438
sg55
(lp2445
g1043
asbasbasbag48
(g64
g50
NtRp2446
(dp2447
g53
(dp2448
sg62
g2316
sg55
(lp2449
g48
(g69
g50
NtRp2450
(dp2451
g53
(dp2452
g73
g74
ssg62
g2446
sg55
(lp2453
S'HTTP_COOKIE'
p2454
asbag48
(g69
g50
NtRp2455
(dp2456
g53
(dp2457
g80
g81
ssg62
g2446
sg55
(lp2458
S':'
asbag48
(g69
g50
NtRp2459
(dp2460
g53
(dp2461
sg62
g2446
sg55
(lp2462
g48
(g49
g50
NtRp2463
(dp2464
g53
(dp2465
g61
I3
ssg62
g2459
sg55
(lp2466
g1065
asbasbasbag48
(g64
g50
NtRp2467
(dp2468
g53
(dp2469
sg62
g2316
sg55
(lp2470
g48
(g69
g50
NtRp2471
(dp2472
g53
(dp2473
g73
g74
ssg62
g2467
sg55
(lp2474
S'HTTP_HOST'
p2475
asbag48
(g69
g50
NtRp2476
(dp2477
g53
(dp2478
g80
g81
ssg62
g2467
sg55
(lp2479
S':'
asbag48
(g69
g50
NtRp2480
(dp2481
g53
(dp2482
sg62
g2467
sg55
(lp2483
g48
(g49
g50
NtRp2484
(dp2485
g53
(dp2486
g61
I3
ssg62
g2480
sg55
(lp2487
g1087
asbasbasbag48
(g64
g50
NtRp2488
(dp2489
g53
(dp2490
sg62
g2316
sg55
(lp2491
g48
(g69
g50
NtRp2492
(dp2493
g53
(dp2494
g73
g74
ssg62
g2488
sg55
(lp2495
S'HTTP_USER_AGENT'
p2496
asbag48
(g69
g50
NtRp2497
(dp2498
g53
(dp2499
g80
g81
ssg62
g2488
sg55
(lp2500
S':'
asbag48
(g69
g50
NtRp2501
(dp2502
g53
(dp2503
sg62
g2488
sg55
(lp2504
g48
(g49
g50
NtRp2505
(dp2506
g53
(dp2507
g61
I3
ssg62
g2501
sg55
(lp2508
g1109
asbasbasbag48
(g64
g50
NtRp2509
(dp2510
g53
(dp2511
sg62
g2316
sg55
(lp2512
g48
(g69
g50
NtRp2513
(dp2514
g53
(dp2515
g73
g74
ssg62
g2509
sg55
(lp2516
S'PATH_INFO'
p2517
asbag48
(g69
g50
NtRp2518
(dp2519
g53
(dp2520
g80
g81
ssg62
g2509
sg55
(lp2521
S':'
asbag48
(g69
g50
NtRp2522
(dp2523
g53
(dp2524
sg62
g2509
sg55
(lp2525
g48
(g49
g50
NtRp2526
(dp2527
g53
(dp2528
g61
I3
ssg62
g2522
sg55
(lp2529
g1152
asbasbasbag48
(g64
g50
NtRp2530
(dp2531
g53
(dp2532
sg62
g2316
sg55
(lp2533
g48
(g69
g50
NtRp2534
(dp2535
g53
(dp2536
g73
g74
ssg62
g2530
sg55
(lp2537
S'QUERY_STRING'
p2538
asbag48
(g69
g50
NtRp2539
(dp2540
g53
(dp2541
g80
g81
ssg62
g2530
sg55
(lp2542
S':'
asbag48
(g69
g50
NtRp2543
(dp2544
g53
(dp2545
sg62
g2530
sg55
(lp2546
g48
(g49
g50
NtRp2547
(dp2548
g53
(dp2549
g61
I3
ssg62
g2543
sg55
(lp2550
S''
asbasbasbag48
(g64
g50
NtRp2551
(dp2552
g53
(dp2553
sg62
g2316
sg55
(lp2554
g48
(g69
g50
NtRp2555
(dp2556
g53
(dp2557
g73
g74
ssg62
g2551
sg55
(lp2558
S'REMOTE_ADDR'
p2559
asbag48
(g69
g50
NtRp2560
(dp2561
g53
(dp2562
g80
g81
ssg62
g2551
sg55
(lp2563
S':'
asbag48
(g69
g50
NtRp2564
(dp2565
g53
(dp2566
sg62
g2551
sg55
(lp2567
g48
(g49
g50
NtRp2568
(dp2569
g53
(dp2570
g61
I3
ssg62
g2564
sg55
(lp2571
g181
asbasbasbag48
(g64
g50
NtRp2572
(dp2573
g53
(dp2574
sg62
g2316
sg55
(lp2575
g48
(g69
g50
NtRp2576
(dp2577
g53
(dp2578
g73
g74
ssg62
g2572
sg55
(lp2579
S'REMOTE_PORT'
p2580
asbag48
(g69
g50
NtRp2581
(dp2582
g53
(dp2583
g80
g81
ssg62
g2572
sg55
(lp2584
S':'
asbag48
(g69
g50
NtRp2585
(dp2586
g53
(dp2587
sg62
g2572
sg55
(lp2588
g48
(g49
g50
NtRp2589
(dp2590
g53
(dp2591
g61
I3
ssg62
g2585
sg55
(lp2592
g1216
asbasbasbag48
(g64
g50
NtRp2593
(dp2594
g53
(dp2595
sg62
g2316
sg55
(lp2596
g48
(g69
g50
NtRp2597
(dp2598
g53
(dp2599
g73
g74
ssg62
g2593
sg55
(lp2600
S'REQUEST_METHOD'
p2601
asbag48
(g69
g50
NtRp2602
(dp2603
g53
(dp2604
g80
g81
ssg62
g2593
sg55
(lp2605
S':'
asbag48
(g69
g50
NtRp2606
(dp2607
g53
(dp2608
sg62
g2593
sg55
(lp2609
g48
(g49
g50
NtRp2610
(dp2611
g53
(dp2612
g61
I3
ssg62
g2606
sg55
(lp2613
g1238
asbasbasbag48
(g64
g50
NtRp2614
(dp2615
g53
(dp2616
sg62
g2316
sg55
(lp2617
g48
(g69
g50
NtRp2618
(dp2619
g53
(dp2620
g73
g74
ssg62
g2614
sg55
(lp2621
S'SCRIPT_NAME'
p2622
asbag48
(g69
g50
NtRp2623
(dp2624
g53
(dp2625
g80
g81
ssg62
g2614
sg55
(lp2626
S':'
asbag48
(g69
g50
NtRp2627
(dp2628
g53
(dp2629
sg62
g2614
sg55
(lp2630
g48
(g49
g50
NtRp2631
(dp2632
g53
(dp2633
g61
I3
ssg62
g2627
sg55
(lp2634
S''
asbasbasbag48
(g64
g50
NtRp2635
(dp2636
g53
(dp2637
sg62
g2316
sg55
(lp2638
g48
(g69
g50
NtRp2639
(dp2640
g53
(dp2641
g73
g74
ssg62
g2635
sg55
(lp2642
S'SERVER_NAME'
p2643
asbag48
(g69
g50
NtRp2644
(dp2645
g53
(dp2646
g80
g81
ssg62
g2635
sg55
(lp2647
S':'
asbag48
(g69
g50
NtRp2648
(dp2649
g53
(dp2650
sg62
g2635
sg55
(lp2651
g48
(g49
g50
NtRp2652
(dp2653
g53
(dp2654
g61
I3
ssg62
g2648
sg55
(lp2655
g1281
asbasbasbag48
(g64
g50
NtRp2656
(dp2657
g53
(dp2658
sg62
g2316
sg55
(lp2659
g48
(g69
g50
NtRp2660
(dp2661
g53
(dp2662
g73
g74
ssg62
g2656
sg55
(lp2663
S'SERVER_PORT'
p2664
asbag48
(g69
g50
NtRp2665
(dp2666
g53
(dp2667
g80
g81
ssg62
g2656
sg55
(lp2668
S':'
asbag48
(g69
g50
NtRp2669
(dp2670
g53
(dp2671
sg62
g2656
sg55
(lp2672
g48
(g49
g50
NtRp2673
(dp2674
g53
(dp2675
g61
I3
ssg62
g2669
sg55
(lp2676
g1303
asbasbasbag48
(g64
g50
NtRp2677
(dp2678
g53
(dp2679
sg62
g2316
sg55
(lp2680
g48
(g69
g50
NtRp2681
(dp2682
g53
(dp2683
g73
g74
ssg62
g2677
sg55
(lp2684
S'SERVER_PROTOCOL'
p2685
asbag48
(g69
g50
NtRp2686
(dp2687
g53
(dp2688
g80
g81
ssg62
g2677
sg55
(lp2689
S':'
asbag48
(g69
g50
NtRp2690
(dp2691
g53
(dp2692
sg62
g2677
sg55
(lp2693
g48
(g49
g50
NtRp2694
(dp2695
g53
(dp2696
g61
I3
ssg62
g2690
sg55
(lp2697
g1325
asbasbasbag48
(g64
g50
NtRp2698
(dp2699
g53
(dp2700
sg62
g2316
sg55
(lp2701
g48
(g69
g50
NtRp2702
(dp2703
g53
(dp2704
g73
g74
ssg62
g2698
sg55
(lp2705
S'SERVER_SOFTWARE'
p2706
asbag48
(g69
g50
NtRp2707
(dp2708
g53
(dp2709
g80
g81
ssg62
g2698
sg55
(lp2710
S':'
asbag48
(g69
g50
NtRp2711
(dp2712
g53
(dp2713
sg62
g2698
sg55
(lp2714
g48
(g49
g50
NtRp2715
(dp2716
g53
(dp2717
g61
I3
ssg62
g2711
sg55
(lp2718
g1347
asbasbasbag48
(g64
g50
NtRp2719
(dp2720
g53
(dp2721
sg62
g2316
sg55
(lp2722
g48
(g69
g50
NtRp2723
(dp2724
g53
(dp2725
g73
g74
ssg62
g2719
sg55
(lp2726
S'wsgi.errors'
p2727
asbag48
(g69
g50
NtRp2728
(dp2729
g53
(dp2730
g80
g81
ssg62
g2719
sg55
(lp2731
S':'
asbag48
(g69
g50
NtRp2732
(dp2733
g53
(dp2734
sg62
g2719
sg55
(lp2735
g48
(g49
g50
NtRp2736
(dp2737
g53
(dp2738
g61
I3
ssg62
g2732
sg55
(lp2739
S"<open file '<stderr>', mode 'w' at 0x014B00B0>"
p2740
asbasbasbag48
(g64
g50
NtRp2741
(dp2742
g53
(dp2743
sg62
g2316
sg55
(lp2744
g48
(g69
g50
NtRp2745
(dp2746
g53
(dp2747
g73
g74
ssg62
g2741
sg55
(lp2748
S'wsgi.file_wrapper'
p2749
asbag48
(g69
g50
NtRp2750
(dp2751
g53
(dp2752
g80
g81
ssg62
g2741
sg55
(lp2753
S':'
asbag48
(g69
g50
NtRp2754
(dp2755
g53
(dp2756
sg62
g2741
sg55
(lp2757
g48
(g49
g50
NtRp2758
(dp2759
g53
(dp2760
g61
I3
ssg62
g2754
sg55
(lp2761
S'<class wsgiref.util.FileWrapper at 0x02419AB0>'
p2762
asbasbasbag48
(g64
g50
NtRp2763
(dp2764
g53
(dp2765
sg62
g2316
sg55
(lp2766
g48
(g69
g50
NtRp2767
(dp2768
g53
(dp2769
g73
g74
ssg62
g2763
sg55
(lp2770
S'wsgi.input'
p2771
asbag48
(g69
g50
NtRp2772
(dp2773
g53
(dp2774
g80
g81
ssg62
g2763
sg55
(lp2775
S':'
asbag48
(g69
g50
NtRp2776
(dp2777
g53
(dp2778
sg62
g2763
sg55
(lp2779
g48
(g49
g50
NtRp2780
(dp2781
g53
(dp2782
g61
I3
ssg62
g2776
sg55
(lp2783
S'<cStringIO.StringO object at 0x06A23740>'
p2784
asbasbasbag48
(g64
g50
NtRp2785
(dp2786
g53
(dp2787
sg62
g2316
sg55
(lp2788
g48
(g69
g50
NtRp2789
(dp2790
g53
(dp2791
g73
g74
ssg62
g2785
sg55
(lp2792
S'wsgi.multiprocess'
p2793
asbag48
(g69
g50
NtRp2794
(dp2795
g53
(dp2796
g80
g81
ssg62
g2785
sg55
(lp2797
S':'
asbag48
(g69
g50
NtRp2798
(dp2799
g53
(dp2800
sg62
g2785
sg55
(lp2801
g48
(g49
g50
NtRp2802
(dp2803
g53
(dp2804
g61
I3
ssg62
g2798
sg55
(lp2805
g91
asbasbasbag48
(g64
g50
NtRp2806
(dp2807
g53
(dp2808
sg62
g2316
sg55
(lp2809
g48
(g69
g50
NtRp2810
(dp2811
g53
(dp2812
g73
g74
ssg62
g2806
sg55
(lp2813
S'wsgi.multithread'
p2814
asbag48
(g69
g50
NtRp2815
(dp2816
g53
(dp2817
g80
g81
ssg62
g2806
sg55
(lp2818
S':'
asbag48
(g69
g50
NtRp2819
(dp2820
g53
(dp2821
sg62
g2806
sg55
(lp2822
g48
(g49
g50
NtRp2823
(dp2824
g53
(dp2825
g61
I3
ssg62
g2819
sg55
(lp2826
g1587
asbasbasbag48
(g64
g50
NtRp2827
(dp2828
g53
(dp2829
sg62
g2316
sg55
(lp2830
g48
(g69
g50
NtRp2831
(dp2832
g53
(dp2833
g73
g74
ssg62
g2827
sg55
(lp2834
S'wsgi.run_once'
p2835
asbag48
(g69
g50
NtRp2836
(dp2837
g53
(dp2838
g80
g81
ssg62
g2827
sg55
(lp2839
S':'
asbag48
(g69
g50
NtRp2840
(dp2841
g53
(dp2842
sg62
g2827
sg55
(lp2843
g48
(g49
g50
NtRp2844
(dp2845
g53
(dp2846
g61
I3
ssg62
g2840
sg55
(lp2847
g91
asbasbasbag48
(g64
g50
NtRp2848
(dp2849
g53
(dp2850
sg62
g2316
sg55
(lp2851
g48
(g69
g50
NtRp2852
(dp2853
g53
(dp2854
g73
g74
ssg62
g2848
sg55
(lp2855
S'wsgi.url_scheme'
p2856
asbag48
(g69
g50
NtRp2857
(dp2858
g53
(dp2859
g80
g81
ssg62
g2848
sg55
(lp2860
S':'
asbag48
(g69
g50
NtRp2861
(dp2862
g53
(dp2863
sg62
g2848
sg55
(lp2864
g48
(g49
g50
NtRp2865
(dp2866
g53
(dp2867
g61
I3
ssg62
g2861
sg55
(lp2868
g1630
asbasbasbag48
(g64
g50
NtRp2869
(dp2870
g53
(dp2871
sg62
g2316
sg55
(lp2872
g48
(g69
g50
NtRp2873
(dp2874
g53
(dp2875
g73
g74
ssg62
g2869
sg55
(lp2876
S'wsgi.version'
p2877
asbag48
(g69
g50
NtRp2878
(dp2879
g53
(dp2880
g80
g81
ssg62
g2869
sg55
(lp2881
S':'
asbag48
(g69
g50
NtRp2882
(dp2883
g53
(dp2884
sg62
g2869
sg55
(lp2885
g48
(g49
g50
NtRp2886
(dp2887
g53
(dp2888
g61
I3
ssg62
g2882
sg55
(lp2889
S'1'
asbasbasbasbasbasbasbasbasbasbasbasbasbsS'frames'
p2890
(lp2891
(dp2892
S'file'
p2893
S'C:\\Python32\\web2py_win\\web2py\\gluon\\restricted.py'
p2894
sS'dump'
p2895
(dp2896
sS'lnum'
p2897
I194
sS'lines'
p2898
(dp2899
sS'call'
p2900
S'(code=\'response.write(\\\'<!DOCTYPE html PUBLIC "-//W3C//D...</div>\\\\r\\\\n </body>\\\\r\\\\n</html>\\\\r\\\\n\\\', escape=False)\', environment={\'A\': <class \'gluon.html.A\'>, \'Auth\': <class \'gluon.tools.Auth\'>, \'B\': <class \'gluon.html.B\'>, \'BEAUTIFY\': <class \'gluon.html.BEAUTIFY\'>, \'BODY\': <class \'gluon.html.BODY\'>, \'BR\': <class \'gluon.html.BR\'>, \'BUTTON\': <class \'gluon.html.BUTTON\'>, \'CAT\': <class \'gluon.html.CAT\'>, \'CENTER\': <class \'gluon.html.CENTER\'>, \'CLEANUP\': <class \'gluon.validators.CLEANUP\'>, ...}, layer=r\'C:\\Python32\\web2py_win\\web2py\\applications\\Casa_de_Apuestas\\views\\default/crearEvento.html\')'
p2901
sS'func'
p2902
S'restricted'
p2903
sa(dp2904
g2893
S'C:\\Python32\\web2py_win\\web2py\\applications\\Casa_de_Apuestas\\views\\default\\crearEvento.html'
p2905
sg2895
(dp2906
sg2897
I34
sg2898
(dp2907
I32
S'cont = 0'
p2908
sI33
S"response.write('\\r\\n        ', escape=False)"
p2909
sI34
S'for cat in categorias:'
p2910
sI35
S"    response.write('\\r\\n        ', escape=False)"
p2911
sI36
S'    cont += 1'
p2912
sI37
S"    response.write(' \\r\\n        ', escape=False)"
p2913
sI38
S'    if (cont < 5):'
p2914
sI39
S"        response.write('\\r\\n        ', escape=False)"
p2915
sI40
S'        response.write(LI(A(cat.nombre, _href=URL("showCategoria", args=cat.id))))'
p2916
sI41
S"        response.write('\\r\\n        ', escape=False)"
p2917
sI42
S'        pass'
p2918
sI43
S"    response.write('\\r\\n        ', escape=False)"
p2919
sI44
S'else:'
p2920
sI25
S'except:pass'
p2921
sI26
S'response.write(\'\\r\\n\\r\\n  <!-- start header -->\\r\\n  <div id="header">\\r\\n   <div id="logo">\\r\\n    <h1>\\r\\n     Sistema de Gesti\\xc3\\xb3n 1.0\\r\\n    </h1>\\r\\n   </div>\\r\\n  </div>\\r\\n  <!-- end header -->\\r\\n  <!-- start page -->\\r\\n  <div id="page">\\r\\n   <!-- start content -->\\r\\n   <!-- end content -->\\r\\n   \', escape=False)'
p2922
sI27
S'response.write(\'\\r\\n<div id="content">\\r\\n    <div class="post greenbox">\\r\\n           <div class="title">\\r\\n                <h1>Insertar \', escape=False)'
p2923
sI28
S'response.write(response.title)'
p2924
sI29
S'response.write(\'</h1>\\r\\n           </div>\\r\\n           <div class="entry">\\r\\n                    \', escape=False)'
p2925
sI30
S'response.write(response.form)'
p2926
sI31
S'response.write(\'\\r\\n           </div>\\r\\n           <div class="btm" align="center">\\r\\n              <div class="l">\\r\\n                  <div class="r">\\r\\n                       <small>*Por favor llenar todos los campos solicitados</small>\\r\\n                  </div>\\r\\n              </div>\\r\\n           </div>\\r\\n     </div>\\r\\n</div>\\r\\n<!--<div id="sidebar">\\r\\n  <ul>\\r\\n    <li>\\r\\n      <h2>\\r\\n       Categorias Agregadas\\r\\n      </h2>\\r\\n      <ul align="center">\\r\\n        \', escape=False)'
p2927
ssg2900
S'()'
p2928
sg2902
S'<module>'
p2929
sasS'pyver'
p2930
S'Python 2.5.4: C:\\Python32\\web2py_win\\web2py\\web2py.exe'
p2931
sS'session'
p2932
g48
(g49
g50
NtRp2933
(dp2934
g53
(dp2935
sg55
(lp2936
g48
(g57
g50
NtRp2937
(dp2938
g53
(dp2939
g61
I5
ssg62
Nsg55
(lp2940
sbasbsS'etype'
p2941
S"<type 'exceptions.NameError'>"
p2942
sS'date'
p2943
S'Sun Nov 13 19:29:04 2011'
p2944
sS'response'
p2945
g48
(g49
g50
NtRp2946
(dp2947
g53
(dp2948
sg55
(lp2949
g48
(g57
g50
NtRp2950
(dp2951
g53
(dp2952
g61
I5
ssg62
Nsg55
(lp2953
g48
(g64
g50
NtRp2954
(dp2955
g53
(dp2956
sg62
g2950
sg55
(lp2957
g48
(g69
g50
NtRp2958
(dp2959
g53
(dp2960
g73
g74
ssg62
g2954
sg55
(lp2961
g146
asbag48
(g69
g50
NtRp2962
(dp2963
g53
(dp2964
g80
g81
ssg62
g2954
sg55
(lp2965
S':'
asbag48
(g69
g50
NtRp2966
(dp2967
g53
(dp2968
sg62
g2954
sg55
(lp2969
g48
(g49
g50
NtRp2970
(dp2971
g53
(dp2972
g61
I5
ssg62
g2966
sg55
(lp2973
S'<cStringIO.StringO object at 0x06A230C0>'
p2974
asbasbasbag48
(g64
g50
NtRp2975
(dp2976
g53
(dp2977
sg62
g2950
sg55
(lp2978
g48
(g69
g50
NtRp2979
(dp2980
g53
(dp2981
g73
g74
ssg62
g2975
sg55
(lp2982
g212
asbag48
(g69
g50
NtRp2983
(dp2984
g53
(dp2985
g80
g81
ssg62
g2975
sg55
(lp2986
S':'
asbag48
(g69
g50
NtRp2987
(dp2988
g53
(dp2989
sg62
g2975
sg55
(lp2990
g48
(g49
g50
NtRp2991
(dp2992
g53
(dp2993
g61
I5
ssg62
g2987
sg55
(lp2994
g48
(g57
g50
NtRp2995
(dp2996
g53
(dp2997
g61
I4
ssg62
Nsg55
(lp2998
g48
(g64
g50
NtRp2999
(dp3000
g53
(dp3001
sg62
g2995
sg55
(lp3002
g48
(g69
g50
NtRp3003
(dp3004
g53
(dp3005
g73
g74
ssg62
g2999
sg55
(lp3006
S'session_id_casa_de_apuestas'
p3007
asbag48
(g69
g50
NtRp3008
(dp3009
g53
(dp3010
g80
g81
ssg62
g2999
sg55
(lp3011
S':'
asbag48
(g69
g50
NtRp3012
(dp3013
g53
(dp3014
sg62
g2999
sg55
(lp3015
g48
(g49
g50
NtRp3016
(dp3017
g53
(dp3018
g61
I4
ssg62
g3012
sg55
(lp3019
g48
(g57
g50
NtRp3020
(dp3021
g53
(dp3022
g61
I3
ssg62
Nsg55
(lp3023
g48
(g64
g50
NtRp3024
(dp3025
g53
(dp3026
sg62
g3020
sg55
(lp3027
g48
(g69
g50
NtRp3028
(dp3029
g53
(dp3030
g73
g74
ssg62
g3024
sg55
(lp3031
g262
asbag48
(g69
g50
NtRp3032
(dp3033
g53
(dp3034
g80
g81
ssg62
g3024
sg55
(lp3035
S':'
asbag48
(g69
g50
NtRp3036
(dp3037
g53
(dp3038
sg62
g3024
sg55
(lp3039
g48
(g49
g50
NtRp3040
(dp3041
g53
(dp3042
g61
I3
ssg62
g3036
sg55
(lp3043
S''
asbasbasbag48
(g64
g50
NtRp3044
(dp3045
g53
(dp3046
sg62
g3020
sg55
(lp3047
g48
(g69
g50
NtRp3048
(dp3049
g53
(dp3050
g73
g74
ssg62
g3044
sg55
(lp3051
g283
asbag48
(g69
g50
NtRp3052
(dp3053
g53
(dp3054
g80
g81
ssg62
g3044
sg55
(lp3055
S':'
asbag48
(g69
g50
NtRp3056
(dp3057
g53
(dp3058
sg62
g3044
sg55
(lp3059
g48
(g49
g50
NtRp3060
(dp3061
g53
(dp3062
g61
I3
ssg62
g3056
sg55
(lp3063
S''
asbasbasbag48
(g64
g50
NtRp3064
(dp3065
g53
(dp3066
sg62
g3020
sg55
(lp3067
g48
(g69
g50
NtRp3068
(dp3069
g53
(dp3070
g73
g74
ssg62
g3064
sg55
(lp3071
g304
asbag48
(g69
g50
NtRp3072
(dp3073
g53
(dp3074
g80
g81
ssg62
g3064
sg55
(lp3075
S':'
asbag48
(g69
g50
NtRp3076
(dp3077
g53
(dp3078
sg62
g3064
sg55
(lp3079
g48
(g49
g50
NtRp3080
(dp3081
g53
(dp3082
g61
I3
ssg62
g3076
sg55
(lp3083
S''
asbasbasbag48
(g64
g50
NtRp3084
(dp3085
g53
(dp3086
sg62
g3020
sg55
(lp3087
g48
(g69
g50
NtRp3088
(dp3089
g53
(dp3090
g73
g74
ssg62
g3084
sg55
(lp3091
g325
asbag48
(g69
g50
NtRp3092
(dp3093
g53
(dp3094
g80
g81
ssg62
g3084
sg55
(lp3095
S':'
asbag48
(g69
g50
NtRp3096
(dp3097
g53
(dp3098
sg62
g3084
sg55
(lp3099
g48
(g49
g50
NtRp3100
(dp3101
g53
(dp3102
g61
I3
ssg62
g3096
sg55
(lp3103
S''
asbasbasbag48
(g64
g50
NtRp3104
(dp3105
g53
(dp3106
sg62
g3020
sg55
(lp3107
g48
(g69
g50
NtRp3108
(dp3109
g53
(dp3110
g73
g74
ssg62
g3104
sg55
(lp3111
g346
asbag48
(g69
g50
NtRp3112
(dp3113
g53
(dp3114
g80
g81
ssg62
g3104
sg55
(lp3115
S':'
asbag48
(g69
g50
NtRp3116
(dp3117
g53
(dp3118
sg62
g3104
sg55
(lp3119
g48
(g49
g50
NtRp3120
(dp3121
g53
(dp3122
g61
I3
ssg62
g3116
sg55
(lp3123
S'/'
asbasbasbag48
(g64
g50
NtRp3124
(dp3125
g53
(dp3126
sg62
g3020
sg55
(lp3127
g48
(g69
g50
NtRp3128
(dp3129
g53
(dp3130
g73
g74
ssg62
g3124
sg55
(lp3131
g367
asbag48
(g69
g50
NtRp3132
(dp3133
g53
(dp3134
g80
g81
ssg62
g3124
sg55
(lp3135
S':'
asbag48
(g69
g50
NtRp3136
(dp3137
g53
(dp3138
sg62
g3124
sg55
(lp3139
g48
(g49
g50
NtRp3140
(dp3141
g53
(dp3142
g61
I3
ssg62
g3136
sg55
(lp3143
S''
asbasbasbag48
(g64
g50
NtRp3144
(dp3145
g53
(dp3146
sg62
g3020
sg55
(lp3147
g48
(g69
g50
NtRp3148
(dp3149
g53
(dp3150
g73
g74
ssg62
g3144
sg55
(lp3151
g388
asbag48
(g69
g50
NtRp3152
(dp3153
g53
(dp3154
g80
g81
ssg62
g3144
sg55
(lp3155
S':'
asbag48
(g69
g50
NtRp3156
(dp3157
g53
(dp3158
sg62
g3144
sg55
(lp3159
g48
(g49
g50
NtRp3160
(dp3161
g53
(dp3162
g61
I3
ssg62
g3156
sg55
(lp3163
S''
asbasbasbasbasbasbasbasbasbasbasbag48
(g64
g50
NtRp3164
(dp3165
g53
(dp3166
sg62
g2950
sg55
(lp3167
g48
(g69
g50
NtRp3168
(dp3169
g53
(dp3170
g73
g74
ssg62
g3164
sg55
(lp3171
S'files'
p3172
asbag48
(g69
g50
NtRp3173
(dp3174
g53
(dp3175
g80
g81
ssg62
g3164
sg55
(lp3176
S':'
asbag48
(g69
g50
NtRp3177
(dp3178
g53
(dp3179
sg62
g3164
sg55
(lp3180
g48
(g49
g50
NtRp3181
(dp3182
g53
(dp3183
g61
I5
ssg62
g3177
sg55
(lp3184
g48
(g57
g50
NtRp3185
(dp3186
g53
(dp3187
g61
I4
ssg62
Nsg55
(lp3188
g48
(g64
g50
NtRp3189
(dp3190
g53
(dp3191
sg62
g3185
sg55
(lp3192
g48
(g69
g50
NtRp3193
(dp3194
g53
(dp3195
sg62
g3189
sg55
(lp3196
g48
(g49
g50
NtRp3197
(dp3198
g53
(dp3199
g61
I4
ssg62
g3193
sg55
(lp3200
S'/Casa_de_Apuestas/static/js/jquery.js'
p3201
asbasbasbag48
(g64
g50
NtRp3202
(dp3203
g53
(dp3204
sg62
g3185
sg55
(lp3205
g48
(g69
g50
NtRp3206
(dp3207
g53
(dp3208
sg62
g3202
sg55
(lp3209
g48
(g49
g50
NtRp3210
(dp3211
g53
(dp3212
g61
I4
ssg62
g3206
sg55
(lp3213
S'/Casa_de_Apuestas/static/css/anytime.css'
p3214
asbasbasbag48
(g64
g50
NtRp3215
(dp3216
g53
(dp3217
sg62
g3185
sg55
(lp3218
g48
(g69
g50
NtRp3219
(dp3220
g53
(dp3221
sg62
g3215
sg55
(lp3222
g48
(g49
g50
NtRp3223
(dp3224
g53
(dp3225
g61
I4
ssg62
g3219
sg55
(lp3226
S'/Casa_de_Apuestas/static/js/anytime.js'
p3227
asbasbasbag48
(g64
g50
NtRp3228
(dp3229
g53
(dp3230
sg62
g3185
sg55
(lp3231
g48
(g69
g50
NtRp3232
(dp3233
g53
(dp3234
sg62
g3228
sg55
(lp3235
g48
(g49
g50
NtRp3236
(dp3237
g53
(dp3238
g61
I4
ssg62
g3232
sg55
(lp3239
S'/Casa_de_Apuestas/static/plugin_layouts/layouts/Balanced/default.css'
p3240
asbasbasbag48
(g64
g50
NtRp3241
(dp3242
g53
(dp3243
sg62
g3185
sg55
(lp3244
g48
(g69
g50
NtRp3245
(dp3246
g53
(dp3247
sg62
g3241
sg55
(lp3248
g48
(g49
g50
NtRp3249
(dp3250
g53
(dp3251
g61
I4
ssg62
g3245
sg55
(lp3252
S'/Casa_de_Apuestas/static/plugin_layouts/superfish.js'
p3253
asbasbasbasbasbasbasbag48
(g64
g50
NtRp3254
(dp3255
g53
(dp3256
sg62
g2950
sg55
(lp3257
g48
(g69
g50
NtRp3258
(dp3259
g53
(dp3260
g73
g74
ssg62
g3254
sg55
(lp3261
S'flash'
p3262
asbag48
(g69
g50
NtRp3263
(dp3264
g53
(dp3265
g80
g81
ssg62
g3254
sg55
(lp3266
S':'
asbag48
(g69
g50
NtRp3267
(dp3268
g53
(dp3269
sg62
g3254
sg55
(lp3270
g48
(g49
g50
NtRp3271
(dp3272
g53
(dp3273
g61
I5
ssg62
g3267
sg55
(lp3274
S''
asbasbasbag48
(g64
g50
NtRp3275
(dp3276
g53
(dp3277
sg62
g2950
sg55
(lp3278
g48
(g69
g50
NtRp3279
(dp3280
g53
(dp3281
g73
g74
ssg62
g3275
sg55
(lp3282
S'generic_patterns'
p3283
asbag48
(g69
g50
NtRp3284
(dp3285
g53
(dp3286
g80
g81
ssg62
g3275
sg55
(lp3287
S':'
asbag48
(g69
g50
NtRp3288
(dp3289
g53
(dp3290
sg62
g3275
sg55
(lp3291
g48
(g49
g50
NtRp3292
(dp3293
g53
(dp3294
g61
I5
ssg62
g3288
sg55
(lp3295
g48
(g57
g50
NtRp3296
(dp3297
g53
(dp3298
g61
I4
ssg62
Nsg55
(lp3299
g48
(g64
g50
NtRp3300
(dp3301
g53
(dp3302
sg62
g3296
sg55
(lp3303
g48
(g69
g50
NtRp3304
(dp3305
g53
(dp3306
sg62
g3300
sg55
(lp3307
g48
(g49
g50
NtRp3308
(dp3309
g53
(dp3310
g61
I4
ssg62
g3304
sg55
(lp3311
S'*'
asbasbasbasbasbasbasbag48
(g64
g50
NtRp3312
(dp3313
g53
(dp3314
sg62
g2950
sg55
(lp3315
g48
(g69
g50
NtRp3316
(dp3317
g53
(dp3318
g73
g74
ssg62
g3312
sg55
(lp3319
S'headers'
p3320
asbag48
(g69
g50
NtRp3321
(dp3322
g53
(dp3323
g80
g81
ssg62
g3312
sg55
(lp3324
S':'
asbag48
(g69
g50
NtRp3325
(dp3326
g53
(dp3327
sg62
g3312
sg55
(lp3328
g48
(g49
g50
NtRp3329
(dp3330
g53
(dp3331
g61
I5
ssg62
g3325
sg55
(lp3332
g48
(g57
g50
NtRp3333
(dp3334
g53
(dp3335
g61
I4
ssg62
Nsg55
(lp3336
g48
(g64
g50
NtRp3337
(dp3338
g53
(dp3339
sg62
g3333
sg55
(lp3340
g48
(g69
g50
NtRp3341
(dp3342
g53
(dp3343
g73
g74
ssg62
g3337
sg55
(lp3344
S'Cache-Control'
p3345
asbag48
(g69
g50
NtRp3346
(dp3347
g53
(dp3348
g80
g81
ssg62
g3337
sg55
(lp3349
S':'
asbag48
(g69
g50
NtRp3350
(dp3351
g53
(dp3352
sg62
g3337
sg55
(lp3353
g48
(g49
g50
NtRp3354
(dp3355
g53
(dp3356
g61
I4
ssg62
g3350
sg55
(lp3357
S'no-store, no-cache, must-revalidate, post-check=0, pre-check=0'
p3358
asbasbasbag48
(g64
g50
NtRp3359
(dp3360
g53
(dp3361
sg62
g3333
sg55
(lp3362
g48
(g69
g50
NtRp3363
(dp3364
g53
(dp3365
g73
g74
ssg62
g3359
sg55
(lp3366
S'Content-Type'
p3367
asbag48
(g69
g50
NtRp3368
(dp3369
g53
(dp3370
g80
g81
ssg62
g3359
sg55
(lp3371
S':'
asbag48
(g69
g50
NtRp3372
(dp3373
g53
(dp3374
sg62
g3359
sg55
(lp3375
g48
(g49
g50
NtRp3376
(dp3377
g53
(dp3378
g61
I4
ssg62
g3372
sg55
(lp3379
S'text/html; charset=utf-8'
p3380
asbasbasbag48
(g64
g50
NtRp3381
(dp3382
g53
(dp3383
sg62
g3333
sg55
(lp3384
g48
(g69
g50
NtRp3385
(dp3386
g53
(dp3387
g73
g74
ssg62
g3381
sg55
(lp3388
S'Expires'
p3389
asbag48
(g69
g50
NtRp3390
(dp3391
g53
(dp3392
g80
g81
ssg62
g3381
sg55
(lp3393
S':'
asbag48
(g69
g50
NtRp3394
(dp3395
g53
(dp3396
sg62
g3381
sg55
(lp3397
g48
(g49
g50
NtRp3398
(dp3399
g53
(dp3400
g61
I4
ssg62
g3394
sg55
(lp3401
S'Sun, 13 Nov 2011 23:59:04 GMT'
p3402
asbasbasbag48
(g64
g50
NtRp3403
(dp3404
g53
(dp3405
sg62
g3333
sg55
(lp3406
g48
(g69
g50
NtRp3407
(dp3408
g53
(dp3409
g73
g74
ssg62
g3403
sg55
(lp3410
S'Pragma'
p3411
asbag48
(g69
g50
NtRp3412
(dp3413
g53
(dp3414
g80
g81
ssg62
g3403
sg55
(lp3415
S':'
asbag48
(g69
g50
NtRp3416
(dp3417
g53
(dp3418
sg62
g3403
sg55
(lp3419
g48
(g49
g50
NtRp3420
(dp3421
g53
(dp3422
g61
I4
ssg62
g3416
sg55
(lp3423
S'no-cache'
p3424
asbasbasbag48
(g64
g50
NtRp3425
(dp3426
g53
(dp3427
sg62
g3333
sg55
(lp3428
g48
(g69
g50
NtRp3429
(dp3430
g53
(dp3431
g73
g74
ssg62
g3425
sg55
(lp3432
S'X-Powered-By'
p3433
asbag48
(g69
g50
NtRp3434
(dp3435
g53
(dp3436
g80
g81
ssg62
g3425
sg55
(lp3437
S':'
asbag48
(g69
g50
NtRp3438
(dp3439
g53
(dp3440
sg62
g3425
sg55
(lp3441
g48
(g49
g50
NtRp3442
(dp3443
g53
(dp3444
g61
I4
ssg62
g3438
sg55
(lp3445
S'web2py'
p3446
asbasbasbasbasbasbasbag48
(g64
g50
NtRp3447
(dp3448
g53
(dp3449
sg62
g2950
sg55
(lp3450
g48
(g69
g50
NtRp3451
(dp3452
g53
(dp3453
g73
g74
ssg62
g3447
sg55
(lp3454
S'menu'
p3455
asbag48
(g69
g50
NtRp3456
(dp3457
g53
(dp3458
g80
g81
ssg62
g3447
sg55
(lp3459
S':'
asbag48
(g69
g50
NtRp3460
(dp3461
g53
(dp3462
sg62
g3447
sg55
(lp3463
g48
(g49
g50
NtRp3464
(dp3465
g53
(dp3466
g61
I5
ssg62
g3460
sg55
(lp3467
g48
(g57
g50
NtRp3468
(dp3469
g53
(dp3470
g61
I4
ssg62
Nsg55
(lp3471
g48
(g64
g50
NtRp3472
(dp3473
g53
(dp3474
sg62
g3468
sg55
(lp3475
g48
(g69
g50
NtRp3476
(dp3477
g53
(dp3478
sg62
g3472
sg55
(lp3479
g48
(g49
g50
NtRp3480
(dp3481
g53
(dp3482
g61
I4
ssg62
g3476
sg55
(lp3483
g48
(g57
g50
NtRp3484
(dp3485
g53
(dp3486
g61
I3
ssg62
Nsg55
(lp3487
g48
(g64
g50
NtRp3488
(dp3489
g53
(dp3490
sg62
g3484
sg55
(lp3491
g48
(g69
g50
NtRp3492
(dp3493
g53
(dp3494
sg62
g3488
sg55
(lp3495
g48
(g49
g50
NtRp3496
(dp3497
g53
(dp3498
g61
I3
ssg62
g3492
sg55
(lp3499
cgluon.languages
lazyT_unpickle
p3500
(S's\x05\x00\x00\x00Index'
tRp3501
asbasbasbag48
(g64
g50
NtRp3502
(dp3503
g53
(dp3504
sg62
g3484
sg55
(lp3505
g48
(g69
g50
NtRp3506
(dp3507
g53
(dp3508
sg62
g3502
sg55
(lp3509
g48
(g49
g50
NtRp3510
(dp3511
g53
(dp3512
g61
I3
ssg62
g3506
sg55
(lp3513
g91
asbasbasbag48
(g64
g50
NtRp3514
(dp3515
g53
(dp3516
sg62
g3484
sg55
(lp3517
g48
(g69
g50
NtRp3518
(dp3519
g53
(dp3520
sg62
g3514
sg55
(lp3521
g48
(g49
g50
NtRp3522
(dp3523
g53
(dp3524
g61
I3
ssg62
g3518
sg55
(lp3525
S'/Casa_de_Apuestas/default/index'
p3526
asbasbasbag48
(g64
g50
NtRp3527
(dp3528
g53
(dp3529
sg62
g3484
sg55
(lp3530
g48
(g69
g50
NtRp3531
(dp3532
g53
(dp3533
sg62
g3527
sg55
(lp3534
g48
(g49
g50
NtRp3535
(dp3536
g53
(dp3537
g61
I3
ssg62
g3531
sg55
(lp3538
g48
(g57
g50
NtRp3539
(dp3540
g53
(dp3541
g61
I2
ssg62
Nsg55
(lp3542
sbasbasbasbasbasbasbasbasbasbasbasbag48
(g64
g50
NtRp3543
(dp3544
g53
(dp3545
sg62
g2950
sg55
(lp3546
g48
(g69
g50
NtRp3547
(dp3548
g53
(dp3549
g73
g74
ssg62
g3543
sg55
(lp3550
S'meta'
p3551
asbag48
(g69
g50
NtRp3552
(dp3553
g53
(dp3554
g80
g81
ssg62
g3543
sg55
(lp3555
S':'
asbag48
(g69
g50
NtRp3556
(dp3557
g53
(dp3558
sg62
g3543
sg55
(lp3559
g48
(g49
g50
NtRp3560
(dp3561
g53
(dp3562
g61
I5
ssg62
g3556
sg55
(lp3563
g48
(g57
g50
NtRp3564
(dp3565
g53
(dp3566
g61
I4
ssg62
Nsg55
(lp3567
g48
(g64
g50
NtRp3568
(dp3569
g53
(dp3570
sg62
g3564
sg55
(lp3571
g48
(g69
g50
NtRp3572
(dp3573
g53
(dp3574
g73
g74
ssg62
g3568
sg55
(lp3575
S'author'
p3576
asbag48
(g69
g50
NtRp3577
(dp3578
g53
(dp3579
g80
g81
ssg62
g3568
sg55
(lp3580
S':'
asbag48
(g69
g50
NtRp3581
(dp3582
g53
(dp3583
sg62
g3568
sg55
(lp3584
g48
(g49
g50
NtRp3585
(dp3586
g53
(dp3587
g61
I4
ssg62
g3581
sg55
(lp3588
S'JSG Systems <jsg@example.com>'
p3589
asbasbasbag48
(g64
g50
NtRp3590
(dp3591
g53
(dp3592
sg62
g3564
sg55
(lp3593
g48
(g69
g50
NtRp3594
(dp3595
g53
(dp3596
g73
g74
ssg62
g3590
sg55
(lp3597
S'description'
p3598
asbag48
(g69
g50
NtRp3599
(dp3600
g53
(dp3601
g80
g81
ssg62
g3590
sg55
(lp3602
S':'
asbag48
(g69
g50
NtRp3603
(dp3604
g53
(dp3605
sg62
g3590
sg55
(lp3606
g48
(g49
g50
NtRp3607
(dp3608
g53
(dp3609
g61
I4
ssg62
g3603
sg55
(lp3610
S''
asbasbasbag48
(g64
g50
NtRp3611
(dp3612
g53
(dp3613
sg62
g3564
sg55
(lp3614
g48
(g69
g50
NtRp3615
(dp3616
g53
(dp3617
g73
g74
ssg62
g3611
sg55
(lp3618
S'keywords'
p3619
asbag48
(g69
g50
NtRp3620
(dp3621
g53
(dp3622
g80
g81
ssg62
g3611
sg55
(lp3623
S':'
asbag48
(g69
g50
NtRp3624
(dp3625
g53
(dp3626
sg62
g3611
sg55
(lp3627
g48
(g49
g50
NtRp3628
(dp3629
g53
(dp3630
g61
I4
ssg62
g3624
sg55
(lp3631
S'casa, apuestas'
p3632
asbasbasbasbasbasbasbag48
(g64
g50
NtRp3633
(dp3634
g53
(dp3635
sg62
g2950
sg55
(lp3636
g48
(g69
g50
NtRp3637
(dp3638
g53
(dp3639
g73
g74
ssg62
g3633
sg55
(lp3640
S'postprocessing'
p3641
asbag48
(g69
g50
NtRp3642
(dp3643
g53
(dp3644
g80
g81
ssg62
g3633
sg55
(lp3645
S':'
asbag48
(g69
g50
NtRp3646
(dp3647
g53
(dp3648
sg62
g3633
sg55
(lp3649
g48
(g49
g50
NtRp3650
(dp3651
g53
(dp3652
g61
I5
ssg62
g3646
sg55
(lp3653
g48
(g57
g50
NtRp3654
(dp3655
g53
(dp3656
g61
I4
ssg62
Nsg55
(lp3657
sbasbasbasbag48
(g64
g50
NtRp3658
(dp3659
g53
(dp3660
sg62
g2950
sg55
(lp3661
g48
(g69
g50
NtRp3662
(dp3663
g53
(dp3664
g73
g74
ssg62
g3658
sg55
(lp3665
S'session_file'
p3666
asbag48
(g69
g50
NtRp3667
(dp3668
g53
(dp3669
g80
g81
ssg62
g3658
sg55
(lp3670
S':'
asbag48
(g69
g50
NtRp3671
(dp3672
g53
(dp3673
sg62
g3658
sg55
(lp3674
g48
(g49
g50
NtRp3675
(dp3676
g53
(dp3677
g61
I5
ssg62
g3671
sg55
(lp3678
S"<open file 'C:\\Python32\\web2py_win\\web2py\\applications\\Casa_de_Apuestas\\sessions\\127.0.0.1-ad3d7307-1e97-4b61-b85a-1916727dbc1e', mode 'rb+' at 0x066C0BA8>"
p3679
asbasbasbag48
(g64
g50
NtRp3680
(dp3681
g53
(dp3682
sg62
g2950
sg55
(lp3683
g48
(g69
g50
NtRp3684
(dp3685
g53
(dp3686
g73
g74
ssg62
g3680
sg55
(lp3687
S'session_filename'
p3688
asbag48
(g69
g50
NtRp3689
(dp3690
g53
(dp3691
g80
g81
ssg62
g3680
sg55
(lp3692
S':'
asbag48
(g69
g50
NtRp3693
(dp3694
g53
(dp3695
sg62
g3680
sg55
(lp3696
g48
(g49
g50
NtRp3697
(dp3698
g53
(dp3699
g61
I5
ssg62
g3693
sg55
(lp3700
S'C:\\Python32\\web2py_win\\web2py\\applications\\Casa_de_Apuestas\\sessions\\127.0.0.1-ad3d7307-1e97-4b61-b85a-1916727dbc1e'
p3701
asbasbasbag48
(g64
g50
NtRp3702
(dp3703
g53
(dp3704
sg62
g2950
sg55
(lp3705
g48
(g69
g50
NtRp3706
(dp3707
g53
(dp3708
g73
g74
ssg62
g3702
sg55
(lp3709
S'session_id'
p3710
asbag48
(g69
g50
NtRp3711
(dp3712
g53
(dp3713
g80
g81
ssg62
g3702
sg55
(lp3714
S':'
asbag48
(g69
g50
NtRp3715
(dp3716
g53
(dp3717
sg62
g3702
sg55
(lp3718
g48
(g49
g50
NtRp3719
(dp3720
g53
(dp3721
g61
I5
ssg62
g3715
sg55
(lp3722
S'127.0.0.1-ad3d7307-1e97-4b61-b85a-1916727dbc1e'
p3723
asbasbasbag48
(g64
g50
NtRp3724
(dp3725
g53
(dp3726
sg62
g2950
sg55
(lp3727
g48
(g69
g50
NtRp3728
(dp3729
g53
(dp3730
g73
g74
ssg62
g3724
sg55
(lp3731
S'session_id_name'
p3732
asbag48
(g69
g50
NtRp3733
(dp3734
g53
(dp3735
g80
g81
ssg62
g3724
sg55
(lp3736
S':'
asbag48
(g69
g50
NtRp3737
(dp3738
g53
(dp3739
sg62
g3724
sg55
(lp3740
g48
(g49
g50
NtRp3741
(dp3742
g53
(dp3743
g61
I5
ssg62
g3737
sg55
(lp3744
g3007
asbasbasbag48
(g64
g50
NtRp3745
(dp3746
g53
(dp3747
sg62
g2950
sg55
(lp3748
g48
(g69
g50
NtRp3749
(dp3750
g53
(dp3751
g73
g74
ssg62
g3745
sg55
(lp3752
S'session_locked'
p3753
asbag48
(g69
g50
NtRp3754
(dp3755
g53
(dp3756
g80
g81
ssg62
g3745
sg55
(lp3757
S':'
asbag48
(g69
g50
NtRp3758
(dp3759
g53
(dp3760
sg62
g3745
sg55
(lp3761
g48
(g49
g50
NtRp3762
(dp3763
g53
(dp3764
g61
I5
ssg62
g3758
sg55
(lp3765
g1587
asbasbasbag48
(g64
g50
NtRp3766
(dp3767
g53
(dp3768
sg62
g2950
sg55
(lp3769
g48
(g69
g50
NtRp3770
(dp3771
g53
(dp3772
g73
g74
ssg62
g3766
sg55
(lp3773
S'session_new'
p3774
asbag48
(g69
g50
NtRp3775
(dp3776
g53
(dp3777
g80
g81
ssg62
g3766
sg55
(lp3778
S':'
asbag48
(g69
g50
NtRp3779
(dp3780
g53
(dp3781
sg62
g3766
sg55
(lp3782
g48
(g49
g50
NtRp3783
(dp3784
g53
(dp3785
g61
I5
ssg62
g3779
sg55
(lp3786
g91
asbasbasbag48
(g64
g50
NtRp3787
(dp3788
g53
(dp3789
sg62
g2950
sg55
(lp3790
g48
(g69
g50
NtRp3791
(dp3792
g53
(dp3793
g73
g74
ssg62
g3787
sg55
(lp3794
S'status'
p3795
asbag48
(g69
g50
NtRp3796
(dp3797
g53
(dp3798
g80
g81
ssg62
g3787
sg55
(lp3799
S':'
asbag48
(g69
g50
NtRp3800
(dp3801
g53
(dp3802
sg62
g3787
sg55
(lp3803
g48
(g49
g50
NtRp3804
(dp3805
g53
(dp3806
g61
I5
ssg62
g3800
sg55
(lp3807
S'200'
p3808
asbasbasbag48
(g64
g50
NtRp3809
(dp3810
g53
(dp3811
sg62
g2950
sg55
(lp3812
g48
(g69
g50
NtRp3813
(dp3814
g53
(dp3815
g73
g74
ssg62
g3809
sg55
(lp3816
S'subtitle'
p3817
asbag48
(g69
g50
NtRp3818
(dp3819
g53
(dp3820
g80
g81
ssg62
g3809
sg55
(lp3821
S':'
asbag48
(g69
g50
NtRp3822
(dp3823
g53
(dp3824
sg62
g3809
sg55
(lp3825
g48
(g49
g50
NtRp3826
(dp3827
g53
(dp3828
g61
I5
ssg62
g3822
sg55
(lp3829
S''
asbasbasbag48
(g64
g50
NtRp3830
(dp3831
g53
(dp3832
sg62
g2950
sg55
(lp3833
g48
(g69
g50
NtRp3834
(dp3835
g53
(dp3836
g73
g74
ssg62
g3830
sg55
(lp3837
S'title'
p3838
asbag48
(g69
g50
NtRp3839
(dp3840
g53
(dp3841
g80
g81
ssg62
g3830
sg55
(lp3842
S':'
asbag48
(g69
g50
NtRp3843
(dp3844
g53
(dp3845
sg62
g3830
sg55
(lp3846
g48
(g49
g50
NtRp3847
(dp3848
g53
(dp3849
g61
I5
ssg62
g3843
sg55
(lp3850
S'Casa de Apuestas'
p3851
asbasbasbag48
(g64
g50
NtRp3852
(dp3853
g53
(dp3854
sg62
g2950
sg55
(lp3855
g48
(g69
g50
NtRp3856
(dp3857
g53
(dp3858
g73
g74
ssg62
g3852
sg55
(lp3859
g2231
asbag48
(g69
g50
NtRp3860
(dp3861
g53
(dp3862
g80
g81
ssg62
g3852
sg55
(lp3863
S':'
asbag48
(g69
g50
NtRp3864
(dp3865
g53
(dp3866
sg62
g3852
sg55
(lp3867
g48
(g49
g50
NtRp3868
(dp3869
g53
(dp3870
g61
I5
ssg62
g3864
sg55
(lp3871
g2244
asbasbasbag48
(g64
g50
NtRp3872
(dp3873
g53
(dp3874
sg62
g2950
sg55
(lp3875
g48
(g69
g50
NtRp3876
(dp3877
g53
(dp3878
g73
g74
ssg62
g3872
sg55
(lp3879
S'view'
p3880
asbag48
(g69
g50
NtRp3881
(dp3882
g53
(dp3883
g80
g81
ssg62
g3872
sg55
(lp3884
S':'
asbag48
(g69
g50
NtRp3885
(dp3886
g53
(dp3887
sg62
g3872
sg55
(lp3888
g48
(g49
g50
NtRp3889
(dp3890
g53
(dp3891
g61
I5
ssg62
g3885
sg55
(lp3892
S'default/crearEvento.html'
p3893
asbasbasbasbasbsS'locals'
p3894
(dp3895
S'Service'
p3896
S"<class 'gluon.tools.Service'>"
p3897
sS'OBJECT'
p3898
S"<class 'gluon.html.OBJECT'>"
p3899
sS'SQLDB'
p3900
S"<class 'gluon.dal.DAL'>"
p3901
sg2932
S"<Storage {'_formkey[eventos/None]': '1dae297e-ba...login]': '6369fd2a-d688-49f6-9c5f-956b3df23d84'}>"
p3902
sS'LINK'
p3903
S"<class 'gluon.html.LINK'>"
p3904
sS'BR'
p3905
S"<class 'gluon.html.BR'>"
p3906
sS'local_import'
p3907
S'<function <lambda> at 0x0653F4B0>'
p3908
sS'OPTGROUP'
p3909
S"<class 'gluon.html.OPTGROUP'>"
p3910
sS'PRE'
p3911
S"<class 'gluon.html.PRE'>"
p3912
sS'IS_INT_IN_RANGE'
p3913
S"<class 'gluon.validators.IS_INT_IN_RANGE'>"
p3914
sS'IS_LOWER'
p3915
S"<class 'gluon.validators.IS_LOWER'>"
p3916
sS'IS_STRONG'
p3917
S"<class 'gluon.validators.IS_STRONG'>"
p3918
sS'cache'
p3919
S'<gluon.cache.Cache object at 0x06A23B70>'
p3920
sS'IS_IN_DB'
p3921
S"<class 'gluon.validators.IS_IN_DB'>"
p3922
sS'TAG'
p3923
S'<gluon.html.__TAG__ object at 0x01D91770>'
p3924
sS'SQLField'
p3925
S"<class 'gluon.dal.Field'>"
p3926
sS'mail'
p3927
S'<gluon.tools.Mail object at 0x06B72D10>'
p3928
sS'BODY'
p3929
S"<class 'gluon.html.BODY'>"
p3930
sS'IS_DATE_IN_RANGE'
p3931
S"<class 'gluon.validators.IS_DATE_IN_RANGE'>"
p3932
sS'TH'
p3933
S"<class 'gluon.html.TH'>"
p3934
sS'URL'
p3935
S'<function URL at 0x01DE54B0>'
p3936
sS'__file__'
p3937
S"r'C:\\Python32\\web2py_win\\web2py\\applications\\Casa_de_Apuestas\\views\\default/crearEvento.html'"
p3938
sS'db'
p3939
S"<DAL {'auth_event': <Table {'origin': <gluon.dal...'_id': <gluon.dal.Field object at 0x064472B0>}>}>"
p3940
sS'auth'
p3941
S'<gluon.tools.Auth object at 0x06B72BF0>'
p3942
sS'P'
S"<class 'gluon.html.P'>"
p3943
sS'TFOOT'
p3944
S"<class 'gluon.html.TFOOT'>"
p3945
sS'XHTML'
p3946
S"<class 'gluon.html.XHTML'>"
p3947
sS'ON'
p3948
g1587
sS'OL'
p3949
S"<class 'gluon.html.OL'>"
p3950
sS'TEXTAREA'
p3951
S"<class 'gluon.html.TEXTAREA'>"
p3952
sS'settings'
p3953
S"<Storage {'layout_theme': 'Balanced', 'subtitle'...l_server': 'localhost', 'login_method': 'local'}>"
p3954
sS'MENU'
p3955
S"<class 'gluon.html.MENU'>"
p3956
sS'LOAD'
p3957
S'<gluon.compileapp.LoadFactory object at 0x06A23690>'
p3958
sS'CODE'
p3959
S"<class 'gluon.html.CODE'>"
p3960
sS'HTTP'
p3961
S"<class 'gluon.http.HTTP'>"
p3962
sS'HR'
p3963
S"<class 'gluon.html.HR'>"
p3964
sS'IS_DATETIME'
p3965
S"<class 'gluon.validators.IS_DATETIME'>"
p3966
sS'Storage'
p3967
S"<class 'gluon.storage.Storage'>"
p3968
sS'HEAD'
p3969
S"<class 'gluon.html.HEAD'>"
p3970
sS'LABEL'
p3971
S"<class 'gluon.html.LABEL'>"
p3972
sS'CLEANUP'
p3973
S"<class 'gluon.validators.CLEANUP'>"
p3974
sS'plugins'
p3975
S'<gluon.tools.PluginManager object at 0x062A5F90>'
p3976
sS'SELECT'
p3977
S"<class 'gluon.html.SELECT'>"
p3978
sS'use_janrain'
p3979
S'<function use_janrain at 0x027E50F0>'
p3980
sS'CENTER'
p3981
S"<class 'gluon.html.CENTER'>"
p3982
sS'prettydate'
p3983
S'<function prettydate at 0x0269E8B0>'
p3984
sS'Crud'
p3985
S"<class 'gluon.tools.Crud'>"
p3986
sS'Auth'
p3987
S"<class 'gluon.tools.Auth'>"
p3988
sS'__builtins__'
p3989
S"{'ArithmeticError': <type 'exceptions.ArithmeticError'>, 'AssertionError': <type 'exceptions.AssertionError'>, 'AttributeError': <type 'exceptions.AttributeError'>, 'BaseException': <type 'exceptions.BaseException'>, 'DeprecationWarning': <type 'exceptions.DeprecationWarning'>, 'EOFError': <type 'exceptions.EOFError'>, 'Ellipsis': Ellipsis, 'EnvironmentError': <type 'exceptions.EnvironmentError'>, 'Exception': <type 'exceptions.Exception'>, 'False': False, ...}"
p3990
sS'HTML'
p3991
S"<class 'gluon.html.HTML'>"
p3992
sS'SQLFORM'
p3993
S"<class 'gluon.sqlhtml.SQLFORM'>"
p3994
sS'EM'
p3995
S"<class 'gluon.html.EM'>"
p3996
sS'redirect'
p3997
S'<function redirect at 0x01A2A170>'
p3998
sS'FIELDSET'
p3999
S"<class 'gluon.html.FIELDSET'>"
p4000
sS'IS_EQUAL_TO'
p4001
S"<class 'gluon.validators.IS_EQUAL_TO'>"
p4002
sS'embed64'
p4003
S'<function embed64 at 0x01DE5FB0>'
p4004
sS'IS_LIST_OF'
p4005
S"<class 'gluon.validators.IS_LIST_OF'>"
p4006
sS'INPUT'
p4007
S"<class 'gluon.html.INPUT'>"
p4008
sS'EMBED'
p4009
S"<class 'gluon.html.EMBED'>"
p4010
sS'FORM'
p4011
S"<class 'gluon.html.FORM'>"
p4012
sS'H2'
p4013
S"<class 'gluon.html.H2'>"
p4014
sS'H3'
p4015
S"<class 'gluon.html.H3'>"
p4016
sS'BUTTON'
p4017
S"<class 'gluon.html.BUTTON'>"
p4018
sS'H1'
p4019
S"<class 'gluon.html.H1'>"
p4020
sS'H6'
p4021
S"<class 'gluon.html.H6'>"
p4022
sS'H4'
p4023
S"<class 'gluon.html.H4'>"
p4024
sS'H5'
p4025
S"<class 'gluon.html.H5'>"
p4026
sS'UL'
p4027
S"<class 'gluon.html.UL'>"
p4028
sS'IS_UPPER'
p4029
S"<class 'gluon.validators.IS_UPPER'>"
p4030
sS'xmlescape'
p4031
S'<function xmlescape at 0x01DE5470>'
p4032
sS'IS_TIME'
p4033
S"<class 'gluon.validators.IS_TIME'>"
p4034
sS'OPTION'
p4035
S"<class 'gluon.html.OPTION'>"
p4036
sS'TITLE'
p4037
S"<class 'gluon.html.TITLE'>"
p4038
sS'CRYPT'
p4039
S"<class 'gluon.validators.CRYPT'>"
p4040
sS'IS_EMPTY_OR'
p4041
S"<class 'gluon.validators.IS_EMPTY_OR'>"
p4042
sS'MARKMIN'
p4043
S"<class 'gluon.html.MARKMIN'>"
p4044
sS'cont'
p4045
S'0'
sS'COL'
p4046
S"<class 'gluon.html.COL'>"
p4047
sS'service'
p4048
S'<gluon.tools.Service object at 0x06B723F0>'
p4049
sS'SCRIPT'
p4050
S"<class 'gluon.html.SCRIPT'>"
p4051
sS'TABLE'
p4052
S"<class 'gluon.html.TABLE'>"
p4053
sS'IS_IPV4'
p4054
S"<class 'gluon.validators.IS_IPV4'>"
p4055
sS'IS_LENGTH'
p4056
S"<class 'gluon.validators.IS_LENGTH'>"
p4057
sS'XML'
p4058
S"<class 'gluon.html.XML'>"
p4059
sS'B'
S"<class 'gluon.html.B'>"
p4060
sS'form'
p4061
S'<gluon.sqlhtml.SQLFORM object at 0x063FE790>'
p4062
sS'SQLTABLE'
p4063
S"<class 'gluon.sqlhtml.SQLTABLE'>"
p4064
sS'IS_MATCH'
p4065
S"<class 'gluon.validators.IS_MATCH'>"
p4066
sS'IS_ALPHANUMERIC'
p4067
S"<class 'gluon.validators.IS_ALPHANUMERIC'>"
p4068
sS'SPAN'
p4069
S"<class 'gluon.html.SPAN'>"
p4070
sS'IS_SLUG'
p4071
S"<class 'gluon.validators.IS_SLUG'>"
p4072
sS'BEAUTIFY'
p4073
S"<class 'gluon.html.BEAUTIFY'>"
p4074
sS'META'
p4075
S"<class 'gluon.html.META'>"
p4076
sS'IS_DATE'
p4077
S"<class 'gluon.validators.IS_DATE'>"
p4078
sS'IS_EMAIL'
p4079
S"<class 'gluon.validators.IS_EMAIL'>"
p4080
sS'IS_NOT_EMPTY'
p4081
S"<class 'gluon.validators.IS_NOT_EMPTY'>"
p4082
sS'IS_FLOAT_IN_RANGE'
p4083
S"<class 'gluon.validators.IS_FLOAT_IN_RANGE'>"
p4084
sS'TBODY'
p4085
S"<class 'gluon.html.TBODY'>"
p4086
sS'CAT'
p4087
S"<class 'gluon.html.CAT'>"
p4088
sS'Field'
p4089
S"<class 'gluon.dal.Field'>"
p4090
sS'DIV'
p4091
S"<class 'gluon.html.DIV'>"
p4092
sS'LEGEND'
p4093
S"<class 'gluon.html.LEGEND'>"
p4094
sS'IMG'
p4095
S"<class 'gluon.html.IMG'>"
p4096
sS'COLGROUP'
p4097
S"<class 'gluon.html.COLGROUP'>"
p4098
sS'DAL'
p4099
S"<class 'gluon.dal.DAL'>"
p4100
sS'TT'
p4101
S"<class 'gluon.html.TT'>"
p4102
sS'TR'
p4103
S"<class 'gluon.html.TR'>"
p4104
sS'LI'
p4105
S"<class 'gluon.html.LI'>"
p4106
sS'IFRAME'
p4107
S"<class 'gluon.html.IFRAME'>"
p4108
sS'TD'
p4109
S"<class 'gluon.html.TD'>"
p4110
sS'PluginManager'
p4111
S"<class 'gluon.tools.PluginManager'>"
p4112
sS'IS_URL'
p4113
S"<class 'gluon.validators.IS_URL'>"
p4114
sS'A'
S"<class 'gluon.html.A'>"
p4115
sS'STYLE'
p4116
S"<class 'gluon.html.STYLE'>"
p4117
sS'IS_DATETIME_IN_RANGE'
p4118
S"<class 'gluon.validators.IS_DATETIME_IN_RANGE'>"
p4119
sS'IS_IMAGE'
p4120
S"<class 'gluon.validators.IS_IMAGE'>"
p4121
sS'I'
S"<class 'gluon.html.I'>"
p4122
sS'crud'
p4123
S'<gluon.tools.Crud object at 0x06B729F0>'
p4124
sS'IS_NOT_IN_DB'
p4125
S"<class 'gluon.validators.IS_NOT_IN_DB'>"
p4126
sg2945
S"<Storage {'body': <cStringIO.StringO object at 0...0x0653F7B0>, 'view': 'default/crearEvento.html'}>"
p4127
sS'THEAD'
p4128
S"<class 'gluon.html.THEAD'>"
p4129
sS'IS_NULL_OR'
p4130
S"<class 'gluon.validators.IS_EMPTY_OR'>"
p4131
sg47
S"<Storage {'body': <cStringIO.StringO object at 0..._vars': <Storage {}>, 'post_vars': <Storage {}>}>"
p4132
sS'IS_EXPR'
p4133
S"<class 'gluon.validators.IS_EXPR'>"
p4134
sS'T'
S'<gluon.languages.translator object at 0x06A23650>'
p4135
sS'IS_IN_SET'
p4136
S"<class 'gluon.validators.IS_IN_SET'>"
p4137
sS'IS_UPLOAD_FILENAME'
p4138
S"<class 'gluon.validators.IS_UPLOAD_FILENAME'>"
p4139
sS'IS_DECIMAL_IN_RANGE'
p4140
S"<class 'gluon.validators.IS_DECIMAL_IN_RANGE'>"
p4141
sssS'traceback'
p4142
S'Traceback (most recent call last):\n  File "gluon/restricted.py", line 194, in restricted\n  File "C:\\Python32\\web2py_win\\web2py\\applications\\Casa_de_Apuestas\\views\\default/crearEvento.html", line 34, in <module>\nNameError: name \'categorias\' is not defined\n'
p4143
s.