(dp1
S'output'
p2
S''
sS'layer'
p3
S'C:\\Python32\\web2py_win\\web2py\\applications\\Casa_de_Apuestas\\controllers/default.py'
p4
sS'code'
p5
S'# -*- coding: utf-8 -*-\n### required - do no delete\n"""\nEste Modulo corresponde al de controladores segun MVC, los metodos aqui contenidos\nson los encargados de invocar a las vistas, eso esta configurado en el framework\n"""\nfrom Servicio import *\nservice = Servicio(db, crud)\nfrom log import *\nlog = log()\n\ndef user(): return dict(form=auth())\ndef download(): return response.download(request,db)\ndef call(): return service()\n\n### end requires\n\n@auth.requires_login()\ndef index():\n    return dict()\n\ndef error():\n    return dict()\n\ndef maquinas():\n    form = crud.update(db.maquinas, request.args(0),next=URL(\'maquinas\'))\n    maquinas = db().select(db.maquinas.ALL)\n    coordenadas = False\n    if (request.args(0)):\n        for i, maquina in enumerate(maquinas):\n            if (i == request.args(0)):\n                break\n        coordenadas = dict(lon=maquina.longitud,lat=maquina.latitud)                    \n    return dict(form=form, maquinas=maquinas, coordenadas=coordenadas)\n\ndef crearCategoria():\n        categorias = db().select(db.categorias.ALL)\n        form = crud.create(db.categorias)\n        #if form.accepts(request.vars, formname=None):\n        if form.process().accepted:\n            db.commit()        \n            from log import *\n            log = log()\n            log.logear("Categoria creada: "+form.vars.nombre)\n        return response.render(dict(form=form, categorias=categorias))\n\ndef obtenerEvento():\n        if not request.vars.categoria:\n            return \'\'\n        patron = request.vars.categoria.capitalize() + \'%\'\n        seleccionado = [row.name for row in db(db.categorias.nombre.like(patron)).select()]\n        return \'\'.join([DIV(k,\n                     _onclick="jQuery(\'#categoria\').val(\'%s\')" % k,\n                     _onmouseover="this.style.backgroundColor=\'green\'",\n                     _onmouseout="this.style.backgroundColor=\'white\'"\n                     ).xml() for k in selected])\n\ndef crearEvento():\n        eventos = db().select(db.eventos.ALL)\n        form = crud.create(db.eventos)\n        #if form.accepts(request.vars, formname=None):\n        if form.process().accepted:\n            db.commit()        \n            from log import *\n            log = log()\n            log.logear("Evento creado: "+form.vars.nombre)\n        return response.render(dict(eventos=eventos))\n\ndef crearParticipante():\n        participantes = db().select(db.participantes.ALL)\n        form = crud.create(db.participantes)\n        #if form.accepts(request.vars, formname=None):\n        if form.process().accepted:\n            db.commit()        \n            from log import *\n            log = log()\n            log.logear("Participante creado: "+form.vars.nombre)\n        return response.render(dict(form=form,participantes=participantes))\n\ndef crearEventoParticipante():\n        eventosparticipantes = db().select(db.eventosparticipantes.ALL)\n        form = crud.create(db.eventosparticipantes)\n        #if form.accepts(request.vars, formname=None):\n        if form.process().accepted:\n            db.commit()        \n            from log import *\n            log = log()\n            log.logear("EventoParticipante creado: "+form.vars.nombre)\n        return response.render(dict(form=form,eventosparticipantes=eventosparticipantes))\n\ndef crearUsuario():\n        usuarios = db().select(db.auth_user.ALL)\n        form = crud.create(db.auth_user)\n        #if form.accepts(request.vars, formname=None):\n        if form.process().accepted:\n            db.commit()        \n            from log import *\n            log = log()\n            log.logear("Usuario creado: "+form.vars.nombre)\n        return response.render(dict(form=form,usuarios=usuarios))\n    \n\ndef mostrarCategoria():\n        categorias = db().select(db.categorias.ALL, orderby = db.categorias.id)\n        return response.render(dict(categorias = categorias))\n\ndef mostrarEvento():\n        eventos = db().select(db.eventos.ALL, orderby = db.eventos.id)\n        return response.render(dict(eventos = eventos))\n\ndef mostrarParticipante():\n        participantes = db().select(db.participantes.ALL, orderby = db.participantes.id)\n        return response.render(dict(participantes = participantes))\n\ndef mostrarEventosParticipantes():\n        eventosparticipantes = db().select(db.eventosparticipantes.ALL,orderby = db.eventosparticipantes.id)\n        return response.render(dict(eventosparticipantes= eventosparticipantes))\n    \ndef mostrarUsuario():\n        usuarios = db().select(db.auth_user.ALL, orderby = db.auth_user.id)\n        return response.render(dict(usuarios = usuarios))\n    \n    \n    \ndef showEvento():\n        form = crud.update(db.eventos, request.args(0),next = URL(\'mostrarEvento\'))\n        #if form.accepts(request.vars, formname=None):\n        if form.process().accepted:\n            db.commit()        \n            from log import *\n            log = log()\n            log.logear("Evento modificado: "+form.vars.nombre)           \n        return response.render(dict(form = form))\n\ndef showCategoria():\n        form =crud.update(db.categorias, request.args(0), next = URL(\'mostrarCategoria\'))\n        #if form.accepts(request.vars, formname=None):\n        if form.process().accepted:\n            db.commit()        \n            from log import *\n            log = log()\n            log.logear("Categoria modificada: "+form.vars.nombre)          \n        return response.render(dict(form = form))\n\ndef showParticipante():\n        form = crud.update(db.participantes, request.args(0),next = URL(\'mostrarParticipante\'))\n        #if form.accepts(request.vars, formname=None):\n        if form.process().accepted:\n            db.commit()        \n            from log import *\n            log = log()\n            log.logear("Participante modificado: "+form.vars.nombre)            \n        return response.render(dict(form = form)) \n\ndef showEventosParticipantes():\n    return service.showEventoParticipante(request)\n    \ndef showUsuario():\n        form = crud.update(db.auth_user, request.args(0), next = URL(\'mostrarUsuario\'))\n        #if form.accepts(request.vars, formname=None):\n        if form.process().accepted:\n            db.commit()        \n            from log import *\n            log = log()\n            log.logear("Usuario modificado: "+form.vars.nombre)           \n        return response.render(dict(form = form))\n\n\ndef verResultado1():\n    import datetime\n    fechaActual=datetime.datetime.now()\n    eventos =db(db.eventos.fecha <fechaActual).select()\n    return dict(eventos=eventos)\n        \ndef verResultado2():\n    resultados= db((db.resultados.eventos_id==request.args(0))& (db.resultados.participantes_id==db.participantes.id)).select()\n    evento=db(db.eventos.id==request.args(0)).select()\n    return dict(resultados=resultados,evento=evento)\n    \ndef mostrar():\n    from DAOCasadeApuestas import *\n    dao = DAOCasadeApuestas()\n    dao2 = DAOCasadeApuestas()\n    dao3 = DAOCasadeApuestas()\n    dao4 = DAOCasadeApuestas()\n    dao5 = DAOCasadeApuestas()\n    q = dao.generarArchivoActualizacionMD5(dao.generarMensajeMD5(db().select(db.eventos.ALL)), dao2.generarMensajeMD5(db().select(db.categorias.ALL)), dao3.generarMensajeMD5(db().select(db.participantes.ALL)), dao4.generarMensajeMD5(db().select(db.eventosparticipantes.ALL)), dao5.generarMensajeMD5(db().select(db.auth_user.ALL)))\n    s = dao.generarArchivoActualizacionXML(dao.generarFormatoXml(db().select(db.eventos.ALL)), dao2.generarFormatoXml(db().select(db.categorias.ALL)), dao3.generarFormatoXml(db().select(db.participantes.ALL)), dao4.generarFormatoXml(db().select(db.eventosparticipantes.ALL)), dao5.generarFormatoXml(db().select(db.auth_user.ALL)))\n    return response.render(dict(q = q, s = s))   \n    \ndef verProximosEventos1():\n    import datetime\n    fechaActual=datetime.datetime.now()\n    eventos =db(db.eventos.fecha>fechaActual).select()\n    return dict(eventos=eventos)\n    \ndef verProximosEventos2():\n    evento_participante= db((db.eventosparticipantes.eventos_id==request.args(0))& (db.participantes.id==db.eventosparticipantes.participantes_id)).select()\n    evento = db(db.eventos.id==request.args(0)).select()\n    categoria = db((db.categorias.id==db.eventos.categoria_id)& (db.eventos.id==request.args(0))).select()\n    return dict(evento_participante=evento_participante,evento=evento,categoria=categoria)\n    \ndef indexPublico():\n    return dict()\n\nresponse._vars=response._caller(crearEvento)\n'
p6
sS'snapshot'
p7
(dp8
S'exception'
p9
(dp10
S'load'
p11
S'<bound method RestrictedError.load of RestrictedError()>'
p12
sS'__module__'
p13
S"'gluon.restricted'"
p14
sg5
S'\'response.write(\\\'<!DOCTYPE html PUBLIC "-//W3C//D...</div>\\\\r\\\\n </body>\\\\r\\\\n</html>\\\\r\\\\n\\\', escape=False)\''
p15
sS'__getslice__'
p16
S"<method-wrapper '__getslice__' of RestrictedError object at 0x05DD8B20>"
p17
sS'__str__'
p18
S"<method-wrapper '__str__' of RestrictedError object at 0x05DD8B20>"
p19
sS'__reduce__'
p20
S'<built-in method __reduce__ of RestrictedError object at 0x05DD8B20>'
p21
sg3
S"r'C:\\Python32\\web2py_win\\web2py\\applications\\Casa_de_Apuestas\\views\\default/crearEvento.html'"
p22
sS'__dict__'
p23
S'{\'code\': \'response.write(\\\'<!DOCTYPE html PUBLIC "-//W3C//D...</div>\\\\r\\\\n </body>\\\\r\\\\n</html>\\\\r\\\\n\\\', escape=False)\', \'environment\': {\'A\': <class \'gluon.html.A\'>, \'Auth\': <class \'gluon.tools.Auth\'>, \'B\': <class \'gluon.html.B\'>, \'BEAUTIFY\': <class \'gluon.html.BEAUTIFY\'>, \'BODY\': <class \'gluon.html.BODY\'>, \'BR\': <class \'gluon.html.BR\'>, \'BUTTON\': <class \'gluon.html.BUTTON\'>, \'CAT\': <class \'gluon.html.CAT\'>, \'CENTER\': <class \'gluon.html.CENTER\'>, \'CLEANUP\': <class \'gluon.validators.CLEANUP\'>, ...}, \'layer\': r\'C:\\Python32\\web2py_win\\web2py\\applications\\Casa_de_Apuestas\\views\\default/crearEvento.html\', \'output\': \'\', \'snapshot\': {\'date\': \'Mon Dec 19 17:54:00 2011\', \'etype\': "<type \'exceptions.NameError\'>", \'evalue\': "name \'form\' is not defined", \'exception\': {\'__class__\': "<type \'exceptions.NameError\'>", \'__delattr__\': "<method-wrapper \'__delattr__\' of exceptions.NameError object at 0x05DD8B98>", \'__dict__\': \'{}\', \'__doc__\': "\'Name not found globally.\'", \'__getattribute__\': "<method-wrapper \'__getattribute__\' of exceptions.NameError object at 0x05DD8B98>", \'__getitem__\': "<method-wrapper \'__getitem__\' of exceptions.NameError object at 0x05DD8B98>", \'__getslice__\': "<method-wrapper \'__getslice__\' of exceptions.NameError object at 0x05DD8B98>", \'__hash__\': "<method-wrapper \'__hash__\' of exceptions.NameError object at 0x05DD8B98>", \'__init__\': "<method-wrapper \'__init__\' of exceptions.NameError object at 0x05DD8B98>", \'__new__\': \'<built-in method __new__ of type object at 0x1E1CD8D8>\', ...}, \'frames\': [{\'call\': \'(code=\\\'response.write(\\\\\\\'<!DOCTYPE html PUBLIC "-...Casa_de_Apuestas\\\\views\\\\default/crearEvento.html\\\')\', \'dump\': {}, \'file\': r\'C:\\Python32\\web2py_win\\web2py\\gluon\\restricted.py\', \'func\': \'restricted\', \'lines\': {}, \'lnum\': 194}, {\'call\': \'()\', \'dump\': {}, \'file\': r\'C:\\Python32\\web2py_win\\web2py\\applications\\Casa_de_Apuestas\\views\\default\\crearEvento.html\', \'func\': \'<module>\', \'lines\': {21: \'response.write(\\\'" type="text/javascript"></script>\\\\r\\\\n\\\', escape=False)\', 22: r"response.write(\'\\r\\n  <style>\\r\\nul.web2py-menu-...\\r\\n  <!-- start header -->\\r\\n  \', escape=False)", 23: \'try:\', 24: "    response.write(auth.navbar(action=URL(\'default\',\'user\')))", 25: \'except:pass\', 26: r"response.write(\'\\r\\n\\r\\n  <!-- start header -->\\...  <h1>\\r\\n                <small>\', escape=False)", 27: \'response.write(A(\\\'Sistema de Gesti\\xc3\\xb3n 1.0\\\', _href=URL("index")))\', 28: r"response.write(\'</small>     \\r\\n    </h1>\\r\\n  ...r\\n   <!-- end content -->\\r\\n   \', escape=False)", 29: \'response.write(\\\'\\\\r\\\\n<div id="content">\\\\r\\\\n    <d...="entry">\\\\r\\\\n                    \\\', escape=False)\', 30: \'response.write(form.custom.begin)\', ...}, \'lnum\': 30}], \'locals\': {\'A\': "<class \'gluon.html.A\'>", \'Auth\': "<class \'gluon.tools.Auth\'>", \'B\': "<class \'gluon.html.B\'>", \'BEAUTIFY\': "<class \'gluon.html.BEAUTIFY\'>", \'BODY\': "<class \'gluon.html.BODY\'>", \'BR\': "<class \'gluon.html.BR\'>", \'BUTTON\': "<class \'gluon.html.BUTTON\'>", \'CAT\': "<class \'gluon.html.CAT\'>", \'CENTER\': "<class \'gluon.html.CENTER\'>", \'CLEANUP\': "<class \'gluon.validators.CLEANUP\'>", ...}, \'pyver\': r\'Python 2.5.4: C:\\Python32\\web2py_win\\web2py\\web2py.exe\', \'request\': <gluon.html.BEAUTIFY object at 0x05E59650>, \'response\': <gluon.html.BEAUTIFY object at 0x05E59ED0>, \'session\': <gluon.html.BEAUTIFY object at 0x05E591F0>}, \'traceback\': \'Traceback (most recent call last):\\n  File "gluon...n <module>\\nNameError: name \\\'form\\\' is not defined\\n\'}'
p24
sS'__weakref__'
p25
S'None'
p26
sS'__init__'
p27
S'<bound method RestrictedError.__init__ of RestrictedError()>'
p28
sS'__setattr__'
p29
S"<method-wrapper '__setattr__' of RestrictedError object at 0x05DD8B20>"
p30
sS'__reduce_ex__'
p31
S'<built-in method __reduce_ex__ of RestrictedError object at 0x05DD8B20>'
p32
sS'__new__'
p33
S'<built-in method __new__ of type object at 0x1E1CCBE8>'
p34
sS'__class__'
p35
S"<class 'gluon.restricted.RestrictedError'>"
p36
sS'environment'
p37
S"{'A': <class 'gluon.html.A'>, 'Auth': <class 'gluon.tools.Auth'>, 'B': <class 'gluon.html.B'>, 'BEAUTIFY': <class 'gluon.html.BEAUTIFY'>, 'BODY': <class 'gluon.html.BODY'>, 'BR': <class 'gluon.html.BR'>, 'BUTTON': <class 'gluon.html.BUTTON'>, 'CAT': <class 'gluon.html.CAT'>, 'CENTER': <class 'gluon.html.CENTER'>, 'CLEANUP': <class 'gluon.validators.CLEANUP'>, ...}"
p38
sS'__doc__'
p39
S"'\\n    class used to wrap an exception that occurs... to log the exception and generate a ticket.\\n    '"
p40
sS'__getitem__'
p41
S"<method-wrapper '__getitem__' of RestrictedError object at 0x05DD8B20>"
p42
sS'__setstate__'
p43
S'<built-in method __setstate__ of RestrictedError object at 0x05DD8B20>'
p44
sS'__getattribute__'
p45
S"<method-wrapper '__getattribute__' of RestrictedError object at 0x05DD8B20>"
p46
sS'args'
p47
S'()'
p48
sS'log'
p49
S'<bound method RestrictedError.log of RestrictedError()>'
p50
sS'traceback'
p51
S'\'Traceback (most recent call last):\\n  File "gluon...n <module>\\nNameError: name \\\'form\\\' is not defined\\n\''
p52
sS'__delattr__'
p53
S"<method-wrapper '__delattr__' of RestrictedError object at 0x05DD8B20>"
p54
sg7
S'{\'date\': \'Mon Dec 19 17:54:00 2011\', \'etype\': "<type \'exceptions.NameError\'>", \'evalue\': "name \'form\' is not defined", \'exception\': {\'__class__\': "<type \'exceptions.NameError\'>", \'__delattr__\': "<method-wrapper \'__delattr__\' of exceptions.NameError object at 0x05DD8B98>", \'__dict__\': \'{}\', \'__doc__\': "\'Name not found globally.\'", \'__getattribute__\': "<method-wrapper \'__getattribute__\' of exceptions.NameError object at 0x05DD8B98>", \'__getitem__\': "<method-wrapper \'__getitem__\' of exceptions.NameError object at 0x05DD8B98>", \'__getslice__\': "<method-wrapper \'__getslice__\' of exceptions.NameError object at 0x05DD8B98>", \'__hash__\': "<method-wrapper \'__hash__\' of exceptions.NameError object at 0x05DD8B98>", \'__init__\': "<method-wrapper \'__init__\' of exceptions.NameError object at 0x05DD8B98>", \'__new__\': \'<built-in method __new__ of type object at 0x1E1CD8D8>\', ...}, \'frames\': [{\'call\': \'(code=\\\'response.write(\\\\\\\'<!DOCTYPE html PUBLIC "-...Casa_de_Apuestas\\\\views\\\\default/crearEvento.html\\\')\', \'dump\': {}, \'file\': r\'C:\\Python32\\web2py_win\\web2py\\gluon\\restricted.py\', \'func\': \'restricted\', \'lines\': {}, \'lnum\': 194}, {\'call\': \'()\', \'dump\': {}, \'file\': r\'C:\\Python32\\web2py_win\\web2py\\applications\\Casa_de_Apuestas\\views\\default\\crearEvento.html\', \'func\': \'<module>\', \'lines\': {21: \'response.write(\\\'" type="text/javascript"></script>\\\\r\\\\n\\\', escape=False)\', 22: r"response.write(\'\\r\\n  <style>\\r\\nul.web2py-menu-...\\r\\n  <!-- start header -->\\r\\n  \', escape=False)", 23: \'try:\', 24: "    response.write(auth.navbar(action=URL(\'default\',\'user\')))", 25: \'except:pass\', 26: r"response.write(\'\\r\\n\\r\\n  <!-- start header -->\\...  <h1>\\r\\n                <small>\', escape=False)", 27: \'response.write(A(\\\'Sistema de Gesti\\xc3\\xb3n 1.0\\\', _href=URL("index")))\', 28: r"response.write(\'</small>     \\r\\n    </h1>\\r\\n  ...r\\n   <!-- end content -->\\r\\n   \', escape=False)", 29: \'response.write(\\\'\\\\r\\\\n<div id="content">\\\\r\\\\n    <d...="entry">\\\\r\\\\n                    \\\', escape=False)\', 30: \'response.write(form.custom.begin)\', ...}, \'lnum\': 30}], \'locals\': {\'A\': "<class \'gluon.html.A\'>", \'Auth\': "<class \'gluon.tools.Auth\'>", \'B\': "<class \'gluon.html.B\'>", \'BEAUTIFY\': "<class \'gluon.html.BEAUTIFY\'>", \'BODY\': "<class \'gluon.html.BODY\'>", \'BR\': "<class \'gluon.html.BR\'>", \'BUTTON\': "<class \'gluon.html.BUTTON\'>", \'CAT\': "<class \'gluon.html.CAT\'>", \'CENTER\': "<class \'gluon.html.CENTER\'>", \'CLEANUP\': "<class \'gluon.validators.CLEANUP\'>", ...}, \'pyver\': r\'Python 2.5.4: C:\\Python32\\web2py_win\\web2py\\web2py.exe\', \'request\': <gluon.html.BEAUTIFY object at 0x05E59650>, \'response\': <gluon.html.BEAUTIFY object at 0x05E59ED0>, \'session\': <gluon.html.BEAUTIFY object at 0x05E591F0>}'
p55
sS'__repr__'
p56
S"<method-wrapper '__repr__' of RestrictedError object at 0x05DD8B20>"
p57
sS'__hash__'
p58
S"<method-wrapper '__hash__' of RestrictedError object at 0x05DD8B20>"
p59
sg2
S"''"
p60
ssS'evalue'
p61
S''
sS'request'
p62
ccopy_reg
_reconstructor
p63
(cgluon.html
BEAUTIFY
p64
c__builtin__
object
p65
NtRp66
(dp67
S'attributes'
p68
(dp69
sS'components'
p70
(lp71
g63
(cgluon.html
TABLE
p72
g65
NtRp73
(dp74
g68
(dp75
S'level'
p76
I5
ssS'parent'
p77
Nsg70
(lp78
g63
(cgluon.html
TR
p79
g65
NtRp80
(dp81
g68
(dp82
sg77
g73
sg70
(lp83
g63
(cgluon.html
TD
p84
g65
NtRp85
(dp86
g68
(dp87
S'_style'
p88
S'font-weight:bold;'
p89
ssg77
g80
sg70
(lp90
S'ajax'
p91
asbag63
(g84
g65
NtRp92
(dp93
g68
(dp94
S'_valign'
p95
S'top'
p96
ssg77
g80
sg70
(lp97
S':'
asbag63
(g84
g65
NtRp98
(dp99
g68
(dp100
sg77
g80
sg70
(lp101
g63
(g64
g65
NtRp102
(dp103
g68
(dp104
g76
I5
ssg77
g98
sg70
(lp105
S'False'
p106
asbasbasbag63
(g79
g65
NtRp107
(dp108
g68
(dp109
sg77
g73
sg70
(lp110
g63
(g84
g65
NtRp111
(dp112
g68
(dp113
g88
g89
ssg77
g107
sg70
(lp114
S'application'
p115
asbag63
(g84
g65
NtRp116
(dp117
g68
(dp118
g95
g96
ssg77
g107
sg70
(lp119
S':'
asbag63
(g84
g65
NtRp120
(dp121
g68
(dp122
sg77
g107
sg70
(lp123
g63
(g64
g65
NtRp124
(dp125
g68
(dp126
g76
I5
ssg77
g120
sg70
(lp127
S'Casa_de_Apuestas'
p128
asbasbasbag63
(g79
g65
NtRp129
(dp130
g68
(dp131
sg77
g73
sg70
(lp132
g63
(g84
g65
NtRp133
(dp134
g68
(dp135
g88
g89
ssg77
g129
sg70
(lp136
g47
asbag63
(g84
g65
NtRp137
(dp138
g68
(dp139
g95
g96
ssg77
g129
sg70
(lp140
S':'
asbag63
(g84
g65
NtRp141
(dp142
g68
(dp143
sg77
g129
sg70
(lp144
g63
(g64
g65
NtRp145
(dp146
g68
(dp147
g76
I5
ssg77
g141
sg70
(lp148
g63
(g72
g65
NtRp149
(dp150
g68
(dp151
g76
I4
ssg77
Nsg70
(lp152
sbasbasbasbag63
(g79
g65
NtRp153
(dp154
g68
(dp155
sg77
g73
sg70
(lp156
g63
(g84
g65
NtRp157
(dp158
g68
(dp159
g88
g89
ssg77
g153
sg70
(lp160
S'body'
p161
asbag63
(g84
g65
NtRp162
(dp163
g68
(dp164
g95
g96
ssg77
g153
sg70
(lp165
S':'
asbag63
(g84
g65
NtRp166
(dp167
g68
(dp168
sg77
g153
sg70
(lp169
g63
(g64
g65
NtRp170
(dp171
g68
(dp172
g76
I5
ssg77
g166
sg70
(lp173
S'<cStringIO.StringO object at 0x05D4D8C0>'
p174
asbasbasbag63
(g79
g65
NtRp175
(dp176
g68
(dp177
sg77
g73
sg70
(lp178
g63
(g84
g65
NtRp179
(dp180
g68
(dp181
g88
g89
ssg77
g175
sg70
(lp182
S'client'
p183
asbag63
(g84
g65
NtRp184
(dp185
g68
(dp186
g95
g96
ssg77
g175
sg70
(lp187
S':'
asbag63
(g84
g65
NtRp188
(dp189
g68
(dp190
sg77
g175
sg70
(lp191
g63
(g64
g65
NtRp192
(dp193
g68
(dp194
g76
I5
ssg77
g188
sg70
(lp195
S'127.0.0.1'
p196
asbasbasbag63
(g79
g65
NtRp197
(dp198
g68
(dp199
sg77
g73
sg70
(lp200
g63
(g84
g65
NtRp201
(dp202
g68
(dp203
g88
g89
ssg77
g197
sg70
(lp204
S'controller'
p205
asbag63
(g84
g65
NtRp206
(dp207
g68
(dp208
g95
g96
ssg77
g197
sg70
(lp209
S':'
asbag63
(g84
g65
NtRp210
(dp211
g68
(dp212
sg77
g197
sg70
(lp213
g63
(g64
g65
NtRp214
(dp215
g68
(dp216
g76
I5
ssg77
g210
sg70
(lp217
S'default'
p218
asbasbasbag63
(g79
g65
NtRp219
(dp220
g68
(dp221
sg77
g73
sg70
(lp222
g63
(g84
g65
NtRp223
(dp224
g68
(dp225
g88
g89
ssg77
g219
sg70
(lp226
S'cookies'
p227
asbag63
(g84
g65
NtRp228
(dp229
g68
(dp230
g95
g96
ssg77
g219
sg70
(lp231
S':'
asbag63
(g84
g65
NtRp232
(dp233
g68
(dp234
sg77
g219
sg70
(lp235
g63
(g64
g65
NtRp236
(dp237
g68
(dp238
g76
I5
ssg77
g232
sg70
(lp239
g63
(g72
g65
NtRp240
(dp241
g68
(dp242
g76
I4
ssg77
Nsg70
(lp243
g63
(g79
g65
NtRp244
(dp245
g68
(dp246
sg77
g240
sg70
(lp247
g63
(g84
g65
NtRp248
(dp249
g68
(dp250
g88
g89
ssg77
g244
sg70
(lp251
S'session_id_admin'
p252
asbag63
(g84
g65
NtRp253
(dp254
g68
(dp255
g95
g96
ssg77
g244
sg70
(lp256
S':'
asbag63
(g84
g65
NtRp257
(dp258
g68
(dp259
sg77
g244
sg70
(lp260
g63
(g64
g65
NtRp261
(dp262
g68
(dp263
g76
I4
ssg77
g257
sg70
(lp264
g63
(g72
g65
NtRp265
(dp266
g68
(dp267
g76
I3
ssg77
Nsg70
(lp268
g63
(g79
g65
NtRp269
(dp270
g68
(dp271
sg77
g265
sg70
(lp272
g63
(g84
g65
NtRp273
(dp274
g68
(dp275
g88
g89
ssg77
g269
sg70
(lp276
S'comment'
p277
asbag63
(g84
g65
NtRp278
(dp279
g68
(dp280
g95
g96
ssg77
g269
sg70
(lp281
S':'
asbag63
(g84
g65
NtRp282
(dp283
g68
(dp284
sg77
g269
sg70
(lp285
g63
(g64
g65
NtRp286
(dp287
g68
(dp288
g76
I3
ssg77
g282
sg70
(lp289
S''
asbasbasbag63
(g79
g65
NtRp290
(dp291
g68
(dp292
sg77
g265
sg70
(lp293
g63
(g84
g65
NtRp294
(dp295
g68
(dp296
g88
g89
ssg77
g290
sg70
(lp297
S'domain'
p298
asbag63
(g84
g65
NtRp299
(dp300
g68
(dp301
g95
g96
ssg77
g290
sg70
(lp302
S':'
asbag63
(g84
g65
NtRp303
(dp304
g68
(dp305
sg77
g290
sg70
(lp306
g63
(g64
g65
NtRp307
(dp308
g68
(dp309
g76
I3
ssg77
g303
sg70
(lp310
S''
asbasbasbag63
(g79
g65
NtRp311
(dp312
g68
(dp313
sg77
g265
sg70
(lp314
g63
(g84
g65
NtRp315
(dp316
g68
(dp317
g88
g89
ssg77
g311
sg70
(lp318
S'expires'
p319
asbag63
(g84
g65
NtRp320
(dp321
g68
(dp322
g95
g96
ssg77
g311
sg70
(lp323
S':'
asbag63
(g84
g65
NtRp324
(dp325
g68
(dp326
sg77
g311
sg70
(lp327
g63
(g64
g65
NtRp328
(dp329
g68
(dp330
g76
I3
ssg77
g324
sg70
(lp331
S''
asbasbasbag63
(g79
g65
NtRp332
(dp333
g68
(dp334
sg77
g265
sg70
(lp335
g63
(g84
g65
NtRp336
(dp337
g68
(dp338
g88
g89
ssg77
g332
sg70
(lp339
S'max-age'
p340
asbag63
(g84
g65
NtRp341
(dp342
g68
(dp343
g95
g96
ssg77
g332
sg70
(lp344
S':'
asbag63
(g84
g65
NtRp345
(dp346
g68
(dp347
sg77
g332
sg70
(lp348
g63
(g64
g65
NtRp349
(dp350
g68
(dp351
g76
I3
ssg77
g345
sg70
(lp352
S''
asbasbasbag63
(g79
g65
NtRp353
(dp354
g68
(dp355
sg77
g265
sg70
(lp356
g63
(g84
g65
NtRp357
(dp358
g68
(dp359
g88
g89
ssg77
g353
sg70
(lp360
S'path'
p361
asbag63
(g84
g65
NtRp362
(dp363
g68
(dp364
g95
g96
ssg77
g353
sg70
(lp365
S':'
asbag63
(g84
g65
NtRp366
(dp367
g68
(dp368
sg77
g353
sg70
(lp369
g63
(g64
g65
NtRp370
(dp371
g68
(dp372
g76
I3
ssg77
g366
sg70
(lp373
S''
asbasbasbag63
(g79
g65
NtRp374
(dp375
g68
(dp376
sg77
g265
sg70
(lp377
g63
(g84
g65
NtRp378
(dp379
g68
(dp380
g88
g89
ssg77
g374
sg70
(lp381
S'secure'
p382
asbag63
(g84
g65
NtRp383
(dp384
g68
(dp385
g95
g96
ssg77
g374
sg70
(lp386
S':'
asbag63
(g84
g65
NtRp387
(dp388
g68
(dp389
sg77
g374
sg70
(lp390
g63
(g64
g65
NtRp391
(dp392
g68
(dp393
g76
I3
ssg77
g387
sg70
(lp394
S''
asbasbasbag63
(g79
g65
NtRp395
(dp396
g68
(dp397
sg77
g265
sg70
(lp398
g63
(g84
g65
NtRp399
(dp400
g68
(dp401
g88
g89
ssg77
g395
sg70
(lp402
S'version'
p403
asbag63
(g84
g65
NtRp404
(dp405
g68
(dp406
g95
g96
ssg77
g395
sg70
(lp407
S':'
asbag63
(g84
g65
NtRp408
(dp409
g68
(dp410
sg77
g395
sg70
(lp411
g63
(g64
g65
NtRp412
(dp413
g68
(dp414
g76
I3
ssg77
g408
sg70
(lp415
S''
asbasbasbasbasbasbasbag63
(g79
g65
NtRp416
(dp417
g68
(dp418
sg77
g240
sg70
(lp419
g63
(g84
g65
NtRp420
(dp421
g68
(dp422
g88
g89
ssg77
g416
sg70
(lp423
S'session_id_casa_de_apuestas'
p424
asbag63
(g84
g65
NtRp425
(dp426
g68
(dp427
g95
g96
ssg77
g416
sg70
(lp428
S':'
asbag63
(g84
g65
NtRp429
(dp430
g68
(dp431
sg77
g416
sg70
(lp432
g63
(g64
g65
NtRp433
(dp434
g68
(dp435
g76
I4
ssg77
g429
sg70
(lp436
g63
(g72
g65
NtRp437
(dp438
g68
(dp439
g76
I3
ssg77
Nsg70
(lp440
g63
(g79
g65
NtRp441
(dp442
g68
(dp443
sg77
g437
sg70
(lp444
g63
(g84
g65
NtRp445
(dp446
g68
(dp447
g88
g89
ssg77
g441
sg70
(lp448
g277
asbag63
(g84
g65
NtRp449
(dp450
g68
(dp451
g95
g96
ssg77
g441
sg70
(lp452
S':'
asbag63
(g84
g65
NtRp453
(dp454
g68
(dp455
sg77
g441
sg70
(lp456
g63
(g64
g65
NtRp457
(dp458
g68
(dp459
g76
I3
ssg77
g453
sg70
(lp460
S''
asbasbasbag63
(g79
g65
NtRp461
(dp462
g68
(dp463
sg77
g437
sg70
(lp464
g63
(g84
g65
NtRp465
(dp466
g68
(dp467
g88
g89
ssg77
g461
sg70
(lp468
g298
asbag63
(g84
g65
NtRp469
(dp470
g68
(dp471
g95
g96
ssg77
g461
sg70
(lp472
S':'
asbag63
(g84
g65
NtRp473
(dp474
g68
(dp475
sg77
g461
sg70
(lp476
g63
(g64
g65
NtRp477
(dp478
g68
(dp479
g76
I3
ssg77
g473
sg70
(lp480
S''
asbasbasbag63
(g79
g65
NtRp481
(dp482
g68
(dp483
sg77
g437
sg70
(lp484
g63
(g84
g65
NtRp485
(dp486
g68
(dp487
g88
g89
ssg77
g481
sg70
(lp488
g319
asbag63
(g84
g65
NtRp489
(dp490
g68
(dp491
g95
g96
ssg77
g481
sg70
(lp492
S':'
asbag63
(g84
g65
NtRp493
(dp494
g68
(dp495
sg77
g481
sg70
(lp496
g63
(g64
g65
NtRp497
(dp498
g68
(dp499
g76
I3
ssg77
g493
sg70
(lp500
S''
asbasbasbag63
(g79
g65
NtRp501
(dp502
g68
(dp503
sg77
g437
sg70
(lp504
g63
(g84
g65
NtRp505
(dp506
g68
(dp507
g88
g89
ssg77
g501
sg70
(lp508
g340
asbag63
(g84
g65
NtRp509
(dp510
g68
(dp511
g95
g96
ssg77
g501
sg70
(lp512
S':'
asbag63
(g84
g65
NtRp513
(dp514
g68
(dp515
sg77
g501
sg70
(lp516
g63
(g64
g65
NtRp517
(dp518
g68
(dp519
g76
I3
ssg77
g513
sg70
(lp520
S''
asbasbasbag63
(g79
g65
NtRp521
(dp522
g68
(dp523
sg77
g437
sg70
(lp524
g63
(g84
g65
NtRp525
(dp526
g68
(dp527
g88
g89
ssg77
g521
sg70
(lp528
g361
asbag63
(g84
g65
NtRp529
(dp530
g68
(dp531
g95
g96
ssg77
g521
sg70
(lp532
S':'
asbag63
(g84
g65
NtRp533
(dp534
g68
(dp535
sg77
g521
sg70
(lp536
g63
(g64
g65
NtRp537
(dp538
g68
(dp539
g76
I3
ssg77
g533
sg70
(lp540
S''
asbasbasbag63
(g79
g65
NtRp541
(dp542
g68
(dp543
sg77
g437
sg70
(lp544
g63
(g84
g65
NtRp545
(dp546
g68
(dp547
g88
g89
ssg77
g541
sg70
(lp548
g382
asbag63
(g84
g65
NtRp549
(dp550
g68
(dp551
g95
g96
ssg77
g541
sg70
(lp552
S':'
asbag63
(g84
g65
NtRp553
(dp554
g68
(dp555
sg77
g541
sg70
(lp556
g63
(g64
g65
NtRp557
(dp558
g68
(dp559
g76
I3
ssg77
g553
sg70
(lp560
S''
asbasbasbag63
(g79
g65
NtRp561
(dp562
g68
(dp563
sg77
g437
sg70
(lp564
g63
(g84
g65
NtRp565
(dp566
g68
(dp567
g88
g89
ssg77
g561
sg70
(lp568
g403
asbag63
(g84
g65
NtRp569
(dp570
g68
(dp571
g95
g96
ssg77
g561
sg70
(lp572
S':'
asbag63
(g84
g65
NtRp573
(dp574
g68
(dp575
sg77
g561
sg70
(lp576
g63
(g64
g65
NtRp577
(dp578
g68
(dp579
g76
I3
ssg77
g573
sg70
(lp580
S''
asbasbasbasbasbasbasbag63
(g79
g65
NtRp581
(dp582
g68
(dp583
sg77
g240
sg70
(lp584
g63
(g84
g65
NtRp585
(dp586
g68
(dp587
g88
g89
ssg77
g581
sg70
(lp588
S'session_id_images'
p589
asbag63
(g84
g65
NtRp590
(dp591
g68
(dp592
g95
g96
ssg77
g581
sg70
(lp593
S':'
asbag63
(g84
g65
NtRp594
(dp595
g68
(dp596
sg77
g581
sg70
(lp597
g63
(g64
g65
NtRp598
(dp599
g68
(dp600
g76
I4
ssg77
g594
sg70
(lp601
g63
(g72
g65
NtRp602
(dp603
g68
(dp604
g76
I3
ssg77
Nsg70
(lp605
g63
(g79
g65
NtRp606
(dp607
g68
(dp608
sg77
g602
sg70
(lp609
g63
(g84
g65
NtRp610
(dp611
g68
(dp612
g88
g89
ssg77
g606
sg70
(lp613
g277
asbag63
(g84
g65
NtRp614
(dp615
g68
(dp616
g95
g96
ssg77
g606
sg70
(lp617
S':'
asbag63
(g84
g65
NtRp618
(dp619
g68
(dp620
sg77
g606
sg70
(lp621
g63
(g64
g65
NtRp622
(dp623
g68
(dp624
g76
I3
ssg77
g618
sg70
(lp625
S''
asbasbasbag63
(g79
g65
NtRp626
(dp627
g68
(dp628
sg77
g602
sg70
(lp629
g63
(g84
g65
NtRp630
(dp631
g68
(dp632
g88
g89
ssg77
g626
sg70
(lp633
g298
asbag63
(g84
g65
NtRp634
(dp635
g68
(dp636
g95
g96
ssg77
g626
sg70
(lp637
S':'
asbag63
(g84
g65
NtRp638
(dp639
g68
(dp640
sg77
g626
sg70
(lp641
g63
(g64
g65
NtRp642
(dp643
g68
(dp644
g76
I3
ssg77
g638
sg70
(lp645
S''
asbasbasbag63
(g79
g65
NtRp646
(dp647
g68
(dp648
sg77
g602
sg70
(lp649
g63
(g84
g65
NtRp650
(dp651
g68
(dp652
g88
g89
ssg77
g646
sg70
(lp653
g319
asbag63
(g84
g65
NtRp654
(dp655
g68
(dp656
g95
g96
ssg77
g646
sg70
(lp657
S':'
asbag63
(g84
g65
NtRp658
(dp659
g68
(dp660
sg77
g646
sg70
(lp661
g63
(g64
g65
NtRp662
(dp663
g68
(dp664
g76
I3
ssg77
g658
sg70
(lp665
S''
asbasbasbag63
(g79
g65
NtRp666
(dp667
g68
(dp668
sg77
g602
sg70
(lp669
g63
(g84
g65
NtRp670
(dp671
g68
(dp672
g88
g89
ssg77
g666
sg70
(lp673
g340
asbag63
(g84
g65
NtRp674
(dp675
g68
(dp676
g95
g96
ssg77
g666
sg70
(lp677
S':'
asbag63
(g84
g65
NtRp678
(dp679
g68
(dp680
sg77
g666
sg70
(lp681
g63
(g64
g65
NtRp682
(dp683
g68
(dp684
g76
I3
ssg77
g678
sg70
(lp685
S''
asbasbasbag63
(g79
g65
NtRp686
(dp687
g68
(dp688
sg77
g602
sg70
(lp689
g63
(g84
g65
NtRp690
(dp691
g68
(dp692
g88
g89
ssg77
g686
sg70
(lp693
g361
asbag63
(g84
g65
NtRp694
(dp695
g68
(dp696
g95
g96
ssg77
g686
sg70
(lp697
S':'
asbag63
(g84
g65
NtRp698
(dp699
g68
(dp700
sg77
g686
sg70
(lp701
g63
(g64
g65
NtRp702
(dp703
g68
(dp704
g76
I3
ssg77
g698
sg70
(lp705
S''
asbasbasbag63
(g79
g65
NtRp706
(dp707
g68
(dp708
sg77
g602
sg70
(lp709
g63
(g84
g65
NtRp710
(dp711
g68
(dp712
g88
g89
ssg77
g706
sg70
(lp713
g382
asbag63
(g84
g65
NtRp714
(dp715
g68
(dp716
g95
g96
ssg77
g706
sg70
(lp717
S':'
asbag63
(g84
g65
NtRp718
(dp719
g68
(dp720
sg77
g706
sg70
(lp721
g63
(g64
g65
NtRp722
(dp723
g68
(dp724
g76
I3
ssg77
g718
sg70
(lp725
S''
asbasbasbag63
(g79
g65
NtRp726
(dp727
g68
(dp728
sg77
g602
sg70
(lp729
g63
(g84
g65
NtRp730
(dp731
g68
(dp732
g88
g89
ssg77
g726
sg70
(lp733
g403
asbag63
(g84
g65
NtRp734
(dp735
g68
(dp736
g95
g96
ssg77
g726
sg70
(lp737
S':'
asbag63
(g84
g65
NtRp738
(dp739
g68
(dp740
sg77
g726
sg70
(lp741
g63
(g64
g65
NtRp742
(dp743
g68
(dp744
g76
I3
ssg77
g738
sg70
(lp745
S''
asbasbasbasbasbasbasbag63
(g79
g65
NtRp746
(dp747
g68
(dp748
sg77
g240
sg70
(lp749
g63
(g84
g65
NtRp750
(dp751
g68
(dp752
g88
g89
ssg77
g746
sg70
(lp753
S'session_id_welcome'
p754
asbag63
(g84
g65
NtRp755
(dp756
g68
(dp757
g95
g96
ssg77
g746
sg70
(lp758
S':'
asbag63
(g84
g65
NtRp759
(dp760
g68
(dp761
sg77
g746
sg70
(lp762
g63
(g64
g65
NtRp763
(dp764
g68
(dp765
g76
I4
ssg77
g759
sg70
(lp766
g63
(g72
g65
NtRp767
(dp768
g68
(dp769
g76
I3
ssg77
Nsg70
(lp770
g63
(g79
g65
NtRp771
(dp772
g68
(dp773
sg77
g767
sg70
(lp774
g63
(g84
g65
NtRp775
(dp776
g68
(dp777
g88
g89
ssg77
g771
sg70
(lp778
g277
asbag63
(g84
g65
NtRp779
(dp780
g68
(dp781
g95
g96
ssg77
g771
sg70
(lp782
S':'
asbag63
(g84
g65
NtRp783
(dp784
g68
(dp785
sg77
g771
sg70
(lp786
g63
(g64
g65
NtRp787
(dp788
g68
(dp789
g76
I3
ssg77
g783
sg70
(lp790
S''
asbasbasbag63
(g79
g65
NtRp791
(dp792
g68
(dp793
sg77
g767
sg70
(lp794
g63
(g84
g65
NtRp795
(dp796
g68
(dp797
g88
g89
ssg77
g791
sg70
(lp798
g298
asbag63
(g84
g65
NtRp799
(dp800
g68
(dp801
g95
g96
ssg77
g791
sg70
(lp802
S':'
asbag63
(g84
g65
NtRp803
(dp804
g68
(dp805
sg77
g791
sg70
(lp806
g63
(g64
g65
NtRp807
(dp808
g68
(dp809
g76
I3
ssg77
g803
sg70
(lp810
S''
asbasbasbag63
(g79
g65
NtRp811
(dp812
g68
(dp813
sg77
g767
sg70
(lp814
g63
(g84
g65
NtRp815
(dp816
g68
(dp817
g88
g89
ssg77
g811
sg70
(lp818
g319
asbag63
(g84
g65
NtRp819
(dp820
g68
(dp821
g95
g96
ssg77
g811
sg70
(lp822
S':'
asbag63
(g84
g65
NtRp823
(dp824
g68
(dp825
sg77
g811
sg70
(lp826
g63
(g64
g65
NtRp827
(dp828
g68
(dp829
g76
I3
ssg77
g823
sg70
(lp830
S''
asbasbasbag63
(g79
g65
NtRp831
(dp832
g68
(dp833
sg77
g767
sg70
(lp834
g63
(g84
g65
NtRp835
(dp836
g68
(dp837
g88
g89
ssg77
g831
sg70
(lp838
g340
asbag63
(g84
g65
NtRp839
(dp840
g68
(dp841
g95
g96
ssg77
g831
sg70
(lp842
S':'
asbag63
(g84
g65
NtRp843
(dp844
g68
(dp845
sg77
g831
sg70
(lp846
g63
(g64
g65
NtRp847
(dp848
g68
(dp849
g76
I3
ssg77
g843
sg70
(lp850
S''
asbasbasbag63
(g79
g65
NtRp851
(dp852
g68
(dp853
sg77
g767
sg70
(lp854
g63
(g84
g65
NtRp855
(dp856
g68
(dp857
g88
g89
ssg77
g851
sg70
(lp858
g361
asbag63
(g84
g65
NtRp859
(dp860
g68
(dp861
g95
g96
ssg77
g851
sg70
(lp862
S':'
asbag63
(g84
g65
NtRp863
(dp864
g68
(dp865
sg77
g851
sg70
(lp866
g63
(g64
g65
NtRp867
(dp868
g68
(dp869
g76
I3
ssg77
g863
sg70
(lp870
S''
asbasbasbag63
(g79
g65
NtRp871
(dp872
g68
(dp873
sg77
g767
sg70
(lp874
g63
(g84
g65
NtRp875
(dp876
g68
(dp877
g88
g89
ssg77
g871
sg70
(lp878
g382
asbag63
(g84
g65
NtRp879
(dp880
g68
(dp881
g95
g96
ssg77
g871
sg70
(lp882
S':'
asbag63
(g84
g65
NtRp883
(dp884
g68
(dp885
sg77
g871
sg70
(lp886
g63
(g64
g65
NtRp887
(dp888
g68
(dp889
g76
I3
ssg77
g883
sg70
(lp890
S''
asbasbasbag63
(g79
g65
NtRp891
(dp892
g68
(dp893
sg77
g767
sg70
(lp894
g63
(g84
g65
NtRp895
(dp896
g68
(dp897
g88
g89
ssg77
g891
sg70
(lp898
g403
asbag63
(g84
g65
NtRp899
(dp900
g68
(dp901
g95
g96
ssg77
g891
sg70
(lp902
S':'
asbag63
(g84
g65
NtRp903
(dp904
g68
(dp905
sg77
g891
sg70
(lp906
g63
(g64
g65
NtRp907
(dp908
g68
(dp909
g76
I3
ssg77
g903
sg70
(lp910
S''
asbasbasbasbasbasbasbasbasbasbasbag63
(g79
g65
NtRp911
(dp912
g68
(dp913
sg77
g73
sg70
(lp914
g63
(g84
g65
NtRp915
(dp916
g68
(dp917
g88
g89
ssg77
g911
sg70
(lp918
S'env'
p919
asbag63
(g84
g65
NtRp920
(dp921
g68
(dp922
g95
g96
ssg77
g911
sg70
(lp923
S':'
asbag63
(g84
g65
NtRp924
(dp925
g68
(dp926
sg77
g911
sg70
(lp927
g63
(g64
g65
NtRp928
(dp929
g68
(dp930
g76
I5
ssg77
g924
sg70
(lp931
g63
(g72
g65
NtRp932
(dp933
g68
(dp934
g76
I4
ssg77
Nsg70
(lp935
g63
(g79
g65
NtRp936
(dp937
g68
(dp938
sg77
g932
sg70
(lp939
g63
(g84
g65
NtRp940
(dp941
g68
(dp942
g88
g89
ssg77
g936
sg70
(lp943
S'app_folders'
p944
asbag63
(g84
g65
NtRp945
(dp946
g68
(dp947
g95
g96
ssg77
g936
sg70
(lp948
S':'
asbag63
(g84
g65
NtRp949
(dp950
g68
(dp951
sg77
g936
sg70
(lp952
g63
(g64
g65
NtRp953
(dp954
g68
(dp955
g76
I4
ssg77
g949
sg70
(lp956
S"set(['C:\\\\Python32\\\\web2py_win\\\\web2py\\\\applications\\\\admin\\\\', 'C:\\\\Python32\\\\web2py_win\\\\web2py\\\\applications\\\\welcome\\\\', 'C:\\\\Python32\\\\web2py_win\\\\web2py\\\\applications\\\\images\\\\', 'C:\\\\Python32\\\\web2py_win\\\\web2py\\\\applications\\\\Casa_de_Apuestas\\\\'])"
p957
asbasbasbag63
(g79
g65
NtRp958
(dp959
g68
(dp960
sg77
g932
sg70
(lp961
g63
(g84
g65
NtRp962
(dp963
g68
(dp964
g88
g89
ssg77
g958
sg70
(lp965
S'applications_parent'
p966
asbag63
(g84
g65
NtRp967
(dp968
g68
(dp969
g95
g96
ssg77
g958
sg70
(lp970
S':'
asbag63
(g84
g65
NtRp971
(dp972
g68
(dp973
sg77
g958
sg70
(lp974
g63
(g64
g65
NtRp975
(dp976
g68
(dp977
g76
I4
ssg77
g971
sg70
(lp978
S'C:\\Python32\\web2py_win\\web2py'
p979
asbasbasbag63
(g79
g65
NtRp980
(dp981
g68
(dp982
sg77
g932
sg70
(lp983
g63
(g84
g65
NtRp984
(dp985
g68
(dp986
g88
g89
ssg77
g980
sg70
(lp987
S'cmd_args'
p988
asbag63
(g84
g65
NtRp989
(dp990
g68
(dp991
g95
g96
ssg77
g980
sg70
(lp992
S':'
asbag63
(g84
g65
NtRp993
(dp994
g68
(dp995
sg77
g980
sg70
(lp996
g63
(g64
g65
NtRp997
(dp998
g68
(dp999
g76
I4
ssg77
g993
sg70
(lp1000
g63
(g72
g65
NtRp1001
(dp1002
g68
(dp1003
g76
I3
ssg77
Nsg70
(lp1004
sbasbasbasbag63
(g79
g65
NtRp1005
(dp1006
g68
(dp1007
sg77
g932
sg70
(lp1008
g63
(g84
g65
NtRp1009
(dp1010
g68
(dp1011
g88
g89
ssg77
g1005
sg70
(lp1012
S'cmd_options'
p1013
asbag63
(g84
g65
NtRp1014
(dp1015
g68
(dp1016
g95
g96
ssg77
g1005
sg70
(lp1017
S':'
asbag63
(g84
g65
NtRp1018
(dp1019
g68
(dp1020
sg77
g1005
sg70
(lp1021
g63
(g64
g65
NtRp1022
(dp1023
g68
(dp1024
g76
I4
ssg77
g1018
sg70
(lp1025
S"<Values at 0x2705fa8: {'verbose': False, 'ip': '127.0.0.1', 'shutdown_timeout': 5, 'taskbar': False, 'nocron': False, 'pid_filename': 'httpserver.pid', 'maxthreads': None, 'softcron': False, 'server_name': 'hector-vaio', 'bpython': False, 'nogui': False, 'port': 8000, 'extcron': False, 'debuglevel': 30, 'test': None, 'folder': 'C:\\\\Python32\\\\web2py_win\\\\web2py', 'config': '', 'import_models': False, 'winservice': '', 'shell': None, 'run': '', 'log_filename': 'httpserver.log', 'args': [''], 'ssl_ca_certificate': None, 'scheduler': None, 'profiler_filename': None, 'ssl_private_key': '', 'password': '<ask>', 'request_queue_size': 5, 'ssl_certificate': '', 'cronjob': False, 'plain': False, 'quiet': False, 'interfaces': None, 'minthreads': None, 'timeout': 10, 'numthreads': None, 'nobanner': False}>"
p1026
asbasbasbag63
(g79
g65
NtRp1027
(dp1028
g68
(dp1029
sg77
g932
sg70
(lp1030
g63
(g84
g65
NtRp1031
(dp1032
g68
(dp1033
g88
g89
ssg77
g1027
sg70
(lp1034
S'db_sessions'
p1035
asbag63
(g84
g65
NtRp1036
(dp1037
g68
(dp1038
g95
g96
ssg77
g1027
sg70
(lp1039
S':'
asbag63
(g84
g65
NtRp1040
(dp1041
g68
(dp1042
sg77
g1027
sg70
(lp1043
g63
(g64
g65
NtRp1044
(dp1045
g68
(dp1046
g76
I4
ssg77
g1040
sg70
(lp1047
S'set([])'
p1048
asbasbasbag63
(g79
g65
NtRp1049
(dp1050
g68
(dp1051
sg77
g932
sg70
(lp1052
g63
(g84
g65
NtRp1053
(dp1054
g68
(dp1055
g88
g89
ssg77
g1049
sg70
(lp1056
S'debugging'
p1057
asbag63
(g84
g65
NtRp1058
(dp1059
g68
(dp1060
g95
g96
ssg77
g1049
sg70
(lp1061
S':'
asbag63
(g84
g65
NtRp1062
(dp1063
g68
(dp1064
sg77
g1049
sg70
(lp1065
g63
(g64
g65
NtRp1066
(dp1067
g68
(dp1068
g76
I4
ssg77
g1062
sg70
(lp1069
g106
asbasbasbag63
(g79
g65
NtRp1070
(dp1071
g68
(dp1072
sg77
g932
sg70
(lp1073
g63
(g84
g65
NtRp1074
(dp1075
g68
(dp1076
g88
g89
ssg77
g1070
sg70
(lp1077
S'gluon_parent'
p1078
asbag63
(g84
g65
NtRp1079
(dp1080
g68
(dp1081
g95
g96
ssg77
g1070
sg70
(lp1082
S':'
asbag63
(g84
g65
NtRp1083
(dp1084
g68
(dp1085
sg77
g1070
sg70
(lp1086
g63
(g64
g65
NtRp1087
(dp1088
g68
(dp1089
g76
I4
ssg77
g1083
sg70
(lp1090
S'C:\\Python32\\web2py_win\\web2py'
p1091
asbasbasbag63
(g79
g65
NtRp1092
(dp1093
g68
(dp1094
sg77
g932
sg70
(lp1095
g63
(g84
g65
NtRp1096
(dp1097
g68
(dp1098
g88
g89
ssg77
g1092
sg70
(lp1099
S'http_accept'
p1100
asbag63
(g84
g65
NtRp1101
(dp1102
g68
(dp1103
g95
g96
ssg77
g1092
sg70
(lp1104
S':'
asbag63
(g84
g65
NtRp1105
(dp1106
g68
(dp1107
sg77
g1092
sg70
(lp1108
g63
(g64
g65
NtRp1109
(dp1110
g68
(dp1111
g76
I4
ssg77
g1105
sg70
(lp1112
S'text/html,application/xhtml+xml,application/xml;q=0.9,*/*;q=0.8'
p1113
asbasbasbag63
(g79
g65
NtRp1114
(dp1115
g68
(dp1116
sg77
g932
sg70
(lp1117
g63
(g84
g65
NtRp1118
(dp1119
g68
(dp1120
g88
g89
ssg77
g1114
sg70
(lp1121
S'http_accept_charset'
p1122
asbag63
(g84
g65
NtRp1123
(dp1124
g68
(dp1125
g95
g96
ssg77
g1114
sg70
(lp1126
S':'
asbag63
(g84
g65
NtRp1127
(dp1128
g68
(dp1129
sg77
g1114
sg70
(lp1130
g63
(g64
g65
NtRp1131
(dp1132
g68
(dp1133
g76
I4
ssg77
g1127
sg70
(lp1134
S'ISO-8859-1,utf-8;q=0.7,*;q=0.3'
p1135
asbasbasbag63
(g79
g65
NtRp1136
(dp1137
g68
(dp1138
sg77
g932
sg70
(lp1139
g63
(g84
g65
NtRp1140
(dp1141
g68
(dp1142
g88
g89
ssg77
g1136
sg70
(lp1143
S'http_accept_encoding'
p1144
asbag63
(g84
g65
NtRp1145
(dp1146
g68
(dp1147
g95
g96
ssg77
g1136
sg70
(lp1148
S':'
asbag63
(g84
g65
NtRp1149
(dp1150
g68
(dp1151
sg77
g1136
sg70
(lp1152
g63
(g64
g65
NtRp1153
(dp1154
g68
(dp1155
g76
I4
ssg77
g1149
sg70
(lp1156
S'gzip,deflate,sdch'
p1157
asbasbasbag63
(g79
g65
NtRp1158
(dp1159
g68
(dp1160
sg77
g932
sg70
(lp1161
g63
(g84
g65
NtRp1162
(dp1163
g68
(dp1164
g88
g89
ssg77
g1158
sg70
(lp1165
S'http_accept_language'
p1166
asbag63
(g84
g65
NtRp1167
(dp1168
g68
(dp1169
g95
g96
ssg77
g1158
sg70
(lp1170
S':'
asbag63
(g84
g65
NtRp1171
(dp1172
g68
(dp1173
sg77
g1158
sg70
(lp1174
g63
(g64
g65
NtRp1175
(dp1176
g68
(dp1177
g76
I4
ssg77
g1171
sg70
(lp1178
S'en-US,en;q=0.8'
p1179
asbasbasbag63
(g79
g65
NtRp1180
(dp1181
g68
(dp1182
sg77
g932
sg70
(lp1183
g63
(g84
g65
NtRp1184
(dp1185
g68
(dp1186
g88
g89
ssg77
g1180
sg70
(lp1187
S'http_connection'
p1188
asbag63
(g84
g65
NtRp1189
(dp1190
g68
(dp1191
g95
g96
ssg77
g1180
sg70
(lp1192
S':'
asbag63
(g84
g65
NtRp1193
(dp1194
g68
(dp1195
sg77
g1180
sg70
(lp1196
g63
(g64
g65
NtRp1197
(dp1198
g68
(dp1199
g76
I4
ssg77
g1193
sg70
(lp1200
S'keep-alive'
p1201
asbasbasbag63
(g79
g65
NtRp1202
(dp1203
g68
(dp1204
sg77
g932
sg70
(lp1205
g63
(g84
g65
NtRp1206
(dp1207
g68
(dp1208
g88
g89
ssg77
g1202
sg70
(lp1209
S'http_cookie'
p1210
asbag63
(g84
g65
NtRp1211
(dp1212
g68
(dp1213
g95
g96
ssg77
g1202
sg70
(lp1214
S':'
asbag63
(g84
g65
NtRp1215
(dp1216
g68
(dp1217
sg77
g1202
sg70
(lp1218
g63
(g64
g65
NtRp1219
(dp1220
g68
(dp1221
g76
I4
ssg77
g1215
sg70
(lp1222
S'session_id_images=127.0.0.1-deccc954-353a-4177-9103-f19a56624237; session_id_welcome=127.0.0.1-8fea0ba2-90f2-43ea-9151-fc1a9d6558fb; session_id_casa_de_apuestas=127.0.0.1-b28859fb-172e-488d-8e45-f5879b610d08; session_id_admin=127.0.0.1-44212440-7960-43ff-8289-ed0727cee5fd'
p1223
asbasbasbag63
(g79
g65
NtRp1224
(dp1225
g68
(dp1226
sg77
g932
sg70
(lp1227
g63
(g84
g65
NtRp1228
(dp1229
g68
(dp1230
g88
g89
ssg77
g1224
sg70
(lp1231
S'http_host'
p1232
asbag63
(g84
g65
NtRp1233
(dp1234
g68
(dp1235
g95
g96
ssg77
g1224
sg70
(lp1236
S':'
asbag63
(g84
g65
NtRp1237
(dp1238
g68
(dp1239
sg77
g1224
sg70
(lp1240
g63
(g64
g65
NtRp1241
(dp1242
g68
(dp1243
g76
I4
ssg77
g1237
sg70
(lp1244
S'127.0.0.1:8000'
p1245
asbasbasbag63
(g79
g65
NtRp1246
(dp1247
g68
(dp1248
sg77
g932
sg70
(lp1249
g63
(g84
g65
NtRp1250
(dp1251
g68
(dp1252
g88
g89
ssg77
g1246
sg70
(lp1253
S'http_referer'
p1254
asbag63
(g84
g65
NtRp1255
(dp1256
g68
(dp1257
g95
g96
ssg77
g1246
sg70
(lp1258
S':'
asbag63
(g84
g65
NtRp1259
(dp1260
g68
(dp1261
sg77
g1246
sg70
(lp1262
g63
(g64
g65
NtRp1263
(dp1264
g68
(dp1265
g76
I4
ssg77
g1259
sg70
(lp1266
S'http://127.0.0.1:8000/admin/default/edit/Casa_de_Apuestas/views/default/crearEvento.html'
p1267
asbasbasbag63
(g79
g65
NtRp1268
(dp1269
g68
(dp1270
sg77
g932
sg70
(lp1271
g63
(g84
g65
NtRp1272
(dp1273
g68
(dp1274
g88
g89
ssg77
g1268
sg70
(lp1275
S'http_user_agent'
p1276
asbag63
(g84
g65
NtRp1277
(dp1278
g68
(dp1279
g95
g96
ssg77
g1268
sg70
(lp1280
S':'
asbag63
(g84
g65
NtRp1281
(dp1282
g68
(dp1283
sg77
g1268
sg70
(lp1284
g63
(g64
g65
NtRp1285
(dp1286
g68
(dp1287
g76
I4
ssg77
g1281
sg70
(lp1288
S'Mozilla/5.0 (Windows NT 6.1) AppleWebKit/535.7 (KHTML, like Gecko) Chrome/16.0.912.63 Safari/535.7'
p1289
asbasbasbag63
(g79
g65
NtRp1290
(dp1291
g68
(dp1292
sg77
g932
sg70
(lp1293
g63
(g84
g65
NtRp1294
(dp1295
g68
(dp1296
g88
g89
ssg77
g1290
sg70
(lp1297
S'is_jython'
p1298
asbag63
(g84
g65
NtRp1299
(dp1300
g68
(dp1301
g95
g96
ssg77
g1290
sg70
(lp1302
S':'
asbag63
(g84
g65
NtRp1303
(dp1304
g68
(dp1305
sg77
g1290
sg70
(lp1306
g63
(g64
g65
NtRp1307
(dp1308
g68
(dp1309
g76
I4
ssg77
g1303
sg70
(lp1310
g106
asbasbasbag63
(g79
g65
NtRp1311
(dp1312
g68
(dp1313
sg77
g932
sg70
(lp1314
g63
(g84
g65
NtRp1315
(dp1316
g68
(dp1317
g88
g89
ssg77
g1311
sg70
(lp1318
S'path_info'
p1319
asbag63
(g84
g65
NtRp1320
(dp1321
g68
(dp1322
g95
g96
ssg77
g1311
sg70
(lp1323
S':'
asbag63
(g84
g65
NtRp1324
(dp1325
g68
(dp1326
sg77
g1311
sg70
(lp1327
g63
(g64
g65
NtRp1328
(dp1329
g68
(dp1330
g76
I4
ssg77
g1324
sg70
(lp1331
S'/Casa_de_Apuestas/default/crearEvento'
p1332
asbasbasbag63
(g79
g65
NtRp1333
(dp1334
g68
(dp1335
sg77
g932
sg70
(lp1336
g63
(g84
g65
NtRp1337
(dp1338
g68
(dp1339
g88
g89
ssg77
g1333
sg70
(lp1340
S'query_string'
p1341
asbag63
(g84
g65
NtRp1342
(dp1343
g68
(dp1344
g95
g96
ssg77
g1333
sg70
(lp1345
S':'
asbag63
(g84
g65
NtRp1346
(dp1347
g68
(dp1348
sg77
g1333
sg70
(lp1349
g63
(g64
g65
NtRp1350
(dp1351
g68
(dp1352
g76
I4
ssg77
g1346
sg70
(lp1353
S''
asbasbasbag63
(g79
g65
NtRp1354
(dp1355
g68
(dp1356
sg77
g932
sg70
(lp1357
g63
(g84
g65
NtRp1358
(dp1359
g68
(dp1360
g88
g89
ssg77
g1354
sg70
(lp1361
S'remote_addr'
p1362
asbag63
(g84
g65
NtRp1363
(dp1364
g68
(dp1365
g95
g96
ssg77
g1354
sg70
(lp1366
S':'
asbag63
(g84
g65
NtRp1367
(dp1368
g68
(dp1369
sg77
g1354
sg70
(lp1370
g63
(g64
g65
NtRp1371
(dp1372
g68
(dp1373
g76
I4
ssg77
g1367
sg70
(lp1374
g196
asbasbasbag63
(g79
g65
NtRp1375
(dp1376
g68
(dp1377
sg77
g932
sg70
(lp1378
g63
(g84
g65
NtRp1379
(dp1380
g68
(dp1381
g88
g89
ssg77
g1375
sg70
(lp1382
S'remote_port'
p1383
asbag63
(g84
g65
NtRp1384
(dp1385
g68
(dp1386
g95
g96
ssg77
g1375
sg70
(lp1387
S':'
asbag63
(g84
g65
NtRp1388
(dp1389
g68
(dp1390
sg77
g1375
sg70
(lp1391
g63
(g64
g65
NtRp1392
(dp1393
g68
(dp1394
g76
I4
ssg77
g1388
sg70
(lp1395
S'51244'
p1396
asbasbasbag63
(g79
g65
NtRp1397
(dp1398
g68
(dp1399
sg77
g932
sg70
(lp1400
g63
(g84
g65
NtRp1401
(dp1402
g68
(dp1403
g88
g89
ssg77
g1397
sg70
(lp1404
S'request_method'
p1405
asbag63
(g84
g65
NtRp1406
(dp1407
g68
(dp1408
g95
g96
ssg77
g1397
sg70
(lp1409
S':'
asbag63
(g84
g65
NtRp1410
(dp1411
g68
(dp1412
sg77
g1397
sg70
(lp1413
g63
(g64
g65
NtRp1414
(dp1415
g68
(dp1416
g76
I4
ssg77
g1410
sg70
(lp1417
S'GET'
p1418
asbasbasbag63
(g79
g65
NtRp1419
(dp1420
g68
(dp1421
sg77
g932
sg70
(lp1422
g63
(g84
g65
NtRp1423
(dp1424
g68
(dp1425
g88
g89
ssg77
g1419
sg70
(lp1426
S'script_name'
p1427
asbag63
(g84
g65
NtRp1428
(dp1429
g68
(dp1430
g95
g96
ssg77
g1419
sg70
(lp1431
S':'
asbag63
(g84
g65
NtRp1432
(dp1433
g68
(dp1434
sg77
g1419
sg70
(lp1435
g63
(g64
g65
NtRp1436
(dp1437
g68
(dp1438
g76
I4
ssg77
g1432
sg70
(lp1439
S''
asbasbasbag63
(g79
g65
NtRp1440
(dp1441
g68
(dp1442
sg77
g932
sg70
(lp1443
g63
(g84
g65
NtRp1444
(dp1445
g68
(dp1446
g88
g89
ssg77
g1440
sg70
(lp1447
S'server_name'
p1448
asbag63
(g84
g65
NtRp1449
(dp1450
g68
(dp1451
g95
g96
ssg77
g1440
sg70
(lp1452
S':'
asbag63
(g84
g65
NtRp1453
(dp1454
g68
(dp1455
sg77
g1440
sg70
(lp1456
g63
(g64
g65
NtRp1457
(dp1458
g68
(dp1459
g76
I4
ssg77
g1453
sg70
(lp1460
S'hector-vaio'
p1461
asbasbasbag63
(g79
g65
NtRp1462
(dp1463
g68
(dp1464
sg77
g932
sg70
(lp1465
g63
(g84
g65
NtRp1466
(dp1467
g68
(dp1468
g88
g89
ssg77
g1462
sg70
(lp1469
S'server_port'
p1470
asbag63
(g84
g65
NtRp1471
(dp1472
g68
(dp1473
g95
g96
ssg77
g1462
sg70
(lp1474
S':'
asbag63
(g84
g65
NtRp1475
(dp1476
g68
(dp1477
sg77
g1462
sg70
(lp1478
g63
(g64
g65
NtRp1479
(dp1480
g68
(dp1481
g76
I4
ssg77
g1475
sg70
(lp1482
S'8000'
p1483
asbasbasbag63
(g79
g65
NtRp1484
(dp1485
g68
(dp1486
sg77
g932
sg70
(lp1487
g63
(g84
g65
NtRp1488
(dp1489
g68
(dp1490
g88
g89
ssg77
g1484
sg70
(lp1491
S'server_protocol'
p1492
asbag63
(g84
g65
NtRp1493
(dp1494
g68
(dp1495
g95
g96
ssg77
g1484
sg70
(lp1496
S':'
asbag63
(g84
g65
NtRp1497
(dp1498
g68
(dp1499
sg77
g1484
sg70
(lp1500
g63
(g64
g65
NtRp1501
(dp1502
g68
(dp1503
g76
I4
ssg77
g1497
sg70
(lp1504
S'HTTP/1.1'
p1505
asbasbasbag63
(g79
g65
NtRp1506
(dp1507
g68
(dp1508
sg77
g932
sg70
(lp1509
g63
(g84
g65
NtRp1510
(dp1511
g68
(dp1512
g88
g89
ssg77
g1506
sg70
(lp1513
S'server_software'
p1514
asbag63
(g84
g65
NtRp1515
(dp1516
g68
(dp1517
g95
g96
ssg77
g1506
sg70
(lp1518
S':'
asbag63
(g84
g65
NtRp1519
(dp1520
g68
(dp1521
sg77
g1506
sg70
(lp1522
g63
(g64
g65
NtRp1523
(dp1524
g68
(dp1525
g76
I4
ssg77
g1519
sg70
(lp1526
S'Rocket 1.2.4'
p1527
asbasbasbag63
(g79
g65
NtRp1528
(dp1529
g68
(dp1530
sg77
g932
sg70
(lp1531
g63
(g84
g65
NtRp1532
(dp1533
g68
(dp1534
g88
g89
ssg77
g1528
sg70
(lp1535
S'web2py_crontype'
p1536
asbag63
(g84
g65
NtRp1537
(dp1538
g68
(dp1539
g95
g96
ssg77
g1528
sg70
(lp1540
S':'
asbag63
(g84
g65
NtRp1541
(dp1542
g68
(dp1543
sg77
g1528
sg70
(lp1544
g63
(g64
g65
NtRp1545
(dp1546
g68
(dp1547
g76
I4
ssg77
g1541
sg70
(lp1548
S'hard'
p1549
asbasbasbag63
(g79
g65
NtRp1550
(dp1551
g68
(dp1552
sg77
g932
sg70
(lp1553
g63
(g84
g65
NtRp1554
(dp1555
g68
(dp1556
g88
g89
ssg77
g1550
sg70
(lp1557
S'web2py_path'
p1558
asbag63
(g84
g65
NtRp1559
(dp1560
g68
(dp1561
g95
g96
ssg77
g1550
sg70
(lp1562
S':'
asbag63
(g84
g65
NtRp1563
(dp1564
g68
(dp1565
sg77
g1550
sg70
(lp1566
g63
(g64
g65
NtRp1567
(dp1568
g68
(dp1569
g76
I4
ssg77
g1563
sg70
(lp1570
g979
asbasbasbag63
(g79
g65
NtRp1571
(dp1572
g68
(dp1573
sg77
g932
sg70
(lp1574
g63
(g84
g65
NtRp1575
(dp1576
g68
(dp1577
g88
g89
ssg77
g1571
sg70
(lp1578
S'web2py_version'
p1579
asbag63
(g84
g65
NtRp1580
(dp1581
g68
(dp1582
g95
g96
ssg77
g1571
sg70
(lp1583
S':'
asbag63
(g84
g65
NtRp1584
(dp1585
g68
(dp1586
sg77
g1571
sg70
(lp1587
g63
(g64
g65
NtRp1588
(dp1589
g68
(dp1590
g76
I4
ssg77
g1584
sg70
(lp1591
g63
(g72
g65
NtRp1592
(dp1593
g68
(dp1594
g76
I3
ssg77
Nsg70
(lp1595
g63
(g79
g65
NtRp1596
(dp1597
g68
(dp1598
sg77
g1592
sg70
(lp1599
g63
(g84
g65
NtRp1600
(dp1601
g68
(dp1602
sg77
g1596
sg70
(lp1603
g63
(g64
g65
NtRp1604
(dp1605
g68
(dp1606
g76
I3
ssg77
g1600
sg70
(lp1607
S'1'
asbasbasbag63
(g79
g65
NtRp1608
(dp1609
g68
(dp1610
sg77
g1592
sg70
(lp1611
g63
(g84
g65
NtRp1612
(dp1613
g68
(dp1614
sg77
g1608
sg70
(lp1615
g63
(g64
g65
NtRp1616
(dp1617
g68
(dp1618
g76
I3
ssg77
g1612
sg70
(lp1619
S'99'
p1620
asbasbasbag63
(g79
g65
NtRp1621
(dp1622
g68
(dp1623
sg77
g1592
sg70
(lp1624
g63
(g84
g65
NtRp1625
(dp1626
g68
(dp1627
sg77
g1621
sg70
(lp1628
g63
(g64
g65
NtRp1629
(dp1630
g68
(dp1631
g76
I3
ssg77
g1625
sg70
(lp1632
S'2'
asbasbasbag63
(g79
g65
NtRp1633
(dp1634
g68
(dp1635
sg77
g1592
sg70
(lp1636
g63
(g84
g65
NtRp1637
(dp1638
g68
(dp1639
sg77
g1633
sg70
(lp1640
g63
(g64
g65
NtRp1641
(dp1642
g68
(dp1643
g76
I3
ssg77
g1637
sg70
(lp1644
S'datetime.datetime(2011, 9, 26, 6, 55, 33)'
p1645
asbasbasbag63
(g79
g65
NtRp1646
(dp1647
g68
(dp1648
sg77
g1592
sg70
(lp1649
g63
(g84
g65
NtRp1650
(dp1651
g68
(dp1652
sg77
g1646
sg70
(lp1653
g63
(g64
g65
NtRp1654
(dp1655
g68
(dp1656
g76
I3
ssg77
g1650
sg70
(lp1657
S'stable'
p1658
asbasbasbasbasbasbasbag63
(g79
g65
NtRp1659
(dp1660
g68
(dp1661
sg77
g932
sg70
(lp1662
g63
(g84
g65
NtRp1663
(dp1664
g68
(dp1665
g88
g89
ssg77
g1659
sg70
(lp1666
S'wsgi_errors'
p1667
asbag63
(g84
g65
NtRp1668
(dp1669
g68
(dp1670
g95
g96
ssg77
g1659
sg70
(lp1671
S':'
asbag63
(g84
g65
NtRp1672
(dp1673
g68
(dp1674
sg77
g1659
sg70
(lp1675
g63
(g64
g65
NtRp1676
(dp1677
g68
(dp1678
g76
I4
ssg77
g1672
sg70
(lp1679
S"<open file '<stderr>', mode 'w' at 0x015D00B0>"
p1680
asbasbasbag63
(g79
g65
NtRp1681
(dp1682
g68
(dp1683
sg77
g932
sg70
(lp1684
g63
(g84
g65
NtRp1685
(dp1686
g68
(dp1687
g88
g89
ssg77
g1681
sg70
(lp1688
S'wsgi_file_wrapper'
p1689
asbag63
(g84
g65
NtRp1690
(dp1691
g68
(dp1692
g95
g96
ssg77
g1681
sg70
(lp1693
S':'
asbag63
(g84
g65
NtRp1694
(dp1695
g68
(dp1696
sg77
g1681
sg70
(lp1697
g63
(g64
g65
NtRp1698
(dp1699
g68
(dp1700
g76
I4
ssg77
g1694
sg70
(lp1701
S'<class wsgiref.util.FileWrapper at 0x024A9AB0>'
p1702
asbasbasbag63
(g79
g65
NtRp1703
(dp1704
g68
(dp1705
sg77
g932
sg70
(lp1706
g63
(g84
g65
NtRp1707
(dp1708
g68
(dp1709
g88
g89
ssg77
g1703
sg70
(lp1710
S'wsgi_input'
p1711
asbag63
(g84
g65
NtRp1712
(dp1713
g68
(dp1714
g95
g96
ssg77
g1703
sg70
(lp1715
S':'
asbag63
(g84
g65
NtRp1716
(dp1717
g68
(dp1718
sg77
g1703
sg70
(lp1719
g63
(g64
g65
NtRp1720
(dp1721
g68
(dp1722
g76
I4
ssg77
g1716
sg70
(lp1723
S'<socket._fileobject object at 0x05B431F0>'
p1724
asbasbasbag63
(g79
g65
NtRp1725
(dp1726
g68
(dp1727
sg77
g932
sg70
(lp1728
g63
(g84
g65
NtRp1729
(dp1730
g68
(dp1731
g88
g89
ssg77
g1725
sg70
(lp1732
S'wsgi_multiprocess'
p1733
asbag63
(g84
g65
NtRp1734
(dp1735
g68
(dp1736
g95
g96
ssg77
g1725
sg70
(lp1737
S':'
asbag63
(g84
g65
NtRp1738
(dp1739
g68
(dp1740
sg77
g1725
sg70
(lp1741
g63
(g64
g65
NtRp1742
(dp1743
g68
(dp1744
g76
I4
ssg77
g1738
sg70
(lp1745
g106
asbasbasbag63
(g79
g65
NtRp1746
(dp1747
g68
(dp1748
sg77
g932
sg70
(lp1749
g63
(g84
g65
NtRp1750
(dp1751
g68
(dp1752
g88
g89
ssg77
g1746
sg70
(lp1753
S'wsgi_multithread'
p1754
asbag63
(g84
g65
NtRp1755
(dp1756
g68
(dp1757
g95
g96
ssg77
g1746
sg70
(lp1758
S':'
asbag63
(g84
g65
NtRp1759
(dp1760
g68
(dp1761
sg77
g1746
sg70
(lp1762
g63
(g64
g65
NtRp1763
(dp1764
g68
(dp1765
g76
I4
ssg77
g1759
sg70
(lp1766
S'True'
p1767
asbasbasbag63
(g79
g65
NtRp1768
(dp1769
g68
(dp1770
sg77
g932
sg70
(lp1771
g63
(g84
g65
NtRp1772
(dp1773
g68
(dp1774
g88
g89
ssg77
g1768
sg70
(lp1775
S'wsgi_run_once'
p1776
asbag63
(g84
g65
NtRp1777
(dp1778
g68
(dp1779
g95
g96
ssg77
g1768
sg70
(lp1780
S':'
asbag63
(g84
g65
NtRp1781
(dp1782
g68
(dp1783
sg77
g1768
sg70
(lp1784
g63
(g64
g65
NtRp1785
(dp1786
g68
(dp1787
g76
I4
ssg77
g1781
sg70
(lp1788
g106
asbasbasbag63
(g79
g65
NtRp1789
(dp1790
g68
(dp1791
sg77
g932
sg70
(lp1792
g63
(g84
g65
NtRp1793
(dp1794
g68
(dp1795
g88
g89
ssg77
g1789
sg70
(lp1796
S'wsgi_url_scheme'
p1797
asbag63
(g84
g65
NtRp1798
(dp1799
g68
(dp1800
g95
g96
ssg77
g1789
sg70
(lp1801
S':'
asbag63
(g84
g65
NtRp1802
(dp1803
g68
(dp1804
sg77
g1789
sg70
(lp1805
g63
(g64
g65
NtRp1806
(dp1807
g68
(dp1808
g76
I4
ssg77
g1802
sg70
(lp1809
S'http'
p1810
asbasbasbag63
(g79
g65
NtRp1811
(dp1812
g68
(dp1813
sg77
g932
sg70
(lp1814
g63
(g84
g65
NtRp1815
(dp1816
g68
(dp1817
g88
g89
ssg77
g1811
sg70
(lp1818
S'wsgi_version'
p1819
asbag63
(g84
g65
NtRp1820
(dp1821
g68
(dp1822
g95
g96
ssg77
g1811
sg70
(lp1823
S':'
asbag63
(g84
g65
NtRp1824
(dp1825
g68
(dp1826
sg77
g1811
sg70
(lp1827
g63
(g64
g65
NtRp1828
(dp1829
g68
(dp1830
g76
I4
ssg77
g1824
sg70
(lp1831
g63
(g72
g65
NtRp1832
(dp1833
g68
(dp1834
g76
I3
ssg77
Nsg70
(lp1835
g63
(g79
g65
NtRp1836
(dp1837
g68
(dp1838
sg77
g1832
sg70
(lp1839
g63
(g84
g65
NtRp1840
(dp1841
g68
(dp1842
sg77
g1836
sg70
(lp1843
g63
(g64
g65
NtRp1844
(dp1845
g68
(dp1846
g76
I3
ssg77
g1840
sg70
(lp1847
S'1'
asbasbasbag63
(g79
g65
NtRp1848
(dp1849
g68
(dp1850
sg77
g1832
sg70
(lp1851
g63
(g84
g65
NtRp1852
(dp1853
g68
(dp1854
sg77
g1848
sg70
(lp1855
g63
(g64
g65
NtRp1856
(dp1857
g68
(dp1858
g76
I3
ssg77
g1852
sg70
(lp1859
S'0'
asbasbasbasbasbasbasbasbasbasbasbag63
(g79
g65
NtRp1860
(dp1861
g68
(dp1862
sg77
g73
sg70
(lp1863
g63
(g84
g65
NtRp1864
(dp1865
g68
(dp1866
g88
g89
ssg77
g1860
sg70
(lp1867
S'extension'
p1868
asbag63
(g84
g65
NtRp1869
(dp1870
g68
(dp1871
g95
g96
ssg77
g1860
sg70
(lp1872
S':'
asbag63
(g84
g65
NtRp1873
(dp1874
g68
(dp1875
sg77
g1860
sg70
(lp1876
g63
(g64
g65
NtRp1877
(dp1878
g68
(dp1879
g76
I5
ssg77
g1873
sg70
(lp1880
S'html'
p1881
asbasbasbag63
(g79
g65
NtRp1882
(dp1883
g68
(dp1884
sg77
g73
sg70
(lp1885
g63
(g84
g65
NtRp1886
(dp1887
g68
(dp1888
g88
g89
ssg77
g1882
sg70
(lp1889
S'folder'
p1890
asbag63
(g84
g65
NtRp1891
(dp1892
g68
(dp1893
g95
g96
ssg77
g1882
sg70
(lp1894
S':'
asbag63
(g84
g65
NtRp1895
(dp1896
g68
(dp1897
sg77
g1882
sg70
(lp1898
g63
(g64
g65
NtRp1899
(dp1900
g68
(dp1901
g76
I5
ssg77
g1895
sg70
(lp1902
S'C:\\Python32\\web2py_win\\web2py\\applications\\Casa_de_Apuestas\\'
p1903
asbasbasbag63
(g79
g65
NtRp1904
(dp1905
g68
(dp1906
sg77
g73
sg70
(lp1907
g63
(g84
g65
NtRp1908
(dp1909
g68
(dp1910
g88
g89
ssg77
g1904
sg70
(lp1911
S'function'
p1912
asbag63
(g84
g65
NtRp1913
(dp1914
g68
(dp1915
g95
g96
ssg77
g1904
sg70
(lp1916
S':'
asbag63
(g84
g65
NtRp1917
(dp1918
g68
(dp1919
sg77
g1904
sg70
(lp1920
g63
(g64
g65
NtRp1921
(dp1922
g68
(dp1923
g76
I5
ssg77
g1917
sg70
(lp1924
S'crearEvento'
p1925
asbasbasbag63
(g79
g65
NtRp1926
(dp1927
g68
(dp1928
sg77
g73
sg70
(lp1929
g63
(g84
g65
NtRp1930
(dp1931
g68
(dp1932
g88
g89
ssg77
g1926
sg70
(lp1933
S'get_vars'
p1934
asbag63
(g84
g65
NtRp1935
(dp1936
g68
(dp1937
g95
g96
ssg77
g1926
sg70
(lp1938
S':'
asbag63
(g84
g65
NtRp1939
(dp1940
g68
(dp1941
sg77
g1926
sg70
(lp1942
g63
(g64
g65
NtRp1943
(dp1944
g68
(dp1945
g76
I5
ssg77
g1939
sg70
(lp1946
g63
(g72
g65
NtRp1947
(dp1948
g68
(dp1949
g76
I4
ssg77
Nsg70
(lp1950
sbasbasbasbag63
(g79
g65
NtRp1951
(dp1952
g68
(dp1953
sg77
g73
sg70
(lp1954
g63
(g84
g65
NtRp1955
(dp1956
g68
(dp1957
g88
g89
ssg77
g1951
sg70
(lp1958
S'global_settings'
p1959
asbag63
(g84
g65
NtRp1960
(dp1961
g68
(dp1962
g95
g96
ssg77
g1951
sg70
(lp1963
S':'
asbag63
(g84
g65
NtRp1964
(dp1965
g68
(dp1966
sg77
g1951
sg70
(lp1967
g63
(g64
g65
NtRp1968
(dp1969
g68
(dp1970
g76
I5
ssg77
g1964
sg70
(lp1971
g63
(g72
g65
NtRp1972
(dp1973
g68
(dp1974
g76
I4
ssg77
Nsg70
(lp1975
g63
(g79
g65
NtRp1976
(dp1977
g68
(dp1978
sg77
g1972
sg70
(lp1979
g63
(g84
g65
NtRp1980
(dp1981
g68
(dp1982
g88
g89
ssg77
g1976
sg70
(lp1983
g944
asbag63
(g84
g65
NtRp1984
(dp1985
g68
(dp1986
g95
g96
ssg77
g1976
sg70
(lp1987
S':'
asbag63
(g84
g65
NtRp1988
(dp1989
g68
(dp1990
sg77
g1976
sg70
(lp1991
g63
(g64
g65
NtRp1992
(dp1993
g68
(dp1994
g76
I4
ssg77
g1988
sg70
(lp1995
S"set(['C:\\\\Python32\\\\web2py_win\\\\web2py\\\\applications\\\\admin\\\\', 'C:\\\\Python32\\\\web2py_win\\\\web2py\\\\applications\\\\welcome\\\\', 'C:\\\\Python32\\\\web2py_win\\\\web2py\\\\applications\\\\images\\\\', 'C:\\\\Python32\\\\web2py_win\\\\web2py\\\\applications\\\\Casa_de_Apuestas\\\\'])"
p1996
asbasbasbag63
(g79
g65
NtRp1997
(dp1998
g68
(dp1999
sg77
g1972
sg70
(lp2000
g63
(g84
g65
NtRp2001
(dp2002
g68
(dp2003
g88
g89
ssg77
g1997
sg70
(lp2004
g966
asbag63
(g84
g65
NtRp2005
(dp2006
g68
(dp2007
g95
g96
ssg77
g1997
sg70
(lp2008
S':'
asbag63
(g84
g65
NtRp2009
(dp2010
g68
(dp2011
sg77
g1997
sg70
(lp2012
g63
(g64
g65
NtRp2013
(dp2014
g68
(dp2015
g76
I4
ssg77
g2009
sg70
(lp2016
g979
asbasbasbag63
(g79
g65
NtRp2017
(dp2018
g68
(dp2019
sg77
g1972
sg70
(lp2020
g63
(g84
g65
NtRp2021
(dp2022
g68
(dp2023
g88
g89
ssg77
g2017
sg70
(lp2024
g988
asbag63
(g84
g65
NtRp2025
(dp2026
g68
(dp2027
g95
g96
ssg77
g2017
sg70
(lp2028
S':'
asbag63
(g84
g65
NtRp2029
(dp2030
g68
(dp2031
sg77
g2017
sg70
(lp2032
g63
(g64
g65
NtRp2033
(dp2034
g68
(dp2035
g76
I4
ssg77
g2029
sg70
(lp2036
g63
(g72
g65
NtRp2037
(dp2038
g68
(dp2039
g76
I3
ssg77
Nsg70
(lp2040
sbasbasbasbag63
(g79
g65
NtRp2041
(dp2042
g68
(dp2043
sg77
g1972
sg70
(lp2044
g63
(g84
g65
NtRp2045
(dp2046
g68
(dp2047
g88
g89
ssg77
g2041
sg70
(lp2048
g1013
asbag63
(g84
g65
NtRp2049
(dp2050
g68
(dp2051
g95
g96
ssg77
g2041
sg70
(lp2052
S':'
asbag63
(g84
g65
NtRp2053
(dp2054
g68
(dp2055
sg77
g2041
sg70
(lp2056
g63
(g64
g65
NtRp2057
(dp2058
g68
(dp2059
g76
I4
ssg77
g2053
sg70
(lp2060
S"<Values at 0x2705fa8: {'verbose': False, 'ip': '127.0.0.1', 'shutdown_timeout': 5, 'taskbar': False, 'nocron': False, 'pid_filename': 'httpserver.pid', 'maxthreads': None, 'softcron': False, 'server_name': 'hector-vaio', 'bpython': False, 'nogui': False, 'port': 8000, 'extcron': False, 'debuglevel': 30, 'test': None, 'folder': 'C:\\\\Python32\\\\web2py_win\\\\web2py', 'config': '', 'import_models': False, 'winservice': '', 'shell': None, 'run': '', 'log_filename': 'httpserver.log', 'args': [''], 'ssl_ca_certificate': None, 'scheduler': None, 'profiler_filename': None, 'ssl_private_key': '', 'password': '<ask>', 'request_queue_size': 5, 'ssl_certificate': '', 'cronjob': False, 'plain': False, 'quiet': False, 'interfaces': None, 'minthreads': None, 'timeout': 10, 'numthreads': None, 'nobanner': False}>"
p2061
asbasbasbag63
(g79
g65
NtRp2062
(dp2063
g68
(dp2064
sg77
g1972
sg70
(lp2065
g63
(g84
g65
NtRp2066
(dp2067
g68
(dp2068
g88
g89
ssg77
g2062
sg70
(lp2069
g1035
asbag63
(g84
g65
NtRp2070
(dp2071
g68
(dp2072
g95
g96
ssg77
g2062
sg70
(lp2073
S':'
asbag63
(g84
g65
NtRp2074
(dp2075
g68
(dp2076
sg77
g2062
sg70
(lp2077
g63
(g64
g65
NtRp2078
(dp2079
g68
(dp2080
g76
I4
ssg77
g2074
sg70
(lp2081
S'set([])'
p2082
asbasbasbag63
(g79
g65
NtRp2083
(dp2084
g68
(dp2085
sg77
g1972
sg70
(lp2086
g63
(g84
g65
NtRp2087
(dp2088
g68
(dp2089
g88
g89
ssg77
g2083
sg70
(lp2090
g1057
asbag63
(g84
g65
NtRp2091
(dp2092
g68
(dp2093
g95
g96
ssg77
g2083
sg70
(lp2094
S':'
asbag63
(g84
g65
NtRp2095
(dp2096
g68
(dp2097
sg77
g2083
sg70
(lp2098
g63
(g64
g65
NtRp2099
(dp2100
g68
(dp2101
g76
I4
ssg77
g2095
sg70
(lp2102
g106
asbasbasbag63
(g79
g65
NtRp2103
(dp2104
g68
(dp2105
sg77
g1972
sg70
(lp2106
g63
(g84
g65
NtRp2107
(dp2108
g68
(dp2109
g88
g89
ssg77
g2103
sg70
(lp2110
g1078
asbag63
(g84
g65
NtRp2111
(dp2112
g68
(dp2113
g95
g96
ssg77
g2103
sg70
(lp2114
S':'
asbag63
(g84
g65
NtRp2115
(dp2116
g68
(dp2117
sg77
g2103
sg70
(lp2118
g63
(g64
g65
NtRp2119
(dp2120
g68
(dp2121
g76
I4
ssg77
g2115
sg70
(lp2122
g1091
asbasbasbag63
(g79
g65
NtRp2123
(dp2124
g68
(dp2125
sg77
g1972
sg70
(lp2126
g63
(g84
g65
NtRp2127
(dp2128
g68
(dp2129
g88
g89
ssg77
g2123
sg70
(lp2130
g1298
asbag63
(g84
g65
NtRp2131
(dp2132
g68
(dp2133
g95
g96
ssg77
g2123
sg70
(lp2134
S':'
asbag63
(g84
g65
NtRp2135
(dp2136
g68
(dp2137
sg77
g2123
sg70
(lp2138
g63
(g64
g65
NtRp2139
(dp2140
g68
(dp2141
g76
I4
ssg77
g2135
sg70
(lp2142
g106
asbasbasbag63
(g79
g65
NtRp2143
(dp2144
g68
(dp2145
sg77
g1972
sg70
(lp2146
g63
(g84
g65
NtRp2147
(dp2148
g68
(dp2149
g88
g89
ssg77
g2143
sg70
(lp2150
g1536
asbag63
(g84
g65
NtRp2151
(dp2152
g68
(dp2153
g95
g96
ssg77
g2143
sg70
(lp2154
S':'
asbag63
(g84
g65
NtRp2155
(dp2156
g68
(dp2157
sg77
g2143
sg70
(lp2158
g63
(g64
g65
NtRp2159
(dp2160
g68
(dp2161
g76
I4
ssg77
g2155
sg70
(lp2162
g1549
asbasbasbag63
(g79
g65
NtRp2163
(dp2164
g68
(dp2165
sg77
g1972
sg70
(lp2166
g63
(g84
g65
NtRp2167
(dp2168
g68
(dp2169
g88
g89
ssg77
g2163
sg70
(lp2170
g1579
asbag63
(g84
g65
NtRp2171
(dp2172
g68
(dp2173
g95
g96
ssg77
g2163
sg70
(lp2174
S':'
asbag63
(g84
g65
NtRp2175
(dp2176
g68
(dp2177
sg77
g2163
sg70
(lp2178
g63
(g64
g65
NtRp2179
(dp2180
g68
(dp2181
g76
I4
ssg77
g2175
sg70
(lp2182
g63
(g72
g65
NtRp2183
(dp2184
g68
(dp2185
g76
I3
ssg77
Nsg70
(lp2186
g63
(g79
g65
NtRp2187
(dp2188
g68
(dp2189
sg77
g2183
sg70
(lp2190
g63
(g84
g65
NtRp2191
(dp2192
g68
(dp2193
sg77
g2187
sg70
(lp2194
g63
(g64
g65
NtRp2195
(dp2196
g68
(dp2197
g76
I3
ssg77
g2191
sg70
(lp2198
S'1'
asbasbasbag63
(g79
g65
NtRp2199
(dp2200
g68
(dp2201
sg77
g2183
sg70
(lp2202
g63
(g84
g65
NtRp2203
(dp2204
g68
(dp2205
sg77
g2199
sg70
(lp2206
g63
(g64
g65
NtRp2207
(dp2208
g68
(dp2209
g76
I3
ssg77
g2203
sg70
(lp2210
S'99'
p2211
asbasbasbag63
(g79
g65
NtRp2212
(dp2213
g68
(dp2214
sg77
g2183
sg70
(lp2215
g63
(g84
g65
NtRp2216
(dp2217
g68
(dp2218
sg77
g2212
sg70
(lp2219
g63
(g64
g65
NtRp2220
(dp2221
g68
(dp2222
g76
I3
ssg77
g2216
sg70
(lp2223
S'2'
asbasbasbag63
(g79
g65
NtRp2224
(dp2225
g68
(dp2226
sg77
g2183
sg70
(lp2227
g63
(g84
g65
NtRp2228
(dp2229
g68
(dp2230
sg77
g2224
sg70
(lp2231
g63
(g64
g65
NtRp2232
(dp2233
g68
(dp2234
g76
I3
ssg77
g2228
sg70
(lp2235
S'datetime.datetime(2011, 9, 26, 6, 55, 33)'
p2236
asbasbasbag63
(g79
g65
NtRp2237
(dp2238
g68
(dp2239
sg77
g2183
sg70
(lp2240
g63
(g84
g65
NtRp2241
(dp2242
g68
(dp2243
sg77
g2237
sg70
(lp2244
g63
(g64
g65
NtRp2245
(dp2246
g68
(dp2247
g76
I3
ssg77
g2241
sg70
(lp2248
g1658
asbasbasbasbasbasbasbasbasbasbasbag63
(g79
g65
NtRp2249
(dp2250
g68
(dp2251
sg77
g73
sg70
(lp2252
g63
(g84
g65
NtRp2253
(dp2254
g68
(dp2255
g88
g89
ssg77
g2249
sg70
(lp2256
S'is_https'
p2257
asbag63
(g84
g65
NtRp2258
(dp2259
g68
(dp2260
g95
g96
ssg77
g2249
sg70
(lp2261
S':'
asbag63
(g84
g65
NtRp2262
(dp2263
g68
(dp2264
sg77
g2249
sg70
(lp2265
g63
(g64
g65
NtRp2266
(dp2267
g68
(dp2268
g76
I5
ssg77
g2262
sg70
(lp2269
g106
asbasbasbag63
(g79
g65
NtRp2270
(dp2271
g68
(dp2272
sg77
g73
sg70
(lp2273
g63
(g84
g65
NtRp2274
(dp2275
g68
(dp2276
g88
g89
ssg77
g2270
sg70
(lp2277
S'is_local'
p2278
asbag63
(g84
g65
NtRp2279
(dp2280
g68
(dp2281
g95
g96
ssg77
g2270
sg70
(lp2282
S':'
asbag63
(g84
g65
NtRp2283
(dp2284
g68
(dp2285
sg77
g2270
sg70
(lp2286
g63
(g64
g65
NtRp2287
(dp2288
g68
(dp2289
g76
I5
ssg77
g2283
sg70
(lp2290
g1767
asbasbasbag63
(g79
g65
NtRp2291
(dp2292
g68
(dp2293
sg77
g73
sg70
(lp2294
g63
(g84
g65
NtRp2295
(dp2296
g68
(dp2297
g88
g89
ssg77
g2291
sg70
(lp2298
S'is_restful'
p2299
asbag63
(g84
g65
NtRp2300
(dp2301
g68
(dp2302
g95
g96
ssg77
g2291
sg70
(lp2303
S':'
asbag63
(g84
g65
NtRp2304
(dp2305
g68
(dp2306
sg77
g2291
sg70
(lp2307
g63
(g64
g65
NtRp2308
(dp2309
g68
(dp2310
g76
I5
ssg77
g2304
sg70
(lp2311
g106
asbasbasbag63
(g79
g65
NtRp2312
(dp2313
g68
(dp2314
sg77
g73
sg70
(lp2315
g63
(g84
g65
NtRp2316
(dp2317
g68
(dp2318
g88
g89
ssg77
g2312
sg70
(lp2319
S'now'
p2320
asbag63
(g84
g65
NtRp2321
(dp2322
g68
(dp2323
g95
g96
ssg77
g2312
sg70
(lp2324
S':'
asbag63
(g84
g65
NtRp2325
(dp2326
g68
(dp2327
sg77
g2312
sg70
(lp2328
g63
(g64
g65
NtRp2329
(dp2330
g68
(dp2331
g76
I5
ssg77
g2325
sg70
(lp2332
S'datetime.datetime(2011, 12, 19, 17, 53, 59, 879000)'
p2333
asbasbasbag63
(g79
g65
NtRp2334
(dp2335
g68
(dp2336
sg77
g73
sg70
(lp2337
g63
(g84
g65
NtRp2338
(dp2339
g68
(dp2340
g88
g89
ssg77
g2334
sg70
(lp2341
S'post_vars'
p2342
asbag63
(g84
g65
NtRp2343
(dp2344
g68
(dp2345
g95
g96
ssg77
g2334
sg70
(lp2346
S':'
asbag63
(g84
g65
NtRp2347
(dp2348
g68
(dp2349
sg77
g2334
sg70
(lp2350
g63
(g64
g65
NtRp2351
(dp2352
g68
(dp2353
g76
I5
ssg77
g2347
sg70
(lp2354
g63
(g72
g65
NtRp2355
(dp2356
g68
(dp2357
g76
I4
ssg77
Nsg70
(lp2358
sbasbasbasbag63
(g79
g65
NtRp2359
(dp2360
g68
(dp2361
sg77
g73
sg70
(lp2362
g63
(g84
g65
NtRp2363
(dp2364
g68
(dp2365
g88
g89
ssg77
g2359
sg70
(lp2366
S'url'
p2367
asbag63
(g84
g65
NtRp2368
(dp2369
g68
(dp2370
g95
g96
ssg77
g2359
sg70
(lp2371
S':'
asbag63
(g84
g65
NtRp2372
(dp2373
g68
(dp2374
sg77
g2359
sg70
(lp2375
g63
(g64
g65
NtRp2376
(dp2377
g68
(dp2378
g76
I5
ssg77
g2372
sg70
(lp2379
S'/Casa_de_Apuestas/default/crearEvento'
p2380
asbasbasbag63
(g79
g65
NtRp2381
(dp2382
g68
(dp2383
sg77
g73
sg70
(lp2384
g63
(g84
g65
NtRp2385
(dp2386
g68
(dp2387
g88
g89
ssg77
g2381
sg70
(lp2388
S'utcnow'
p2389
asbag63
(g84
g65
NtRp2390
(dp2391
g68
(dp2392
g95
g96
ssg77
g2381
sg70
(lp2393
S':'
asbag63
(g84
g65
NtRp2394
(dp2395
g68
(dp2396
sg77
g2381
sg70
(lp2397
g63
(g64
g65
NtRp2398
(dp2399
g68
(dp2400
g76
I5
ssg77
g2394
sg70
(lp2401
S'datetime.datetime(2011, 12, 19, 22, 23, 59, 880000)'
p2402
asbasbasbag63
(g79
g65
NtRp2403
(dp2404
g68
(dp2405
sg77
g73
sg70
(lp2406
g63
(g84
g65
NtRp2407
(dp2408
g68
(dp2409
g88
g89
ssg77
g2403
sg70
(lp2410
S'uuid'
p2411
asbag63
(g84
g65
NtRp2412
(dp2413
g68
(dp2414
g95
g96
ssg77
g2403
sg70
(lp2415
S':'
asbag63
(g84
g65
NtRp2416
(dp2417
g68
(dp2418
sg77
g2403
sg70
(lp2419
g63
(g64
g65
NtRp2420
(dp2421
g68
(dp2422
g76
I5
ssg77
g2416
sg70
(lp2423
S'Casa_de_Apuestas/127.0.0.1.2011-12-19.17-53-59.dbda65b7-4494-4213-9acf-43b6b29e1057'
p2424
asbasbasbag63
(g79
g65
NtRp2425
(dp2426
g68
(dp2427
sg77
g73
sg70
(lp2428
g63
(g84
g65
NtRp2429
(dp2430
g68
(dp2431
g88
g89
ssg77
g2425
sg70
(lp2432
S'vars'
p2433
asbag63
(g84
g65
NtRp2434
(dp2435
g68
(dp2436
g95
g96
ssg77
g2425
sg70
(lp2437
S':'
asbag63
(g84
g65
NtRp2438
(dp2439
g68
(dp2440
sg77
g2425
sg70
(lp2441
g63
(g64
g65
NtRp2442
(dp2443
g68
(dp2444
g76
I5
ssg77
g2438
sg70
(lp2445
g63
(g72
g65
NtRp2446
(dp2447
g68
(dp2448
g76
I4
ssg77
Nsg70
(lp2449
sbasbasbasbag63
(g79
g65
NtRp2450
(dp2451
g68
(dp2452
sg77
g73
sg70
(lp2453
g63
(g84
g65
NtRp2454
(dp2455
g68
(dp2456
g88
g89
ssg77
g2450
sg70
(lp2457
S'wsgi'
p2458
asbag63
(g84
g65
NtRp2459
(dp2460
g68
(dp2461
g95
g96
ssg77
g2450
sg70
(lp2462
S':'
asbag63
(g84
g65
NtRp2463
(dp2464
g68
(dp2465
sg77
g2450
sg70
(lp2466
g63
(g64
g65
NtRp2467
(dp2468
g68
(dp2469
g76
I5
ssg77
g2463
sg70
(lp2470
g63
(g72
g65
NtRp2471
(dp2472
g68
(dp2473
g76
I4
ssg77
Nsg70
(lp2474
g63
(g79
g65
NtRp2475
(dp2476
g68
(dp2477
sg77
g2471
sg70
(lp2478
g63
(g84
g65
NtRp2479
(dp2480
g68
(dp2481
g88
g89
ssg77
g2475
sg70
(lp2482
S'environ'
p2483
asbag63
(g84
g65
NtRp2484
(dp2485
g68
(dp2486
g95
g96
ssg77
g2475
sg70
(lp2487
S':'
asbag63
(g84
g65
NtRp2488
(dp2489
g68
(dp2490
sg77
g2475
sg70
(lp2491
g63
(g64
g65
NtRp2492
(dp2493
g68
(dp2494
g76
I4
ssg77
g2488
sg70
(lp2495
g63
(g72
g65
NtRp2496
(dp2497
g68
(dp2498
g76
I3
ssg77
Nsg70
(lp2499
g63
(g79
g65
NtRp2500
(dp2501
g68
(dp2502
sg77
g2496
sg70
(lp2503
g63
(g84
g65
NtRp2504
(dp2505
g68
(dp2506
g88
g89
ssg77
g2500
sg70
(lp2507
S'HTTP_ACCEPT'
p2508
asbag63
(g84
g65
NtRp2509
(dp2510
g68
(dp2511
g95
g96
ssg77
g2500
sg70
(lp2512
S':'
asbag63
(g84
g65
NtRp2513
(dp2514
g68
(dp2515
sg77
g2500
sg70
(lp2516
g63
(g64
g65
NtRp2517
(dp2518
g68
(dp2519
g76
I3
ssg77
g2513
sg70
(lp2520
g1113
asbasbasbag63
(g79
g65
NtRp2521
(dp2522
g68
(dp2523
sg77
g2496
sg70
(lp2524
g63
(g84
g65
NtRp2525
(dp2526
g68
(dp2527
g88
g89
ssg77
g2521
sg70
(lp2528
S'HTTP_ACCEPT_CHARSET'
p2529
asbag63
(g84
g65
NtRp2530
(dp2531
g68
(dp2532
g95
g96
ssg77
g2521
sg70
(lp2533
S':'
asbag63
(g84
g65
NtRp2534
(dp2535
g68
(dp2536
sg77
g2521
sg70
(lp2537
g63
(g64
g65
NtRp2538
(dp2539
g68
(dp2540
g76
I3
ssg77
g2534
sg70
(lp2541
g1135
asbasbasbag63
(g79
g65
NtRp2542
(dp2543
g68
(dp2544
sg77
g2496
sg70
(lp2545
g63
(g84
g65
NtRp2546
(dp2547
g68
(dp2548
g88
g89
ssg77
g2542
sg70
(lp2549
S'HTTP_ACCEPT_ENCODING'
p2550
asbag63
(g84
g65
NtRp2551
(dp2552
g68
(dp2553
g95
g96
ssg77
g2542
sg70
(lp2554
S':'
asbag63
(g84
g65
NtRp2555
(dp2556
g68
(dp2557
sg77
g2542
sg70
(lp2558
g63
(g64
g65
NtRp2559
(dp2560
g68
(dp2561
g76
I3
ssg77
g2555
sg70
(lp2562
g1157
asbasbasbag63
(g79
g65
NtRp2563
(dp2564
g68
(dp2565
sg77
g2496
sg70
(lp2566
g63
(g84
g65
NtRp2567
(dp2568
g68
(dp2569
g88
g89
ssg77
g2563
sg70
(lp2570
S'HTTP_ACCEPT_LANGUAGE'
p2571
asbag63
(g84
g65
NtRp2572
(dp2573
g68
(dp2574
g95
g96
ssg77
g2563
sg70
(lp2575
S':'
asbag63
(g84
g65
NtRp2576
(dp2577
g68
(dp2578
sg77
g2563
sg70
(lp2579
g63
(g64
g65
NtRp2580
(dp2581
g68
(dp2582
g76
I3
ssg77
g2576
sg70
(lp2583
g1179
asbasbasbag63
(g79
g65
NtRp2584
(dp2585
g68
(dp2586
sg77
g2496
sg70
(lp2587
g63
(g84
g65
NtRp2588
(dp2589
g68
(dp2590
g88
g89
ssg77
g2584
sg70
(lp2591
S'HTTP_CONNECTION'
p2592
asbag63
(g84
g65
NtRp2593
(dp2594
g68
(dp2595
g95
g96
ssg77
g2584
sg70
(lp2596
S':'
asbag63
(g84
g65
NtRp2597
(dp2598
g68
(dp2599
sg77
g2584
sg70
(lp2600
g63
(g64
g65
NtRp2601
(dp2602
g68
(dp2603
g76
I3
ssg77
g2597
sg70
(lp2604
g1201
asbasbasbag63
(g79
g65
NtRp2605
(dp2606
g68
(dp2607
sg77
g2496
sg70
(lp2608
g63
(g84
g65
NtRp2609
(dp2610
g68
(dp2611
g88
g89
ssg77
g2605
sg70
(lp2612
S'HTTP_COOKIE'
p2613
asbag63
(g84
g65
NtRp2614
(dp2615
g68
(dp2616
g95
g96
ssg77
g2605
sg70
(lp2617
S':'
asbag63
(g84
g65
NtRp2618
(dp2619
g68
(dp2620
sg77
g2605
sg70
(lp2621
g63
(g64
g65
NtRp2622
(dp2623
g68
(dp2624
g76
I3
ssg77
g2618
sg70
(lp2625
g1223
asbasbasbag63
(g79
g65
NtRp2626
(dp2627
g68
(dp2628
sg77
g2496
sg70
(lp2629
g63
(g84
g65
NtRp2630
(dp2631
g68
(dp2632
g88
g89
ssg77
g2626
sg70
(lp2633
S'HTTP_HOST'
p2634
asbag63
(g84
g65
NtRp2635
(dp2636
g68
(dp2637
g95
g96
ssg77
g2626
sg70
(lp2638
S':'
asbag63
(g84
g65
NtRp2639
(dp2640
g68
(dp2641
sg77
g2626
sg70
(lp2642
g63
(g64
g65
NtRp2643
(dp2644
g68
(dp2645
g76
I3
ssg77
g2639
sg70
(lp2646
g1245
asbasbasbag63
(g79
g65
NtRp2647
(dp2648
g68
(dp2649
sg77
g2496
sg70
(lp2650
g63
(g84
g65
NtRp2651
(dp2652
g68
(dp2653
g88
g89
ssg77
g2647
sg70
(lp2654
S'HTTP_REFERER'
p2655
asbag63
(g84
g65
NtRp2656
(dp2657
g68
(dp2658
g95
g96
ssg77
g2647
sg70
(lp2659
S':'
asbag63
(g84
g65
NtRp2660
(dp2661
g68
(dp2662
sg77
g2647
sg70
(lp2663
g63
(g64
g65
NtRp2664
(dp2665
g68
(dp2666
g76
I3
ssg77
g2660
sg70
(lp2667
g1267
asbasbasbag63
(g79
g65
NtRp2668
(dp2669
g68
(dp2670
sg77
g2496
sg70
(lp2671
g63
(g84
g65
NtRp2672
(dp2673
g68
(dp2674
g88
g89
ssg77
g2668
sg70
(lp2675
S'HTTP_USER_AGENT'
p2676
asbag63
(g84
g65
NtRp2677
(dp2678
g68
(dp2679
g95
g96
ssg77
g2668
sg70
(lp2680
S':'
asbag63
(g84
g65
NtRp2681
(dp2682
g68
(dp2683
sg77
g2668
sg70
(lp2684
g63
(g64
g65
NtRp2685
(dp2686
g68
(dp2687
g76
I3
ssg77
g2681
sg70
(lp2688
g1289
asbasbasbag63
(g79
g65
NtRp2689
(dp2690
g68
(dp2691
sg77
g2496
sg70
(lp2692
g63
(g84
g65
NtRp2693
(dp2694
g68
(dp2695
g88
g89
ssg77
g2689
sg70
(lp2696
S'PATH_INFO'
p2697
asbag63
(g84
g65
NtRp2698
(dp2699
g68
(dp2700
g95
g96
ssg77
g2689
sg70
(lp2701
S':'
asbag63
(g84
g65
NtRp2702
(dp2703
g68
(dp2704
sg77
g2689
sg70
(lp2705
g63
(g64
g65
NtRp2706
(dp2707
g68
(dp2708
g76
I3
ssg77
g2702
sg70
(lp2709
g1332
asbasbasbag63
(g79
g65
NtRp2710
(dp2711
g68
(dp2712
sg77
g2496
sg70
(lp2713
g63
(g84
g65
NtRp2714
(dp2715
g68
(dp2716
g88
g89
ssg77
g2710
sg70
(lp2717
S'QUERY_STRING'
p2718
asbag63
(g84
g65
NtRp2719
(dp2720
g68
(dp2721
g95
g96
ssg77
g2710
sg70
(lp2722
S':'
asbag63
(g84
g65
NtRp2723
(dp2724
g68
(dp2725
sg77
g2710
sg70
(lp2726
g63
(g64
g65
NtRp2727
(dp2728
g68
(dp2729
g76
I3
ssg77
g2723
sg70
(lp2730
S''
asbasbasbag63
(g79
g65
NtRp2731
(dp2732
g68
(dp2733
sg77
g2496
sg70
(lp2734
g63
(g84
g65
NtRp2735
(dp2736
g68
(dp2737
g88
g89
ssg77
g2731
sg70
(lp2738
S'REMOTE_ADDR'
p2739
asbag63
(g84
g65
NtRp2740
(dp2741
g68
(dp2742
g95
g96
ssg77
g2731
sg70
(lp2743
S':'
asbag63
(g84
g65
NtRp2744
(dp2745
g68
(dp2746
sg77
g2731
sg70
(lp2747
g63
(g64
g65
NtRp2748
(dp2749
g68
(dp2750
g76
I3
ssg77
g2744
sg70
(lp2751
g196
asbasbasbag63
(g79
g65
NtRp2752
(dp2753
g68
(dp2754
sg77
g2496
sg70
(lp2755
g63
(g84
g65
NtRp2756
(dp2757
g68
(dp2758
g88
g89
ssg77
g2752
sg70
(lp2759
S'REMOTE_PORT'
p2760
asbag63
(g84
g65
NtRp2761
(dp2762
g68
(dp2763
g95
g96
ssg77
g2752
sg70
(lp2764
S':'
asbag63
(g84
g65
NtRp2765
(dp2766
g68
(dp2767
sg77
g2752
sg70
(lp2768
g63
(g64
g65
NtRp2769
(dp2770
g68
(dp2771
g76
I3
ssg77
g2765
sg70
(lp2772
g1396
asbasbasbag63
(g79
g65
NtRp2773
(dp2774
g68
(dp2775
sg77
g2496
sg70
(lp2776
g63
(g84
g65
NtRp2777
(dp2778
g68
(dp2779
g88
g89
ssg77
g2773
sg70
(lp2780
S'REQUEST_METHOD'
p2781
asbag63
(g84
g65
NtRp2782
(dp2783
g68
(dp2784
g95
g96
ssg77
g2773
sg70
(lp2785
S':'
asbag63
(g84
g65
NtRp2786
(dp2787
g68
(dp2788
sg77
g2773
sg70
(lp2789
g63
(g64
g65
NtRp2790
(dp2791
g68
(dp2792
g76
I3
ssg77
g2786
sg70
(lp2793
g1418
asbasbasbag63
(g79
g65
NtRp2794
(dp2795
g68
(dp2796
sg77
g2496
sg70
(lp2797
g63
(g84
g65
NtRp2798
(dp2799
g68
(dp2800
g88
g89
ssg77
g2794
sg70
(lp2801
S'SCRIPT_NAME'
p2802
asbag63
(g84
g65
NtRp2803
(dp2804
g68
(dp2805
g95
g96
ssg77
g2794
sg70
(lp2806
S':'
asbag63
(g84
g65
NtRp2807
(dp2808
g68
(dp2809
sg77
g2794
sg70
(lp2810
g63
(g64
g65
NtRp2811
(dp2812
g68
(dp2813
g76
I3
ssg77
g2807
sg70
(lp2814
S''
asbasbasbag63
(g79
g65
NtRp2815
(dp2816
g68
(dp2817
sg77
g2496
sg70
(lp2818
g63
(g84
g65
NtRp2819
(dp2820
g68
(dp2821
g88
g89
ssg77
g2815
sg70
(lp2822
S'SERVER_NAME'
p2823
asbag63
(g84
g65
NtRp2824
(dp2825
g68
(dp2826
g95
g96
ssg77
g2815
sg70
(lp2827
S':'
asbag63
(g84
g65
NtRp2828
(dp2829
g68
(dp2830
sg77
g2815
sg70
(lp2831
g63
(g64
g65
NtRp2832
(dp2833
g68
(dp2834
g76
I3
ssg77
g2828
sg70
(lp2835
g1461
asbasbasbag63
(g79
g65
NtRp2836
(dp2837
g68
(dp2838
sg77
g2496
sg70
(lp2839
g63
(g84
g65
NtRp2840
(dp2841
g68
(dp2842
g88
g89
ssg77
g2836
sg70
(lp2843
S'SERVER_PORT'
p2844
asbag63
(g84
g65
NtRp2845
(dp2846
g68
(dp2847
g95
g96
ssg77
g2836
sg70
(lp2848
S':'
asbag63
(g84
g65
NtRp2849
(dp2850
g68
(dp2851
sg77
g2836
sg70
(lp2852
g63
(g64
g65
NtRp2853
(dp2854
g68
(dp2855
g76
I3
ssg77
g2849
sg70
(lp2856
g1483
asbasbasbag63
(g79
g65
NtRp2857
(dp2858
g68
(dp2859
sg77
g2496
sg70
(lp2860
g63
(g84
g65
NtRp2861
(dp2862
g68
(dp2863
g88
g89
ssg77
g2857
sg70
(lp2864
S'SERVER_PROTOCOL'
p2865
asbag63
(g84
g65
NtRp2866
(dp2867
g68
(dp2868
g95
g96
ssg77
g2857
sg70
(lp2869
S':'
asbag63
(g84
g65
NtRp2870
(dp2871
g68
(dp2872
sg77
g2857
sg70
(lp2873
g63
(g64
g65
NtRp2874
(dp2875
g68
(dp2876
g76
I3
ssg77
g2870
sg70
(lp2877
g1505
asbasbasbag63
(g79
g65
NtRp2878
(dp2879
g68
(dp2880
sg77
g2496
sg70
(lp2881
g63
(g84
g65
NtRp2882
(dp2883
g68
(dp2884
g88
g89
ssg77
g2878
sg70
(lp2885
S'SERVER_SOFTWARE'
p2886
asbag63
(g84
g65
NtRp2887
(dp2888
g68
(dp2889
g95
g96
ssg77
g2878
sg70
(lp2890
S':'
asbag63
(g84
g65
NtRp2891
(dp2892
g68
(dp2893
sg77
g2878
sg70
(lp2894
g63
(g64
g65
NtRp2895
(dp2896
g68
(dp2897
g76
I3
ssg77
g2891
sg70
(lp2898
g1527
asbasbasbag63
(g79
g65
NtRp2899
(dp2900
g68
(dp2901
sg77
g2496
sg70
(lp2902
g63
(g84
g65
NtRp2903
(dp2904
g68
(dp2905
g88
g89
ssg77
g2899
sg70
(lp2906
S'wsgi.errors'
p2907
asbag63
(g84
g65
NtRp2908
(dp2909
g68
(dp2910
g95
g96
ssg77
g2899
sg70
(lp2911
S':'
asbag63
(g84
g65
NtRp2912
(dp2913
g68
(dp2914
sg77
g2899
sg70
(lp2915
g63
(g64
g65
NtRp2916
(dp2917
g68
(dp2918
g76
I3
ssg77
g2912
sg70
(lp2919
S"<open file '<stderr>', mode 'w' at 0x015D00B0>"
p2920
asbasbasbag63
(g79
g65
NtRp2921
(dp2922
g68
(dp2923
sg77
g2496
sg70
(lp2924
g63
(g84
g65
NtRp2925
(dp2926
g68
(dp2927
g88
g89
ssg77
g2921
sg70
(lp2928
S'wsgi.file_wrapper'
p2929
asbag63
(g84
g65
NtRp2930
(dp2931
g68
(dp2932
g95
g96
ssg77
g2921
sg70
(lp2933
S':'
asbag63
(g84
g65
NtRp2934
(dp2935
g68
(dp2936
sg77
g2921
sg70
(lp2937
g63
(g64
g65
NtRp2938
(dp2939
g68
(dp2940
g76
I3
ssg77
g2934
sg70
(lp2941
S'<class wsgiref.util.FileWrapper at 0x024A9AB0>'
p2942
asbasbasbag63
(g79
g65
NtRp2943
(dp2944
g68
(dp2945
sg77
g2496
sg70
(lp2946
g63
(g84
g65
NtRp2947
(dp2948
g68
(dp2949
g88
g89
ssg77
g2943
sg70
(lp2950
S'wsgi.input'
p2951
asbag63
(g84
g65
NtRp2952
(dp2953
g68
(dp2954
g95
g96
ssg77
g2943
sg70
(lp2955
S':'
asbag63
(g84
g65
NtRp2956
(dp2957
g68
(dp2958
sg77
g2943
sg70
(lp2959
g63
(g64
g65
NtRp2960
(dp2961
g68
(dp2962
g76
I3
ssg77
g2956
sg70
(lp2963
S'<cStringIO.StringO object at 0x05D4D8C0>'
p2964
asbasbasbag63
(g79
g65
NtRp2965
(dp2966
g68
(dp2967
sg77
g2496
sg70
(lp2968
g63
(g84
g65
NtRp2969
(dp2970
g68
(dp2971
g88
g89
ssg77
g2965
sg70
(lp2972
S'wsgi.multiprocess'
p2973
asbag63
(g84
g65
NtRp2974
(dp2975
g68
(dp2976
g95
g96
ssg77
g2965
sg70
(lp2977
S':'
asbag63
(g84
g65
NtRp2978
(dp2979
g68
(dp2980
sg77
g2965
sg70
(lp2981
g63
(g64
g65
NtRp2982
(dp2983
g68
(dp2984
g76
I3
ssg77
g2978
sg70
(lp2985
g106
asbasbasbag63
(g79
g65
NtRp2986
(dp2987
g68
(dp2988
sg77
g2496
sg70
(lp2989
g63
(g84
g65
NtRp2990
(dp2991
g68
(dp2992
g88
g89
ssg77
g2986
sg70
(lp2993
S'wsgi.multithread'
p2994
asbag63
(g84
g65
NtRp2995
(dp2996
g68
(dp2997
g95
g96
ssg77
g2986
sg70
(lp2998
S':'
asbag63
(g84
g65
NtRp2999
(dp3000
g68
(dp3001
sg77
g2986
sg70
(lp3002
g63
(g64
g65
NtRp3003
(dp3004
g68
(dp3005
g76
I3
ssg77
g2999
sg70
(lp3006
g1767
asbasbasbag63
(g79
g65
NtRp3007
(dp3008
g68
(dp3009
sg77
g2496
sg70
(lp3010
g63
(g84
g65
NtRp3011
(dp3012
g68
(dp3013
g88
g89
ssg77
g3007
sg70
(lp3014
S'wsgi.run_once'
p3015
asbag63
(g84
g65
NtRp3016
(dp3017
g68
(dp3018
g95
g96
ssg77
g3007
sg70
(lp3019
S':'
asbag63
(g84
g65
NtRp3020
(dp3021
g68
(dp3022
sg77
g3007
sg70
(lp3023
g63
(g64
g65
NtRp3024
(dp3025
g68
(dp3026
g76
I3
ssg77
g3020
sg70
(lp3027
g106
asbasbasbag63
(g79
g65
NtRp3028
(dp3029
g68
(dp3030
sg77
g2496
sg70
(lp3031
g63
(g84
g65
NtRp3032
(dp3033
g68
(dp3034
g88
g89
ssg77
g3028
sg70
(lp3035
S'wsgi.url_scheme'
p3036
asbag63
(g84
g65
NtRp3037
(dp3038
g68
(dp3039
g95
g96
ssg77
g3028
sg70
(lp3040
S':'
asbag63
(g84
g65
NtRp3041
(dp3042
g68
(dp3043
sg77
g3028
sg70
(lp3044
g63
(g64
g65
NtRp3045
(dp3046
g68
(dp3047
g76
I3
ssg77
g3041
sg70
(lp3048
g1810
asbasbasbag63
(g79
g65
NtRp3049
(dp3050
g68
(dp3051
sg77
g2496
sg70
(lp3052
g63
(g84
g65
NtRp3053
(dp3054
g68
(dp3055
g88
g89
ssg77
g3049
sg70
(lp3056
S'wsgi.version'
p3057
asbag63
(g84
g65
NtRp3058
(dp3059
g68
(dp3060
g95
g96
ssg77
g3049
sg70
(lp3061
S':'
asbag63
(g84
g65
NtRp3062
(dp3063
g68
(dp3064
sg77
g3049
sg70
(lp3065
g63
(g64
g65
NtRp3066
(dp3067
g68
(dp3068
g76
I3
ssg77
g3062
sg70
(lp3069
S'1'
asbasbasbasbasbasbasbasbasbasbasbasbasbsS'frames'
p3070
(lp3071
(dp3072
S'file'
p3073
S'C:\\Python32\\web2py_win\\web2py\\gluon\\restricted.py'
p3074
sS'dump'
p3075
(dp3076
sS'lnum'
p3077
I194
sS'lines'
p3078
(dp3079
sS'call'
p3080
S"(code='# -*- coding: utf-8 -*-\\n### required - do no del...()\\n\\nresponse._vars=response._caller(crearEvento)\\n', environment={'A': <class 'gluon.html.A'>, 'Auth': <class 'gluon.tools.Auth'>, 'B': <class 'gluon.html.B'>, 'BEAUTIFY': <class 'gluon.html.BEAUTIFY'>, 'BODY': <class 'gluon.html.BODY'>, 'BR': <class 'gluon.html.BR'>, 'BUTTON': <class 'gluon.html.BUTTON'>, 'CAT': <class 'gluon.html.CAT'>, 'CENTER': <class 'gluon.html.CENTER'>, 'CLEANUP': <class 'gluon.validators.CLEANUP'>, ...}, layer=r'C:\\Python32\\web2py_win\\web2py\\applications\\Casa_de_Apuestas\\controllers/default.py')"
p3081
sS'func'
p3082
S'restricted'
p3083
sa(dp3084
g3073
S'C:\\Python32\\web2py_win\\web2py\\applications\\Casa_de_Apuestas\\controllers\\default.py'
p3085
sg3075
(dp3086
sg3077
I206
sg3078
(dp3087
I195
S'    return dict(eventos=eventos)'
p3088
sI196
S''
sI197
S'def verProximosEventos2():'
p3089
sI198
S'    evento_participante= db((db.eventosparticipantes.eventos_id==request.args(0))& (db.participantes.id==db.eventosparticipantes.participantes_id)).select()'
p3090
sI199
S'    evento = db(db.eventos.id==request.args(0)).select()'
p3091
sI200
S'    categoria = db((db.categorias.id==db.eventos.categoria_id)& (db.eventos.id==request.args(0))).select()'
p3092
sI201
S'    return dict(evento_participante=evento_participante,evento=evento,categoria=categoria)'
p3093
sI202
S''
sI203
S'def indexPublico():'
p3094
sI204
S'    return dict()'
p3095
ssg3080
S'()'
p3096
sg3082
S'<module>'
p3097
sa(dp3098
g3073
S'C:\\Python32\\web2py_win\\web2py\\gluon\\globals.py'
p3099
sg3075
(dp3100
sg3077
I149
sg3078
(dp3101
sg3080
S'(f=<function crearEvento at 0x05DF14F0>)'
p3102
sg3082
S'<lambda>'
p3103
sa(dp3104
g3073
S'C:\\Python32\\web2py_win\\web2py\\applications\\Casa_de_Apuestas\\controllers\\default.py'
p3105
sg3075
(dp3106
sg3077
I67
sg3078
(dp3107
I64
S'            from log import *'
p3108
sI65
S'            log = log()'
p3109
sI66
S'            log.logear("Evento creado: "+form.vars.nombre)'
p3110
sI67
S'        return response.render(dict(eventos=eventos))'
p3111
sI68
S''
sI69
S'def crearParticipante():'
p3112
sI70
S'        participantes = db().select(db.participantes.ALL)'
p3113
sI71
S'        form = crud.create(db.participantes)'
p3114
sI62
S'        if form.process().accepted:'
p3115
sI63
S'            db.commit()'
p3116
ssg3080
S'()'
p3117
sg3082
S'crearEvento'
p3118
sa(dp3119
g3073
S'C:\\Python32\\web2py_win\\web2py\\gluon\\globals.py'
p3120
sg3075
(dp3121
sg3077
I185
sg3078
(dp3122
sg3080
S"(self=<Storage {'body': <cStringIO.StringO object at 0...0x05DBF570>, 'view': 'default/crearEvento.html'}>, *a=({'eventos': <gluon.dal.Rows object at 0x05AB8490>},), **b={})"
p3123
sg3082
S'render'
p3124
sa(dp3125
g3073
S'C:\\Python32\\web2py_win\\web2py\\gluon\\compileapp.py'
p3126
sg3075
(dp3127
sg3077
I524
sg3078
(dp3128
sg3080
S"(environment={'A': <class 'gluon.html.A'>, 'Auth': <class 'gluon.tools.Auth'>, 'B': <class 'gluon.html.B'>, 'BEAUTIFY': <class 'gluon.html.BEAUTIFY'>, 'BODY': <class 'gluon.html.BODY'>, 'BR': <class 'gluon.html.BR'>, 'BUTTON': <class 'gluon.html.BUTTON'>, 'CAT': <class 'gluon.html.CAT'>, 'CENTER': <class 'gluon.html.CENTER'>, 'CLEANUP': <class 'gluon.validators.CLEANUP'>, ...})"
p3129
sg3082
S'run_view_in'
p3130
sa(dp3131
g3073
S'C:\\Python32\\web2py_win\\web2py\\gluon\\restricted.py'
p3132
sg3075
(dp3133
sg3077
I202
sg3078
(dp3134
sg3080
S'(code=\'response.write(\\\'<!DOCTYPE html PUBLIC "-//W3C//D...</div>\\\\r\\\\n </body>\\\\r\\\\n</html>\\\\r\\\\n\\\', escape=False)\', environment={\'A\': <class \'gluon.html.A\'>, \'Auth\': <class \'gluon.tools.Auth\'>, \'B\': <class \'gluon.html.B\'>, \'BEAUTIFY\': <class \'gluon.html.BEAUTIFY\'>, \'BODY\': <class \'gluon.html.BODY\'>, \'BR\': <class \'gluon.html.BR\'>, \'BUTTON\': <class \'gluon.html.BUTTON\'>, \'CAT\': <class \'gluon.html.CAT\'>, \'CENTER\': <class \'gluon.html.CENTER\'>, \'CLEANUP\': <class \'gluon.validators.CLEANUP\'>, ...}, layer=r\'C:\\Python32\\web2py_win\\web2py\\applications\\Casa_de_Apuestas\\views\\default/crearEvento.html\')'
p3135
sg3082
g3083
sasS'pyver'
p3136
S'Python 2.5.4: C:\\Python32\\web2py_win\\web2py\\web2py.exe'
p3137
sS'session'
p3138
g63
(g64
g65
NtRp3139
(dp3140
g68
(dp3141
sg70
(lp3142
g63
(g72
g65
NtRp3143
(dp3144
g68
(dp3145
g76
I5
ssg77
Nsg70
(lp3146
g63
(g79
g65
NtRp3147
(dp3148
g68
(dp3149
sg77
g3143
sg70
(lp3150
g63
(g84
g65
NtRp3151
(dp3152
g68
(dp3153
g88
g89
ssg77
g3147
sg70
(lp3154
S'flash'
p3155
asbag63
(g84
g65
NtRp3156
(dp3157
g68
(dp3158
g95
g96
ssg77
g3147
sg70
(lp3159
S':'
asbag63
(g84
g65
NtRp3160
(dp3161
g68
(dp3162
sg77
g3147
sg70
(lp3163
g63
(g64
g65
NtRp3164
(dp3165
g68
(dp3166
g76
I5
ssg77
g3160
sg70
(lp3167
S''
asbasbasbasbasbsS'etype'
p3168
S"<class 'gluon.restricted.RestrictedError'>"
p3169
sS'date'
p3170
S'Mon Dec 19 17:54:00 2011'
p3171
sS'response'
p3172
g63
(g64
g65
NtRp3173
(dp3174
g68
(dp3175
sg70
(lp3176
g63
(g72
g65
NtRp3177
(dp3178
g68
(dp3179
g76
I5
ssg77
Nsg70
(lp3180
g63
(g79
g65
NtRp3181
(dp3182
g68
(dp3183
sg77
g3177
sg70
(lp3184
g63
(g84
g65
NtRp3185
(dp3186
g68
(dp3187
g88
g89
ssg77
g3181
sg70
(lp3188
g161
asbag63
(g84
g65
NtRp3189
(dp3190
g68
(dp3191
g95
g96
ssg77
g3181
sg70
(lp3192
S':'
asbag63
(g84
g65
NtRp3193
(dp3194
g68
(dp3195
sg77
g3181
sg70
(lp3196
g63
(g64
g65
NtRp3197
(dp3198
g68
(dp3199
g76
I5
ssg77
g3193
sg70
(lp3200
S'<cStringIO.StringO object at 0x05D4D540>'
p3201
asbasbasbag63
(g79
g65
NtRp3202
(dp3203
g68
(dp3204
sg77
g3177
sg70
(lp3205
g63
(g84
g65
NtRp3206
(dp3207
g68
(dp3208
g88
g89
ssg77
g3202
sg70
(lp3209
g227
asbag63
(g84
g65
NtRp3210
(dp3211
g68
(dp3212
g95
g96
ssg77
g3202
sg70
(lp3213
S':'
asbag63
(g84
g65
NtRp3214
(dp3215
g68
(dp3216
sg77
g3202
sg70
(lp3217
g63
(g64
g65
NtRp3218
(dp3219
g68
(dp3220
g76
I5
ssg77
g3214
sg70
(lp3221
g63
(g72
g65
NtRp3222
(dp3223
g68
(dp3224
g76
I4
ssg77
Nsg70
(lp3225
g63
(g79
g65
NtRp3226
(dp3227
g68
(dp3228
sg77
g3222
sg70
(lp3229
g63
(g84
g65
NtRp3230
(dp3231
g68
(dp3232
g88
g89
ssg77
g3226
sg70
(lp3233
S'session_id_casa_de_apuestas'
p3234
asbag63
(g84
g65
NtRp3235
(dp3236
g68
(dp3237
g95
g96
ssg77
g3226
sg70
(lp3238
S':'
asbag63
(g84
g65
NtRp3239
(dp3240
g68
(dp3241
sg77
g3226
sg70
(lp3242
g63
(g64
g65
NtRp3243
(dp3244
g68
(dp3245
g76
I4
ssg77
g3239
sg70
(lp3246
g63
(g72
g65
NtRp3247
(dp3248
g68
(dp3249
g76
I3
ssg77
Nsg70
(lp3250
g63
(g79
g65
NtRp3251
(dp3252
g68
(dp3253
sg77
g3247
sg70
(lp3254
g63
(g84
g65
NtRp3255
(dp3256
g68
(dp3257
g88
g89
ssg77
g3251
sg70
(lp3258
g277
asbag63
(g84
g65
NtRp3259
(dp3260
g68
(dp3261
g95
g96
ssg77
g3251
sg70
(lp3262
S':'
asbag63
(g84
g65
NtRp3263
(dp3264
g68
(dp3265
sg77
g3251
sg70
(lp3266
g63
(g64
g65
NtRp3267
(dp3268
g68
(dp3269
g76
I3
ssg77
g3263
sg70
(lp3270
S''
asbasbasbag63
(g79
g65
NtRp3271
(dp3272
g68
(dp3273
sg77
g3247
sg70
(lp3274
g63
(g84
g65
NtRp3275
(dp3276
g68
(dp3277
g88
g89
ssg77
g3271
sg70
(lp3278
g298
asbag63
(g84
g65
NtRp3279
(dp3280
g68
(dp3281
g95
g96
ssg77
g3271
sg70
(lp3282
S':'
asbag63
(g84
g65
NtRp3283
(dp3284
g68
(dp3285
sg77
g3271
sg70
(lp3286
g63
(g64
g65
NtRp3287
(dp3288
g68
(dp3289
g76
I3
ssg77
g3283
sg70
(lp3290
S''
asbasbasbag63
(g79
g65
NtRp3291
(dp3292
g68
(dp3293
sg77
g3247
sg70
(lp3294
g63
(g84
g65
NtRp3295
(dp3296
g68
(dp3297
g88
g89
ssg77
g3291
sg70
(lp3298
g319
asbag63
(g84
g65
NtRp3299
(dp3300
g68
(dp3301
g95
g96
ssg77
g3291
sg70
(lp3302
S':'
asbag63
(g84
g65
NtRp3303
(dp3304
g68
(dp3305
sg77
g3291
sg70
(lp3306
g63
(g64
g65
NtRp3307
(dp3308
g68
(dp3309
g76
I3
ssg77
g3303
sg70
(lp3310
S''
asbasbasbag63
(g79
g65
NtRp3311
(dp3312
g68
(dp3313
sg77
g3247
sg70
(lp3314
g63
(g84
g65
NtRp3315
(dp3316
g68
(dp3317
g88
g89
ssg77
g3311
sg70
(lp3318
g340
asbag63
(g84
g65
NtRp3319
(dp3320
g68
(dp3321
g95
g96
ssg77
g3311
sg70
(lp3322
S':'
asbag63
(g84
g65
NtRp3323
(dp3324
g68
(dp3325
sg77
g3311
sg70
(lp3326
g63
(g64
g65
NtRp3327
(dp3328
g68
(dp3329
g76
I3
ssg77
g3323
sg70
(lp3330
S''
asbasbasbag63
(g79
g65
NtRp3331
(dp3332
g68
(dp3333
sg77
g3247
sg70
(lp3334
g63
(g84
g65
NtRp3335
(dp3336
g68
(dp3337
g88
g89
ssg77
g3331
sg70
(lp3338
g361
asbag63
(g84
g65
NtRp3339
(dp3340
g68
(dp3341
g95
g96
ssg77
g3331
sg70
(lp3342
S':'
asbag63
(g84
g65
NtRp3343
(dp3344
g68
(dp3345
sg77
g3331
sg70
(lp3346
g63
(g64
g65
NtRp3347
(dp3348
g68
(dp3349
g76
I3
ssg77
g3343
sg70
(lp3350
S'/'
asbasbasbag63
(g79
g65
NtRp3351
(dp3352
g68
(dp3353
sg77
g3247
sg70
(lp3354
g63
(g84
g65
NtRp3355
(dp3356
g68
(dp3357
g88
g89
ssg77
g3351
sg70
(lp3358
g382
asbag63
(g84
g65
NtRp3359
(dp3360
g68
(dp3361
g95
g96
ssg77
g3351
sg70
(lp3362
S':'
asbag63
(g84
g65
NtRp3363
(dp3364
g68
(dp3365
sg77
g3351
sg70
(lp3366
g63
(g64
g65
NtRp3367
(dp3368
g68
(dp3369
g76
I3
ssg77
g3363
sg70
(lp3370
S''
asbasbasbag63
(g79
g65
NtRp3371
(dp3372
g68
(dp3373
sg77
g3247
sg70
(lp3374
g63
(g84
g65
NtRp3375
(dp3376
g68
(dp3377
g88
g89
ssg77
g3371
sg70
(lp3378
g403
asbag63
(g84
g65
NtRp3379
(dp3380
g68
(dp3381
g95
g96
ssg77
g3371
sg70
(lp3382
S':'
asbag63
(g84
g65
NtRp3383
(dp3384
g68
(dp3385
sg77
g3371
sg70
(lp3386
g63
(g64
g65
NtRp3387
(dp3388
g68
(dp3389
g76
I3
ssg77
g3383
sg70
(lp3390
S''
asbasbasbasbasbasbasbasbasbasbasbag63
(g79
g65
NtRp3391
(dp3392
g68
(dp3393
sg77
g3177
sg70
(lp3394
g63
(g84
g65
NtRp3395
(dp3396
g68
(dp3397
g88
g89
ssg77
g3391
sg70
(lp3398
S'files'
p3399
asbag63
(g84
g65
NtRp3400
(dp3401
g68
(dp3402
g95
g96
ssg77
g3391
sg70
(lp3403
S':'
asbag63
(g84
g65
NtRp3404
(dp3405
g68
(dp3406
sg77
g3391
sg70
(lp3407
g63
(g64
g65
NtRp3408
(dp3409
g68
(dp3410
g76
I5
ssg77
g3404
sg70
(lp3411
g63
(g72
g65
NtRp3412
(dp3413
g68
(dp3414
g76
I4
ssg77
Nsg70
(lp3415
g63
(g79
g65
NtRp3416
(dp3417
g68
(dp3418
sg77
g3412
sg70
(lp3419
g63
(g84
g65
NtRp3420
(dp3421
g68
(dp3422
sg77
g3416
sg70
(lp3423
g63
(g64
g65
NtRp3424
(dp3425
g68
(dp3426
g76
I4
ssg77
g3420
sg70
(lp3427
S'/Casa_de_Apuestas/static/js/jquery.js'
p3428
asbasbasbag63
(g79
g65
NtRp3429
(dp3430
g68
(dp3431
sg77
g3412
sg70
(lp3432
g63
(g84
g65
NtRp3433
(dp3434
g68
(dp3435
sg77
g3429
sg70
(lp3436
g63
(g64
g65
NtRp3437
(dp3438
g68
(dp3439
g76
I4
ssg77
g3433
sg70
(lp3440
S'/Casa_de_Apuestas/static/css/anytime.css'
p3441
asbasbasbag63
(g79
g65
NtRp3442
(dp3443
g68
(dp3444
sg77
g3412
sg70
(lp3445
g63
(g84
g65
NtRp3446
(dp3447
g68
(dp3448
sg77
g3442
sg70
(lp3449
g63
(g64
g65
NtRp3450
(dp3451
g68
(dp3452
g76
I4
ssg77
g3446
sg70
(lp3453
S'/Casa_de_Apuestas/static/js/anytime.js'
p3454
asbasbasbag63
(g79
g65
NtRp3455
(dp3456
g68
(dp3457
sg77
g3412
sg70
(lp3458
g63
(g84
g65
NtRp3459
(dp3460
g68
(dp3461
sg77
g3455
sg70
(lp3462
g63
(g64
g65
NtRp3463
(dp3464
g68
(dp3465
g76
I4
ssg77
g3459
sg70
(lp3466
S'/Casa_de_Apuestas/static/plugin_layouts/layouts/Balanced/default.css'
p3467
asbasbasbag63
(g79
g65
NtRp3468
(dp3469
g68
(dp3470
sg77
g3412
sg70
(lp3471
g63
(g84
g65
NtRp3472
(dp3473
g68
(dp3474
sg77
g3468
sg70
(lp3475
g63
(g64
g65
NtRp3476
(dp3477
g68
(dp3478
g76
I4
ssg77
g3472
sg70
(lp3479
S'/Casa_de_Apuestas/static/plugin_layouts/superfish.js'
p3480
asbasbasbasbasbasbasbag63
(g79
g65
NtRp3481
(dp3482
g68
(dp3483
sg77
g3177
sg70
(lp3484
g63
(g84
g65
NtRp3485
(dp3486
g68
(dp3487
g88
g89
ssg77
g3481
sg70
(lp3488
S'flash'
p3489
asbag63
(g84
g65
NtRp3490
(dp3491
g68
(dp3492
g95
g96
ssg77
g3481
sg70
(lp3493
S':'
asbag63
(g84
g65
NtRp3494
(dp3495
g68
(dp3496
sg77
g3481
sg70
(lp3497
g63
(g64
g65
NtRp3498
(dp3499
g68
(dp3500
g76
I5
ssg77
g3494
sg70
(lp3501
S''
asbasbasbag63
(g79
g65
NtRp3502
(dp3503
g68
(dp3504
sg77
g3177
sg70
(lp3505
g63
(g84
g65
NtRp3506
(dp3507
g68
(dp3508
g88
g89
ssg77
g3502
sg70
(lp3509
S'generic_patterns'
p3510
asbag63
(g84
g65
NtRp3511
(dp3512
g68
(dp3513
g95
g96
ssg77
g3502
sg70
(lp3514
S':'
asbag63
(g84
g65
NtRp3515
(dp3516
g68
(dp3517
sg77
g3502
sg70
(lp3518
g63
(g64
g65
NtRp3519
(dp3520
g68
(dp3521
g76
I5
ssg77
g3515
sg70
(lp3522
g63
(g72
g65
NtRp3523
(dp3524
g68
(dp3525
g76
I4
ssg77
Nsg70
(lp3526
g63
(g79
g65
NtRp3527
(dp3528
g68
(dp3529
sg77
g3523
sg70
(lp3530
g63
(g84
g65
NtRp3531
(dp3532
g68
(dp3533
sg77
g3527
sg70
(lp3534
g63
(g64
g65
NtRp3535
(dp3536
g68
(dp3537
g76
I4
ssg77
g3531
sg70
(lp3538
S'*'
asbasbasbasbasbasbasbag63
(g79
g65
NtRp3539
(dp3540
g68
(dp3541
sg77
g3177
sg70
(lp3542
g63
(g84
g65
NtRp3543
(dp3544
g68
(dp3545
g88
g89
ssg77
g3539
sg70
(lp3546
S'headers'
p3547
asbag63
(g84
g65
NtRp3548
(dp3549
g68
(dp3550
g95
g96
ssg77
g3539
sg70
(lp3551
S':'
asbag63
(g84
g65
NtRp3552
(dp3553
g68
(dp3554
sg77
g3539
sg70
(lp3555
g63
(g64
g65
NtRp3556
(dp3557
g68
(dp3558
g76
I5
ssg77
g3552
sg70
(lp3559
g63
(g72
g65
NtRp3560
(dp3561
g68
(dp3562
g76
I4
ssg77
Nsg70
(lp3563
g63
(g79
g65
NtRp3564
(dp3565
g68
(dp3566
sg77
g3560
sg70
(lp3567
g63
(g84
g65
NtRp3568
(dp3569
g68
(dp3570
g88
g89
ssg77
g3564
sg70
(lp3571
S'Cache-Control'
p3572
asbag63
(g84
g65
NtRp3573
(dp3574
g68
(dp3575
g95
g96
ssg77
g3564
sg70
(lp3576
S':'
asbag63
(g84
g65
NtRp3577
(dp3578
g68
(dp3579
sg77
g3564
sg70
(lp3580
g63
(g64
g65
NtRp3581
(dp3582
g68
(dp3583
g76
I4
ssg77
g3577
sg70
(lp3584
S'no-store, no-cache, must-revalidate, post-check=0, pre-check=0'
p3585
asbasbasbag63
(g79
g65
NtRp3586
(dp3587
g68
(dp3588
sg77
g3560
sg70
(lp3589
g63
(g84
g65
NtRp3590
(dp3591
g68
(dp3592
g88
g89
ssg77
g3586
sg70
(lp3593
S'Content-Type'
p3594
asbag63
(g84
g65
NtRp3595
(dp3596
g68
(dp3597
g95
g96
ssg77
g3586
sg70
(lp3598
S':'
asbag63
(g84
g65
NtRp3599
(dp3600
g68
(dp3601
sg77
g3586
sg70
(lp3602
g63
(g64
g65
NtRp3603
(dp3604
g68
(dp3605
g76
I4
ssg77
g3599
sg70
(lp3606
S'text/html; charset=utf-8'
p3607
asbasbasbag63
(g79
g65
NtRp3608
(dp3609
g68
(dp3610
sg77
g3560
sg70
(lp3611
g63
(g84
g65
NtRp3612
(dp3613
g68
(dp3614
g88
g89
ssg77
g3608
sg70
(lp3615
S'Expires'
p3616
asbag63
(g84
g65
NtRp3617
(dp3618
g68
(dp3619
g95
g96
ssg77
g3608
sg70
(lp3620
S':'
asbag63
(g84
g65
NtRp3621
(dp3622
g68
(dp3623
sg77
g3608
sg70
(lp3624
g63
(g64
g65
NtRp3625
(dp3626
g68
(dp3627
g76
I4
ssg77
g3621
sg70
(lp3628
S'Mon, 19 Dec 2011 22:23:59 GMT'
p3629
asbasbasbag63
(g79
g65
NtRp3630
(dp3631
g68
(dp3632
sg77
g3560
sg70
(lp3633
g63
(g84
g65
NtRp3634
(dp3635
g68
(dp3636
g88
g89
ssg77
g3630
sg70
(lp3637
S'Pragma'
p3638
asbag63
(g84
g65
NtRp3639
(dp3640
g68
(dp3641
g95
g96
ssg77
g3630
sg70
(lp3642
S':'
asbag63
(g84
g65
NtRp3643
(dp3644
g68
(dp3645
sg77
g3630
sg70
(lp3646
g63
(g64
g65
NtRp3647
(dp3648
g68
(dp3649
g76
I4
ssg77
g3643
sg70
(lp3650
S'no-cache'
p3651
asbasbasbag63
(g79
g65
NtRp3652
(dp3653
g68
(dp3654
sg77
g3560
sg70
(lp3655
g63
(g84
g65
NtRp3656
(dp3657
g68
(dp3658
g88
g89
ssg77
g3652
sg70
(lp3659
S'X-Powered-By'
p3660
asbag63
(g84
g65
NtRp3661
(dp3662
g68
(dp3663
g95
g96
ssg77
g3652
sg70
(lp3664
S':'
asbag63
(g84
g65
NtRp3665
(dp3666
g68
(dp3667
sg77
g3652
sg70
(lp3668
g63
(g64
g65
NtRp3669
(dp3670
g68
(dp3671
g76
I4
ssg77
g3665
sg70
(lp3672
S'web2py'
p3673
asbasbasbasbasbasbasbag63
(g79
g65
NtRp3674
(dp3675
g68
(dp3676
sg77
g3177
sg70
(lp3677
g63
(g84
g65
NtRp3678
(dp3679
g68
(dp3680
g88
g89
ssg77
g3674
sg70
(lp3681
S'menu'
p3682
asbag63
(g84
g65
NtRp3683
(dp3684
g68
(dp3685
g95
g96
ssg77
g3674
sg70
(lp3686
S':'
asbag63
(g84
g65
NtRp3687
(dp3688
g68
(dp3689
sg77
g3674
sg70
(lp3690
g63
(g64
g65
NtRp3691
(dp3692
g68
(dp3693
g76
I5
ssg77
g3687
sg70
(lp3694
g63
(g72
g65
NtRp3695
(dp3696
g68
(dp3697
g76
I4
ssg77
Nsg70
(lp3698
g63
(g79
g65
NtRp3699
(dp3700
g68
(dp3701
sg77
g3695
sg70
(lp3702
g63
(g84
g65
NtRp3703
(dp3704
g68
(dp3705
sg77
g3699
sg70
(lp3706
g63
(g64
g65
NtRp3707
(dp3708
g68
(dp3709
g76
I4
ssg77
g3703
sg70
(lp3710
g63
(g72
g65
NtRp3711
(dp3712
g68
(dp3713
g76
I3
ssg77
Nsg70
(lp3714
g63
(g79
g65
NtRp3715
(dp3716
g68
(dp3717
sg77
g3711
sg70
(lp3718
g63
(g84
g65
NtRp3719
(dp3720
g68
(dp3721
sg77
g3715
sg70
(lp3722
g63
(g64
g65
NtRp3723
(dp3724
g68
(dp3725
g76
I3
ssg77
g3719
sg70
(lp3726
cgluon.languages
lazyT_unpickle
p3727
(S's\x05\x00\x00\x00Index'
tRp3728
asbasbasbag63
(g79
g65
NtRp3729
(dp3730
g68
(dp3731
sg77
g3711
sg70
(lp3732
g63
(g84
g65
NtRp3733
(dp3734
g68
(dp3735
sg77
g3729
sg70
(lp3736
g63
(g64
g65
NtRp3737
(dp3738
g68
(dp3739
g76
I3
ssg77
g3733
sg70
(lp3740
g106
asbasbasbag63
(g79
g65
NtRp3741
(dp3742
g68
(dp3743
sg77
g3711
sg70
(lp3744
g63
(g84
g65
NtRp3745
(dp3746
g68
(dp3747
sg77
g3741
sg70
(lp3748
g63
(g64
g65
NtRp3749
(dp3750
g68
(dp3751
g76
I3
ssg77
g3745
sg70
(lp3752
S'/Casa_de_Apuestas/default/index'
p3753
asbasbasbag63
(g79
g65
NtRp3754
(dp3755
g68
(dp3756
sg77
g3711
sg70
(lp3757
g63
(g84
g65
NtRp3758
(dp3759
g68
(dp3760
sg77
g3754
sg70
(lp3761
g63
(g64
g65
NtRp3762
(dp3763
g68
(dp3764
g76
I3
ssg77
g3758
sg70
(lp3765
g63
(g72
g65
NtRp3766
(dp3767
g68
(dp3768
g76
I2
ssg77
Nsg70
(lp3769
sbasbasbasbasbasbasbasbasbasbasbasbag63
(g79
g65
NtRp3770
(dp3771
g68
(dp3772
sg77
g3177
sg70
(lp3773
g63
(g84
g65
NtRp3774
(dp3775
g68
(dp3776
g88
g89
ssg77
g3770
sg70
(lp3777
S'meta'
p3778
asbag63
(g84
g65
NtRp3779
(dp3780
g68
(dp3781
g95
g96
ssg77
g3770
sg70
(lp3782
S':'
asbag63
(g84
g65
NtRp3783
(dp3784
g68
(dp3785
sg77
g3770
sg70
(lp3786
g63
(g64
g65
NtRp3787
(dp3788
g68
(dp3789
g76
I5
ssg77
g3783
sg70
(lp3790
g63
(g72
g65
NtRp3791
(dp3792
g68
(dp3793
g76
I4
ssg77
Nsg70
(lp3794
g63
(g79
g65
NtRp3795
(dp3796
g68
(dp3797
sg77
g3791
sg70
(lp3798
g63
(g84
g65
NtRp3799
(dp3800
g68
(dp3801
g88
g89
ssg77
g3795
sg70
(lp3802
S'author'
p3803
asbag63
(g84
g65
NtRp3804
(dp3805
g68
(dp3806
g95
g96
ssg77
g3795
sg70
(lp3807
S':'
asbag63
(g84
g65
NtRp3808
(dp3809
g68
(dp3810
sg77
g3795
sg70
(lp3811
g63
(g64
g65
NtRp3812
(dp3813
g68
(dp3814
g76
I4
ssg77
g3808
sg70
(lp3815
S'JSG Systems <jsg@example.com>'
p3816
asbasbasbag63
(g79
g65
NtRp3817
(dp3818
g68
(dp3819
sg77
g3791
sg70
(lp3820
g63
(g84
g65
NtRp3821
(dp3822
g68
(dp3823
g88
g89
ssg77
g3817
sg70
(lp3824
S'description'
p3825
asbag63
(g84
g65
NtRp3826
(dp3827
g68
(dp3828
g95
g96
ssg77
g3817
sg70
(lp3829
S':'
asbag63
(g84
g65
NtRp3830
(dp3831
g68
(dp3832
sg77
g3817
sg70
(lp3833
g63
(g64
g65
NtRp3834
(dp3835
g68
(dp3836
g76
I4
ssg77
g3830
sg70
(lp3837
S''
asbasbasbag63
(g79
g65
NtRp3838
(dp3839
g68
(dp3840
sg77
g3791
sg70
(lp3841
g63
(g84
g65
NtRp3842
(dp3843
g68
(dp3844
g88
g89
ssg77
g3838
sg70
(lp3845
S'keywords'
p3846
asbag63
(g84
g65
NtRp3847
(dp3848
g68
(dp3849
g95
g96
ssg77
g3838
sg70
(lp3850
S':'
asbag63
(g84
g65
NtRp3851
(dp3852
g68
(dp3853
sg77
g3838
sg70
(lp3854
g63
(g64
g65
NtRp3855
(dp3856
g68
(dp3857
g76
I4
ssg77
g3851
sg70
(lp3858
S'casa, apuestas'
p3859
asbasbasbasbasbasbasbag63
(g79
g65
NtRp3860
(dp3861
g68
(dp3862
sg77
g3177
sg70
(lp3863
g63
(g84
g65
NtRp3864
(dp3865
g68
(dp3866
g88
g89
ssg77
g3860
sg70
(lp3867
S'postprocessing'
p3868
asbag63
(g84
g65
NtRp3869
(dp3870
g68
(dp3871
g95
g96
ssg77
g3860
sg70
(lp3872
S':'
asbag63
(g84
g65
NtRp3873
(dp3874
g68
(dp3875
sg77
g3860
sg70
(lp3876
g63
(g64
g65
NtRp3877
(dp3878
g68
(dp3879
g76
I5
ssg77
g3873
sg70
(lp3880
g63
(g72
g65
NtRp3881
(dp3882
g68
(dp3883
g76
I4
ssg77
Nsg70
(lp3884
sbasbasbasbag63
(g79
g65
NtRp3885
(dp3886
g68
(dp3887
sg77
g3177
sg70
(lp3888
g63
(g84
g65
NtRp3889
(dp3890
g68
(dp3891
g88
g89
ssg77
g3885
sg70
(lp3892
S'session_file'
p3893
asbag63
(g84
g65
NtRp3894
(dp3895
g68
(dp3896
g95
g96
ssg77
g3885
sg70
(lp3897
S':'
asbag63
(g84
g65
NtRp3898
(dp3899
g68
(dp3900
sg77
g3885
sg70
(lp3901
g63
(g64
g65
NtRp3902
(dp3903
g68
(dp3904
g76
I5
ssg77
g3898
sg70
(lp3905
S"<open file 'C:\\Python32\\web2py_win\\web2py\\applications\\Casa_de_Apuestas\\sessions\\127.0.0.1-b28859fb-172e-488d-8e45-f5879b610d08', mode 'rb+' at 0x05DCF650>"
p3906
asbasbasbag63
(g79
g65
NtRp3907
(dp3908
g68
(dp3909
sg77
g3177
sg70
(lp3910
g63
(g84
g65
NtRp3911
(dp3912
g68
(dp3913
g88
g89
ssg77
g3907
sg70
(lp3914
S'session_filename'
p3915
asbag63
(g84
g65
NtRp3916
(dp3917
g68
(dp3918
g95
g96
ssg77
g3907
sg70
(lp3919
S':'
asbag63
(g84
g65
NtRp3920
(dp3921
g68
(dp3922
sg77
g3907
sg70
(lp3923
g63
(g64
g65
NtRp3924
(dp3925
g68
(dp3926
g76
I5
ssg77
g3920
sg70
(lp3927
S'C:\\Python32\\web2py_win\\web2py\\applications\\Casa_de_Apuestas\\sessions\\127.0.0.1-b28859fb-172e-488d-8e45-f5879b610d08'
p3928
asbasbasbag63
(g79
g65
NtRp3929
(dp3930
g68
(dp3931
sg77
g3177
sg70
(lp3932
g63
(g84
g65
NtRp3933
(dp3934
g68
(dp3935
g88
g89
ssg77
g3929
sg70
(lp3936
S'session_id'
p3937
asbag63
(g84
g65
NtRp3938
(dp3939
g68
(dp3940
g95
g96
ssg77
g3929
sg70
(lp3941
S':'
asbag63
(g84
g65
NtRp3942
(dp3943
g68
(dp3944
sg77
g3929
sg70
(lp3945
g63
(g64
g65
NtRp3946
(dp3947
g68
(dp3948
g76
I5
ssg77
g3942
sg70
(lp3949
S'127.0.0.1-b28859fb-172e-488d-8e45-f5879b610d08'
p3950
asbasbasbag63
(g79
g65
NtRp3951
(dp3952
g68
(dp3953
sg77
g3177
sg70
(lp3954
g63
(g84
g65
NtRp3955
(dp3956
g68
(dp3957
g88
g89
ssg77
g3951
sg70
(lp3958
S'session_id_name'
p3959
asbag63
(g84
g65
NtRp3960
(dp3961
g68
(dp3962
g95
g96
ssg77
g3951
sg70
(lp3963
S':'
asbag63
(g84
g65
NtRp3964
(dp3965
g68
(dp3966
sg77
g3951
sg70
(lp3967
g63
(g64
g65
NtRp3968
(dp3969
g68
(dp3970
g76
I5
ssg77
g3964
sg70
(lp3971
g3234
asbasbasbag63
(g79
g65
NtRp3972
(dp3973
g68
(dp3974
sg77
g3177
sg70
(lp3975
g63
(g84
g65
NtRp3976
(dp3977
g68
(dp3978
g88
g89
ssg77
g3972
sg70
(lp3979
S'session_locked'
p3980
asbag63
(g84
g65
NtRp3981
(dp3982
g68
(dp3983
g95
g96
ssg77
g3972
sg70
(lp3984
S':'
asbag63
(g84
g65
NtRp3985
(dp3986
g68
(dp3987
sg77
g3972
sg70
(lp3988
g63
(g64
g65
NtRp3989
(dp3990
g68
(dp3991
g76
I5
ssg77
g3985
sg70
(lp3992
g1767
asbasbasbag63
(g79
g65
NtRp3993
(dp3994
g68
(dp3995
sg77
g3177
sg70
(lp3996
g63
(g84
g65
NtRp3997
(dp3998
g68
(dp3999
g88
g89
ssg77
g3993
sg70
(lp4000
S'session_new'
p4001
asbag63
(g84
g65
NtRp4002
(dp4003
g68
(dp4004
g95
g96
ssg77
g3993
sg70
(lp4005
S':'
asbag63
(g84
g65
NtRp4006
(dp4007
g68
(dp4008
sg77
g3993
sg70
(lp4009
g63
(g64
g65
NtRp4010
(dp4011
g68
(dp4012
g76
I5
ssg77
g4006
sg70
(lp4013
g106
asbasbasbag63
(g79
g65
NtRp4014
(dp4015
g68
(dp4016
sg77
g3177
sg70
(lp4017
g63
(g84
g65
NtRp4018
(dp4019
g68
(dp4020
g88
g89
ssg77
g4014
sg70
(lp4021
S'status'
p4022
asbag63
(g84
g65
NtRp4023
(dp4024
g68
(dp4025
g95
g96
ssg77
g4014
sg70
(lp4026
S':'
asbag63
(g84
g65
NtRp4027
(dp4028
g68
(dp4029
sg77
g4014
sg70
(lp4030
g63
(g64
g65
NtRp4031
(dp4032
g68
(dp4033
g76
I5
ssg77
g4027
sg70
(lp4034
S'200'
p4035
asbasbasbag63
(g79
g65
NtRp4036
(dp4037
g68
(dp4038
sg77
g3177
sg70
(lp4039
g63
(g84
g65
NtRp4040
(dp4041
g68
(dp4042
g88
g89
ssg77
g4036
sg70
(lp4043
S'subtitle'
p4044
asbag63
(g84
g65
NtRp4045
(dp4046
g68
(dp4047
g95
g96
ssg77
g4036
sg70
(lp4048
S':'
asbag63
(g84
g65
NtRp4049
(dp4050
g68
(dp4051
sg77
g4036
sg70
(lp4052
g63
(g64
g65
NtRp4053
(dp4054
g68
(dp4055
g76
I5
ssg77
g4049
sg70
(lp4056
S''
asbasbasbag63
(g79
g65
NtRp4057
(dp4058
g68
(dp4059
sg77
g3177
sg70
(lp4060
g63
(g84
g65
NtRp4061
(dp4062
g68
(dp4063
g88
g89
ssg77
g4057
sg70
(lp4064
S'title'
p4065
asbag63
(g84
g65
NtRp4066
(dp4067
g68
(dp4068
g95
g96
ssg77
g4057
sg70
(lp4069
S':'
asbag63
(g84
g65
NtRp4070
(dp4071
g68
(dp4072
sg77
g4057
sg70
(lp4073
g63
(g64
g65
NtRp4074
(dp4075
g68
(dp4076
g76
I5
ssg77
g4070
sg70
(lp4077
S'Casa de Apuestas'
p4078
asbasbasbag63
(g79
g65
NtRp4079
(dp4080
g68
(dp4081
sg77
g3177
sg70
(lp4082
g63
(g84
g65
NtRp4083
(dp4084
g68
(dp4085
g88
g89
ssg77
g4079
sg70
(lp4086
g2411
asbag63
(g84
g65
NtRp4087
(dp4088
g68
(dp4089
g95
g96
ssg77
g4079
sg70
(lp4090
S':'
asbag63
(g84
g65
NtRp4091
(dp4092
g68
(dp4093
sg77
g4079
sg70
(lp4094
g63
(g64
g65
NtRp4095
(dp4096
g68
(dp4097
g76
I5
ssg77
g4091
sg70
(lp4098
g2424
asbasbasbag63
(g79
g65
NtRp4099
(dp4100
g68
(dp4101
sg77
g3177
sg70
(lp4102
g63
(g84
g65
NtRp4103
(dp4104
g68
(dp4105
g88
g89
ssg77
g4099
sg70
(lp4106
S'view'
p4107
asbag63
(g84
g65
NtRp4108
(dp4109
g68
(dp4110
g95
g96
ssg77
g4099
sg70
(lp4111
S':'
asbag63
(g84
g65
NtRp4112
(dp4113
g68
(dp4114
sg77
g4099
sg70
(lp4115
g63
(g64
g65
NtRp4116
(dp4117
g68
(dp4118
g76
I5
ssg77
g4112
sg70
(lp4119
S'default/crearEvento.html'
p4120
asbasbasbasbasbsS'locals'
p4121
(dp4122
g37
S"{'A': <class 'gluon.html.A'>, 'Auth': <class 'gluon.tools.Auth'>, 'B': <class 'gluon.html.B'>, 'BEAUTIFY': <class 'gluon.html.BEAUTIFY'>, 'BODY': <class 'gluon.html.BODY'>, 'BR': <class 'gluon.html.BR'>, 'BUTTON': <class 'gluon.html.BUTTON'>, 'CAT': <class 'gluon.html.CAT'>, 'CENTER': <class 'gluon.html.CENTER'>, 'CLEANUP': <class 'gluon.validators.CLEANUP'>, ...}"
p4123
sg3
S"r'C:\\Python32\\web2py_win\\web2py\\applications\\Casa_de_Apuestas\\views\\default/crearEvento.html'"
p4124
sg5
S'\'response.write(\\\'<!DOCTYPE html PUBLIC "-//W3C//D...</div>\\\\r\\\\n </body>\\\\r\\\\n</html>\\\\r\\\\n\\\', escape=False)\''
p4125
sS'ccode'
p4126
S'<code object <module> at 05DF42F0, file "C:\\Pyth...Apuestas\\views\\default/crearEvento.html", line 1>'
p4127
sS'error'
p4128
S'NameError("name \'form\' is not defined",)'
p4129
sssg51
S'Traceback (most recent call last):\n  File "gluon/restricted.py", line 194, in restricted\n  File "C:\\Python32\\web2py_win\\web2py\\applications\\Casa_de_Apuestas\\controllers/default.py", line 206, in <module>\n  File "gluon/globals.py", line 149, in <lambda>\n  File "C:\\Python32\\web2py_win\\web2py\\applications\\Casa_de_Apuestas\\controllers/default.py", line 67, in crearEvento\n  File "gluon/globals.py", line 185, in render\n  File "gluon/compileapp.py", line 524, in run_view_in\n  File "gluon/restricted.py", line 202, in restricted\nRestrictedError\n'
p4130
s.