(dp1
S'output'
p2
S''
sS'layer'
p3
S'C:\\Python32\\web2py_win\\web2py\\applications\\Casa_de_Apuestas\\controllers/default.py'
p4
sS'code'
p5
S'# -*- coding: utf-8 -*-\n### required - do no delete\n"""\nEste Modulo corresponde al de controladores segun MVC, los metodos aqui contenidos\nson los encargados de invocar a las vistas, eso esta configurado en el framework\n"""\nfrom Servicio import *\nservice = Servicio(db, crud)\nfrom log import *\nlog = log()\n\ndef user(): return dict(form=auth())\ndef download(): return response.download(request,db)\ndef call(): return service()\n\n### end requires\n\n@auth.requires_login()\ndef index():\n    return dict()\n\ndef error():\n    return dict()\n\ndef maquinas():\n    form = crud.update(db.maquinas, request.args(0),next=URL(\'maquinas\'))\n    maquinas = db().select(db.maquinas.ALL)\n    coordenadas = False\n    if (request.args(0)):\n        for i, maquina in enumerate(maquinas):\n            if (i == request.args(0)):\n                break\n        coordenadas = dict(lon=maquina.longitud,lat=maquina.latitud)                    \n    return dict(form=form, maquinas=maquinas, coordenadas=coordenadas)\n\ndef crearCategoria():\n        categorias = db().select(db.categorias.ALL)\n        form = crud.create(db.categorias)\n        #if form.accepts(request.vars, formname=None):\n        if form.process().accepted:\n            db.commit()        \n            from log import *\n            log = log()\n            log.logear("Categoria creada: "+form.vars.nombre)\n        return response.render(dict(form=form, categorias=categorias))\n\ndef obtenerCategoria():\n        if not request.vars.categorias:\n            return \'\'\n        patron = request.vars.categorias.capitalize() + \'%\'\n        seleccionado = db(db.categorias.nombre.like(patron)).select()\n        return \'\'.join([DIV(k.nombre,\n                     _onclick="jQuery(\'#categorias\').val(\'%s\')" % k.nombre +\n                     ";document.getElementById(\'sugerencias\').innerHTML = \'\';" +\n                     "document.getElementById(\'eventos_categoria_id\').value=\'27\';",\n                     _onmouseover="this.style.backgroundColor=\'yellow\'",\n                     _onmouseout="this.style.backgroundColor=\'white\'"\n                     ).xml() for k in seleccionado])\n\ndef crearEvento():\n        eventos = db().select(db.eventos.ALL)\n        form = crud.create(db.eventos)\n        #if form.accepts(request.vars, formname=None):\n        if form.process().accepted:\n            db.commit()        \n            from log import *\n            log = log()\n            log.logear("Evento creado: "+form.vars.nombre)\n        return response.render(dict(form=form,eventos=eventos))\n\ndef crearParticipante():\n        participantes = db().select(db.participantes.ALL)\n        form = crud.create(db.participantes)\n        #if form.accepts(request.vars, formname=None):\n        if form.process().accepted:\n            db.commit()        \n            from log import *\n            log = log()\n            log.logear("Participante creado: "+form.vars.nombre)\n        return response.render(dict(form=form,participantes=participantes))\n\ndef crearEventoParticipante():\n        eventosparticipantes = db().select(db.eventosparticipantes.ALL)\n        form = crud.create(db.eventosparticipantes)\n        #if form.accepts(request.vars, formname=None):\n        if form.process().accepted:\n            db.commit()        \n            from log import *\n            log = log()\n            log.logear("EventoParticipante creado: "+form.vars.nombre)\n        return response.render(dict(form=form,eventosparticipantes=eventosparticipantes))\n\ndef crearUsuario():\n        usuarios = db().select(db.auth_user.ALL)\n        form = crud.create(db.auth_user)\n        #if form.accepts(request.vars, formname=None):\n        if form.process().accepted:\n            db.commit()        \n            from log import *\n            log = log()\n            log.logear("Usuario creado: "+form.vars.nombre)\n        return response.render(dict(form=form,usuarios=usuarios))\n    \n\ndef mostrarCategoria():\n        categorias = db().select(db.categorias.ALL, orderby = db.categorias.id)\n        return response.render(dict(categorias = categorias))\n\ndef mostrarEvento():\n        eventos = db().select(db.eventos.ALL, orderby = db.eventos.id)\n        return response.render(dict(eventos = eventos))\n\ndef mostrarParticipante():\n        participantes = db().select(db.participantes.ALL, orderby = db.participantes.id)\n        return response.render(dict(participantes = participantes))\n\ndef mostrarEventosParticipantes():\n        eventosparticipantes = db().select(db.eventosparticipantes.ALL,orderby = db.eventosparticipantes.id)\n        return response.render(dict(eventosparticipantes= eventosparticipantes))\n    \ndef mostrarUsuario():\n        usuarios = db().select(db.auth_user.ALL, orderby = db.auth_user.id)\n        return response.render(dict(usuarios = usuarios))\n    \n    \n    \ndef showEvento():\n        form = crud.update(db.eventos, request.args(0),next = URL(\'mostrarEvento\'))\n        #if form.accepts(request.vars, formname=None):\n        if form.process().accepted:\n            db.commit()        \n            from log import *\n            log = log()\n            log.logear("Evento modificado: "+form.vars.nombre)           \n        return response.render(dict(form = form))\n\ndef showCategoria():\n        form =crud.update(db.categorias, request.args(0), next = URL(\'mostrarCategoria\'))\n        #if form.accepts(request.vars, formname=None):\n        if form.process().accepted:\n            db.commit()        \n            from log import *\n            log = log()\n            log.logear("Categoria modificada: "+form.vars.nombre)          \n        return response.render(dict(form = form))\n\ndef showParticipante():\n        form = crud.update(db.participantes, request.args(0),next = URL(\'mostrarParticipante\'))\n        #if form.accepts(request.vars, formname=None):\n        if form.process().accepted:\n            db.commit()        \n            from log import *\n            log = log()\n            log.logear("Participante modificado: "+form.vars.nombre)            \n        return response.render(dict(form = form)) \n\ndef showEventosParticipantes():\n    return service.showEventoParticipante(request)\n    \ndef showUsuario():\n        form = crud.update(db.auth_user, request.args(0), next = URL(\'mostrarUsuario\'))\n        #if form.accepts(request.vars, formname=None):\n        if form.process().accepted:\n            db.commit()        \n            from log import *\n            log = log()\n            log.logear("Usuario modificado: "+form.vars.nombre)           \n        return response.render(dict(form = form))\n\n\ndef verResultado1():\n    import datetime\n    fechaActual=datetime.datetime.now()\n    eventos =db(db.eventos.fecha <fechaActual).select()\n    return dict(eventos=eventos)\n        \ndef verResultado2():\n    resultados= db((db.resultados.eventos_id==request.args(0))& (db.resultados.participantes_id==db.participantes.id)).select()\n    evento=db(db.eventos.id==request.args(0)).select()\n    return dict(resultados=resultados,evento=evento)\n    \ndef mostrar():\n    from DAOCasadeApuestas import *\n    dao = DAOCasadeApuestas()\n    dao2 = DAOCasadeApuestas()\n    dao3 = DAOCasadeApuestas()\n    dao4 = DAOCasadeApuestas()\n    dao5 = DAOCasadeApuestas()\n    q = dao.generarArchivoActualizacionMD5(dao.generarMensajeMD5(db().select(db.eventos.ALL)), dao2.generarMensajeMD5(db().select(db.categorias.ALL)), dao3.generarMensajeMD5(db().select(db.participantes.ALL)), dao4.generarMensajeMD5(db().select(db.eventosparticipantes.ALL)), dao5.generarMensajeMD5(db().select(db.auth_user.ALL)))\n    s = dao.generarArchivoActualizacionXML(dao.generarFormatoXml(db().select(db.eventos.ALL)), dao2.generarFormatoXml(db().select(db.categorias.ALL)), dao3.generarFormatoXml(db().select(db.participantes.ALL)), dao4.generarFormatoXml(db().select(db.eventosparticipantes.ALL)), dao5.generarFormatoXml(db().select(db.auth_user.ALL)))\n    return response.render(dict(q = q, s = s))   \n    \ndef verProximosEventos1():\n    import datetime\n    fechaActual=datetime.datetime.now()\n    eventos =db(db.eventos.fecha>fechaActual).select()\n    return dict(eventos=eventos)\n    \ndef verProximosEventos2():\n    evento_participante= db((db.eventosparticipantes.eventos_id==request.args(0))& (db.participantes.id==db.eventosparticipantes.participantes_id)).select()\n    evento = db(db.eventos.id==request.args(0)).select()\n    categoria = db((db.categorias.id==db.eventos.categoria_id)& (db.eventos.id==request.args(0))).select()\n    return dict(evento_participante=evento_participante,evento=evento,categoria=categoria)\n    \ndef indexPublico():\n    return dict()\n\nresponse._vars=response._caller(crearEvento)\n'
p6
sS'snapshot'
p7
(dp8
S'exception'
p9
(dp10
S'load'
p11
S'<bound method RestrictedError.load of RestrictedError()>'
p12
sS'__module__'
p13
S"'gluon.restricted'"
p14
sg5
S'\'response.write(\\\'<!DOCTYPE html PUBLIC "-//W3C//D...</div>\\\\r\\\\n </body>\\\\r\\\\n</html>\\\\r\\\\n\\\', escape=False)\''
p15
sS'__getslice__'
p16
S"<method-wrapper '__getslice__' of RestrictedError object at 0x06D879B8>"
p17
sS'__str__'
p18
S"<method-wrapper '__str__' of RestrictedError object at 0x06D879B8>"
p19
sS'__reduce__'
p20
S'<built-in method __reduce__ of RestrictedError object at 0x06D879B8>'
p21
sg3
S"r'C:\\Python32\\web2py_win\\web2py\\applications\\Casa_de_Apuestas\\views\\default/crearEvento.html'"
p22
sS'__dict__'
p23
S'{\'code\': \'response.write(\\\'<!DOCTYPE html PUBLIC "-//W3C//D...</div>\\\\r\\\\n </body>\\\\r\\\\n</html>\\\\r\\\\n\\\', escape=False)\', \'environment\': {\'A\': <class \'gluon.html.A\'>, \'Auth\': <class \'gluon.tools.Auth\'>, \'B\': <class \'gluon.html.B\'>, \'BEAUTIFY\': <class \'gluon.html.BEAUTIFY\'>, \'BODY\': <class \'gluon.html.BODY\'>, \'BR\': <class \'gluon.html.BR\'>, \'BUTTON\': <class \'gluon.html.BUTTON\'>, \'CAT\': <class \'gluon.html.CAT\'>, \'CENTER\': <class \'gluon.html.CENTER\'>, \'CLEANUP\': <class \'gluon.validators.CLEANUP\'>, ...}, \'layer\': r\'C:\\Python32\\web2py_win\\web2py\\applications\\Casa_de_Apuestas\\views\\default/crearEvento.html\', \'output\': \'\', \'snapshot\': {\'date\': \'Sun Dec 25 14:27:05 2011\', \'etype\': "<type \'exceptions.AttributeError\'>", \'evalue\': "\'NoneType\' object has no attribute \'admiteTablaResultado\'", \'exception\': {\'__class__\': "<type \'exceptions.AttributeError\'>", \'__delattr__\': "<method-wrapper \'__delattr__\' of exceptions.AttributeError object at 0x06D87C10>", \'__dict__\': \'{}\', \'__doc__\': "\'Attribute not found.\'", \'__getattribute__\': "<method-wrapper \'__getattribute__\' of exceptions.AttributeError object at 0x06D87C10>", \'__getitem__\': "<method-wrapper \'__getitem__\' of exceptions.AttributeError object at 0x06D87C10>", \'__getslice__\': "<method-wrapper \'__getslice__\' of exceptions.AttributeError object at 0x06D87C10>", \'__hash__\': "<method-wrapper \'__hash__\' of exceptions.AttributeError object at 0x06D87C10>", \'__init__\': "<method-wrapper \'__init__\' of exceptions.AttributeError object at 0x06D87C10>", \'__new__\': \'<built-in method __new__ of type object at 0x1E1CDA68>\', ...}, \'frames\': [{\'call\': \'(code=\\\'response.write(\\\\\\\'<!DOCTYPE html PUBLIC "-...Casa_de_Apuestas\\\\views\\\\default/crearEvento.html\\\')\', \'dump\': {}, \'file\': r\'C:\\Python32\\web2py_win\\web2py\\gluon\\restricted.py\', \'func\': \'restricted\', \'lines\': {}, \'lnum\': 194}, {\'call\': \'()\', \'dump\': {}, \'file\': r\'C:\\Python32\\web2py_win\\web2py\\applications\\Casa_de_Apuestas\\views\\default\\crearEvento.html\', \'func\': \'<module>\', \'lines\': {53: r"response.write(\'\\r\\n           \', escape=False)", 54: \'response.write(form.custom.widget.nombre)\', 55: r"response.write(\'\\r\\n           \', escape=False)", 56: \'response.write(form.custom.widget.fecha)\', 57: r"response.write(\'\\r\\n           \', escape=False)", 58: \'response.write(form.custom.widget.descripcion)\', 59: r"response.write(\'\\r\\n           \', escape=False)", 60: \'response.write(form.custom.widget.horaInicio)\', 61: r"response.write(\'\\r\\n           \', escape=False)", 62: \'response.write(form.custom.checkeable.admiteTablaResultado)\', ...}, \'lnum\': 62}], \'locals\': {\'A\': "<class \'gluon.html.A\'>", \'Auth\': "<class \'gluon.tools.Auth\'>", \'B\': "<class \'gluon.html.B\'>", \'BEAUTIFY\': "<class \'gluon.html.BEAUTIFY\'>", \'BODY\': "<class \'gluon.html.BODY\'>", \'BR\': "<class \'gluon.html.BR\'>", \'BUTTON\': "<class \'gluon.html.BUTTON\'>", \'CAT\': "<class \'gluon.html.CAT\'>", \'CENTER\': "<class \'gluon.html.CENTER\'>", \'CLEANUP\': "<class \'gluon.validators.CLEANUP\'>", ...}, \'pyver\': r\'Python 2.5.4: C:\\Python32\\web2py_win\\web2py\\web2py.exe\', \'request\': <gluon.html.BEAUTIFY object at 0x06A7D770>, \'response\': <gluon.html.BEAUTIFY object at 0x06A7D530>, \'session\': <gluon.html.BEAUTIFY object at 0x06A7D570>}, \'traceback\': \'Traceback (most recent call last):\\n  File "gluon...\\\' object has no attribute \\\'admiteTablaResultado\\\'\\n\'}'
p24
sS'__weakref__'
p25
S'None'
p26
sS'__init__'
p27
S'<bound method RestrictedError.__init__ of RestrictedError()>'
p28
sS'__setattr__'
p29
S"<method-wrapper '__setattr__' of RestrictedError object at 0x06D879B8>"
p30
sS'__reduce_ex__'
p31
S'<built-in method __reduce_ex__ of RestrictedError object at 0x06D879B8>'
p32
sS'__new__'
p33
S'<built-in method __new__ of type object at 0x1E1CCBE8>'
p34
sS'__class__'
p35
S"<class 'gluon.restricted.RestrictedError'>"
p36
sS'environment'
p37
S"{'A': <class 'gluon.html.A'>, 'Auth': <class 'gluon.tools.Auth'>, 'B': <class 'gluon.html.B'>, 'BEAUTIFY': <class 'gluon.html.BEAUTIFY'>, 'BODY': <class 'gluon.html.BODY'>, 'BR': <class 'gluon.html.BR'>, 'BUTTON': <class 'gluon.html.BUTTON'>, 'CAT': <class 'gluon.html.CAT'>, 'CENTER': <class 'gluon.html.CENTER'>, 'CLEANUP': <class 'gluon.validators.CLEANUP'>, ...}"
p38
sS'__doc__'
p39
S"'\\n    class used to wrap an exception that occurs... to log the exception and generate a ticket.\\n    '"
p40
sS'__getitem__'
p41
S"<method-wrapper '__getitem__' of RestrictedError object at 0x06D879B8>"
p42
sS'__setstate__'
p43
S'<built-in method __setstate__ of RestrictedError object at 0x06D879B8>'
p44
sS'__getattribute__'
p45
S"<method-wrapper '__getattribute__' of RestrictedError object at 0x06D879B8>"
p46
sS'args'
p47
S'()'
p48
sS'log'
p49
S'<bound method RestrictedError.log of RestrictedError()>'
p50
sS'traceback'
p51
S'\'Traceback (most recent call last):\\n  File "gluon...\\\' object has no attribute \\\'admiteTablaResultado\\\'\\n\''
p52
sS'__delattr__'
p53
S"<method-wrapper '__delattr__' of RestrictedError object at 0x06D879B8>"
p54
sg7
S'{\'date\': \'Sun Dec 25 14:27:05 2011\', \'etype\': "<type \'exceptions.AttributeError\'>", \'evalue\': "\'NoneType\' object has no attribute \'admiteTablaResultado\'", \'exception\': {\'__class__\': "<type \'exceptions.AttributeError\'>", \'__delattr__\': "<method-wrapper \'__delattr__\' of exceptions.AttributeError object at 0x06D87C10>", \'__dict__\': \'{}\', \'__doc__\': "\'Attribute not found.\'", \'__getattribute__\': "<method-wrapper \'__getattribute__\' of exceptions.AttributeError object at 0x06D87C10>", \'__getitem__\': "<method-wrapper \'__getitem__\' of exceptions.AttributeError object at 0x06D87C10>", \'__getslice__\': "<method-wrapper \'__getslice__\' of exceptions.AttributeError object at 0x06D87C10>", \'__hash__\': "<method-wrapper \'__hash__\' of exceptions.AttributeError object at 0x06D87C10>", \'__init__\': "<method-wrapper \'__init__\' of exceptions.AttributeError object at 0x06D87C10>", \'__new__\': \'<built-in method __new__ of type object at 0x1E1CDA68>\', ...}, \'frames\': [{\'call\': \'(code=\\\'response.write(\\\\\\\'<!DOCTYPE html PUBLIC "-...Casa_de_Apuestas\\\\views\\\\default/crearEvento.html\\\')\', \'dump\': {}, \'file\': r\'C:\\Python32\\web2py_win\\web2py\\gluon\\restricted.py\', \'func\': \'restricted\', \'lines\': {}, \'lnum\': 194}, {\'call\': \'()\', \'dump\': {}, \'file\': r\'C:\\Python32\\web2py_win\\web2py\\applications\\Casa_de_Apuestas\\views\\default\\crearEvento.html\', \'func\': \'<module>\', \'lines\': {53: r"response.write(\'\\r\\n           \', escape=False)", 54: \'response.write(form.custom.widget.nombre)\', 55: r"response.write(\'\\r\\n           \', escape=False)", 56: \'response.write(form.custom.widget.fecha)\', 57: r"response.write(\'\\r\\n           \', escape=False)", 58: \'response.write(form.custom.widget.descripcion)\', 59: r"response.write(\'\\r\\n           \', escape=False)", 60: \'response.write(form.custom.widget.horaInicio)\', 61: r"response.write(\'\\r\\n           \', escape=False)", 62: \'response.write(form.custom.checkeable.admiteTablaResultado)\', ...}, \'lnum\': 62}], \'locals\': {\'A\': "<class \'gluon.html.A\'>", \'Auth\': "<class \'gluon.tools.Auth\'>", \'B\': "<class \'gluon.html.B\'>", \'BEAUTIFY\': "<class \'gluon.html.BEAUTIFY\'>", \'BODY\': "<class \'gluon.html.BODY\'>", \'BR\': "<class \'gluon.html.BR\'>", \'BUTTON\': "<class \'gluon.html.BUTTON\'>", \'CAT\': "<class \'gluon.html.CAT\'>", \'CENTER\': "<class \'gluon.html.CENTER\'>", \'CLEANUP\': "<class \'gluon.validators.CLEANUP\'>", ...}, \'pyver\': r\'Python 2.5.4: C:\\Python32\\web2py_win\\web2py\\web2py.exe\', \'request\': <gluon.html.BEAUTIFY object at 0x06A7D770>, \'response\': <gluon.html.BEAUTIFY object at 0x06A7D530>, \'session\': <gluon.html.BEAUTIFY object at 0x06A7D570>}'
p55
sS'__repr__'
p56
S"<method-wrapper '__repr__' of RestrictedError object at 0x06D879B8>"
p57
sS'__hash__'
p58
S"<method-wrapper '__hash__' of RestrictedError object at 0x06D879B8>"
p59
sg2
S"''"
p60
ssS'evalue'
p61
S''
sS'request'
p62
ccopy_reg
_reconstructor
p63
(cgluon.html
BEAUTIFY
p64
c__builtin__
object
p65
NtRp66
(dp67
S'attributes'
p68
(dp69
sS'components'
p70
(lp71
g63
(cgluon.html
TABLE
p72
g65
NtRp73
(dp74
g68
(dp75
S'level'
p76
I5
ssS'parent'
p77
Nsg70
(lp78
g63
(cgluon.html
TR
p79
g65
NtRp80
(dp81
g68
(dp82
sg77
g73
sg70
(lp83
g63
(cgluon.html
TD
p84
g65
NtRp85
(dp86
g68
(dp87
S'_style'
p88
S'font-weight:bold;'
p89
ssg77
g80
sg70
(lp90
S'ajax'
p91
asbag63
(g84
g65
NtRp92
(dp93
g68
(dp94
S'_valign'
p95
S'top'
p96
ssg77
g80
sg70
(lp97
S':'
asbag63
(g84
g65
NtRp98
(dp99
g68
(dp100
sg77
g80
sg70
(lp101
g63
(g64
g65
NtRp102
(dp103
g68
(dp104
g76
I5
ssg77
g98
sg70
(lp105
S'False'
p106
asbasbasbag63
(g79
g65
NtRp107
(dp108
g68
(dp109
sg77
g73
sg70
(lp110
g63
(g84
g65
NtRp111
(dp112
g68
(dp113
g88
g89
ssg77
g107
sg70
(lp114
S'application'
p115
asbag63
(g84
g65
NtRp116
(dp117
g68
(dp118
g95
g96
ssg77
g107
sg70
(lp119
S':'
asbag63
(g84
g65
NtRp120
(dp121
g68
(dp122
sg77
g107
sg70
(lp123
g63
(g64
g65
NtRp124
(dp125
g68
(dp126
g76
I5
ssg77
g120
sg70
(lp127
S'Casa_de_Apuestas'
p128
asbasbasbag63
(g79
g65
NtRp129
(dp130
g68
(dp131
sg77
g73
sg70
(lp132
g63
(g84
g65
NtRp133
(dp134
g68
(dp135
g88
g89
ssg77
g129
sg70
(lp136
g47
asbag63
(g84
g65
NtRp137
(dp138
g68
(dp139
g95
g96
ssg77
g129
sg70
(lp140
S':'
asbag63
(g84
g65
NtRp141
(dp142
g68
(dp143
sg77
g129
sg70
(lp144
g63
(g64
g65
NtRp145
(dp146
g68
(dp147
g76
I5
ssg77
g141
sg70
(lp148
g63
(g72
g65
NtRp149
(dp150
g68
(dp151
g76
I4
ssg77
Nsg70
(lp152
sbasbasbasbag63
(g79
g65
NtRp153
(dp154
g68
(dp155
sg77
g73
sg70
(lp156
g63
(g84
g65
NtRp157
(dp158
g68
(dp159
g88
g89
ssg77
g153
sg70
(lp160
S'body'
p161
asbag63
(g84
g65
NtRp162
(dp163
g68
(dp164
g95
g96
ssg77
g153
sg70
(lp165
S':'
asbag63
(g84
g65
NtRp166
(dp167
g68
(dp168
sg77
g153
sg70
(lp169
g63
(g64
g65
NtRp170
(dp171
g68
(dp172
g76
I5
ssg77
g166
sg70
(lp173
S"<open file '<fdopen>', mode 'w+b' at 0x065C9BA8>"
p174
asbasbasbag63
(g79
g65
NtRp175
(dp176
g68
(dp177
sg77
g73
sg70
(lp178
g63
(g84
g65
NtRp179
(dp180
g68
(dp181
g88
g89
ssg77
g175
sg70
(lp182
S'client'
p183
asbag63
(g84
g65
NtRp184
(dp185
g68
(dp186
g95
g96
ssg77
g175
sg70
(lp187
S':'
asbag63
(g84
g65
NtRp188
(dp189
g68
(dp190
sg77
g175
sg70
(lp191
g63
(g64
g65
NtRp192
(dp193
g68
(dp194
g76
I5
ssg77
g188
sg70
(lp195
S'127.0.0.1'
p196
asbasbasbag63
(g79
g65
NtRp197
(dp198
g68
(dp199
sg77
g73
sg70
(lp200
g63
(g84
g65
NtRp201
(dp202
g68
(dp203
g88
g89
ssg77
g197
sg70
(lp204
S'controller'
p205
asbag63
(g84
g65
NtRp206
(dp207
g68
(dp208
g95
g96
ssg77
g197
sg70
(lp209
S':'
asbag63
(g84
g65
NtRp210
(dp211
g68
(dp212
sg77
g197
sg70
(lp213
g63
(g64
g65
NtRp214
(dp215
g68
(dp216
g76
I5
ssg77
g210
sg70
(lp217
S'default'
p218
asbasbasbag63
(g79
g65
NtRp219
(dp220
g68
(dp221
sg77
g73
sg70
(lp222
g63
(g84
g65
NtRp223
(dp224
g68
(dp225
g88
g89
ssg77
g219
sg70
(lp226
S'cookies'
p227
asbag63
(g84
g65
NtRp228
(dp229
g68
(dp230
g95
g96
ssg77
g219
sg70
(lp231
S':'
asbag63
(g84
g65
NtRp232
(dp233
g68
(dp234
sg77
g219
sg70
(lp235
g63
(g64
g65
NtRp236
(dp237
g68
(dp238
g76
I5
ssg77
g232
sg70
(lp239
g63
(g72
g65
NtRp240
(dp241
g68
(dp242
g76
I4
ssg77
Nsg70
(lp243
g63
(g79
g65
NtRp244
(dp245
g68
(dp246
sg77
g240
sg70
(lp247
g63
(g84
g65
NtRp248
(dp249
g68
(dp250
g88
g89
ssg77
g244
sg70
(lp251
S'session_id_admin'
p252
asbag63
(g84
g65
NtRp253
(dp254
g68
(dp255
g95
g96
ssg77
g244
sg70
(lp256
S':'
asbag63
(g84
g65
NtRp257
(dp258
g68
(dp259
sg77
g244
sg70
(lp260
g63
(g64
g65
NtRp261
(dp262
g68
(dp263
g76
I4
ssg77
g257
sg70
(lp264
g63
(g72
g65
NtRp265
(dp266
g68
(dp267
g76
I3
ssg77
Nsg70
(lp268
g63
(g79
g65
NtRp269
(dp270
g68
(dp271
sg77
g265
sg70
(lp272
g63
(g84
g65
NtRp273
(dp274
g68
(dp275
g88
g89
ssg77
g269
sg70
(lp276
S'comment'
p277
asbag63
(g84
g65
NtRp278
(dp279
g68
(dp280
g95
g96
ssg77
g269
sg70
(lp281
S':'
asbag63
(g84
g65
NtRp282
(dp283
g68
(dp284
sg77
g269
sg70
(lp285
g63
(g64
g65
NtRp286
(dp287
g68
(dp288
g76
I3
ssg77
g282
sg70
(lp289
S''
asbasbasbag63
(g79
g65
NtRp290
(dp291
g68
(dp292
sg77
g265
sg70
(lp293
g63
(g84
g65
NtRp294
(dp295
g68
(dp296
g88
g89
ssg77
g290
sg70
(lp297
S'domain'
p298
asbag63
(g84
g65
NtRp299
(dp300
g68
(dp301
g95
g96
ssg77
g290
sg70
(lp302
S':'
asbag63
(g84
g65
NtRp303
(dp304
g68
(dp305
sg77
g290
sg70
(lp306
g63
(g64
g65
NtRp307
(dp308
g68
(dp309
g76
I3
ssg77
g303
sg70
(lp310
S''
asbasbasbag63
(g79
g65
NtRp311
(dp312
g68
(dp313
sg77
g265
sg70
(lp314
g63
(g84
g65
NtRp315
(dp316
g68
(dp317
g88
g89
ssg77
g311
sg70
(lp318
S'expires'
p319
asbag63
(g84
g65
NtRp320
(dp321
g68
(dp322
g95
g96
ssg77
g311
sg70
(lp323
S':'
asbag63
(g84
g65
NtRp324
(dp325
g68
(dp326
sg77
g311
sg70
(lp327
g63
(g64
g65
NtRp328
(dp329
g68
(dp330
g76
I3
ssg77
g324
sg70
(lp331
S''
asbasbasbag63
(g79
g65
NtRp332
(dp333
g68
(dp334
sg77
g265
sg70
(lp335
g63
(g84
g65
NtRp336
(dp337
g68
(dp338
g88
g89
ssg77
g332
sg70
(lp339
S'max-age'
p340
asbag63
(g84
g65
NtRp341
(dp342
g68
(dp343
g95
g96
ssg77
g332
sg70
(lp344
S':'
asbag63
(g84
g65
NtRp345
(dp346
g68
(dp347
sg77
g332
sg70
(lp348
g63
(g64
g65
NtRp349
(dp350
g68
(dp351
g76
I3
ssg77
g345
sg70
(lp352
S''
asbasbasbag63
(g79
g65
NtRp353
(dp354
g68
(dp355
sg77
g265
sg70
(lp356
g63
(g84
g65
NtRp357
(dp358
g68
(dp359
g88
g89
ssg77
g353
sg70
(lp360
S'path'
p361
asbag63
(g84
g65
NtRp362
(dp363
g68
(dp364
g95
g96
ssg77
g353
sg70
(lp365
S':'
asbag63
(g84
g65
NtRp366
(dp367
g68
(dp368
sg77
g353
sg70
(lp369
g63
(g64
g65
NtRp370
(dp371
g68
(dp372
g76
I3
ssg77
g366
sg70
(lp373
S''
asbasbasbag63
(g79
g65
NtRp374
(dp375
g68
(dp376
sg77
g265
sg70
(lp377
g63
(g84
g65
NtRp378
(dp379
g68
(dp380
g88
g89
ssg77
g374
sg70
(lp381
S'secure'
p382
asbag63
(g84
g65
NtRp383
(dp384
g68
(dp385
g95
g96
ssg77
g374
sg70
(lp386
S':'
asbag63
(g84
g65
NtRp387
(dp388
g68
(dp389
sg77
g374
sg70
(lp390
g63
(g64
g65
NtRp391
(dp392
g68
(dp393
g76
I3
ssg77
g387
sg70
(lp394
S''
asbasbasbag63
(g79
g65
NtRp395
(dp396
g68
(dp397
sg77
g265
sg70
(lp398
g63
(g84
g65
NtRp399
(dp400
g68
(dp401
g88
g89
ssg77
g395
sg70
(lp402
S'version'
p403
asbag63
(g84
g65
NtRp404
(dp405
g68
(dp406
g95
g96
ssg77
g395
sg70
(lp407
S':'
asbag63
(g84
g65
NtRp408
(dp409
g68
(dp410
sg77
g395
sg70
(lp411
g63
(g64
g65
NtRp412
(dp413
g68
(dp414
g76
I3
ssg77
g408
sg70
(lp415
S''
asbasbasbasbasbasbasbag63
(g79
g65
NtRp416
(dp417
g68
(dp418
sg77
g240
sg70
(lp419
g63
(g84
g65
NtRp420
(dp421
g68
(dp422
g88
g89
ssg77
g416
sg70
(lp423
S'session_id_casa_de_apuestas'
p424
asbag63
(g84
g65
NtRp425
(dp426
g68
(dp427
g95
g96
ssg77
g416
sg70
(lp428
S':'
asbag63
(g84
g65
NtRp429
(dp430
g68
(dp431
sg77
g416
sg70
(lp432
g63
(g64
g65
NtRp433
(dp434
g68
(dp435
g76
I4
ssg77
g429
sg70
(lp436
g63
(g72
g65
NtRp437
(dp438
g68
(dp439
g76
I3
ssg77
Nsg70
(lp440
g63
(g79
g65
NtRp441
(dp442
g68
(dp443
sg77
g437
sg70
(lp444
g63
(g84
g65
NtRp445
(dp446
g68
(dp447
g88
g89
ssg77
g441
sg70
(lp448
g277
asbag63
(g84
g65
NtRp449
(dp450
g68
(dp451
g95
g96
ssg77
g441
sg70
(lp452
S':'
asbag63
(g84
g65
NtRp453
(dp454
g68
(dp455
sg77
g441
sg70
(lp456
g63
(g64
g65
NtRp457
(dp458
g68
(dp459
g76
I3
ssg77
g453
sg70
(lp460
S''
asbasbasbag63
(g79
g65
NtRp461
(dp462
g68
(dp463
sg77
g437
sg70
(lp464
g63
(g84
g65
NtRp465
(dp466
g68
(dp467
g88
g89
ssg77
g461
sg70
(lp468
g298
asbag63
(g84
g65
NtRp469
(dp470
g68
(dp471
g95
g96
ssg77
g461
sg70
(lp472
S':'
asbag63
(g84
g65
NtRp473
(dp474
g68
(dp475
sg77
g461
sg70
(lp476
g63
(g64
g65
NtRp477
(dp478
g68
(dp479
g76
I3
ssg77
g473
sg70
(lp480
S''
asbasbasbag63
(g79
g65
NtRp481
(dp482
g68
(dp483
sg77
g437
sg70
(lp484
g63
(g84
g65
NtRp485
(dp486
g68
(dp487
g88
g89
ssg77
g481
sg70
(lp488
g319
asbag63
(g84
g65
NtRp489
(dp490
g68
(dp491
g95
g96
ssg77
g481
sg70
(lp492
S':'
asbag63
(g84
g65
NtRp493
(dp494
g68
(dp495
sg77
g481
sg70
(lp496
g63
(g64
g65
NtRp497
(dp498
g68
(dp499
g76
I3
ssg77
g493
sg70
(lp500
S''
asbasbasbag63
(g79
g65
NtRp501
(dp502
g68
(dp503
sg77
g437
sg70
(lp504
g63
(g84
g65
NtRp505
(dp506
g68
(dp507
g88
g89
ssg77
g501
sg70
(lp508
g340
asbag63
(g84
g65
NtRp509
(dp510
g68
(dp511
g95
g96
ssg77
g501
sg70
(lp512
S':'
asbag63
(g84
g65
NtRp513
(dp514
g68
(dp515
sg77
g501
sg70
(lp516
g63
(g64
g65
NtRp517
(dp518
g68
(dp519
g76
I3
ssg77
g513
sg70
(lp520
S''
asbasbasbag63
(g79
g65
NtRp521
(dp522
g68
(dp523
sg77
g437
sg70
(lp524
g63
(g84
g65
NtRp525
(dp526
g68
(dp527
g88
g89
ssg77
g521
sg70
(lp528
g361
asbag63
(g84
g65
NtRp529
(dp530
g68
(dp531
g95
g96
ssg77
g521
sg70
(lp532
S':'
asbag63
(g84
g65
NtRp533
(dp534
g68
(dp535
sg77
g521
sg70
(lp536
g63
(g64
g65
NtRp537
(dp538
g68
(dp539
g76
I3
ssg77
g533
sg70
(lp540
S''
asbasbasbag63
(g79
g65
NtRp541
(dp542
g68
(dp543
sg77
g437
sg70
(lp544
g63
(g84
g65
NtRp545
(dp546
g68
(dp547
g88
g89
ssg77
g541
sg70
(lp548
g382
asbag63
(g84
g65
NtRp549
(dp550
g68
(dp551
g95
g96
ssg77
g541
sg70
(lp552
S':'
asbag63
(g84
g65
NtRp553
(dp554
g68
(dp555
sg77
g541
sg70
(lp556
g63
(g64
g65
NtRp557
(dp558
g68
(dp559
g76
I3
ssg77
g553
sg70
(lp560
S''
asbasbasbag63
(g79
g65
NtRp561
(dp562
g68
(dp563
sg77
g437
sg70
(lp564
g63
(g84
g65
NtRp565
(dp566
g68
(dp567
g88
g89
ssg77
g561
sg70
(lp568
g403
asbag63
(g84
g65
NtRp569
(dp570
g68
(dp571
g95
g96
ssg77
g561
sg70
(lp572
S':'
asbag63
(g84
g65
NtRp573
(dp574
g68
(dp575
sg77
g561
sg70
(lp576
g63
(g64
g65
NtRp577
(dp578
g68
(dp579
g76
I3
ssg77
g573
sg70
(lp580
S''
asbasbasbasbasbasbasbag63
(g79
g65
NtRp581
(dp582
g68
(dp583
sg77
g240
sg70
(lp584
g63
(g84
g65
NtRp585
(dp586
g68
(dp587
g88
g89
ssg77
g581
sg70
(lp588
S'session_id_welcome'
p589
asbag63
(g84
g65
NtRp590
(dp591
g68
(dp592
g95
g96
ssg77
g581
sg70
(lp593
S':'
asbag63
(g84
g65
NtRp594
(dp595
g68
(dp596
sg77
g581
sg70
(lp597
g63
(g64
g65
NtRp598
(dp599
g68
(dp600
g76
I4
ssg77
g594
sg70
(lp601
g63
(g72
g65
NtRp602
(dp603
g68
(dp604
g76
I3
ssg77
Nsg70
(lp605
g63
(g79
g65
NtRp606
(dp607
g68
(dp608
sg77
g602
sg70
(lp609
g63
(g84
g65
NtRp610
(dp611
g68
(dp612
g88
g89
ssg77
g606
sg70
(lp613
g277
asbag63
(g84
g65
NtRp614
(dp615
g68
(dp616
g95
g96
ssg77
g606
sg70
(lp617
S':'
asbag63
(g84
g65
NtRp618
(dp619
g68
(dp620
sg77
g606
sg70
(lp621
g63
(g64
g65
NtRp622
(dp623
g68
(dp624
g76
I3
ssg77
g618
sg70
(lp625
S''
asbasbasbag63
(g79
g65
NtRp626
(dp627
g68
(dp628
sg77
g602
sg70
(lp629
g63
(g84
g65
NtRp630
(dp631
g68
(dp632
g88
g89
ssg77
g626
sg70
(lp633
g298
asbag63
(g84
g65
NtRp634
(dp635
g68
(dp636
g95
g96
ssg77
g626
sg70
(lp637
S':'
asbag63
(g84
g65
NtRp638
(dp639
g68
(dp640
sg77
g626
sg70
(lp641
g63
(g64
g65
NtRp642
(dp643
g68
(dp644
g76
I3
ssg77
g638
sg70
(lp645
S''
asbasbasbag63
(g79
g65
NtRp646
(dp647
g68
(dp648
sg77
g602
sg70
(lp649
g63
(g84
g65
NtRp650
(dp651
g68
(dp652
g88
g89
ssg77
g646
sg70
(lp653
g319
asbag63
(g84
g65
NtRp654
(dp655
g68
(dp656
g95
g96
ssg77
g646
sg70
(lp657
S':'
asbag63
(g84
g65
NtRp658
(dp659
g68
(dp660
sg77
g646
sg70
(lp661
g63
(g64
g65
NtRp662
(dp663
g68
(dp664
g76
I3
ssg77
g658
sg70
(lp665
S''
asbasbasbag63
(g79
g65
NtRp666
(dp667
g68
(dp668
sg77
g602
sg70
(lp669
g63
(g84
g65
NtRp670
(dp671
g68
(dp672
g88
g89
ssg77
g666
sg70
(lp673
g340
asbag63
(g84
g65
NtRp674
(dp675
g68
(dp676
g95
g96
ssg77
g666
sg70
(lp677
S':'
asbag63
(g84
g65
NtRp678
(dp679
g68
(dp680
sg77
g666
sg70
(lp681
g63
(g64
g65
NtRp682
(dp683
g68
(dp684
g76
I3
ssg77
g678
sg70
(lp685
S''
asbasbasbag63
(g79
g65
NtRp686
(dp687
g68
(dp688
sg77
g602
sg70
(lp689
g63
(g84
g65
NtRp690
(dp691
g68
(dp692
g88
g89
ssg77
g686
sg70
(lp693
g361
asbag63
(g84
g65
NtRp694
(dp695
g68
(dp696
g95
g96
ssg77
g686
sg70
(lp697
S':'
asbag63
(g84
g65
NtRp698
(dp699
g68
(dp700
sg77
g686
sg70
(lp701
g63
(g64
g65
NtRp702
(dp703
g68
(dp704
g76
I3
ssg77
g698
sg70
(lp705
S''
asbasbasbag63
(g79
g65
NtRp706
(dp707
g68
(dp708
sg77
g602
sg70
(lp709
g63
(g84
g65
NtRp710
(dp711
g68
(dp712
g88
g89
ssg77
g706
sg70
(lp713
g382
asbag63
(g84
g65
NtRp714
(dp715
g68
(dp716
g95
g96
ssg77
g706
sg70
(lp717
S':'
asbag63
(g84
g65
NtRp718
(dp719
g68
(dp720
sg77
g706
sg70
(lp721
g63
(g64
g65
NtRp722
(dp723
g68
(dp724
g76
I3
ssg77
g718
sg70
(lp725
S''
asbasbasbag63
(g79
g65
NtRp726
(dp727
g68
(dp728
sg77
g602
sg70
(lp729
g63
(g84
g65
NtRp730
(dp731
g68
(dp732
g88
g89
ssg77
g726
sg70
(lp733
g403
asbag63
(g84
g65
NtRp734
(dp735
g68
(dp736
g95
g96
ssg77
g726
sg70
(lp737
S':'
asbag63
(g84
g65
NtRp738
(dp739
g68
(dp740
sg77
g726
sg70
(lp741
g63
(g64
g65
NtRp742
(dp743
g68
(dp744
g76
I3
ssg77
g738
sg70
(lp745
S''
asbasbasbasbasbasbasbasbasbasbasbag63
(g79
g65
NtRp746
(dp747
g68
(dp748
sg77
g73
sg70
(lp749
g63
(g84
g65
NtRp750
(dp751
g68
(dp752
g88
g89
ssg77
g746
sg70
(lp753
S'env'
p754
asbag63
(g84
g65
NtRp755
(dp756
g68
(dp757
g95
g96
ssg77
g746
sg70
(lp758
S':'
asbag63
(g84
g65
NtRp759
(dp760
g68
(dp761
sg77
g746
sg70
(lp762
g63
(g64
g65
NtRp763
(dp764
g68
(dp765
g76
I5
ssg77
g759
sg70
(lp766
g63
(g72
g65
NtRp767
(dp768
g68
(dp769
g76
I4
ssg77
Nsg70
(lp770
g63
(g79
g65
NtRp771
(dp772
g68
(dp773
sg77
g767
sg70
(lp774
g63
(g84
g65
NtRp775
(dp776
g68
(dp777
g88
g89
ssg77
g771
sg70
(lp778
S'app_folders'
p779
asbag63
(g84
g65
NtRp780
(dp781
g68
(dp782
g95
g96
ssg77
g771
sg70
(lp783
S':'
asbag63
(g84
g65
NtRp784
(dp785
g68
(dp786
sg77
g771
sg70
(lp787
g63
(g64
g65
NtRp788
(dp789
g68
(dp790
g76
I4
ssg77
g784
sg70
(lp791
S"set(['C:\\\\Python32\\\\web2py_win\\\\web2py\\\\applications\\\\admin\\\\', 'C:\\\\Python32\\\\web2py_win\\\\web2py\\\\applications\\\\welcome\\\\', 'C:\\\\Python32\\\\web2py_win\\\\web2py\\\\applications\\\\Casa_de_Apuestas\\\\'])"
p792
asbasbasbag63
(g79
g65
NtRp793
(dp794
g68
(dp795
sg77
g767
sg70
(lp796
g63
(g84
g65
NtRp797
(dp798
g68
(dp799
g88
g89
ssg77
g793
sg70
(lp800
S'applications_parent'
p801
asbag63
(g84
g65
NtRp802
(dp803
g68
(dp804
g95
g96
ssg77
g793
sg70
(lp805
S':'
asbag63
(g84
g65
NtRp806
(dp807
g68
(dp808
sg77
g793
sg70
(lp809
g63
(g64
g65
NtRp810
(dp811
g68
(dp812
g76
I4
ssg77
g806
sg70
(lp813
S'C:\\Python32\\web2py_win\\web2py'
p814
asbasbasbag63
(g79
g65
NtRp815
(dp816
g68
(dp817
sg77
g767
sg70
(lp818
g63
(g84
g65
NtRp819
(dp820
g68
(dp821
g88
g89
ssg77
g815
sg70
(lp822
S'cmd_args'
p823
asbag63
(g84
g65
NtRp824
(dp825
g68
(dp826
g95
g96
ssg77
g815
sg70
(lp827
S':'
asbag63
(g84
g65
NtRp828
(dp829
g68
(dp830
sg77
g815
sg70
(lp831
g63
(g64
g65
NtRp832
(dp833
g68
(dp834
g76
I4
ssg77
g828
sg70
(lp835
g63
(g72
g65
NtRp836
(dp837
g68
(dp838
g76
I3
ssg77
Nsg70
(lp839
sbasbasbasbag63
(g79
g65
NtRp840
(dp841
g68
(dp842
sg77
g767
sg70
(lp843
g63
(g84
g65
NtRp844
(dp845
g68
(dp846
g88
g89
ssg77
g840
sg70
(lp847
S'cmd_options'
p848
asbag63
(g84
g65
NtRp849
(dp850
g68
(dp851
g95
g96
ssg77
g840
sg70
(lp852
S':'
asbag63
(g84
g65
NtRp853
(dp854
g68
(dp855
sg77
g840
sg70
(lp856
g63
(g64
g65
NtRp857
(dp858
g68
(dp859
g76
I4
ssg77
g853
sg70
(lp860
S"<Values at 0x2635fa8: {'verbose': False, 'ip': '127.0.0.1', 'shutdown_timeout': 5, 'taskbar': False, 'nocron': False, 'pid_filename': 'httpserver.pid', 'maxthreads': None, 'softcron': False, 'server_name': 'hector-vaio', 'bpython': False, 'nogui': False, 'port': 8000, 'extcron': False, 'debuglevel': 30, 'test': None, 'folder': 'C:\\\\Python32\\\\web2py_win\\\\web2py', 'config': '', 'import_models': False, 'winservice': '', 'shell': None, 'run': '', 'log_filename': 'httpserver.log', 'args': [''], 'ssl_ca_certificate': None, 'scheduler': None, 'profiler_filename': None, 'ssl_private_key': '', 'password': '<ask>', 'request_queue_size': 5, 'ssl_certificate': '', 'cronjob': False, 'plain': False, 'quiet': False, 'interfaces': None, 'minthreads': None, 'timeout': 10, 'numthreads': None, 'nobanner': False}>"
p861
asbasbasbag63
(g79
g65
NtRp862
(dp863
g68
(dp864
sg77
g767
sg70
(lp865
g63
(g84
g65
NtRp866
(dp867
g68
(dp868
g88
g89
ssg77
g862
sg70
(lp869
S'content_length'
p870
asbag63
(g84
g65
NtRp871
(dp872
g68
(dp873
g95
g96
ssg77
g862
sg70
(lp874
S':'
asbag63
(g84
g65
NtRp875
(dp876
g68
(dp877
sg77
g862
sg70
(lp878
g63
(g64
g65
NtRp879
(dp880
g68
(dp881
g76
I4
ssg77
g875
sg70
(lp882
S'1420'
p883
asbasbasbag63
(g79
g65
NtRp884
(dp885
g68
(dp886
sg77
g767
sg70
(lp887
g63
(g84
g65
NtRp888
(dp889
g68
(dp890
g88
g89
ssg77
g884
sg70
(lp891
S'content_type'
p892
asbag63
(g84
g65
NtRp893
(dp894
g68
(dp895
g95
g96
ssg77
g884
sg70
(lp896
S':'
asbag63
(g84
g65
NtRp897
(dp898
g68
(dp899
sg77
g884
sg70
(lp900
g63
(g64
g65
NtRp901
(dp902
g68
(dp903
g76
I4
ssg77
g897
sg70
(lp904
S'multipart/form-data; boundary=----WebKitFormBoundaryWk50CALtkYoER2lc'
p905
asbasbasbag63
(g79
g65
NtRp906
(dp907
g68
(dp908
sg77
g767
sg70
(lp909
g63
(g84
g65
NtRp910
(dp911
g68
(dp912
g88
g89
ssg77
g906
sg70
(lp913
S'db_sessions'
p914
asbag63
(g84
g65
NtRp915
(dp916
g68
(dp917
g95
g96
ssg77
g906
sg70
(lp918
S':'
asbag63
(g84
g65
NtRp919
(dp920
g68
(dp921
sg77
g906
sg70
(lp922
g63
(g64
g65
NtRp923
(dp924
g68
(dp925
g76
I4
ssg77
g919
sg70
(lp926
S'set([])'
p927
asbasbasbag63
(g79
g65
NtRp928
(dp929
g68
(dp930
sg77
g767
sg70
(lp931
g63
(g84
g65
NtRp932
(dp933
g68
(dp934
g88
g89
ssg77
g928
sg70
(lp935
S'debugging'
p936
asbag63
(g84
g65
NtRp937
(dp938
g68
(dp939
g95
g96
ssg77
g928
sg70
(lp940
S':'
asbag63
(g84
g65
NtRp941
(dp942
g68
(dp943
sg77
g928
sg70
(lp944
g63
(g64
g65
NtRp945
(dp946
g68
(dp947
g76
I4
ssg77
g941
sg70
(lp948
g106
asbasbasbag63
(g79
g65
NtRp949
(dp950
g68
(dp951
sg77
g767
sg70
(lp952
g63
(g84
g65
NtRp953
(dp954
g68
(dp955
g88
g89
ssg77
g949
sg70
(lp956
S'gluon_parent'
p957
asbag63
(g84
g65
NtRp958
(dp959
g68
(dp960
g95
g96
ssg77
g949
sg70
(lp961
S':'
asbag63
(g84
g65
NtRp962
(dp963
g68
(dp964
sg77
g949
sg70
(lp965
g63
(g64
g65
NtRp966
(dp967
g68
(dp968
g76
I4
ssg77
g962
sg70
(lp969
S'C:\\Python32\\web2py_win\\web2py'
p970
asbasbasbag63
(g79
g65
NtRp971
(dp972
g68
(dp973
sg77
g767
sg70
(lp974
g63
(g84
g65
NtRp975
(dp976
g68
(dp977
g88
g89
ssg77
g971
sg70
(lp978
S'http_accept'
p979
asbag63
(g84
g65
NtRp980
(dp981
g68
(dp982
g95
g96
ssg77
g971
sg70
(lp983
S':'
asbag63
(g84
g65
NtRp984
(dp985
g68
(dp986
sg77
g971
sg70
(lp987
g63
(g64
g65
NtRp988
(dp989
g68
(dp990
g76
I4
ssg77
g984
sg70
(lp991
S'text/html,application/xhtml+xml,application/xml;q=0.9,*/*;q=0.8'
p992
asbasbasbag63
(g79
g65
NtRp993
(dp994
g68
(dp995
sg77
g767
sg70
(lp996
g63
(g84
g65
NtRp997
(dp998
g68
(dp999
g88
g89
ssg77
g993
sg70
(lp1000
S'http_accept_charset'
p1001
asbag63
(g84
g65
NtRp1002
(dp1003
g68
(dp1004
g95
g96
ssg77
g993
sg70
(lp1005
S':'
asbag63
(g84
g65
NtRp1006
(dp1007
g68
(dp1008
sg77
g993
sg70
(lp1009
g63
(g64
g65
NtRp1010
(dp1011
g68
(dp1012
g76
I4
ssg77
g1006
sg70
(lp1013
S'ISO-8859-1,utf-8;q=0.7,*;q=0.3'
p1014
asbasbasbag63
(g79
g65
NtRp1015
(dp1016
g68
(dp1017
sg77
g767
sg70
(lp1018
g63
(g84
g65
NtRp1019
(dp1020
g68
(dp1021
g88
g89
ssg77
g1015
sg70
(lp1022
S'http_accept_encoding'
p1023
asbag63
(g84
g65
NtRp1024
(dp1025
g68
(dp1026
g95
g96
ssg77
g1015
sg70
(lp1027
S':'
asbag63
(g84
g65
NtRp1028
(dp1029
g68
(dp1030
sg77
g1015
sg70
(lp1031
g63
(g64
g65
NtRp1032
(dp1033
g68
(dp1034
g76
I4
ssg77
g1028
sg70
(lp1035
S'gzip,deflate,sdch'
p1036
asbasbasbag63
(g79
g65
NtRp1037
(dp1038
g68
(dp1039
sg77
g767
sg70
(lp1040
g63
(g84
g65
NtRp1041
(dp1042
g68
(dp1043
g88
g89
ssg77
g1037
sg70
(lp1044
S'http_accept_language'
p1045
asbag63
(g84
g65
NtRp1046
(dp1047
g68
(dp1048
g95
g96
ssg77
g1037
sg70
(lp1049
S':'
asbag63
(g84
g65
NtRp1050
(dp1051
g68
(dp1052
sg77
g1037
sg70
(lp1053
g63
(g64
g65
NtRp1054
(dp1055
g68
(dp1056
g76
I4
ssg77
g1050
sg70
(lp1057
S'en-US,en;q=0.8'
p1058
asbasbasbag63
(g79
g65
NtRp1059
(dp1060
g68
(dp1061
sg77
g767
sg70
(lp1062
g63
(g84
g65
NtRp1063
(dp1064
g68
(dp1065
g88
g89
ssg77
g1059
sg70
(lp1066
S'http_cache_control'
p1067
asbag63
(g84
g65
NtRp1068
(dp1069
g68
(dp1070
g95
g96
ssg77
g1059
sg70
(lp1071
S':'
asbag63
(g84
g65
NtRp1072
(dp1073
g68
(dp1074
sg77
g1059
sg70
(lp1075
g63
(g64
g65
NtRp1076
(dp1077
g68
(dp1078
g76
I4
ssg77
g1072
sg70
(lp1079
S'max-age=0'
p1080
asbasbasbag63
(g79
g65
NtRp1081
(dp1082
g68
(dp1083
sg77
g767
sg70
(lp1084
g63
(g84
g65
NtRp1085
(dp1086
g68
(dp1087
g88
g89
ssg77
g1081
sg70
(lp1088
S'http_connection'
p1089
asbag63
(g84
g65
NtRp1090
(dp1091
g68
(dp1092
g95
g96
ssg77
g1081
sg70
(lp1093
S':'
asbag63
(g84
g65
NtRp1094
(dp1095
g68
(dp1096
sg77
g1081
sg70
(lp1097
g63
(g64
g65
NtRp1098
(dp1099
g68
(dp1100
g76
I4
ssg77
g1094
sg70
(lp1101
S'keep-alive'
p1102
asbasbasbag63
(g79
g65
NtRp1103
(dp1104
g68
(dp1105
sg77
g767
sg70
(lp1106
g63
(g84
g65
NtRp1107
(dp1108
g68
(dp1109
g88
g89
ssg77
g1103
sg70
(lp1110
S'http_content_length'
p1111
asbag63
(g84
g65
NtRp1112
(dp1113
g68
(dp1114
g95
g96
ssg77
g1103
sg70
(lp1115
S':'
asbag63
(g84
g65
NtRp1116
(dp1117
g68
(dp1118
sg77
g1103
sg70
(lp1119
g63
(g64
g65
NtRp1120
(dp1121
g68
(dp1122
g76
I4
ssg77
g1116
sg70
(lp1123
g883
asbasbasbag63
(g79
g65
NtRp1124
(dp1125
g68
(dp1126
sg77
g767
sg70
(lp1127
g63
(g84
g65
NtRp1128
(dp1129
g68
(dp1130
g88
g89
ssg77
g1124
sg70
(lp1131
S'http_content_type'
p1132
asbag63
(g84
g65
NtRp1133
(dp1134
g68
(dp1135
g95
g96
ssg77
g1124
sg70
(lp1136
S':'
asbag63
(g84
g65
NtRp1137
(dp1138
g68
(dp1139
sg77
g1124
sg70
(lp1140
g63
(g64
g65
NtRp1141
(dp1142
g68
(dp1143
g76
I4
ssg77
g1137
sg70
(lp1144
g905
asbasbasbag63
(g79
g65
NtRp1145
(dp1146
g68
(dp1147
sg77
g767
sg70
(lp1148
g63
(g84
g65
NtRp1149
(dp1150
g68
(dp1151
g88
g89
ssg77
g1145
sg70
(lp1152
S'http_cookie'
p1153
asbag63
(g84
g65
NtRp1154
(dp1155
g68
(dp1156
g95
g96
ssg77
g1145
sg70
(lp1157
S':'
asbag63
(g84
g65
NtRp1158
(dp1159
g68
(dp1160
sg77
g1145
sg70
(lp1161
g63
(g64
g65
NtRp1162
(dp1163
g68
(dp1164
g76
I4
ssg77
g1158
sg70
(lp1165
S'session_id_welcome=127.0.0.1-bc513751-996f-43f7-934f-3853f1cd10d9; session_id_casa_de_apuestas=127.0.0.1-620e4e48-b9ab-46bd-a58d-617594f1c170; session_id_admin=127.0.0.1-3b7a4582-ec5a-4b8e-b633-4226d8e92779'
p1166
asbasbasbag63
(g79
g65
NtRp1167
(dp1168
g68
(dp1169
sg77
g767
sg70
(lp1170
g63
(g84
g65
NtRp1171
(dp1172
g68
(dp1173
g88
g89
ssg77
g1167
sg70
(lp1174
S'http_host'
p1175
asbag63
(g84
g65
NtRp1176
(dp1177
g68
(dp1178
g95
g96
ssg77
g1167
sg70
(lp1179
S':'
asbag63
(g84
g65
NtRp1180
(dp1181
g68
(dp1182
sg77
g1167
sg70
(lp1183
g63
(g64
g65
NtRp1184
(dp1185
g68
(dp1186
g76
I4
ssg77
g1180
sg70
(lp1187
S'127.0.0.1:8000'
p1188
asbasbasbag63
(g79
g65
NtRp1189
(dp1190
g68
(dp1191
sg77
g767
sg70
(lp1192
g63
(g84
g65
NtRp1193
(dp1194
g68
(dp1195
g88
g89
ssg77
g1189
sg70
(lp1196
S'http_origin'
p1197
asbag63
(g84
g65
NtRp1198
(dp1199
g68
(dp1200
g95
g96
ssg77
g1189
sg70
(lp1201
S':'
asbag63
(g84
g65
NtRp1202
(dp1203
g68
(dp1204
sg77
g1189
sg70
(lp1205
g63
(g64
g65
NtRp1206
(dp1207
g68
(dp1208
g76
I4
ssg77
g1202
sg70
(lp1209
S'http://127.0.0.1:8000'
p1210
asbasbasbag63
(g79
g65
NtRp1211
(dp1212
g68
(dp1213
sg77
g767
sg70
(lp1214
g63
(g84
g65
NtRp1215
(dp1216
g68
(dp1217
g88
g89
ssg77
g1211
sg70
(lp1218
S'http_referer'
p1219
asbag63
(g84
g65
NtRp1220
(dp1221
g68
(dp1222
g95
g96
ssg77
g1211
sg70
(lp1223
S':'
asbag63
(g84
g65
NtRp1224
(dp1225
g68
(dp1226
sg77
g1211
sg70
(lp1227
g63
(g64
g65
NtRp1228
(dp1229
g68
(dp1230
g76
I4
ssg77
g1224
sg70
(lp1231
S'http://127.0.0.1:8000/Casa_de_Apuestas/default/crearEvento'
p1232
asbasbasbag63
(g79
g65
NtRp1233
(dp1234
g68
(dp1235
sg77
g767
sg70
(lp1236
g63
(g84
g65
NtRp1237
(dp1238
g68
(dp1239
g88
g89
ssg77
g1233
sg70
(lp1240
S'http_user_agent'
p1241
asbag63
(g84
g65
NtRp1242
(dp1243
g68
(dp1244
g95
g96
ssg77
g1233
sg70
(lp1245
S':'
asbag63
(g84
g65
NtRp1246
(dp1247
g68
(dp1248
sg77
g1233
sg70
(lp1249
g63
(g64
g65
NtRp1250
(dp1251
g68
(dp1252
g76
I4
ssg77
g1246
sg70
(lp1253
S'Mozilla/5.0 (Windows NT 6.1) AppleWebKit/535.7 (KHTML, like Gecko) Chrome/16.0.912.63 Safari/535.7'
p1254
asbasbasbag63
(g79
g65
NtRp1255
(dp1256
g68
(dp1257
sg77
g767
sg70
(lp1258
g63
(g84
g65
NtRp1259
(dp1260
g68
(dp1261
g88
g89
ssg77
g1255
sg70
(lp1262
S'is_jython'
p1263
asbag63
(g84
g65
NtRp1264
(dp1265
g68
(dp1266
g95
g96
ssg77
g1255
sg70
(lp1267
S':'
asbag63
(g84
g65
NtRp1268
(dp1269
g68
(dp1270
sg77
g1255
sg70
(lp1271
g63
(g64
g65
NtRp1272
(dp1273
g68
(dp1274
g76
I4
ssg77
g1268
sg70
(lp1275
g106
asbasbasbag63
(g79
g65
NtRp1276
(dp1277
g68
(dp1278
sg77
g767
sg70
(lp1279
g63
(g84
g65
NtRp1280
(dp1281
g68
(dp1282
g88
g89
ssg77
g1276
sg70
(lp1283
S'path_info'
p1284
asbag63
(g84
g65
NtRp1285
(dp1286
g68
(dp1287
g95
g96
ssg77
g1276
sg70
(lp1288
S':'
asbag63
(g84
g65
NtRp1289
(dp1290
g68
(dp1291
sg77
g1276
sg70
(lp1292
g63
(g64
g65
NtRp1293
(dp1294
g68
(dp1295
g76
I4
ssg77
g1289
sg70
(lp1296
S'/Casa_de_Apuestas/default/crearEvento'
p1297
asbasbasbag63
(g79
g65
NtRp1298
(dp1299
g68
(dp1300
sg77
g767
sg70
(lp1301
g63
(g84
g65
NtRp1302
(dp1303
g68
(dp1304
g88
g89
ssg77
g1298
sg70
(lp1305
S'query_string'
p1306
asbag63
(g84
g65
NtRp1307
(dp1308
g68
(dp1309
g95
g96
ssg77
g1298
sg70
(lp1310
S':'
asbag63
(g84
g65
NtRp1311
(dp1312
g68
(dp1313
sg77
g1298
sg70
(lp1314
g63
(g64
g65
NtRp1315
(dp1316
g68
(dp1317
g76
I4
ssg77
g1311
sg70
(lp1318
S''
asbasbasbag63
(g79
g65
NtRp1319
(dp1320
g68
(dp1321
sg77
g767
sg70
(lp1322
g63
(g84
g65
NtRp1323
(dp1324
g68
(dp1325
g88
g89
ssg77
g1319
sg70
(lp1326
S'remote_addr'
p1327
asbag63
(g84
g65
NtRp1328
(dp1329
g68
(dp1330
g95
g96
ssg77
g1319
sg70
(lp1331
S':'
asbag63
(g84
g65
NtRp1332
(dp1333
g68
(dp1334
sg77
g1319
sg70
(lp1335
g63
(g64
g65
NtRp1336
(dp1337
g68
(dp1338
g76
I4
ssg77
g1332
sg70
(lp1339
g196
asbasbasbag63
(g79
g65
NtRp1340
(dp1341
g68
(dp1342
sg77
g767
sg70
(lp1343
g63
(g84
g65
NtRp1344
(dp1345
g68
(dp1346
g88
g89
ssg77
g1340
sg70
(lp1347
S'remote_port'
p1348
asbag63
(g84
g65
NtRp1349
(dp1350
g68
(dp1351
g95
g96
ssg77
g1340
sg70
(lp1352
S':'
asbag63
(g84
g65
NtRp1353
(dp1354
g68
(dp1355
sg77
g1340
sg70
(lp1356
g63
(g64
g65
NtRp1357
(dp1358
g68
(dp1359
g76
I4
ssg77
g1353
sg70
(lp1360
S'51896'
p1361
asbasbasbag63
(g79
g65
NtRp1362
(dp1363
g68
(dp1364
sg77
g767
sg70
(lp1365
g63
(g84
g65
NtRp1366
(dp1367
g68
(dp1368
g88
g89
ssg77
g1362
sg70
(lp1369
S'request_method'
p1370
asbag63
(g84
g65
NtRp1371
(dp1372
g68
(dp1373
g95
g96
ssg77
g1362
sg70
(lp1374
S':'
asbag63
(g84
g65
NtRp1375
(dp1376
g68
(dp1377
sg77
g1362
sg70
(lp1378
g63
(g64
g65
NtRp1379
(dp1380
g68
(dp1381
g76
I4
ssg77
g1375
sg70
(lp1382
S'POST'
p1383
asbasbasbag63
(g79
g65
NtRp1384
(dp1385
g68
(dp1386
sg77
g767
sg70
(lp1387
g63
(g84
g65
NtRp1388
(dp1389
g68
(dp1390
g88
g89
ssg77
g1384
sg70
(lp1391
S'script_name'
p1392
asbag63
(g84
g65
NtRp1393
(dp1394
g68
(dp1395
g95
g96
ssg77
g1384
sg70
(lp1396
S':'
asbag63
(g84
g65
NtRp1397
(dp1398
g68
(dp1399
sg77
g1384
sg70
(lp1400
g63
(g64
g65
NtRp1401
(dp1402
g68
(dp1403
g76
I4
ssg77
g1397
sg70
(lp1404
S''
asbasbasbag63
(g79
g65
NtRp1405
(dp1406
g68
(dp1407
sg77
g767
sg70
(lp1408
g63
(g84
g65
NtRp1409
(dp1410
g68
(dp1411
g88
g89
ssg77
g1405
sg70
(lp1412
S'server_name'
p1413
asbag63
(g84
g65
NtRp1414
(dp1415
g68
(dp1416
g95
g96
ssg77
g1405
sg70
(lp1417
S':'
asbag63
(g84
g65
NtRp1418
(dp1419
g68
(dp1420
sg77
g1405
sg70
(lp1421
g63
(g64
g65
NtRp1422
(dp1423
g68
(dp1424
g76
I4
ssg77
g1418
sg70
(lp1425
S'hector-vaio'
p1426
asbasbasbag63
(g79
g65
NtRp1427
(dp1428
g68
(dp1429
sg77
g767
sg70
(lp1430
g63
(g84
g65
NtRp1431
(dp1432
g68
(dp1433
g88
g89
ssg77
g1427
sg70
(lp1434
S'server_port'
p1435
asbag63
(g84
g65
NtRp1436
(dp1437
g68
(dp1438
g95
g96
ssg77
g1427
sg70
(lp1439
S':'
asbag63
(g84
g65
NtRp1440
(dp1441
g68
(dp1442
sg77
g1427
sg70
(lp1443
g63
(g64
g65
NtRp1444
(dp1445
g68
(dp1446
g76
I4
ssg77
g1440
sg70
(lp1447
S'8000'
p1448
asbasbasbag63
(g79
g65
NtRp1449
(dp1450
g68
(dp1451
sg77
g767
sg70
(lp1452
g63
(g84
g65
NtRp1453
(dp1454
g68
(dp1455
g88
g89
ssg77
g1449
sg70
(lp1456
S'server_protocol'
p1457
asbag63
(g84
g65
NtRp1458
(dp1459
g68
(dp1460
g95
g96
ssg77
g1449
sg70
(lp1461
S':'
asbag63
(g84
g65
NtRp1462
(dp1463
g68
(dp1464
sg77
g1449
sg70
(lp1465
g63
(g64
g65
NtRp1466
(dp1467
g68
(dp1468
g76
I4
ssg77
g1462
sg70
(lp1469
S'HTTP/1.1'
p1470
asbasbasbag63
(g79
g65
NtRp1471
(dp1472
g68
(dp1473
sg77
g767
sg70
(lp1474
g63
(g84
g65
NtRp1475
(dp1476
g68
(dp1477
g88
g89
ssg77
g1471
sg70
(lp1478
S'server_software'
p1479
asbag63
(g84
g65
NtRp1480
(dp1481
g68
(dp1482
g95
g96
ssg77
g1471
sg70
(lp1483
S':'
asbag63
(g84
g65
NtRp1484
(dp1485
g68
(dp1486
sg77
g1471
sg70
(lp1487
g63
(g64
g65
NtRp1488
(dp1489
g68
(dp1490
g76
I4
ssg77
g1484
sg70
(lp1491
S'Rocket 1.2.4'
p1492
asbasbasbag63
(g79
g65
NtRp1493
(dp1494
g68
(dp1495
sg77
g767
sg70
(lp1496
g63
(g84
g65
NtRp1497
(dp1498
g68
(dp1499
g88
g89
ssg77
g1493
sg70
(lp1500
S'web2py_crontype'
p1501
asbag63
(g84
g65
NtRp1502
(dp1503
g68
(dp1504
g95
g96
ssg77
g1493
sg70
(lp1505
S':'
asbag63
(g84
g65
NtRp1506
(dp1507
g68
(dp1508
sg77
g1493
sg70
(lp1509
g63
(g64
g65
NtRp1510
(dp1511
g68
(dp1512
g76
I4
ssg77
g1506
sg70
(lp1513
S'hard'
p1514
asbasbasbag63
(g79
g65
NtRp1515
(dp1516
g68
(dp1517
sg77
g767
sg70
(lp1518
g63
(g84
g65
NtRp1519
(dp1520
g68
(dp1521
g88
g89
ssg77
g1515
sg70
(lp1522
S'web2py_path'
p1523
asbag63
(g84
g65
NtRp1524
(dp1525
g68
(dp1526
g95
g96
ssg77
g1515
sg70
(lp1527
S':'
asbag63
(g84
g65
NtRp1528
(dp1529
g68
(dp1530
sg77
g1515
sg70
(lp1531
g63
(g64
g65
NtRp1532
(dp1533
g68
(dp1534
g76
I4
ssg77
g1528
sg70
(lp1535
g814
asbasbasbag63
(g79
g65
NtRp1536
(dp1537
g68
(dp1538
sg77
g767
sg70
(lp1539
g63
(g84
g65
NtRp1540
(dp1541
g68
(dp1542
g88
g89
ssg77
g1536
sg70
(lp1543
S'web2py_version'
p1544
asbag63
(g84
g65
NtRp1545
(dp1546
g68
(dp1547
g95
g96
ssg77
g1536
sg70
(lp1548
S':'
asbag63
(g84
g65
NtRp1549
(dp1550
g68
(dp1551
sg77
g1536
sg70
(lp1552
g63
(g64
g65
NtRp1553
(dp1554
g68
(dp1555
g76
I4
ssg77
g1549
sg70
(lp1556
g63
(g72
g65
NtRp1557
(dp1558
g68
(dp1559
g76
I3
ssg77
Nsg70
(lp1560
g63
(g79
g65
NtRp1561
(dp1562
g68
(dp1563
sg77
g1557
sg70
(lp1564
g63
(g84
g65
NtRp1565
(dp1566
g68
(dp1567
sg77
g1561
sg70
(lp1568
g63
(g64
g65
NtRp1569
(dp1570
g68
(dp1571
g76
I3
ssg77
g1565
sg70
(lp1572
S'1'
asbasbasbag63
(g79
g65
NtRp1573
(dp1574
g68
(dp1575
sg77
g1557
sg70
(lp1576
g63
(g84
g65
NtRp1577
(dp1578
g68
(dp1579
sg77
g1573
sg70
(lp1580
g63
(g64
g65
NtRp1581
(dp1582
g68
(dp1583
g76
I3
ssg77
g1577
sg70
(lp1584
S'99'
p1585
asbasbasbag63
(g79
g65
NtRp1586
(dp1587
g68
(dp1588
sg77
g1557
sg70
(lp1589
g63
(g84
g65
NtRp1590
(dp1591
g68
(dp1592
sg77
g1586
sg70
(lp1593
g63
(g64
g65
NtRp1594
(dp1595
g68
(dp1596
g76
I3
ssg77
g1590
sg70
(lp1597
S'2'
asbasbasbag63
(g79
g65
NtRp1598
(dp1599
g68
(dp1600
sg77
g1557
sg70
(lp1601
g63
(g84
g65
NtRp1602
(dp1603
g68
(dp1604
sg77
g1598
sg70
(lp1605
g63
(g64
g65
NtRp1606
(dp1607
g68
(dp1608
g76
I3
ssg77
g1602
sg70
(lp1609
S'datetime.datetime(2011, 9, 26, 6, 55, 33)'
p1610
asbasbasbag63
(g79
g65
NtRp1611
(dp1612
g68
(dp1613
sg77
g1557
sg70
(lp1614
g63
(g84
g65
NtRp1615
(dp1616
g68
(dp1617
sg77
g1611
sg70
(lp1618
g63
(g64
g65
NtRp1619
(dp1620
g68
(dp1621
g76
I3
ssg77
g1615
sg70
(lp1622
S'stable'
p1623
asbasbasbasbasbasbasbag63
(g79
g65
NtRp1624
(dp1625
g68
(dp1626
sg77
g767
sg70
(lp1627
g63
(g84
g65
NtRp1628
(dp1629
g68
(dp1630
g88
g89
ssg77
g1624
sg70
(lp1631
S'wsgi_errors'
p1632
asbag63
(g84
g65
NtRp1633
(dp1634
g68
(dp1635
g95
g96
ssg77
g1624
sg70
(lp1636
S':'
asbag63
(g84
g65
NtRp1637
(dp1638
g68
(dp1639
sg77
g1624
sg70
(lp1640
g63
(g64
g65
NtRp1641
(dp1642
g68
(dp1643
g76
I4
ssg77
g1637
sg70
(lp1644
S"<open file '<stderr>', mode 'w' at 0x014F00B0>"
p1645
asbasbasbag63
(g79
g65
NtRp1646
(dp1647
g68
(dp1648
sg77
g767
sg70
(lp1649
g63
(g84
g65
NtRp1650
(dp1651
g68
(dp1652
g88
g89
ssg77
g1646
sg70
(lp1653
S'wsgi_file_wrapper'
p1654
asbag63
(g84
g65
NtRp1655
(dp1656
g68
(dp1657
g95
g96
ssg77
g1646
sg70
(lp1658
S':'
asbag63
(g84
g65
NtRp1659
(dp1660
g68
(dp1661
sg77
g1646
sg70
(lp1662
g63
(g64
g65
NtRp1663
(dp1664
g68
(dp1665
g76
I4
ssg77
g1659
sg70
(lp1666
S'<class wsgiref.util.FileWrapper at 0x023D9AB0>'
p1667
asbasbasbag63
(g79
g65
NtRp1668
(dp1669
g68
(dp1670
sg77
g767
sg70
(lp1671
g63
(g84
g65
NtRp1672
(dp1673
g68
(dp1674
g88
g89
ssg77
g1668
sg70
(lp1675
S'wsgi_input'
p1676
asbag63
(g84
g65
NtRp1677
(dp1678
g68
(dp1679
g95
g96
ssg77
g1668
sg70
(lp1680
S':'
asbag63
(g84
g65
NtRp1681
(dp1682
g68
(dp1683
sg77
g1668
sg70
(lp1684
g63
(g64
g65
NtRp1685
(dp1686
g68
(dp1687
g76
I4
ssg77
g1681
sg70
(lp1688
S'<socket._fileobject object at 0x068CF3F0>'
p1689
asbasbasbag63
(g79
g65
NtRp1690
(dp1691
g68
(dp1692
sg77
g767
sg70
(lp1693
g63
(g84
g65
NtRp1694
(dp1695
g68
(dp1696
g88
g89
ssg77
g1690
sg70
(lp1697
S'wsgi_multiprocess'
p1698
asbag63
(g84
g65
NtRp1699
(dp1700
g68
(dp1701
g95
g96
ssg77
g1690
sg70
(lp1702
S':'
asbag63
(g84
g65
NtRp1703
(dp1704
g68
(dp1705
sg77
g1690
sg70
(lp1706
g63
(g64
g65
NtRp1707
(dp1708
g68
(dp1709
g76
I4
ssg77
g1703
sg70
(lp1710
g106
asbasbasbag63
(g79
g65
NtRp1711
(dp1712
g68
(dp1713
sg77
g767
sg70
(lp1714
g63
(g84
g65
NtRp1715
(dp1716
g68
(dp1717
g88
g89
ssg77
g1711
sg70
(lp1718
S'wsgi_multithread'
p1719
asbag63
(g84
g65
NtRp1720
(dp1721
g68
(dp1722
g95
g96
ssg77
g1711
sg70
(lp1723
S':'
asbag63
(g84
g65
NtRp1724
(dp1725
g68
(dp1726
sg77
g1711
sg70
(lp1727
g63
(g64
g65
NtRp1728
(dp1729
g68
(dp1730
g76
I4
ssg77
g1724
sg70
(lp1731
S'True'
p1732
asbasbasbag63
(g79
g65
NtRp1733
(dp1734
g68
(dp1735
sg77
g767
sg70
(lp1736
g63
(g84
g65
NtRp1737
(dp1738
g68
(dp1739
g88
g89
ssg77
g1733
sg70
(lp1740
S'wsgi_run_once'
p1741
asbag63
(g84
g65
NtRp1742
(dp1743
g68
(dp1744
g95
g96
ssg77
g1733
sg70
(lp1745
S':'
asbag63
(g84
g65
NtRp1746
(dp1747
g68
(dp1748
sg77
g1733
sg70
(lp1749
g63
(g64
g65
NtRp1750
(dp1751
g68
(dp1752
g76
I4
ssg77
g1746
sg70
(lp1753
g106
asbasbasbag63
(g79
g65
NtRp1754
(dp1755
g68
(dp1756
sg77
g767
sg70
(lp1757
g63
(g84
g65
NtRp1758
(dp1759
g68
(dp1760
g88
g89
ssg77
g1754
sg70
(lp1761
S'wsgi_url_scheme'
p1762
asbag63
(g84
g65
NtRp1763
(dp1764
g68
(dp1765
g95
g96
ssg77
g1754
sg70
(lp1766
S':'
asbag63
(g84
g65
NtRp1767
(dp1768
g68
(dp1769
sg77
g1754
sg70
(lp1770
g63
(g64
g65
NtRp1771
(dp1772
g68
(dp1773
g76
I4
ssg77
g1767
sg70
(lp1774
S'http'
p1775
asbasbasbag63
(g79
g65
NtRp1776
(dp1777
g68
(dp1778
sg77
g767
sg70
(lp1779
g63
(g84
g65
NtRp1780
(dp1781
g68
(dp1782
g88
g89
ssg77
g1776
sg70
(lp1783
S'wsgi_version'
p1784
asbag63
(g84
g65
NtRp1785
(dp1786
g68
(dp1787
g95
g96
ssg77
g1776
sg70
(lp1788
S':'
asbag63
(g84
g65
NtRp1789
(dp1790
g68
(dp1791
sg77
g1776
sg70
(lp1792
g63
(g64
g65
NtRp1793
(dp1794
g68
(dp1795
g76
I4
ssg77
g1789
sg70
(lp1796
g63
(g72
g65
NtRp1797
(dp1798
g68
(dp1799
g76
I3
ssg77
Nsg70
(lp1800
g63
(g79
g65
NtRp1801
(dp1802
g68
(dp1803
sg77
g1797
sg70
(lp1804
g63
(g84
g65
NtRp1805
(dp1806
g68
(dp1807
sg77
g1801
sg70
(lp1808
g63
(g64
g65
NtRp1809
(dp1810
g68
(dp1811
g76
I3
ssg77
g1805
sg70
(lp1812
S'1'
asbasbasbag63
(g79
g65
NtRp1813
(dp1814
g68
(dp1815
sg77
g1797
sg70
(lp1816
g63
(g84
g65
NtRp1817
(dp1818
g68
(dp1819
sg77
g1813
sg70
(lp1820
g63
(g64
g65
NtRp1821
(dp1822
g68
(dp1823
g76
I3
ssg77
g1817
sg70
(lp1824
S'0'
asbasbasbasbasbasbasbasbasbasbasbag63
(g79
g65
NtRp1825
(dp1826
g68
(dp1827
sg77
g73
sg70
(lp1828
g63
(g84
g65
NtRp1829
(dp1830
g68
(dp1831
g88
g89
ssg77
g1825
sg70
(lp1832
S'extension'
p1833
asbag63
(g84
g65
NtRp1834
(dp1835
g68
(dp1836
g95
g96
ssg77
g1825
sg70
(lp1837
S':'
asbag63
(g84
g65
NtRp1838
(dp1839
g68
(dp1840
sg77
g1825
sg70
(lp1841
g63
(g64
g65
NtRp1842
(dp1843
g68
(dp1844
g76
I5
ssg77
g1838
sg70
(lp1845
S'html'
p1846
asbasbasbag63
(g79
g65
NtRp1847
(dp1848
g68
(dp1849
sg77
g73
sg70
(lp1850
g63
(g84
g65
NtRp1851
(dp1852
g68
(dp1853
g88
g89
ssg77
g1847
sg70
(lp1854
S'folder'
p1855
asbag63
(g84
g65
NtRp1856
(dp1857
g68
(dp1858
g95
g96
ssg77
g1847
sg70
(lp1859
S':'
asbag63
(g84
g65
NtRp1860
(dp1861
g68
(dp1862
sg77
g1847
sg70
(lp1863
g63
(g64
g65
NtRp1864
(dp1865
g68
(dp1866
g76
I5
ssg77
g1860
sg70
(lp1867
S'C:\\Python32\\web2py_win\\web2py\\applications\\Casa_de_Apuestas\\'
p1868
asbasbasbag63
(g79
g65
NtRp1869
(dp1870
g68
(dp1871
sg77
g73
sg70
(lp1872
g63
(g84
g65
NtRp1873
(dp1874
g68
(dp1875
g88
g89
ssg77
g1869
sg70
(lp1876
S'function'
p1877
asbag63
(g84
g65
NtRp1878
(dp1879
g68
(dp1880
g95
g96
ssg77
g1869
sg70
(lp1881
S':'
asbag63
(g84
g65
NtRp1882
(dp1883
g68
(dp1884
sg77
g1869
sg70
(lp1885
g63
(g64
g65
NtRp1886
(dp1887
g68
(dp1888
g76
I5
ssg77
g1882
sg70
(lp1889
S'crearEvento'
p1890
asbasbasbag63
(g79
g65
NtRp1891
(dp1892
g68
(dp1893
sg77
g73
sg70
(lp1894
g63
(g84
g65
NtRp1895
(dp1896
g68
(dp1897
g88
g89
ssg77
g1891
sg70
(lp1898
S'get_vars'
p1899
asbag63
(g84
g65
NtRp1900
(dp1901
g68
(dp1902
g95
g96
ssg77
g1891
sg70
(lp1903
S':'
asbag63
(g84
g65
NtRp1904
(dp1905
g68
(dp1906
sg77
g1891
sg70
(lp1907
g63
(g64
g65
NtRp1908
(dp1909
g68
(dp1910
g76
I5
ssg77
g1904
sg70
(lp1911
g63
(g72
g65
NtRp1912
(dp1913
g68
(dp1914
g76
I4
ssg77
Nsg70
(lp1915
sbasbasbasbag63
(g79
g65
NtRp1916
(dp1917
g68
(dp1918
sg77
g73
sg70
(lp1919
g63
(g84
g65
NtRp1920
(dp1921
g68
(dp1922
g88
g89
ssg77
g1916
sg70
(lp1923
S'global_settings'
p1924
asbag63
(g84
g65
NtRp1925
(dp1926
g68
(dp1927
g95
g96
ssg77
g1916
sg70
(lp1928
S':'
asbag63
(g84
g65
NtRp1929
(dp1930
g68
(dp1931
sg77
g1916
sg70
(lp1932
g63
(g64
g65
NtRp1933
(dp1934
g68
(dp1935
g76
I5
ssg77
g1929
sg70
(lp1936
g63
(g72
g65
NtRp1937
(dp1938
g68
(dp1939
g76
I4
ssg77
Nsg70
(lp1940
g63
(g79
g65
NtRp1941
(dp1942
g68
(dp1943
sg77
g1937
sg70
(lp1944
g63
(g84
g65
NtRp1945
(dp1946
g68
(dp1947
g88
g89
ssg77
g1941
sg70
(lp1948
g779
asbag63
(g84
g65
NtRp1949
(dp1950
g68
(dp1951
g95
g96
ssg77
g1941
sg70
(lp1952
S':'
asbag63
(g84
g65
NtRp1953
(dp1954
g68
(dp1955
sg77
g1941
sg70
(lp1956
g63
(g64
g65
NtRp1957
(dp1958
g68
(dp1959
g76
I4
ssg77
g1953
sg70
(lp1960
S"set(['C:\\\\Python32\\\\web2py_win\\\\web2py\\\\applications\\\\admin\\\\', 'C:\\\\Python32\\\\web2py_win\\\\web2py\\\\applications\\\\welcome\\\\', 'C:\\\\Python32\\\\web2py_win\\\\web2py\\\\applications\\\\Casa_de_Apuestas\\\\'])"
p1961
asbasbasbag63
(g79
g65
NtRp1962
(dp1963
g68
(dp1964
sg77
g1937
sg70
(lp1965
g63
(g84
g65
NtRp1966
(dp1967
g68
(dp1968
g88
g89
ssg77
g1962
sg70
(lp1969
g801
asbag63
(g84
g65
NtRp1970
(dp1971
g68
(dp1972
g95
g96
ssg77
g1962
sg70
(lp1973
S':'
asbag63
(g84
g65
NtRp1974
(dp1975
g68
(dp1976
sg77
g1962
sg70
(lp1977
g63
(g64
g65
NtRp1978
(dp1979
g68
(dp1980
g76
I4
ssg77
g1974
sg70
(lp1981
g814
asbasbasbag63
(g79
g65
NtRp1982
(dp1983
g68
(dp1984
sg77
g1937
sg70
(lp1985
g63
(g84
g65
NtRp1986
(dp1987
g68
(dp1988
g88
g89
ssg77
g1982
sg70
(lp1989
g823
asbag63
(g84
g65
NtRp1990
(dp1991
g68
(dp1992
g95
g96
ssg77
g1982
sg70
(lp1993
S':'
asbag63
(g84
g65
NtRp1994
(dp1995
g68
(dp1996
sg77
g1982
sg70
(lp1997
g63
(g64
g65
NtRp1998
(dp1999
g68
(dp2000
g76
I4
ssg77
g1994
sg70
(lp2001
g63
(g72
g65
NtRp2002
(dp2003
g68
(dp2004
g76
I3
ssg77
Nsg70
(lp2005
sbasbasbasbag63
(g79
g65
NtRp2006
(dp2007
g68
(dp2008
sg77
g1937
sg70
(lp2009
g63
(g84
g65
NtRp2010
(dp2011
g68
(dp2012
g88
g89
ssg77
g2006
sg70
(lp2013
g848
asbag63
(g84
g65
NtRp2014
(dp2015
g68
(dp2016
g95
g96
ssg77
g2006
sg70
(lp2017
S':'
asbag63
(g84
g65
NtRp2018
(dp2019
g68
(dp2020
sg77
g2006
sg70
(lp2021
g63
(g64
g65
NtRp2022
(dp2023
g68
(dp2024
g76
I4
ssg77
g2018
sg70
(lp2025
S"<Values at 0x2635fa8: {'verbose': False, 'ip': '127.0.0.1', 'shutdown_timeout': 5, 'taskbar': False, 'nocron': False, 'pid_filename': 'httpserver.pid', 'maxthreads': None, 'softcron': False, 'server_name': 'hector-vaio', 'bpython': False, 'nogui': False, 'port': 8000, 'extcron': False, 'debuglevel': 30, 'test': None, 'folder': 'C:\\\\Python32\\\\web2py_win\\\\web2py', 'config': '', 'import_models': False, 'winservice': '', 'shell': None, 'run': '', 'log_filename': 'httpserver.log', 'args': [''], 'ssl_ca_certificate': None, 'scheduler': None, 'profiler_filename': None, 'ssl_private_key': '', 'password': '<ask>', 'request_queue_size': 5, 'ssl_certificate': '', 'cronjob': False, 'plain': False, 'quiet': False, 'interfaces': None, 'minthreads': None, 'timeout': 10, 'numthreads': None, 'nobanner': False}>"
p2026
asbasbasbag63
(g79
g65
NtRp2027
(dp2028
g68
(dp2029
sg77
g1937
sg70
(lp2030
g63
(g84
g65
NtRp2031
(dp2032
g68
(dp2033
g88
g89
ssg77
g2027
sg70
(lp2034
g914
asbag63
(g84
g65
NtRp2035
(dp2036
g68
(dp2037
g95
g96
ssg77
g2027
sg70
(lp2038
S':'
asbag63
(g84
g65
NtRp2039
(dp2040
g68
(dp2041
sg77
g2027
sg70
(lp2042
g63
(g64
g65
NtRp2043
(dp2044
g68
(dp2045
g76
I4
ssg77
g2039
sg70
(lp2046
S'set([])'
p2047
asbasbasbag63
(g79
g65
NtRp2048
(dp2049
g68
(dp2050
sg77
g1937
sg70
(lp2051
g63
(g84
g65
NtRp2052
(dp2053
g68
(dp2054
g88
g89
ssg77
g2048
sg70
(lp2055
g936
asbag63
(g84
g65
NtRp2056
(dp2057
g68
(dp2058
g95
g96
ssg77
g2048
sg70
(lp2059
S':'
asbag63
(g84
g65
NtRp2060
(dp2061
g68
(dp2062
sg77
g2048
sg70
(lp2063
g63
(g64
g65
NtRp2064
(dp2065
g68
(dp2066
g76
I4
ssg77
g2060
sg70
(lp2067
g106
asbasbasbag63
(g79
g65
NtRp2068
(dp2069
g68
(dp2070
sg77
g1937
sg70
(lp2071
g63
(g84
g65
NtRp2072
(dp2073
g68
(dp2074
g88
g89
ssg77
g2068
sg70
(lp2075
g957
asbag63
(g84
g65
NtRp2076
(dp2077
g68
(dp2078
g95
g96
ssg77
g2068
sg70
(lp2079
S':'
asbag63
(g84
g65
NtRp2080
(dp2081
g68
(dp2082
sg77
g2068
sg70
(lp2083
g63
(g64
g65
NtRp2084
(dp2085
g68
(dp2086
g76
I4
ssg77
g2080
sg70
(lp2087
g970
asbasbasbag63
(g79
g65
NtRp2088
(dp2089
g68
(dp2090
sg77
g1937
sg70
(lp2091
g63
(g84
g65
NtRp2092
(dp2093
g68
(dp2094
g88
g89
ssg77
g2088
sg70
(lp2095
g1263
asbag63
(g84
g65
NtRp2096
(dp2097
g68
(dp2098
g95
g96
ssg77
g2088
sg70
(lp2099
S':'
asbag63
(g84
g65
NtRp2100
(dp2101
g68
(dp2102
sg77
g2088
sg70
(lp2103
g63
(g64
g65
NtRp2104
(dp2105
g68
(dp2106
g76
I4
ssg77
g2100
sg70
(lp2107
g106
asbasbasbag63
(g79
g65
NtRp2108
(dp2109
g68
(dp2110
sg77
g1937
sg70
(lp2111
g63
(g84
g65
NtRp2112
(dp2113
g68
(dp2114
g88
g89
ssg77
g2108
sg70
(lp2115
g1501
asbag63
(g84
g65
NtRp2116
(dp2117
g68
(dp2118
g95
g96
ssg77
g2108
sg70
(lp2119
S':'
asbag63
(g84
g65
NtRp2120
(dp2121
g68
(dp2122
sg77
g2108
sg70
(lp2123
g63
(g64
g65
NtRp2124
(dp2125
g68
(dp2126
g76
I4
ssg77
g2120
sg70
(lp2127
g1514
asbasbasbag63
(g79
g65
NtRp2128
(dp2129
g68
(dp2130
sg77
g1937
sg70
(lp2131
g63
(g84
g65
NtRp2132
(dp2133
g68
(dp2134
g88
g89
ssg77
g2128
sg70
(lp2135
g1544
asbag63
(g84
g65
NtRp2136
(dp2137
g68
(dp2138
g95
g96
ssg77
g2128
sg70
(lp2139
S':'
asbag63
(g84
g65
NtRp2140
(dp2141
g68
(dp2142
sg77
g2128
sg70
(lp2143
g63
(g64
g65
NtRp2144
(dp2145
g68
(dp2146
g76
I4
ssg77
g2140
sg70
(lp2147
g63
(g72
g65
NtRp2148
(dp2149
g68
(dp2150
g76
I3
ssg77
Nsg70
(lp2151
g63
(g79
g65
NtRp2152
(dp2153
g68
(dp2154
sg77
g2148
sg70
(lp2155
g63
(g84
g65
NtRp2156
(dp2157
g68
(dp2158
sg77
g2152
sg70
(lp2159
g63
(g64
g65
NtRp2160
(dp2161
g68
(dp2162
g76
I3
ssg77
g2156
sg70
(lp2163
S'1'
asbasbasbag63
(g79
g65
NtRp2164
(dp2165
g68
(dp2166
sg77
g2148
sg70
(lp2167
g63
(g84
g65
NtRp2168
(dp2169
g68
(dp2170
sg77
g2164
sg70
(lp2171
g63
(g64
g65
NtRp2172
(dp2173
g68
(dp2174
g76
I3
ssg77
g2168
sg70
(lp2175
S'99'
p2176
asbasbasbag63
(g79
g65
NtRp2177
(dp2178
g68
(dp2179
sg77
g2148
sg70
(lp2180
g63
(g84
g65
NtRp2181
(dp2182
g68
(dp2183
sg77
g2177
sg70
(lp2184
g63
(g64
g65
NtRp2185
(dp2186
g68
(dp2187
g76
I3
ssg77
g2181
sg70
(lp2188
S'2'
asbasbasbag63
(g79
g65
NtRp2189
(dp2190
g68
(dp2191
sg77
g2148
sg70
(lp2192
g63
(g84
g65
NtRp2193
(dp2194
g68
(dp2195
sg77
g2189
sg70
(lp2196
g63
(g64
g65
NtRp2197
(dp2198
g68
(dp2199
g76
I3
ssg77
g2193
sg70
(lp2200
S'datetime.datetime(2011, 9, 26, 6, 55, 33)'
p2201
asbasbasbag63
(g79
g65
NtRp2202
(dp2203
g68
(dp2204
sg77
g2148
sg70
(lp2205
g63
(g84
g65
NtRp2206
(dp2207
g68
(dp2208
sg77
g2202
sg70
(lp2209
g63
(g64
g65
NtRp2210
(dp2211
g68
(dp2212
g76
I3
ssg77
g2206
sg70
(lp2213
g1623
asbasbasbasbasbasbasbasbasbasbasbag63
(g79
g65
NtRp2214
(dp2215
g68
(dp2216
sg77
g73
sg70
(lp2217
g63
(g84
g65
NtRp2218
(dp2219
g68
(dp2220
g88
g89
ssg77
g2214
sg70
(lp2221
S'is_https'
p2222
asbag63
(g84
g65
NtRp2223
(dp2224
g68
(dp2225
g95
g96
ssg77
g2214
sg70
(lp2226
S':'
asbag63
(g84
g65
NtRp2227
(dp2228
g68
(dp2229
sg77
g2214
sg70
(lp2230
g63
(g64
g65
NtRp2231
(dp2232
g68
(dp2233
g76
I5
ssg77
g2227
sg70
(lp2234
g106
asbasbasbag63
(g79
g65
NtRp2235
(dp2236
g68
(dp2237
sg77
g73
sg70
(lp2238
g63
(g84
g65
NtRp2239
(dp2240
g68
(dp2241
g88
g89
ssg77
g2235
sg70
(lp2242
S'is_local'
p2243
asbag63
(g84
g65
NtRp2244
(dp2245
g68
(dp2246
g95
g96
ssg77
g2235
sg70
(lp2247
S':'
asbag63
(g84
g65
NtRp2248
(dp2249
g68
(dp2250
sg77
g2235
sg70
(lp2251
g63
(g64
g65
NtRp2252
(dp2253
g68
(dp2254
g76
I5
ssg77
g2248
sg70
(lp2255
g1732
asbasbasbag63
(g79
g65
NtRp2256
(dp2257
g68
(dp2258
sg77
g73
sg70
(lp2259
g63
(g84
g65
NtRp2260
(dp2261
g68
(dp2262
g88
g89
ssg77
g2256
sg70
(lp2263
S'is_restful'
p2264
asbag63
(g84
g65
NtRp2265
(dp2266
g68
(dp2267
g95
g96
ssg77
g2256
sg70
(lp2268
S':'
asbag63
(g84
g65
NtRp2269
(dp2270
g68
(dp2271
sg77
g2256
sg70
(lp2272
g63
(g64
g65
NtRp2273
(dp2274
g68
(dp2275
g76
I5
ssg77
g2269
sg70
(lp2276
g106
asbasbasbag63
(g79
g65
NtRp2277
(dp2278
g68
(dp2279
sg77
g73
sg70
(lp2280
g63
(g84
g65
NtRp2281
(dp2282
g68
(dp2283
g88
g89
ssg77
g2277
sg70
(lp2284
S'now'
p2285
asbag63
(g84
g65
NtRp2286
(dp2287
g68
(dp2288
g95
g96
ssg77
g2277
sg70
(lp2289
S':'
asbag63
(g84
g65
NtRp2290
(dp2291
g68
(dp2292
sg77
g2277
sg70
(lp2293
g63
(g64
g65
NtRp2294
(dp2295
g68
(dp2296
g76
I5
ssg77
g2290
sg70
(lp2297
S'datetime.datetime(2011, 12, 25, 14, 27, 5, 424000)'
p2298
asbasbasbag63
(g79
g65
NtRp2299
(dp2300
g68
(dp2301
sg77
g73
sg70
(lp2302
g63
(g84
g65
NtRp2303
(dp2304
g68
(dp2305
g88
g89
ssg77
g2299
sg70
(lp2306
S'post_vars'
p2307
asbag63
(g84
g65
NtRp2308
(dp2309
g68
(dp2310
g95
g96
ssg77
g2299
sg70
(lp2311
S':'
asbag63
(g84
g65
NtRp2312
(dp2313
g68
(dp2314
sg77
g2299
sg70
(lp2315
g63
(g64
g65
NtRp2316
(dp2317
g68
(dp2318
g76
I5
ssg77
g2312
sg70
(lp2319
g63
(g72
g65
NtRp2320
(dp2321
g68
(dp2322
g76
I4
ssg77
Nsg70
(lp2323
g63
(g79
g65
NtRp2324
(dp2325
g68
(dp2326
sg77
g2320
sg70
(lp2327
g63
(g84
g65
NtRp2328
(dp2329
g68
(dp2330
g88
g89
ssg77
g2324
sg70
(lp2331
S'admiteTablaResultado'
p2332
asbag63
(g84
g65
NtRp2333
(dp2334
g68
(dp2335
g95
g96
ssg77
g2324
sg70
(lp2336
S':'
asbag63
(g84
g65
NtRp2337
(dp2338
g68
(dp2339
sg77
g2324
sg70
(lp2340
g63
(g64
g65
NtRp2341
(dp2342
g68
(dp2343
g76
I4
ssg77
g2337
sg70
(lp2344
S'on'
p2345
asbasbasbag63
(g79
g65
NtRp2346
(dp2347
g68
(dp2348
sg77
g2320
sg70
(lp2349
g63
(g84
g65
NtRp2350
(dp2351
g68
(dp2352
g88
g89
ssg77
g2346
sg70
(lp2353
S'categoria_id'
p2354
asbag63
(g84
g65
NtRp2355
(dp2356
g68
(dp2357
g95
g96
ssg77
g2346
sg70
(lp2358
S':'
asbag63
(g84
g65
NtRp2359
(dp2360
g68
(dp2361
sg77
g2346
sg70
(lp2362
g63
(g64
g65
NtRp2363
(dp2364
g68
(dp2365
g76
I4
ssg77
g2359
sg70
(lp2366
S'29'
p2367
asbasbasbag63
(g79
g65
NtRp2368
(dp2369
g68
(dp2370
sg77
g2320
sg70
(lp2371
g63
(g84
g65
NtRp2372
(dp2373
g68
(dp2374
g88
g89
ssg77
g2368
sg70
(lp2375
S'descripcion'
p2376
asbag63
(g84
g65
NtRp2377
(dp2378
g68
(dp2379
g95
g96
ssg77
g2368
sg70
(lp2380
S':'
asbag63
(g84
g65
NtRp2381
(dp2382
g68
(dp2383
sg77
g2368
sg70
(lp2384
g63
(g64
g65
NtRp2385
(dp2386
g68
(dp2387
g76
I4
ssg77
g2381
sg70
(lp2388
S'c'
asbasbasbag63
(g79
g65
NtRp2389
(dp2390
g68
(dp2391
sg77
g2320
sg70
(lp2392
g63
(g84
g65
NtRp2393
(dp2394
g68
(dp2395
g88
g89
ssg77
g2389
sg70
(lp2396
S'fecha'
p2397
asbag63
(g84
g65
NtRp2398
(dp2399
g68
(dp2400
g95
g96
ssg77
g2389
sg70
(lp2401
S':'
asbag63
(g84
g65
NtRp2402
(dp2403
g68
(dp2404
sg77
g2389
sg70
(lp2405
g63
(g64
g65
NtRp2406
(dp2407
g68
(dp2408
g76
I4
ssg77
g2402
sg70
(lp2409
S'2011-12-25'
p2410
asbasbasbag63
(g79
g65
NtRp2411
(dp2412
g68
(dp2413
sg77
g2320
sg70
(lp2414
g63
(g84
g65
NtRp2415
(dp2416
g68
(dp2417
g88
g89
ssg77
g2411
sg70
(lp2418
S'horaInicio'
p2419
asbag63
(g84
g65
NtRp2420
(dp2421
g68
(dp2422
g95
g96
ssg77
g2411
sg70
(lp2423
S':'
asbag63
(g84
g65
NtRp2424
(dp2425
g68
(dp2426
sg77
g2411
sg70
(lp2427
g63
(g64
g65
NtRp2428
(dp2429
g68
(dp2430
g76
I4
ssg77
g2424
sg70
(lp2431
S'14:25:54'
p2432
asbasbasbag63
(g79
g65
NtRp2433
(dp2434
g68
(dp2435
sg77
g2320
sg70
(lp2436
g63
(g84
g65
NtRp2437
(dp2438
g68
(dp2439
g88
g89
ssg77
g2433
sg70
(lp2440
S'nombre'
p2441
asbag63
(g84
g65
NtRp2442
(dp2443
g68
(dp2444
g95
g96
ssg77
g2433
sg70
(lp2445
S':'
asbag63
(g84
g65
NtRp2446
(dp2447
g68
(dp2448
sg77
g2433
sg70
(lp2449
g63
(g64
g65
NtRp2450
(dp2451
g68
(dp2452
g76
I4
ssg77
g2446
sg70
(lp2453
S'c'
asbasbasbag63
(g79
g65
NtRp2454
(dp2455
g68
(dp2456
sg77
g2320
sg70
(lp2457
g63
(g84
g65
NtRp2458
(dp2459
g68
(dp2460
g88
g89
ssg77
g2454
sg70
(lp2461
S'permiteEmpate'
p2462
asbag63
(g84
g65
NtRp2463
(dp2464
g68
(dp2465
g95
g96
ssg77
g2454
sg70
(lp2466
S':'
asbag63
(g84
g65
NtRp2467
(dp2468
g68
(dp2469
sg77
g2454
sg70
(lp2470
g63
(g64
g65
NtRp2471
(dp2472
g68
(dp2473
g76
I4
ssg77
g2467
sg70
(lp2474
S'on'
p2475
asbasbasbasbasbasbasbag63
(g79
g65
NtRp2476
(dp2477
g68
(dp2478
sg77
g73
sg70
(lp2479
g63
(g84
g65
NtRp2480
(dp2481
g68
(dp2482
g88
g89
ssg77
g2476
sg70
(lp2483
S'url'
p2484
asbag63
(g84
g65
NtRp2485
(dp2486
g68
(dp2487
g95
g96
ssg77
g2476
sg70
(lp2488
S':'
asbag63
(g84
g65
NtRp2489
(dp2490
g68
(dp2491
sg77
g2476
sg70
(lp2492
g63
(g64
g65
NtRp2493
(dp2494
g68
(dp2495
g76
I5
ssg77
g2489
sg70
(lp2496
S'/Casa_de_Apuestas/default/crearEvento'
p2497
asbasbasbag63
(g79
g65
NtRp2498
(dp2499
g68
(dp2500
sg77
g73
sg70
(lp2501
g63
(g84
g65
NtRp2502
(dp2503
g68
(dp2504
g88
g89
ssg77
g2498
sg70
(lp2505
S'utcnow'
p2506
asbag63
(g84
g65
NtRp2507
(dp2508
g68
(dp2509
g95
g96
ssg77
g2498
sg70
(lp2510
S':'
asbag63
(g84
g65
NtRp2511
(dp2512
g68
(dp2513
sg77
g2498
sg70
(lp2514
g63
(g64
g65
NtRp2515
(dp2516
g68
(dp2517
g76
I5
ssg77
g2511
sg70
(lp2518
S'datetime.datetime(2011, 12, 25, 18, 57, 5, 424000)'
p2519
asbasbasbag63
(g79
g65
NtRp2520
(dp2521
g68
(dp2522
sg77
g73
sg70
(lp2523
g63
(g84
g65
NtRp2524
(dp2525
g68
(dp2526
g88
g89
ssg77
g2520
sg70
(lp2527
S'uuid'
p2528
asbag63
(g84
g65
NtRp2529
(dp2530
g68
(dp2531
g95
g96
ssg77
g2520
sg70
(lp2532
S':'
asbag63
(g84
g65
NtRp2533
(dp2534
g68
(dp2535
sg77
g2520
sg70
(lp2536
g63
(g64
g65
NtRp2537
(dp2538
g68
(dp2539
g76
I5
ssg77
g2533
sg70
(lp2540
S'Casa_de_Apuestas/127.0.0.1.2011-12-25.14-27-05.9d436253-3ba9-47e5-a9b8-a23361fdcdb1'
p2541
asbasbasbag63
(g79
g65
NtRp2542
(dp2543
g68
(dp2544
sg77
g73
sg70
(lp2545
g63
(g84
g65
NtRp2546
(dp2547
g68
(dp2548
g88
g89
ssg77
g2542
sg70
(lp2549
S'vars'
p2550
asbag63
(g84
g65
NtRp2551
(dp2552
g68
(dp2553
g95
g96
ssg77
g2542
sg70
(lp2554
S':'
asbag63
(g84
g65
NtRp2555
(dp2556
g68
(dp2557
sg77
g2542
sg70
(lp2558
g63
(g64
g65
NtRp2559
(dp2560
g68
(dp2561
g76
I5
ssg77
g2555
sg70
(lp2562
g63
(g72
g65
NtRp2563
(dp2564
g68
(dp2565
g76
I4
ssg77
Nsg70
(lp2566
g63
(g79
g65
NtRp2567
(dp2568
g68
(dp2569
sg77
g2563
sg70
(lp2570
g63
(g84
g65
NtRp2571
(dp2572
g68
(dp2573
g88
g89
ssg77
g2567
sg70
(lp2574
g2332
asbag63
(g84
g65
NtRp2575
(dp2576
g68
(dp2577
g95
g96
ssg77
g2567
sg70
(lp2578
S':'
asbag63
(g84
g65
NtRp2579
(dp2580
g68
(dp2581
sg77
g2567
sg70
(lp2582
g63
(g64
g65
NtRp2583
(dp2584
g68
(dp2585
g76
I4
ssg77
g2579
sg70
(lp2586
g2345
asbasbasbag63
(g79
g65
NtRp2587
(dp2588
g68
(dp2589
sg77
g2563
sg70
(lp2590
g63
(g84
g65
NtRp2591
(dp2592
g68
(dp2593
g88
g89
ssg77
g2587
sg70
(lp2594
g2354
asbag63
(g84
g65
NtRp2595
(dp2596
g68
(dp2597
g95
g96
ssg77
g2587
sg70
(lp2598
S':'
asbag63
(g84
g65
NtRp2599
(dp2600
g68
(dp2601
sg77
g2587
sg70
(lp2602
g63
(g64
g65
NtRp2603
(dp2604
g68
(dp2605
g76
I4
ssg77
g2599
sg70
(lp2606
g2367
asbasbasbag63
(g79
g65
NtRp2607
(dp2608
g68
(dp2609
sg77
g2563
sg70
(lp2610
g63
(g84
g65
NtRp2611
(dp2612
g68
(dp2613
g88
g89
ssg77
g2607
sg70
(lp2614
g2376
asbag63
(g84
g65
NtRp2615
(dp2616
g68
(dp2617
g95
g96
ssg77
g2607
sg70
(lp2618
S':'
asbag63
(g84
g65
NtRp2619
(dp2620
g68
(dp2621
sg77
g2607
sg70
(lp2622
g63
(g64
g65
NtRp2623
(dp2624
g68
(dp2625
g76
I4
ssg77
g2619
sg70
(lp2626
S'c'
asbasbasbag63
(g79
g65
NtRp2627
(dp2628
g68
(dp2629
sg77
g2563
sg70
(lp2630
g63
(g84
g65
NtRp2631
(dp2632
g68
(dp2633
g88
g89
ssg77
g2627
sg70
(lp2634
g2397
asbag63
(g84
g65
NtRp2635
(dp2636
g68
(dp2637
g95
g96
ssg77
g2627
sg70
(lp2638
S':'
asbag63
(g84
g65
NtRp2639
(dp2640
g68
(dp2641
sg77
g2627
sg70
(lp2642
g63
(g64
g65
NtRp2643
(dp2644
g68
(dp2645
g76
I4
ssg77
g2639
sg70
(lp2646
g2410
asbasbasbag63
(g79
g65
NtRp2647
(dp2648
g68
(dp2649
sg77
g2563
sg70
(lp2650
g63
(g84
g65
NtRp2651
(dp2652
g68
(dp2653
g88
g89
ssg77
g2647
sg70
(lp2654
g2419
asbag63
(g84
g65
NtRp2655
(dp2656
g68
(dp2657
g95
g96
ssg77
g2647
sg70
(lp2658
S':'
asbag63
(g84
g65
NtRp2659
(dp2660
g68
(dp2661
sg77
g2647
sg70
(lp2662
g63
(g64
g65
NtRp2663
(dp2664
g68
(dp2665
g76
I4
ssg77
g2659
sg70
(lp2666
g2432
asbasbasbag63
(g79
g65
NtRp2667
(dp2668
g68
(dp2669
sg77
g2563
sg70
(lp2670
g63
(g84
g65
NtRp2671
(dp2672
g68
(dp2673
g88
g89
ssg77
g2667
sg70
(lp2674
g2441
asbag63
(g84
g65
NtRp2675
(dp2676
g68
(dp2677
g95
g96
ssg77
g2667
sg70
(lp2678
S':'
asbag63
(g84
g65
NtRp2679
(dp2680
g68
(dp2681
sg77
g2667
sg70
(lp2682
g63
(g64
g65
NtRp2683
(dp2684
g68
(dp2685
g76
I4
ssg77
g2679
sg70
(lp2686
S'c'
asbasbasbag63
(g79
g65
NtRp2687
(dp2688
g68
(dp2689
sg77
g2563
sg70
(lp2690
g63
(g84
g65
NtRp2691
(dp2692
g68
(dp2693
g88
g89
ssg77
g2687
sg70
(lp2694
g2462
asbag63
(g84
g65
NtRp2695
(dp2696
g68
(dp2697
g95
g96
ssg77
g2687
sg70
(lp2698
S':'
asbag63
(g84
g65
NtRp2699
(dp2700
g68
(dp2701
sg77
g2687
sg70
(lp2702
g63
(g64
g65
NtRp2703
(dp2704
g68
(dp2705
g76
I4
ssg77
g2699
sg70
(lp2706
g2475
asbasbasbasbasbasbasbag63
(g79
g65
NtRp2707
(dp2708
g68
(dp2709
sg77
g73
sg70
(lp2710
g63
(g84
g65
NtRp2711
(dp2712
g68
(dp2713
g88
g89
ssg77
g2707
sg70
(lp2714
S'wsgi'
p2715
asbag63
(g84
g65
NtRp2716
(dp2717
g68
(dp2718
g95
g96
ssg77
g2707
sg70
(lp2719
S':'
asbag63
(g84
g65
NtRp2720
(dp2721
g68
(dp2722
sg77
g2707
sg70
(lp2723
g63
(g64
g65
NtRp2724
(dp2725
g68
(dp2726
g76
I5
ssg77
g2720
sg70
(lp2727
g63
(g72
g65
NtRp2728
(dp2729
g68
(dp2730
g76
I4
ssg77
Nsg70
(lp2731
g63
(g79
g65
NtRp2732
(dp2733
g68
(dp2734
sg77
g2728
sg70
(lp2735
g63
(g84
g65
NtRp2736
(dp2737
g68
(dp2738
g88
g89
ssg77
g2732
sg70
(lp2739
S'environ'
p2740
asbag63
(g84
g65
NtRp2741
(dp2742
g68
(dp2743
g95
g96
ssg77
g2732
sg70
(lp2744
S':'
asbag63
(g84
g65
NtRp2745
(dp2746
g68
(dp2747
sg77
g2732
sg70
(lp2748
g63
(g64
g65
NtRp2749
(dp2750
g68
(dp2751
g76
I4
ssg77
g2745
sg70
(lp2752
g63
(g72
g65
NtRp2753
(dp2754
g68
(dp2755
g76
I3
ssg77
Nsg70
(lp2756
g63
(g79
g65
NtRp2757
(dp2758
g68
(dp2759
sg77
g2753
sg70
(lp2760
g63
(g84
g65
NtRp2761
(dp2762
g68
(dp2763
g88
g89
ssg77
g2757
sg70
(lp2764
S'CONTENT_LENGTH'
p2765
asbag63
(g84
g65
NtRp2766
(dp2767
g68
(dp2768
g95
g96
ssg77
g2757
sg70
(lp2769
S':'
asbag63
(g84
g65
NtRp2770
(dp2771
g68
(dp2772
sg77
g2757
sg70
(lp2773
g63
(g64
g65
NtRp2774
(dp2775
g68
(dp2776
g76
I3
ssg77
g2770
sg70
(lp2777
g883
asbasbasbag63
(g79
g65
NtRp2778
(dp2779
g68
(dp2780
sg77
g2753
sg70
(lp2781
g63
(g84
g65
NtRp2782
(dp2783
g68
(dp2784
g88
g89
ssg77
g2778
sg70
(lp2785
S'CONTENT_TYPE'
p2786
asbag63
(g84
g65
NtRp2787
(dp2788
g68
(dp2789
g95
g96
ssg77
g2778
sg70
(lp2790
S':'
asbag63
(g84
g65
NtRp2791
(dp2792
g68
(dp2793
sg77
g2778
sg70
(lp2794
g63
(g64
g65
NtRp2795
(dp2796
g68
(dp2797
g76
I3
ssg77
g2791
sg70
(lp2798
g905
asbasbasbag63
(g79
g65
NtRp2799
(dp2800
g68
(dp2801
sg77
g2753
sg70
(lp2802
g63
(g84
g65
NtRp2803
(dp2804
g68
(dp2805
g88
g89
ssg77
g2799
sg70
(lp2806
S'HTTP_ACCEPT'
p2807
asbag63
(g84
g65
NtRp2808
(dp2809
g68
(dp2810
g95
g96
ssg77
g2799
sg70
(lp2811
S':'
asbag63
(g84
g65
NtRp2812
(dp2813
g68
(dp2814
sg77
g2799
sg70
(lp2815
g63
(g64
g65
NtRp2816
(dp2817
g68
(dp2818
g76
I3
ssg77
g2812
sg70
(lp2819
g992
asbasbasbag63
(g79
g65
NtRp2820
(dp2821
g68
(dp2822
sg77
g2753
sg70
(lp2823
g63
(g84
g65
NtRp2824
(dp2825
g68
(dp2826
g88
g89
ssg77
g2820
sg70
(lp2827
S'HTTP_ACCEPT_CHARSET'
p2828
asbag63
(g84
g65
NtRp2829
(dp2830
g68
(dp2831
g95
g96
ssg77
g2820
sg70
(lp2832
S':'
asbag63
(g84
g65
NtRp2833
(dp2834
g68
(dp2835
sg77
g2820
sg70
(lp2836
g63
(g64
g65
NtRp2837
(dp2838
g68
(dp2839
g76
I3
ssg77
g2833
sg70
(lp2840
g1014
asbasbasbag63
(g79
g65
NtRp2841
(dp2842
g68
(dp2843
sg77
g2753
sg70
(lp2844
g63
(g84
g65
NtRp2845
(dp2846
g68
(dp2847
g88
g89
ssg77
g2841
sg70
(lp2848
S'HTTP_ACCEPT_ENCODING'
p2849
asbag63
(g84
g65
NtRp2850
(dp2851
g68
(dp2852
g95
g96
ssg77
g2841
sg70
(lp2853
S':'
asbag63
(g84
g65
NtRp2854
(dp2855
g68
(dp2856
sg77
g2841
sg70
(lp2857
g63
(g64
g65
NtRp2858
(dp2859
g68
(dp2860
g76
I3
ssg77
g2854
sg70
(lp2861
g1036
asbasbasbag63
(g79
g65
NtRp2862
(dp2863
g68
(dp2864
sg77
g2753
sg70
(lp2865
g63
(g84
g65
NtRp2866
(dp2867
g68
(dp2868
g88
g89
ssg77
g2862
sg70
(lp2869
S'HTTP_ACCEPT_LANGUAGE'
p2870
asbag63
(g84
g65
NtRp2871
(dp2872
g68
(dp2873
g95
g96
ssg77
g2862
sg70
(lp2874
S':'
asbag63
(g84
g65
NtRp2875
(dp2876
g68
(dp2877
sg77
g2862
sg70
(lp2878
g63
(g64
g65
NtRp2879
(dp2880
g68
(dp2881
g76
I3
ssg77
g2875
sg70
(lp2882
g1058
asbasbasbag63
(g79
g65
NtRp2883
(dp2884
g68
(dp2885
sg77
g2753
sg70
(lp2886
g63
(g84
g65
NtRp2887
(dp2888
g68
(dp2889
g88
g89
ssg77
g2883
sg70
(lp2890
S'HTTP_CACHE_CONTROL'
p2891
asbag63
(g84
g65
NtRp2892
(dp2893
g68
(dp2894
g95
g96
ssg77
g2883
sg70
(lp2895
S':'
asbag63
(g84
g65
NtRp2896
(dp2897
g68
(dp2898
sg77
g2883
sg70
(lp2899
g63
(g64
g65
NtRp2900
(dp2901
g68
(dp2902
g76
I3
ssg77
g2896
sg70
(lp2903
g1080
asbasbasbag63
(g79
g65
NtRp2904
(dp2905
g68
(dp2906
sg77
g2753
sg70
(lp2907
g63
(g84
g65
NtRp2908
(dp2909
g68
(dp2910
g88
g89
ssg77
g2904
sg70
(lp2911
S'HTTP_CONNECTION'
p2912
asbag63
(g84
g65
NtRp2913
(dp2914
g68
(dp2915
g95
g96
ssg77
g2904
sg70
(lp2916
S':'
asbag63
(g84
g65
NtRp2917
(dp2918
g68
(dp2919
sg77
g2904
sg70
(lp2920
g63
(g64
g65
NtRp2921
(dp2922
g68
(dp2923
g76
I3
ssg77
g2917
sg70
(lp2924
g1102
asbasbasbag63
(g79
g65
NtRp2925
(dp2926
g68
(dp2927
sg77
g2753
sg70
(lp2928
g63
(g84
g65
NtRp2929
(dp2930
g68
(dp2931
g88
g89
ssg77
g2925
sg70
(lp2932
S'HTTP_CONTENT_LENGTH'
p2933
asbag63
(g84
g65
NtRp2934
(dp2935
g68
(dp2936
g95
g96
ssg77
g2925
sg70
(lp2937
S':'
asbag63
(g84
g65
NtRp2938
(dp2939
g68
(dp2940
sg77
g2925
sg70
(lp2941
g63
(g64
g65
NtRp2942
(dp2943
g68
(dp2944
g76
I3
ssg77
g2938
sg70
(lp2945
g883
asbasbasbag63
(g79
g65
NtRp2946
(dp2947
g68
(dp2948
sg77
g2753
sg70
(lp2949
g63
(g84
g65
NtRp2950
(dp2951
g68
(dp2952
g88
g89
ssg77
g2946
sg70
(lp2953
S'HTTP_CONTENT_TYPE'
p2954
asbag63
(g84
g65
NtRp2955
(dp2956
g68
(dp2957
g95
g96
ssg77
g2946
sg70
(lp2958
S':'
asbag63
(g84
g65
NtRp2959
(dp2960
g68
(dp2961
sg77
g2946
sg70
(lp2962
g63
(g64
g65
NtRp2963
(dp2964
g68
(dp2965
g76
I3
ssg77
g2959
sg70
(lp2966
g905
asbasbasbag63
(g79
g65
NtRp2967
(dp2968
g68
(dp2969
sg77
g2753
sg70
(lp2970
g63
(g84
g65
NtRp2971
(dp2972
g68
(dp2973
g88
g89
ssg77
g2967
sg70
(lp2974
S'HTTP_COOKIE'
p2975
asbag63
(g84
g65
NtRp2976
(dp2977
g68
(dp2978
g95
g96
ssg77
g2967
sg70
(lp2979
S':'
asbag63
(g84
g65
NtRp2980
(dp2981
g68
(dp2982
sg77
g2967
sg70
(lp2983
g63
(g64
g65
NtRp2984
(dp2985
g68
(dp2986
g76
I3
ssg77
g2980
sg70
(lp2987
g1166
asbasbasbag63
(g79
g65
NtRp2988
(dp2989
g68
(dp2990
sg77
g2753
sg70
(lp2991
g63
(g84
g65
NtRp2992
(dp2993
g68
(dp2994
g88
g89
ssg77
g2988
sg70
(lp2995
S'HTTP_HOST'
p2996
asbag63
(g84
g65
NtRp2997
(dp2998
g68
(dp2999
g95
g96
ssg77
g2988
sg70
(lp3000
S':'
asbag63
(g84
g65
NtRp3001
(dp3002
g68
(dp3003
sg77
g2988
sg70
(lp3004
g63
(g64
g65
NtRp3005
(dp3006
g68
(dp3007
g76
I3
ssg77
g3001
sg70
(lp3008
g1188
asbasbasbag63
(g79
g65
NtRp3009
(dp3010
g68
(dp3011
sg77
g2753
sg70
(lp3012
g63
(g84
g65
NtRp3013
(dp3014
g68
(dp3015
g88
g89
ssg77
g3009
sg70
(lp3016
S'HTTP_ORIGIN'
p3017
asbag63
(g84
g65
NtRp3018
(dp3019
g68
(dp3020
g95
g96
ssg77
g3009
sg70
(lp3021
S':'
asbag63
(g84
g65
NtRp3022
(dp3023
g68
(dp3024
sg77
g3009
sg70
(lp3025
g63
(g64
g65
NtRp3026
(dp3027
g68
(dp3028
g76
I3
ssg77
g3022
sg70
(lp3029
g1210
asbasbasbag63
(g79
g65
NtRp3030
(dp3031
g68
(dp3032
sg77
g2753
sg70
(lp3033
g63
(g84
g65
NtRp3034
(dp3035
g68
(dp3036
g88
g89
ssg77
g3030
sg70
(lp3037
S'HTTP_REFERER'
p3038
asbag63
(g84
g65
NtRp3039
(dp3040
g68
(dp3041
g95
g96
ssg77
g3030
sg70
(lp3042
S':'
asbag63
(g84
g65
NtRp3043
(dp3044
g68
(dp3045
sg77
g3030
sg70
(lp3046
g63
(g64
g65
NtRp3047
(dp3048
g68
(dp3049
g76
I3
ssg77
g3043
sg70
(lp3050
g1232
asbasbasbag63
(g79
g65
NtRp3051
(dp3052
g68
(dp3053
sg77
g2753
sg70
(lp3054
g63
(g84
g65
NtRp3055
(dp3056
g68
(dp3057
g88
g89
ssg77
g3051
sg70
(lp3058
S'HTTP_USER_AGENT'
p3059
asbag63
(g84
g65
NtRp3060
(dp3061
g68
(dp3062
g95
g96
ssg77
g3051
sg70
(lp3063
S':'
asbag63
(g84
g65
NtRp3064
(dp3065
g68
(dp3066
sg77
g3051
sg70
(lp3067
g63
(g64
g65
NtRp3068
(dp3069
g68
(dp3070
g76
I3
ssg77
g3064
sg70
(lp3071
g1254
asbasbasbag63
(g79
g65
NtRp3072
(dp3073
g68
(dp3074
sg77
g2753
sg70
(lp3075
g63
(g84
g65
NtRp3076
(dp3077
g68
(dp3078
g88
g89
ssg77
g3072
sg70
(lp3079
S'PATH_INFO'
p3080
asbag63
(g84
g65
NtRp3081
(dp3082
g68
(dp3083
g95
g96
ssg77
g3072
sg70
(lp3084
S':'
asbag63
(g84
g65
NtRp3085
(dp3086
g68
(dp3087
sg77
g3072
sg70
(lp3088
g63
(g64
g65
NtRp3089
(dp3090
g68
(dp3091
g76
I3
ssg77
g3085
sg70
(lp3092
g1297
asbasbasbag63
(g79
g65
NtRp3093
(dp3094
g68
(dp3095
sg77
g2753
sg70
(lp3096
g63
(g84
g65
NtRp3097
(dp3098
g68
(dp3099
g88
g89
ssg77
g3093
sg70
(lp3100
S'QUERY_STRING'
p3101
asbag63
(g84
g65
NtRp3102
(dp3103
g68
(dp3104
g95
g96
ssg77
g3093
sg70
(lp3105
S':'
asbag63
(g84
g65
NtRp3106
(dp3107
g68
(dp3108
sg77
g3093
sg70
(lp3109
g63
(g64
g65
NtRp3110
(dp3111
g68
(dp3112
g76
I3
ssg77
g3106
sg70
(lp3113
S''
asbasbasbag63
(g79
g65
NtRp3114
(dp3115
g68
(dp3116
sg77
g2753
sg70
(lp3117
g63
(g84
g65
NtRp3118
(dp3119
g68
(dp3120
g88
g89
ssg77
g3114
sg70
(lp3121
S'REMOTE_ADDR'
p3122
asbag63
(g84
g65
NtRp3123
(dp3124
g68
(dp3125
g95
g96
ssg77
g3114
sg70
(lp3126
S':'
asbag63
(g84
g65
NtRp3127
(dp3128
g68
(dp3129
sg77
g3114
sg70
(lp3130
g63
(g64
g65
NtRp3131
(dp3132
g68
(dp3133
g76
I3
ssg77
g3127
sg70
(lp3134
g196
asbasbasbag63
(g79
g65
NtRp3135
(dp3136
g68
(dp3137
sg77
g2753
sg70
(lp3138
g63
(g84
g65
NtRp3139
(dp3140
g68
(dp3141
g88
g89
ssg77
g3135
sg70
(lp3142
S'REMOTE_PORT'
p3143
asbag63
(g84
g65
NtRp3144
(dp3145
g68
(dp3146
g95
g96
ssg77
g3135
sg70
(lp3147
S':'
asbag63
(g84
g65
NtRp3148
(dp3149
g68
(dp3150
sg77
g3135
sg70
(lp3151
g63
(g64
g65
NtRp3152
(dp3153
g68
(dp3154
g76
I3
ssg77
g3148
sg70
(lp3155
g1361
asbasbasbag63
(g79
g65
NtRp3156
(dp3157
g68
(dp3158
sg77
g2753
sg70
(lp3159
g63
(g84
g65
NtRp3160
(dp3161
g68
(dp3162
g88
g89
ssg77
g3156
sg70
(lp3163
S'REQUEST_METHOD'
p3164
asbag63
(g84
g65
NtRp3165
(dp3166
g68
(dp3167
g95
g96
ssg77
g3156
sg70
(lp3168
S':'
asbag63
(g84
g65
NtRp3169
(dp3170
g68
(dp3171
sg77
g3156
sg70
(lp3172
g63
(g64
g65
NtRp3173
(dp3174
g68
(dp3175
g76
I3
ssg77
g3169
sg70
(lp3176
g1383
asbasbasbag63
(g79
g65
NtRp3177
(dp3178
g68
(dp3179
sg77
g2753
sg70
(lp3180
g63
(g84
g65
NtRp3181
(dp3182
g68
(dp3183
g88
g89
ssg77
g3177
sg70
(lp3184
S'SCRIPT_NAME'
p3185
asbag63
(g84
g65
NtRp3186
(dp3187
g68
(dp3188
g95
g96
ssg77
g3177
sg70
(lp3189
S':'
asbag63
(g84
g65
NtRp3190
(dp3191
g68
(dp3192
sg77
g3177
sg70
(lp3193
g63
(g64
g65
NtRp3194
(dp3195
g68
(dp3196
g76
I3
ssg77
g3190
sg70
(lp3197
S''
asbasbasbag63
(g79
g65
NtRp3198
(dp3199
g68
(dp3200
sg77
g2753
sg70
(lp3201
g63
(g84
g65
NtRp3202
(dp3203
g68
(dp3204
g88
g89
ssg77
g3198
sg70
(lp3205
S'SERVER_NAME'
p3206
asbag63
(g84
g65
NtRp3207
(dp3208
g68
(dp3209
g95
g96
ssg77
g3198
sg70
(lp3210
S':'
asbag63
(g84
g65
NtRp3211
(dp3212
g68
(dp3213
sg77
g3198
sg70
(lp3214
g63
(g64
g65
NtRp3215
(dp3216
g68
(dp3217
g76
I3
ssg77
g3211
sg70
(lp3218
g1426
asbasbasbag63
(g79
g65
NtRp3219
(dp3220
g68
(dp3221
sg77
g2753
sg70
(lp3222
g63
(g84
g65
NtRp3223
(dp3224
g68
(dp3225
g88
g89
ssg77
g3219
sg70
(lp3226
S'SERVER_PORT'
p3227
asbag63
(g84
g65
NtRp3228
(dp3229
g68
(dp3230
g95
g96
ssg77
g3219
sg70
(lp3231
S':'
asbag63
(g84
g65
NtRp3232
(dp3233
g68
(dp3234
sg77
g3219
sg70
(lp3235
g63
(g64
g65
NtRp3236
(dp3237
g68
(dp3238
g76
I3
ssg77
g3232
sg70
(lp3239
g1448
asbasbasbag63
(g79
g65
NtRp3240
(dp3241
g68
(dp3242
sg77
g2753
sg70
(lp3243
g63
(g84
g65
NtRp3244
(dp3245
g68
(dp3246
g88
g89
ssg77
g3240
sg70
(lp3247
S'SERVER_PROTOCOL'
p3248
asbag63
(g84
g65
NtRp3249
(dp3250
g68
(dp3251
g95
g96
ssg77
g3240
sg70
(lp3252
S':'
asbag63
(g84
g65
NtRp3253
(dp3254
g68
(dp3255
sg77
g3240
sg70
(lp3256
g63
(g64
g65
NtRp3257
(dp3258
g68
(dp3259
g76
I3
ssg77
g3253
sg70
(lp3260
g1470
asbasbasbag63
(g79
g65
NtRp3261
(dp3262
g68
(dp3263
sg77
g2753
sg70
(lp3264
g63
(g84
g65
NtRp3265
(dp3266
g68
(dp3267
g88
g89
ssg77
g3261
sg70
(lp3268
S'SERVER_SOFTWARE'
p3269
asbag63
(g84
g65
NtRp3270
(dp3271
g68
(dp3272
g95
g96
ssg77
g3261
sg70
(lp3273
S':'
asbag63
(g84
g65
NtRp3274
(dp3275
g68
(dp3276
sg77
g3261
sg70
(lp3277
g63
(g64
g65
NtRp3278
(dp3279
g68
(dp3280
g76
I3
ssg77
g3274
sg70
(lp3281
g1492
asbasbasbag63
(g79
g65
NtRp3282
(dp3283
g68
(dp3284
sg77
g2753
sg70
(lp3285
g63
(g84
g65
NtRp3286
(dp3287
g68
(dp3288
g88
g89
ssg77
g3282
sg70
(lp3289
S'wsgi.errors'
p3290
asbag63
(g84
g65
NtRp3291
(dp3292
g68
(dp3293
g95
g96
ssg77
g3282
sg70
(lp3294
S':'
asbag63
(g84
g65
NtRp3295
(dp3296
g68
(dp3297
sg77
g3282
sg70
(lp3298
g63
(g64
g65
NtRp3299
(dp3300
g68
(dp3301
g76
I3
ssg77
g3295
sg70
(lp3302
S"<open file '<stderr>', mode 'w' at 0x014F00B0>"
p3303
asbasbasbag63
(g79
g65
NtRp3304
(dp3305
g68
(dp3306
sg77
g2753
sg70
(lp3307
g63
(g84
g65
NtRp3308
(dp3309
g68
(dp3310
g88
g89
ssg77
g3304
sg70
(lp3311
S'wsgi.file_wrapper'
p3312
asbag63
(g84
g65
NtRp3313
(dp3314
g68
(dp3315
g95
g96
ssg77
g3304
sg70
(lp3316
S':'
asbag63
(g84
g65
NtRp3317
(dp3318
g68
(dp3319
sg77
g3304
sg70
(lp3320
g63
(g64
g65
NtRp3321
(dp3322
g68
(dp3323
g76
I3
ssg77
g3317
sg70
(lp3324
S'<class wsgiref.util.FileWrapper at 0x023D9AB0>'
p3325
asbasbasbag63
(g79
g65
NtRp3326
(dp3327
g68
(dp3328
sg77
g2753
sg70
(lp3329
g63
(g84
g65
NtRp3330
(dp3331
g68
(dp3332
g88
g89
ssg77
g3326
sg70
(lp3333
S'wsgi.input'
p3334
asbag63
(g84
g65
NtRp3335
(dp3336
g68
(dp3337
g95
g96
ssg77
g3326
sg70
(lp3338
S':'
asbag63
(g84
g65
NtRp3339
(dp3340
g68
(dp3341
sg77
g3326
sg70
(lp3342
g63
(g64
g65
NtRp3343
(dp3344
g68
(dp3345
g76
I3
ssg77
g3339
sg70
(lp3346
S"<open file '<fdopen>', mode 'w+b' at 0x065C9BA8>"
p3347
asbasbasbag63
(g79
g65
NtRp3348
(dp3349
g68
(dp3350
sg77
g2753
sg70
(lp3351
g63
(g84
g65
NtRp3352
(dp3353
g68
(dp3354
g88
g89
ssg77
g3348
sg70
(lp3355
S'wsgi.multiprocess'
p3356
asbag63
(g84
g65
NtRp3357
(dp3358
g68
(dp3359
g95
g96
ssg77
g3348
sg70
(lp3360
S':'
asbag63
(g84
g65
NtRp3361
(dp3362
g68
(dp3363
sg77
g3348
sg70
(lp3364
g63
(g64
g65
NtRp3365
(dp3366
g68
(dp3367
g76
I3
ssg77
g3361
sg70
(lp3368
g106
asbasbasbag63
(g79
g65
NtRp3369
(dp3370
g68
(dp3371
sg77
g2753
sg70
(lp3372
g63
(g84
g65
NtRp3373
(dp3374
g68
(dp3375
g88
g89
ssg77
g3369
sg70
(lp3376
S'wsgi.multithread'
p3377
asbag63
(g84
g65
NtRp3378
(dp3379
g68
(dp3380
g95
g96
ssg77
g3369
sg70
(lp3381
S':'
asbag63
(g84
g65
NtRp3382
(dp3383
g68
(dp3384
sg77
g3369
sg70
(lp3385
g63
(g64
g65
NtRp3386
(dp3387
g68
(dp3388
g76
I3
ssg77
g3382
sg70
(lp3389
g1732
asbasbasbag63
(g79
g65
NtRp3390
(dp3391
g68
(dp3392
sg77
g2753
sg70
(lp3393
g63
(g84
g65
NtRp3394
(dp3395
g68
(dp3396
g88
g89
ssg77
g3390
sg70
(lp3397
S'wsgi.run_once'
p3398
asbag63
(g84
g65
NtRp3399
(dp3400
g68
(dp3401
g95
g96
ssg77
g3390
sg70
(lp3402
S':'
asbag63
(g84
g65
NtRp3403
(dp3404
g68
(dp3405
sg77
g3390
sg70
(lp3406
g63
(g64
g65
NtRp3407
(dp3408
g68
(dp3409
g76
I3
ssg77
g3403
sg70
(lp3410
g106
asbasbasbag63
(g79
g65
NtRp3411
(dp3412
g68
(dp3413
sg77
g2753
sg70
(lp3414
g63
(g84
g65
NtRp3415
(dp3416
g68
(dp3417
g88
g89
ssg77
g3411
sg70
(lp3418
S'wsgi.url_scheme'
p3419
asbag63
(g84
g65
NtRp3420
(dp3421
g68
(dp3422
g95
g96
ssg77
g3411
sg70
(lp3423
S':'
asbag63
(g84
g65
NtRp3424
(dp3425
g68
(dp3426
sg77
g3411
sg70
(lp3427
g63
(g64
g65
NtRp3428
(dp3429
g68
(dp3430
g76
I3
ssg77
g3424
sg70
(lp3431
g1775
asbasbasbag63
(g79
g65
NtRp3432
(dp3433
g68
(dp3434
sg77
g2753
sg70
(lp3435
g63
(g84
g65
NtRp3436
(dp3437
g68
(dp3438
g88
g89
ssg77
g3432
sg70
(lp3439
S'wsgi.version'
p3440
asbag63
(g84
g65
NtRp3441
(dp3442
g68
(dp3443
g95
g96
ssg77
g3432
sg70
(lp3444
S':'
asbag63
(g84
g65
NtRp3445
(dp3446
g68
(dp3447
sg77
g3432
sg70
(lp3448
g63
(g64
g65
NtRp3449
(dp3450
g68
(dp3451
g76
I3
ssg77
g3445
sg70
(lp3452
S'1'
asbasbasbasbasbasbasbasbasbasbasbasbasbsS'frames'
p3453
(lp3454
(dp3455
S'file'
p3456
S'C:\\Python32\\web2py_win\\web2py\\gluon\\restricted.py'
p3457
sS'dump'
p3458
(dp3459
sS'lnum'
p3460
I194
sS'lines'
p3461
(dp3462
sS'call'
p3463
S"(code='# -*- coding: utf-8 -*-\\n### required - do no del...()\\n\\nresponse._vars=response._caller(crearEvento)\\n', environment={'A': <class 'gluon.html.A'>, 'Auth': <class 'gluon.tools.Auth'>, 'B': <class 'gluon.html.B'>, 'BEAUTIFY': <class 'gluon.html.BEAUTIFY'>, 'BODY': <class 'gluon.html.BODY'>, 'BR': <class 'gluon.html.BR'>, 'BUTTON': <class 'gluon.html.BUTTON'>, 'CAT': <class 'gluon.html.CAT'>, 'CENTER': <class 'gluon.html.CENTER'>, 'CLEANUP': <class 'gluon.validators.CLEANUP'>, ...}, layer=r'C:\\Python32\\web2py_win\\web2py\\applications\\Casa_de_Apuestas\\controllers/default.py')"
p3464
sS'func'
p3465
S'restricted'
p3466
sa(dp3467
g3456
S'C:\\Python32\\web2py_win\\web2py\\applications\\Casa_de_Apuestas\\controllers\\default.py'
p3468
sg3458
(dp3469
sg3460
I208
sg3461
(dp3470
I197
S'    return dict(eventos=eventos)'
p3471
sI198
S''
sI199
S'def verProximosEventos2():'
p3472
sI200
S'    evento_participante= db((db.eventosparticipantes.eventos_id==request.args(0))& (db.participantes.id==db.eventosparticipantes.participantes_id)).select()'
p3473
sI201
S'    evento = db(db.eventos.id==request.args(0)).select()'
p3474
sI202
S'    categoria = db((db.categorias.id==db.eventos.categoria_id)& (db.eventos.id==request.args(0))).select()'
p3475
sI203
S'    return dict(evento_participante=evento_participante,evento=evento,categoria=categoria)'
p3476
sI204
S''
sI205
S'def indexPublico():'
p3477
sI206
S'    return dict()'
p3478
ssg3463
S'()'
p3479
sg3465
S'<module>'
p3480
sa(dp3481
g3456
S'C:\\Python32\\web2py_win\\web2py\\gluon\\globals.py'
p3482
sg3458
(dp3483
sg3460
I149
sg3461
(dp3484
sg3463
S'(f=<function crearEvento at 0x0689DBF0>)'
p3485
sg3465
S'<lambda>'
p3486
sa(dp3487
g3456
S'C:\\Python32\\web2py_win\\web2py\\applications\\Casa_de_Apuestas\\controllers\\default.py'
p3488
sg3458
(dp3489
sg3460
I69
sg3461
(dp3490
I64
S'        if form.process().accepted:'
p3491
sI65
S'            db.commit()'
p3492
sI66
S'            from log import *'
p3493
sI67
S'            log = log()'
p3494
sI68
S'            log.logear("Evento creado: "+form.vars.nombre)'
p3495
sI69
S'        return response.render(dict(form=form,eventos=eventos))'
p3496
sI70
S''
sI71
S'def crearParticipante():'
p3497
sI72
S'        participantes = db().select(db.participantes.ALL)'
p3498
sI73
S'        form = crud.create(db.participantes)'
p3499
ssg3463
S'()'
p3500
sg3465
S'crearEvento'
p3501
sa(dp3502
g3456
S'C:\\Python32\\web2py_win\\web2py\\gluon\\globals.py'
p3503
sg3458
(dp3504
sg3460
I185
sg3461
(dp3505
sg3463
S"(self=<Storage {'body': <cStringIO.StringO object at 0...0x068CFCB0>, 'view': 'default/crearEvento.html'}>, *a=({'eventos': <gluon.dal.Rows object at 0x06D9A290>, 'form': <gluon.sqlhtml.SQLFORM object at 0x06D9A1F0>},), **b={})"
p3506
sg3465
S'render'
p3507
sa(dp3508
g3456
S'C:\\Python32\\web2py_win\\web2py\\gluon\\compileapp.py'
p3509
sg3458
(dp3510
sg3460
I524
sg3461
(dp3511
sg3463
S"(environment={'A': <class 'gluon.html.A'>, 'Auth': <class 'gluon.tools.Auth'>, 'B': <class 'gluon.html.B'>, 'BEAUTIFY': <class 'gluon.html.BEAUTIFY'>, 'BODY': <class 'gluon.html.BODY'>, 'BR': <class 'gluon.html.BR'>, 'BUTTON': <class 'gluon.html.BUTTON'>, 'CAT': <class 'gluon.html.CAT'>, 'CENTER': <class 'gluon.html.CENTER'>, 'CLEANUP': <class 'gluon.validators.CLEANUP'>, ...})"
p3512
sg3465
S'run_view_in'
p3513
sa(dp3514
g3456
S'C:\\Python32\\web2py_win\\web2py\\gluon\\restricted.py'
p3515
sg3458
(dp3516
sg3460
I202
sg3461
(dp3517
sg3463
S'(code=\'response.write(\\\'<!DOCTYPE html PUBLIC "-//W3C//D...</div>\\\\r\\\\n </body>\\\\r\\\\n</html>\\\\r\\\\n\\\', escape=False)\', environment={\'A\': <class \'gluon.html.A\'>, \'Auth\': <class \'gluon.tools.Auth\'>, \'B\': <class \'gluon.html.B\'>, \'BEAUTIFY\': <class \'gluon.html.BEAUTIFY\'>, \'BODY\': <class \'gluon.html.BODY\'>, \'BR\': <class \'gluon.html.BR\'>, \'BUTTON\': <class \'gluon.html.BUTTON\'>, \'CAT\': <class \'gluon.html.CAT\'>, \'CENTER\': <class \'gluon.html.CENTER\'>, \'CLEANUP\': <class \'gluon.validators.CLEANUP\'>, ...}, layer=r\'C:\\Python32\\web2py_win\\web2py\\applications\\Casa_de_Apuestas\\views\\default/crearEvento.html\')'
p3518
sg3465
g3466
sasS'pyver'
p3519
S'Python 2.5.4: C:\\Python32\\web2py_win\\web2py\\web2py.exe'
p3520
sS'session'
p3521
g63
(g64
g65
NtRp3522
(dp3523
g68
(dp3524
sg70
(lp3525
g63
(g72
g65
NtRp3526
(dp3527
g68
(dp3528
g76
I5
ssg77
Nsg70
(lp3529
g63
(g79
g65
NtRp3530
(dp3531
g68
(dp3532
sg77
g3526
sg70
(lp3533
g63
(g84
g65
NtRp3534
(dp3535
g68
(dp3536
g88
g89
ssg77
g3530
sg70
(lp3537
S'last_query'
p3538
asbag63
(g84
g65
NtRp3539
(dp3540
g68
(dp3541
g95
g96
ssg77
g3530
sg70
(lp3542
S':'
asbag63
(g84
g65
NtRp3543
(dp3544
g68
(dp3545
sg77
g3530
sg70
(lp3546
g63
(g64
g65
NtRp3547
(dp3548
g68
(dp3549
g76
I5
ssg77
g3543
sg70
(lp3550
S'db.eventos.id>0'
p3551
asbasbasbasbasbsS'etype'
p3552
S"<class 'gluon.restricted.RestrictedError'>"
p3553
sS'date'
p3554
S'Sun Dec 25 14:27:05 2011'
p3555
sS'response'
p3556
g63
(g64
g65
NtRp3557
(dp3558
g68
(dp3559
sg70
(lp3560
g63
(g72
g65
NtRp3561
(dp3562
g68
(dp3563
g76
I5
ssg77
Nsg70
(lp3564
g63
(g79
g65
NtRp3565
(dp3566
g68
(dp3567
sg77
g3561
sg70
(lp3568
g63
(g84
g65
NtRp3569
(dp3570
g68
(dp3571
g88
g89
ssg77
g3565
sg70
(lp3572
g161
asbag63
(g84
g65
NtRp3573
(dp3574
g68
(dp3575
g95
g96
ssg77
g3565
sg70
(lp3576
S':'
asbag63
(g84
g65
NtRp3577
(dp3578
g68
(dp3579
sg77
g3565
sg70
(lp3580
g63
(g64
g65
NtRp3581
(dp3582
g68
(dp3583
g76
I5
ssg77
g3577
sg70
(lp3584
S'<cStringIO.StringO object at 0x0699E240>'
p3585
asbasbasbag63
(g79
g65
NtRp3586
(dp3587
g68
(dp3588
sg77
g3561
sg70
(lp3589
g63
(g84
g65
NtRp3590
(dp3591
g68
(dp3592
g88
g89
ssg77
g3586
sg70
(lp3593
g227
asbag63
(g84
g65
NtRp3594
(dp3595
g68
(dp3596
g95
g96
ssg77
g3586
sg70
(lp3597
S':'
asbag63
(g84
g65
NtRp3598
(dp3599
g68
(dp3600
sg77
g3586
sg70
(lp3601
g63
(g64
g65
NtRp3602
(dp3603
g68
(dp3604
g76
I5
ssg77
g3598
sg70
(lp3605
g63
(g72
g65
NtRp3606
(dp3607
g68
(dp3608
g76
I4
ssg77
Nsg70
(lp3609
g63
(g79
g65
NtRp3610
(dp3611
g68
(dp3612
sg77
g3606
sg70
(lp3613
g63
(g84
g65
NtRp3614
(dp3615
g68
(dp3616
g88
g89
ssg77
g3610
sg70
(lp3617
S'session_id_casa_de_apuestas'
p3618
asbag63
(g84
g65
NtRp3619
(dp3620
g68
(dp3621
g95
g96
ssg77
g3610
sg70
(lp3622
S':'
asbag63
(g84
g65
NtRp3623
(dp3624
g68
(dp3625
sg77
g3610
sg70
(lp3626
g63
(g64
g65
NtRp3627
(dp3628
g68
(dp3629
g76
I4
ssg77
g3623
sg70
(lp3630
g63
(g72
g65
NtRp3631
(dp3632
g68
(dp3633
g76
I3
ssg77
Nsg70
(lp3634
g63
(g79
g65
NtRp3635
(dp3636
g68
(dp3637
sg77
g3631
sg70
(lp3638
g63
(g84
g65
NtRp3639
(dp3640
g68
(dp3641
g88
g89
ssg77
g3635
sg70
(lp3642
g277
asbag63
(g84
g65
NtRp3643
(dp3644
g68
(dp3645
g95
g96
ssg77
g3635
sg70
(lp3646
S':'
asbag63
(g84
g65
NtRp3647
(dp3648
g68
(dp3649
sg77
g3635
sg70
(lp3650
g63
(g64
g65
NtRp3651
(dp3652
g68
(dp3653
g76
I3
ssg77
g3647
sg70
(lp3654
S''
asbasbasbag63
(g79
g65
NtRp3655
(dp3656
g68
(dp3657
sg77
g3631
sg70
(lp3658
g63
(g84
g65
NtRp3659
(dp3660
g68
(dp3661
g88
g89
ssg77
g3655
sg70
(lp3662
g298
asbag63
(g84
g65
NtRp3663
(dp3664
g68
(dp3665
g95
g96
ssg77
g3655
sg70
(lp3666
S':'
asbag63
(g84
g65
NtRp3667
(dp3668
g68
(dp3669
sg77
g3655
sg70
(lp3670
g63
(g64
g65
NtRp3671
(dp3672
g68
(dp3673
g76
I3
ssg77
g3667
sg70
(lp3674
S''
asbasbasbag63
(g79
g65
NtRp3675
(dp3676
g68
(dp3677
sg77
g3631
sg70
(lp3678
g63
(g84
g65
NtRp3679
(dp3680
g68
(dp3681
g88
g89
ssg77
g3675
sg70
(lp3682
g319
asbag63
(g84
g65
NtRp3683
(dp3684
g68
(dp3685
g95
g96
ssg77
g3675
sg70
(lp3686
S':'
asbag63
(g84
g65
NtRp3687
(dp3688
g68
(dp3689
sg77
g3675
sg70
(lp3690
g63
(g64
g65
NtRp3691
(dp3692
g68
(dp3693
g76
I3
ssg77
g3687
sg70
(lp3694
S''
asbasbasbag63
(g79
g65
NtRp3695
(dp3696
g68
(dp3697
sg77
g3631
sg70
(lp3698
g63
(g84
g65
NtRp3699
(dp3700
g68
(dp3701
g88
g89
ssg77
g3695
sg70
(lp3702
g340
asbag63
(g84
g65
NtRp3703
(dp3704
g68
(dp3705
g95
g96
ssg77
g3695
sg70
(lp3706
S':'
asbag63
(g84
g65
NtRp3707
(dp3708
g68
(dp3709
sg77
g3695
sg70
(lp3710
g63
(g64
g65
NtRp3711
(dp3712
g68
(dp3713
g76
I3
ssg77
g3707
sg70
(lp3714
S''
asbasbasbag63
(g79
g65
NtRp3715
(dp3716
g68
(dp3717
sg77
g3631
sg70
(lp3718
g63
(g84
g65
NtRp3719
(dp3720
g68
(dp3721
g88
g89
ssg77
g3715
sg70
(lp3722
g361
asbag63
(g84
g65
NtRp3723
(dp3724
g68
(dp3725
g95
g96
ssg77
g3715
sg70
(lp3726
S':'
asbag63
(g84
g65
NtRp3727
(dp3728
g68
(dp3729
sg77
g3715
sg70
(lp3730
g63
(g64
g65
NtRp3731
(dp3732
g68
(dp3733
g76
I3
ssg77
g3727
sg70
(lp3734
S'/'
asbasbasbag63
(g79
g65
NtRp3735
(dp3736
g68
(dp3737
sg77
g3631
sg70
(lp3738
g63
(g84
g65
NtRp3739
(dp3740
g68
(dp3741
g88
g89
ssg77
g3735
sg70
(lp3742
g382
asbag63
(g84
g65
NtRp3743
(dp3744
g68
(dp3745
g95
g96
ssg77
g3735
sg70
(lp3746
S':'
asbag63
(g84
g65
NtRp3747
(dp3748
g68
(dp3749
sg77
g3735
sg70
(lp3750
g63
(g64
g65
NtRp3751
(dp3752
g68
(dp3753
g76
I3
ssg77
g3747
sg70
(lp3754
S''
asbasbasbag63
(g79
g65
NtRp3755
(dp3756
g68
(dp3757
sg77
g3631
sg70
(lp3758
g63
(g84
g65
NtRp3759
(dp3760
g68
(dp3761
g88
g89
ssg77
g3755
sg70
(lp3762
g403
asbag63
(g84
g65
NtRp3763
(dp3764
g68
(dp3765
g95
g96
ssg77
g3755
sg70
(lp3766
S':'
asbag63
(g84
g65
NtRp3767
(dp3768
g68
(dp3769
sg77
g3755
sg70
(lp3770
g63
(g64
g65
NtRp3771
(dp3772
g68
(dp3773
g76
I3
ssg77
g3767
sg70
(lp3774
S''
asbasbasbasbasbasbasbasbasbasbasbag63
(g79
g65
NtRp3775
(dp3776
g68
(dp3777
sg77
g3561
sg70
(lp3778
g63
(g84
g65
NtRp3779
(dp3780
g68
(dp3781
g88
g89
ssg77
g3775
sg70
(lp3782
S'files'
p3783
asbag63
(g84
g65
NtRp3784
(dp3785
g68
(dp3786
g95
g96
ssg77
g3775
sg70
(lp3787
S':'
asbag63
(g84
g65
NtRp3788
(dp3789
g68
(dp3790
sg77
g3775
sg70
(lp3791
g63
(g64
g65
NtRp3792
(dp3793
g68
(dp3794
g76
I5
ssg77
g3788
sg70
(lp3795
g63
(g72
g65
NtRp3796
(dp3797
g68
(dp3798
g76
I4
ssg77
Nsg70
(lp3799
g63
(g79
g65
NtRp3800
(dp3801
g68
(dp3802
sg77
g3796
sg70
(lp3803
g63
(g84
g65
NtRp3804
(dp3805
g68
(dp3806
sg77
g3800
sg70
(lp3807
g63
(g64
g65
NtRp3808
(dp3809
g68
(dp3810
g76
I4
ssg77
g3804
sg70
(lp3811
S'/Casa_de_Apuestas/static/js/jquery.js'
p3812
asbasbasbag63
(g79
g65
NtRp3813
(dp3814
g68
(dp3815
sg77
g3796
sg70
(lp3816
g63
(g84
g65
NtRp3817
(dp3818
g68
(dp3819
sg77
g3813
sg70
(lp3820
g63
(g64
g65
NtRp3821
(dp3822
g68
(dp3823
g76
I4
ssg77
g3817
sg70
(lp3824
S'/Casa_de_Apuestas/static/css/anytime.css'
p3825
asbasbasbag63
(g79
g65
NtRp3826
(dp3827
g68
(dp3828
sg77
g3796
sg70
(lp3829
g63
(g84
g65
NtRp3830
(dp3831
g68
(dp3832
sg77
g3826
sg70
(lp3833
g63
(g64
g65
NtRp3834
(dp3835
g68
(dp3836
g76
I4
ssg77
g3830
sg70
(lp3837
S'/Casa_de_Apuestas/static/js/anytime.js'
p3838
asbasbasbag63
(g79
g65
NtRp3839
(dp3840
g68
(dp3841
sg77
g3796
sg70
(lp3842
g63
(g84
g65
NtRp3843
(dp3844
g68
(dp3845
sg77
g3839
sg70
(lp3846
g63
(g64
g65
NtRp3847
(dp3848
g68
(dp3849
g76
I4
ssg77
g3843
sg70
(lp3850
S'/Casa_de_Apuestas/static/plugin_layouts/layouts/Balanced/default.css'
p3851
asbasbasbag63
(g79
g65
NtRp3852
(dp3853
g68
(dp3854
sg77
g3796
sg70
(lp3855
g63
(g84
g65
NtRp3856
(dp3857
g68
(dp3858
sg77
g3852
sg70
(lp3859
g63
(g64
g65
NtRp3860
(dp3861
g68
(dp3862
g76
I4
ssg77
g3856
sg70
(lp3863
S'/Casa_de_Apuestas/static/plugin_layouts/superfish.js'
p3864
asbasbasbasbasbasbasbag63
(g79
g65
NtRp3865
(dp3866
g68
(dp3867
sg77
g3561
sg70
(lp3868
g63
(g84
g65
NtRp3869
(dp3870
g68
(dp3871
g88
g89
ssg77
g3865
sg70
(lp3872
S'flash'
p3873
asbag63
(g84
g65
NtRp3874
(dp3875
g68
(dp3876
g95
g96
ssg77
g3865
sg70
(lp3877
S':'
asbag63
(g84
g65
NtRp3878
(dp3879
g68
(dp3880
sg77
g3865
sg70
(lp3881
g63
(g64
g65
NtRp3882
(dp3883
g68
(dp3884
g76
I5
ssg77
g3878
sg70
(lp3885
S''
asbasbasbag63
(g79
g65
NtRp3886
(dp3887
g68
(dp3888
sg77
g3561
sg70
(lp3889
g63
(g84
g65
NtRp3890
(dp3891
g68
(dp3892
g88
g89
ssg77
g3886
sg70
(lp3893
S'generic_patterns'
p3894
asbag63
(g84
g65
NtRp3895
(dp3896
g68
(dp3897
g95
g96
ssg77
g3886
sg70
(lp3898
S':'
asbag63
(g84
g65
NtRp3899
(dp3900
g68
(dp3901
sg77
g3886
sg70
(lp3902
g63
(g64
g65
NtRp3903
(dp3904
g68
(dp3905
g76
I5
ssg77
g3899
sg70
(lp3906
g63
(g72
g65
NtRp3907
(dp3908
g68
(dp3909
g76
I4
ssg77
Nsg70
(lp3910
g63
(g79
g65
NtRp3911
(dp3912
g68
(dp3913
sg77
g3907
sg70
(lp3914
g63
(g84
g65
NtRp3915
(dp3916
g68
(dp3917
sg77
g3911
sg70
(lp3918
g63
(g64
g65
NtRp3919
(dp3920
g68
(dp3921
g76
I4
ssg77
g3915
sg70
(lp3922
S'*'
asbasbasbasbasbasbasbag63
(g79
g65
NtRp3923
(dp3924
g68
(dp3925
sg77
g3561
sg70
(lp3926
g63
(g84
g65
NtRp3927
(dp3928
g68
(dp3929
g88
g89
ssg77
g3923
sg70
(lp3930
S'headers'
p3931
asbag63
(g84
g65
NtRp3932
(dp3933
g68
(dp3934
g95
g96
ssg77
g3923
sg70
(lp3935
S':'
asbag63
(g84
g65
NtRp3936
(dp3937
g68
(dp3938
sg77
g3923
sg70
(lp3939
g63
(g64
g65
NtRp3940
(dp3941
g68
(dp3942
g76
I5
ssg77
g3936
sg70
(lp3943
g63
(g72
g65
NtRp3944
(dp3945
g68
(dp3946
g76
I4
ssg77
Nsg70
(lp3947
g63
(g79
g65
NtRp3948
(dp3949
g68
(dp3950
sg77
g3944
sg70
(lp3951
g63
(g84
g65
NtRp3952
(dp3953
g68
(dp3954
g88
g89
ssg77
g3948
sg70
(lp3955
S'Cache-Control'
p3956
asbag63
(g84
g65
NtRp3957
(dp3958
g68
(dp3959
g95
g96
ssg77
g3948
sg70
(lp3960
S':'
asbag63
(g84
g65
NtRp3961
(dp3962
g68
(dp3963
sg77
g3948
sg70
(lp3964
g63
(g64
g65
NtRp3965
(dp3966
g68
(dp3967
g76
I4
ssg77
g3961
sg70
(lp3968
S'no-store, no-cache, must-revalidate, post-check=0, pre-check=0'
p3969
asbasbasbag63
(g79
g65
NtRp3970
(dp3971
g68
(dp3972
sg77
g3944
sg70
(lp3973
g63
(g84
g65
NtRp3974
(dp3975
g68
(dp3976
g88
g89
ssg77
g3970
sg70
(lp3977
S'Content-Type'
p3978
asbag63
(g84
g65
NtRp3979
(dp3980
g68
(dp3981
g95
g96
ssg77
g3970
sg70
(lp3982
S':'
asbag63
(g84
g65
NtRp3983
(dp3984
g68
(dp3985
sg77
g3970
sg70
(lp3986
g63
(g64
g65
NtRp3987
(dp3988
g68
(dp3989
g76
I4
ssg77
g3983
sg70
(lp3990
S'text/html; charset=utf-8'
p3991
asbasbasbag63
(g79
g65
NtRp3992
(dp3993
g68
(dp3994
sg77
g3944
sg70
(lp3995
g63
(g84
g65
NtRp3996
(dp3997
g68
(dp3998
g88
g89
ssg77
g3992
sg70
(lp3999
S'Expires'
p4000
asbag63
(g84
g65
NtRp4001
(dp4002
g68
(dp4003
g95
g96
ssg77
g3992
sg70
(lp4004
S':'
asbag63
(g84
g65
NtRp4005
(dp4006
g68
(dp4007
sg77
g3992
sg70
(lp4008
g63
(g64
g65
NtRp4009
(dp4010
g68
(dp4011
g76
I4
ssg77
g4005
sg70
(lp4012
S'Sun, 25 Dec 2011 18:57:05 GMT'
p4013
asbasbasbag63
(g79
g65
NtRp4014
(dp4015
g68
(dp4016
sg77
g3944
sg70
(lp4017
g63
(g84
g65
NtRp4018
(dp4019
g68
(dp4020
g88
g89
ssg77
g4014
sg70
(lp4021
S'Pragma'
p4022
asbag63
(g84
g65
NtRp4023
(dp4024
g68
(dp4025
g95
g96
ssg77
g4014
sg70
(lp4026
S':'
asbag63
(g84
g65
NtRp4027
(dp4028
g68
(dp4029
sg77
g4014
sg70
(lp4030
g63
(g64
g65
NtRp4031
(dp4032
g68
(dp4033
g76
I4
ssg77
g4027
sg70
(lp4034
S'no-cache'
p4035
asbasbasbag63
(g79
g65
NtRp4036
(dp4037
g68
(dp4038
sg77
g3944
sg70
(lp4039
g63
(g84
g65
NtRp4040
(dp4041
g68
(dp4042
g88
g89
ssg77
g4036
sg70
(lp4043
S'X-Powered-By'
p4044
asbag63
(g84
g65
NtRp4045
(dp4046
g68
(dp4047
g95
g96
ssg77
g4036
sg70
(lp4048
S':'
asbag63
(g84
g65
NtRp4049
(dp4050
g68
(dp4051
sg77
g4036
sg70
(lp4052
g63
(g64
g65
NtRp4053
(dp4054
g68
(dp4055
g76
I4
ssg77
g4049
sg70
(lp4056
S'web2py'
p4057
asbasbasbasbasbasbasbag63
(g79
g65
NtRp4058
(dp4059
g68
(dp4060
sg77
g3561
sg70
(lp4061
g63
(g84
g65
NtRp4062
(dp4063
g68
(dp4064
g88
g89
ssg77
g4058
sg70
(lp4065
S'menu'
p4066
asbag63
(g84
g65
NtRp4067
(dp4068
g68
(dp4069
g95
g96
ssg77
g4058
sg70
(lp4070
S':'
asbag63
(g84
g65
NtRp4071
(dp4072
g68
(dp4073
sg77
g4058
sg70
(lp4074
g63
(g64
g65
NtRp4075
(dp4076
g68
(dp4077
g76
I5
ssg77
g4071
sg70
(lp4078
g63
(g72
g65
NtRp4079
(dp4080
g68
(dp4081
g76
I4
ssg77
Nsg70
(lp4082
g63
(g79
g65
NtRp4083
(dp4084
g68
(dp4085
sg77
g4079
sg70
(lp4086
g63
(g84
g65
NtRp4087
(dp4088
g68
(dp4089
sg77
g4083
sg70
(lp4090
g63
(g64
g65
NtRp4091
(dp4092
g68
(dp4093
g76
I4
ssg77
g4087
sg70
(lp4094
g63
(g72
g65
NtRp4095
(dp4096
g68
(dp4097
g76
I3
ssg77
Nsg70
(lp4098
g63
(g79
g65
NtRp4099
(dp4100
g68
(dp4101
sg77
g4095
sg70
(lp4102
g63
(g84
g65
NtRp4103
(dp4104
g68
(dp4105
sg77
g4099
sg70
(lp4106
g63
(g64
g65
NtRp4107
(dp4108
g68
(dp4109
g76
I3
ssg77
g4103
sg70
(lp4110
cgluon.languages
lazyT_unpickle
p4111
(S's\x05\x00\x00\x00Index'
tRp4112
asbasbasbag63
(g79
g65
NtRp4113
(dp4114
g68
(dp4115
sg77
g4095
sg70
(lp4116
g63
(g84
g65
NtRp4117
(dp4118
g68
(dp4119
sg77
g4113
sg70
(lp4120
g63
(g64
g65
NtRp4121
(dp4122
g68
(dp4123
g76
I3
ssg77
g4117
sg70
(lp4124
g106
asbasbasbag63
(g79
g65
NtRp4125
(dp4126
g68
(dp4127
sg77
g4095
sg70
(lp4128
g63
(g84
g65
NtRp4129
(dp4130
g68
(dp4131
sg77
g4125
sg70
(lp4132
g63
(g64
g65
NtRp4133
(dp4134
g68
(dp4135
g76
I3
ssg77
g4129
sg70
(lp4136
S'/Casa_de_Apuestas/default/index'
p4137
asbasbasbag63
(g79
g65
NtRp4138
(dp4139
g68
(dp4140
sg77
g4095
sg70
(lp4141
g63
(g84
g65
NtRp4142
(dp4143
g68
(dp4144
sg77
g4138
sg70
(lp4145
g63
(g64
g65
NtRp4146
(dp4147
g68
(dp4148
g76
I3
ssg77
g4142
sg70
(lp4149
g63
(g72
g65
NtRp4150
(dp4151
g68
(dp4152
g76
I2
ssg77
Nsg70
(lp4153
sbasbasbasbasbasbasbasbasbasbasbasbag63
(g79
g65
NtRp4154
(dp4155
g68
(dp4156
sg77
g3561
sg70
(lp4157
g63
(g84
g65
NtRp4158
(dp4159
g68
(dp4160
g88
g89
ssg77
g4154
sg70
(lp4161
S'meta'
p4162
asbag63
(g84
g65
NtRp4163
(dp4164
g68
(dp4165
g95
g96
ssg77
g4154
sg70
(lp4166
S':'
asbag63
(g84
g65
NtRp4167
(dp4168
g68
(dp4169
sg77
g4154
sg70
(lp4170
g63
(g64
g65
NtRp4171
(dp4172
g68
(dp4173
g76
I5
ssg77
g4167
sg70
(lp4174
g63
(g72
g65
NtRp4175
(dp4176
g68
(dp4177
g76
I4
ssg77
Nsg70
(lp4178
g63
(g79
g65
NtRp4179
(dp4180
g68
(dp4181
sg77
g4175
sg70
(lp4182
g63
(g84
g65
NtRp4183
(dp4184
g68
(dp4185
g88
g89
ssg77
g4179
sg70
(lp4186
S'author'
p4187
asbag63
(g84
g65
NtRp4188
(dp4189
g68
(dp4190
g95
g96
ssg77
g4179
sg70
(lp4191
S':'
asbag63
(g84
g65
NtRp4192
(dp4193
g68
(dp4194
sg77
g4179
sg70
(lp4195
g63
(g64
g65
NtRp4196
(dp4197
g68
(dp4198
g76
I4
ssg77
g4192
sg70
(lp4199
S'JSG Systems <jsg@example.com>'
p4200
asbasbasbag63
(g79
g65
NtRp4201
(dp4202
g68
(dp4203
sg77
g4175
sg70
(lp4204
g63
(g84
g65
NtRp4205
(dp4206
g68
(dp4207
g88
g89
ssg77
g4201
sg70
(lp4208
S'description'
p4209
asbag63
(g84
g65
NtRp4210
(dp4211
g68
(dp4212
g95
g96
ssg77
g4201
sg70
(lp4213
S':'
asbag63
(g84
g65
NtRp4214
(dp4215
g68
(dp4216
sg77
g4201
sg70
(lp4217
g63
(g64
g65
NtRp4218
(dp4219
g68
(dp4220
g76
I4
ssg77
g4214
sg70
(lp4221
S''
asbasbasbag63
(g79
g65
NtRp4222
(dp4223
g68
(dp4224
sg77
g4175
sg70
(lp4225
g63
(g84
g65
NtRp4226
(dp4227
g68
(dp4228
g88
g89
ssg77
g4222
sg70
(lp4229
S'keywords'
p4230
asbag63
(g84
g65
NtRp4231
(dp4232
g68
(dp4233
g95
g96
ssg77
g4222
sg70
(lp4234
S':'
asbag63
(g84
g65
NtRp4235
(dp4236
g68
(dp4237
sg77
g4222
sg70
(lp4238
g63
(g64
g65
NtRp4239
(dp4240
g68
(dp4241
g76
I4
ssg77
g4235
sg70
(lp4242
S'casa, apuestas'
p4243
asbasbasbasbasbasbasbag63
(g79
g65
NtRp4244
(dp4245
g68
(dp4246
sg77
g3561
sg70
(lp4247
g63
(g84
g65
NtRp4248
(dp4249
g68
(dp4250
g88
g89
ssg77
g4244
sg70
(lp4251
S'postprocessing'
p4252
asbag63
(g84
g65
NtRp4253
(dp4254
g68
(dp4255
g95
g96
ssg77
g4244
sg70
(lp4256
S':'
asbag63
(g84
g65
NtRp4257
(dp4258
g68
(dp4259
sg77
g4244
sg70
(lp4260
g63
(g64
g65
NtRp4261
(dp4262
g68
(dp4263
g76
I5
ssg77
g4257
sg70
(lp4264
g63
(g72
g65
NtRp4265
(dp4266
g68
(dp4267
g76
I4
ssg77
Nsg70
(lp4268
sbasbasbasbag63
(g79
g65
NtRp4269
(dp4270
g68
(dp4271
sg77
g3561
sg70
(lp4272
g63
(g84
g65
NtRp4273
(dp4274
g68
(dp4275
g88
g89
ssg77
g4269
sg70
(lp4276
S'session_file'
p4277
asbag63
(g84
g65
NtRp4278
(dp4279
g68
(dp4280
g95
g96
ssg77
g4269
sg70
(lp4281
S':'
asbag63
(g84
g65
NtRp4282
(dp4283
g68
(dp4284
sg77
g4269
sg70
(lp4285
g63
(g64
g65
NtRp4286
(dp4287
g68
(dp4288
g76
I5
ssg77
g4282
sg70
(lp4289
S"<open file 'C:\\Python32\\web2py_win\\web2py\\applications\\Casa_de_Apuestas\\sessions\\127.0.0.1-620e4e48-b9ab-46bd-a58d-617594f1c170', mode 'rb+' at 0x06B203C8>"
p4290
asbasbasbag63
(g79
g65
NtRp4291
(dp4292
g68
(dp4293
sg77
g3561
sg70
(lp4294
g63
(g84
g65
NtRp4295
(dp4296
g68
(dp4297
g88
g89
ssg77
g4291
sg70
(lp4298
S'session_filename'
p4299
asbag63
(g84
g65
NtRp4300
(dp4301
g68
(dp4302
g95
g96
ssg77
g4291
sg70
(lp4303
S':'
asbag63
(g84
g65
NtRp4304
(dp4305
g68
(dp4306
sg77
g4291
sg70
(lp4307
g63
(g64
g65
NtRp4308
(dp4309
g68
(dp4310
g76
I5
ssg77
g4304
sg70
(lp4311
S'C:\\Python32\\web2py_win\\web2py\\applications\\Casa_de_Apuestas\\sessions\\127.0.0.1-620e4e48-b9ab-46bd-a58d-617594f1c170'
p4312
asbasbasbag63
(g79
g65
NtRp4313
(dp4314
g68
(dp4315
sg77
g3561
sg70
(lp4316
g63
(g84
g65
NtRp4317
(dp4318
g68
(dp4319
g88
g89
ssg77
g4313
sg70
(lp4320
S'session_id'
p4321
asbag63
(g84
g65
NtRp4322
(dp4323
g68
(dp4324
g95
g96
ssg77
g4313
sg70
(lp4325
S':'
asbag63
(g84
g65
NtRp4326
(dp4327
g68
(dp4328
sg77
g4313
sg70
(lp4329
g63
(g64
g65
NtRp4330
(dp4331
g68
(dp4332
g76
I5
ssg77
g4326
sg70
(lp4333
S'127.0.0.1-620e4e48-b9ab-46bd-a58d-617594f1c170'
p4334
asbasbasbag63
(g79
g65
NtRp4335
(dp4336
g68
(dp4337
sg77
g3561
sg70
(lp4338
g63
(g84
g65
NtRp4339
(dp4340
g68
(dp4341
g88
g89
ssg77
g4335
sg70
(lp4342
S'session_id_name'
p4343
asbag63
(g84
g65
NtRp4344
(dp4345
g68
(dp4346
g95
g96
ssg77
g4335
sg70
(lp4347
S':'
asbag63
(g84
g65
NtRp4348
(dp4349
g68
(dp4350
sg77
g4335
sg70
(lp4351
g63
(g64
g65
NtRp4352
(dp4353
g68
(dp4354
g76
I5
ssg77
g4348
sg70
(lp4355
g3618
asbasbasbag63
(g79
g65
NtRp4356
(dp4357
g68
(dp4358
sg77
g3561
sg70
(lp4359
g63
(g84
g65
NtRp4360
(dp4361
g68
(dp4362
g88
g89
ssg77
g4356
sg70
(lp4363
S'session_locked'
p4364
asbag63
(g84
g65
NtRp4365
(dp4366
g68
(dp4367
g95
g96
ssg77
g4356
sg70
(lp4368
S':'
asbag63
(g84
g65
NtRp4369
(dp4370
g68
(dp4371
sg77
g4356
sg70
(lp4372
g63
(g64
g65
NtRp4373
(dp4374
g68
(dp4375
g76
I5
ssg77
g4369
sg70
(lp4376
g1732
asbasbasbag63
(g79
g65
NtRp4377
(dp4378
g68
(dp4379
sg77
g3561
sg70
(lp4380
g63
(g84
g65
NtRp4381
(dp4382
g68
(dp4383
g88
g89
ssg77
g4377
sg70
(lp4384
S'session_new'
p4385
asbag63
(g84
g65
NtRp4386
(dp4387
g68
(dp4388
g95
g96
ssg77
g4377
sg70
(lp4389
S':'
asbag63
(g84
g65
NtRp4390
(dp4391
g68
(dp4392
sg77
g4377
sg70
(lp4393
g63
(g64
g65
NtRp4394
(dp4395
g68
(dp4396
g76
I5
ssg77
g4390
sg70
(lp4397
g106
asbasbasbag63
(g79
g65
NtRp4398
(dp4399
g68
(dp4400
sg77
g3561
sg70
(lp4401
g63
(g84
g65
NtRp4402
(dp4403
g68
(dp4404
g88
g89
ssg77
g4398
sg70
(lp4405
S'status'
p4406
asbag63
(g84
g65
NtRp4407
(dp4408
g68
(dp4409
g95
g96
ssg77
g4398
sg70
(lp4410
S':'
asbag63
(g84
g65
NtRp4411
(dp4412
g68
(dp4413
sg77
g4398
sg70
(lp4414
g63
(g64
g65
NtRp4415
(dp4416
g68
(dp4417
g76
I5
ssg77
g4411
sg70
(lp4418
S'200'
p4419
asbasbasbag63
(g79
g65
NtRp4420
(dp4421
g68
(dp4422
sg77
g3561
sg70
(lp4423
g63
(g84
g65
NtRp4424
(dp4425
g68
(dp4426
g88
g89
ssg77
g4420
sg70
(lp4427
S'subtitle'
p4428
asbag63
(g84
g65
NtRp4429
(dp4430
g68
(dp4431
g95
g96
ssg77
g4420
sg70
(lp4432
S':'
asbag63
(g84
g65
NtRp4433
(dp4434
g68
(dp4435
sg77
g4420
sg70
(lp4436
g63
(g64
g65
NtRp4437
(dp4438
g68
(dp4439
g76
I5
ssg77
g4433
sg70
(lp4440
S''
asbasbasbag63
(g79
g65
NtRp4441
(dp4442
g68
(dp4443
sg77
g3561
sg70
(lp4444
g63
(g84
g65
NtRp4445
(dp4446
g68
(dp4447
g88
g89
ssg77
g4441
sg70
(lp4448
S'title'
p4449
asbag63
(g84
g65
NtRp4450
(dp4451
g68
(dp4452
g95
g96
ssg77
g4441
sg70
(lp4453
S':'
asbag63
(g84
g65
NtRp4454
(dp4455
g68
(dp4456
sg77
g4441
sg70
(lp4457
g63
(g64
g65
NtRp4458
(dp4459
g68
(dp4460
g76
I5
ssg77
g4454
sg70
(lp4461
S'Casa de Apuestas'
p4462
asbasbasbag63
(g79
g65
NtRp4463
(dp4464
g68
(dp4465
sg77
g3561
sg70
(lp4466
g63
(g84
g65
NtRp4467
(dp4468
g68
(dp4469
g88
g89
ssg77
g4463
sg70
(lp4470
g2528
asbag63
(g84
g65
NtRp4471
(dp4472
g68
(dp4473
g95
g96
ssg77
g4463
sg70
(lp4474
S':'
asbag63
(g84
g65
NtRp4475
(dp4476
g68
(dp4477
sg77
g4463
sg70
(lp4478
g63
(g64
g65
NtRp4479
(dp4480
g68
(dp4481
g76
I5
ssg77
g4475
sg70
(lp4482
g2541
asbasbasbag63
(g79
g65
NtRp4483
(dp4484
g68
(dp4485
sg77
g3561
sg70
(lp4486
g63
(g84
g65
NtRp4487
(dp4488
g68
(dp4489
g88
g89
ssg77
g4483
sg70
(lp4490
S'view'
p4491
asbag63
(g84
g65
NtRp4492
(dp4493
g68
(dp4494
g95
g96
ssg77
g4483
sg70
(lp4495
S':'
asbag63
(g84
g65
NtRp4496
(dp4497
g68
(dp4498
sg77
g4483
sg70
(lp4499
g63
(g64
g65
NtRp4500
(dp4501
g68
(dp4502
g76
I5
ssg77
g4496
sg70
(lp4503
S'default/crearEvento.html'
p4504
asbasbasbasbasbsS'locals'
p4505
(dp4506
g37
S"{'A': <class 'gluon.html.A'>, 'Auth': <class 'gluon.tools.Auth'>, 'B': <class 'gluon.html.B'>, 'BEAUTIFY': <class 'gluon.html.BEAUTIFY'>, 'BODY': <class 'gluon.html.BODY'>, 'BR': <class 'gluon.html.BR'>, 'BUTTON': <class 'gluon.html.BUTTON'>, 'CAT': <class 'gluon.html.CAT'>, 'CENTER': <class 'gluon.html.CENTER'>, 'CLEANUP': <class 'gluon.validators.CLEANUP'>, ...}"
p4507
sg3
S"r'C:\\Python32\\web2py_win\\web2py\\applications\\Casa_de_Apuestas\\views\\default/crearEvento.html'"
p4508
sg5
S'\'response.write(\\\'<!DOCTYPE html PUBLIC "-//W3C//D...</div>\\\\r\\\\n </body>\\\\r\\\\n</html>\\\\r\\\\n\\\', escape=False)\''
p4509
sS'ccode'
p4510
S'<code object <module> at 027BBA88, file "C:\\Pyth...Apuestas\\views\\default/crearEvento.html", line 1>'
p4511
sS'error'
p4512
S'AttributeError("\'NoneType\' object has no attribute \'admiteTablaResultado\'",)'
p4513
sssg51
S'Traceback (most recent call last):\n  File "gluon/restricted.py", line 194, in restricted\n  File "C:\\Python32\\web2py_win\\web2py\\applications\\Casa_de_Apuestas\\controllers/default.py", line 208, in <module>\n  File "gluon/globals.py", line 149, in <lambda>\n  File "C:\\Python32\\web2py_win\\web2py\\applications\\Casa_de_Apuestas\\controllers/default.py", line 69, in crearEvento\n  File "gluon/globals.py", line 185, in render\n  File "gluon/compileapp.py", line 524, in run_view_in\n  File "gluon/restricted.py", line 202, in restricted\nRestrictedError\n'
p4514
s.