(dp1
S'output'
p2
S'missing "pass" in view'
p3
sS'layer'
p4
S'ParserContainer'
p5
sS'code'
p6
S'response.write(\'<!DOCTYPE html PUBLIC "-//W3C//DTD XHTML 1.0 Strict//EN" "http://www.w3.org/TR/xhtml1/DTD/xhtml1-strict.dtd">\\r\\n<!--\\r\\nDesign by Free CSS Templates\\r\\nhttp://www.freecsstemplates.org\\r\\nReleased for free under a Creative Commons Attribution 2.5 License\\r\\n\\r\\nName       : Balanced\\r\\nDescription: A two-column, fixed-width design suitable for blogs and small websites.\\r\\nVersion    : 1.0\\r\\nReleased   : 20090927\\r\\n\\r\\n-->\\r\\n<html xmlns="http://www.w3.org/1999/xhtml">\\r\\n <head>\\r\\n  <title>\\r\\n   \', escape=False)\nresponse.write(response.title or request.application)\nresponse.write(\'\\r\\n  </title>\\r\\n  \', escape=False)\nresponse.files.append(URL(request.application,\'static\',\'plugin_layouts/layouts/Balanced/default.css\'))\nresponse.write(\'\\r\\n  \', escape=False)\nresponse.files.append(URL(\'static\',\'plugin_layouts/superfish.js\'))\nresponse.write(\'\\r\\n  \', escape=False)\nresponse.files.insert(0,URL(\'static\',\'js/jquery.js\'))\nresponse.files.insert(1,URL(\'static\',\'css/anytime.css\'))\nresponse.files.insert(2,URL(\'static\',\'js/anytime.js\'))\nresponse.include_meta()\nresponse.include_files()\nresponse.write(\'\\r\\n<script type="text/javascript"><!--\\r\\n    // These variables are used by the web2py_ajax_init function in web2py_ajax.js (which is loaded below).\\r\\n    var w2p_ajax_confirm_message = "\', escape=False)\nresponse.write(T(\'Are you sure you want to delete this object?\'))\nresponse.write(\'";\\r\\n    var w2p_ajax_date_format = "\', escape=False)\nresponse.write(T(\'%Y-%m-%d\'))\nresponse.write(\'";\\r\\n    var w2p_ajax_datetime_format = "\', escape=False)\nresponse.write(T(\'%Y-%m-%d %H:%M:%S\'))\nresponse.write(\'";\\r\\n    //--></script>\\r\\n    <script src="\', escape=False)\nresponse.write(URL(\'static\',\'js/web2py_ajax.js\'))\nresponse.write(\'" type="text/javascript"></script>\\r\\n\', escape=False)\nresponse.write(\'\\r\\n  <style>\\r\\nul.web2py-menu-vertical { width: 150px; position: relative; top:1em; left:1em;  z-index:30; border:0; margin:0; padding: 0; list-style: none; text-decoration: none;}\\r\\nul.web2py-menu-vertical li { margin:0; padding:0; border:0; width: 150px; background: black; text-align:left;}\\r\\nul.web2py-menu-vertical li a { margin:0; padding: 1px 3px 1px 3px; border:0; width: 144px; color: white; font-size:12px;}\\r\\ndiv.flash { position: fixed; float: right; padding: 10px; top: 10px; right: 30px; opacity: 0.75; margin: 10px 10px 10px 10px; text-align: center; clear: both; color: #fff; font-size: 11pt; text-align: center; vertical-align: middle; cursor: pointer; background: black; border: 2px solid #fff; -moz-border-radius: 5px; -webkit-border-radius: 5px; z-index: 2; }\\r\\ndiv.error { background-color: red; color: white; padding: 3px; }\\r\\n.auth_navbar { text-align:right; z-index:20; position: absolute; top: 2px; right:30px; border:0; padding:0 }\\r\\n  </style>\\r\\n </head>\\r\\n <body>\\r\\n  <!-- start header -->\\r\\n  \', escape=False)\ntry:\n    response.write(auth.navbar(action=URL(\'default\',\'user\')))\nexcept:pass\nresponse.write(\'\\r\\n\\r\\n  <!-- start header -->\\r\\n  <div id="header">\\r\\n   <div id="logo">\\r\\n    <h1>\\r\\n                <small>\', escape=False)\nresponse.write(A(\'Sistema de Gesti\xc3\xb3n 1.0\', _href=URL("index")))\nresponse.write(\'</small>     \\r\\n    </h1>\\r\\n   </div>\\r\\n  </div>\\r\\n  <!-- end header -->\\r\\n  <!-- start page -->\\r\\n  <div id="page">\\r\\n   <!-- start content -->\\r\\n   <!-- end content -->\\r\\n   \', escape=False)\nresponse.write(\'\\r\\n<div id="content">\\r\\n    <div class="post greenbox">\\r\\n           <div class="title">\\r\\n                <h1>Asignar Resultado: Lista de Eventos</h1>\\r\\n           </div>\\r\\n           <div class="entry">\\r\\n               <ul>\\r\\n               \', escape=False)\nif not(request.args(0)):\n    response.write(\'\\r\\n               \', escape=False)\n    for evento in eventos:\n        response.write(\'\\r\\n               \', escape=False)\n        response.write(LI(A(evento.nombre, _href=URL("asignarResultado", args=evento.id))))\n        response.write(\'\\r\\n               \', escape=False)\n        pass\n    response.write(\'\\r\\n               \', escape=False)\nelse:\n    response.write(\'\\r\\n               \', escape=False)\n    for participante in participantes:\n        response.write(\'\\r\\n               \', escape=False)\n        response.write(T(participante.nombre))\n        response.write(\'<br/>\\r\\n               \', escape=False)\n        pass\n    response.write(\'\\r\\n               </ul>\\r\\n           </div>\\r\\n           <div class="btm" align="center">\\r\\n              <div class="l">\\r\\n                  <div class="r">\\r\\n                                       <small>\', escape=False)\n    response.write(A(\'Regresar\', _href=URL("index")))\n    response.write(\'</small>\\r\\n                  </div>\\r\\n              </div>\\r\\n           </div>\\r\\n     </div>\\r\\n</div>\\r\\n\', escape=False)\n    response.write(\'\\r\\n   <!-- start sidebar -->\\r\\n   <!-- end sidebar -->\\r\\n  </div>\\r\\n  <!-- end page -->\\r\\n  <div style="clear: both;">\\r\\n   &nbsp;\\r\\n  </div>\\r\\n  <div id="footer">\\r\\n   <p>\\r\\n    &copy;2011 All Rights Reserved. &nbsp;&bull;&nbsp; Design by JSG Systems\\r\\n   </p>\\r\\n  </div>\\r\\n </body>\\r\\n</html>\\r\\n\', escape=False)'
p7
sS'snapshot'
p8
(dp9
S'exception'
p10
(dp11
S'__hash__'
p12
S"<method-wrapper '__hash__' of SocketTimeout object at 0x069BB4B8>"
p13
sS'__module__'
p14
S"'gluon.rocket'"
p15
sS'__reduce_ex__'
p16
S'<built-in method __reduce_ex__ of SocketTimeout object at 0x069BB4B8>'
p17
sS'__getslice__'
p18
S"<method-wrapper '__getslice__' of SocketTimeout object at 0x069BB4B8>"
p19
sS'__getitem__'
p20
S"<method-wrapper '__getitem__' of SocketTimeout object at 0x069BB4B8>"
p21
sS'__setstate__'
p22
S'<built-in method __setstate__ of SocketTimeout object at 0x069BB4B8>'
p23
sS'__reduce__'
p24
S'<built-in method __reduce__ of SocketTimeout object at 0x069BB4B8>'
p25
sS'__str__'
p26
S"<method-wrapper '__str__' of SocketTimeout object at 0x069BB4B8>"
p27
sS'args'
p28
S"('Socket timed out before request.',)"
p29
sS'__getattribute__'
p30
S"<method-wrapper '__getattribute__' of SocketTimeout object at 0x069BB4B8>"
p31
sS'__class__'
p32
S"<class 'gluon.rocket.SocketTimeout'>"
p33
sS'__delattr__'
p34
S"<method-wrapper '__delattr__' of SocketTimeout object at 0x069BB4B8>"
p35
sS'__repr__'
p36
S"<method-wrapper '__repr__' of SocketTimeout object at 0x069BB4B8>"
p37
sS'__setattr__'
p38
S"<method-wrapper '__setattr__' of SocketTimeout object at 0x069BB4B8>"
p39
sS'__dict__'
p40
S'{}'
p41
sS'__weakref__'
p42
S'None'
p43
sS'__doc__'
p44
S"'Exception for when a socket times out between requests.'"
p45
sS'__init__'
p46
S"<method-wrapper '__init__' of SocketTimeout object at 0x069BB4B8>"
p47
sS'__new__'
p48
S'<built-in method __new__ of type object at 0x1E1CCBE8>'
p49
ssS'evalue'
p50
S'Socket timed out before request.'
p51
sS'frames'
p52
(lp53
(dp54
S'file'
p55
S'C:\\Python32\\web2py_win\\web2py\\gluon\\rocket.py'
p56
sS'dump'
p57
(dp58
sS'lnum'
p59
I1302
sS'lines'
p60
(dp61
sS'call'
p62
S'(self=<WSGIWorker(Thread-8, started daemon)>)'
p63
sS'func'
p64
S'run'
p65
sa(dp66
g55
S'C:\\Python32\\web2py_win\\web2py\\gluon\\rocket.py'
p67
sg57
(dp68
sg59
I1986
sg60
(dp69
sg62
S'(self=<WSGIWorker(Thread-8, started daemon)>, conn=<gluon.rocket.Connection object at 0x05FF6CE8>)'
p70
sg64
S'run_app'
p71
sa(dp72
g55
S'C:\\Python32\\web2py_win\\web2py\\gluon\\rocket.py'
p73
sg57
(dp74
sg59
I1807
sg60
(dp75
sg62
S'(self=<WSGIWorker(Thread-8, started daemon)>, sock_file=<socket._fileobject object at 0x0615B530>, conn=<gluon.rocket.Connection object at 0x05FF6CE8>)'
p76
sg64
S'build_environ'
p77
sa(dp78
g55
S'C:\\Python32\\web2py_win\\web2py\\gluon\\rocket.py'
p79
sg57
(dp80
sg59
I1376
sg60
(dp81
sg62
S'(self=<WSGIWorker(Thread-8, started daemon)>, sock_file=<socket._fileobject object at 0x0615B530>)'
p82
sg64
S'read_request_line'
p83
sasS'pyver'
p84
S'Python 2.5.4: C:\\Python32\\web2py_win\\web2py\\web2py.exe'
p85
sS'etype'
p86
S"<class 'gluon.rocket.SocketTimeout'>"
p87
sS'date'
p88
S'Fri Dec 02 00:56:53 2011'
p89
sS'locals'
p90
(dp91
S'sock_file'
p92
S'<socket._fileobject object at 0x0615B530>'
p93
sS'self'
p94
S'<WSGIWorker(Thread-8, started daemon)>'
p95
sssS'traceback'
p96
S'Traceback (most recent call last):\n  File "gluon/rocket.py", line 1302, in run\n  File "gluon/rocket.py", line 1986, in run_app\n  File "gluon/rocket.py", line 1807, in build_environ\n  File "gluon/rocket.py", line 1376, in read_request_line\nSocketTimeout: Socket timed out before request.\n'
p97
s.