(dp1
S'output'
p2
S''
sS'layer'
p3
S'C:\\Python32\\web2py\\applications\\Casa_de_Apuestas\\models\\db.py'
p4
sS'code'
p5
S"# -*- coding: utf-8 -*-\n\n#########################################################################\n## This scaffolding model makes your app work on Google App Engine too\n## File is released under public domain and you can use without limitations\n#########################################################################\n\nif not request.env.web2py_runtime_gae:     \n    ## if NOT running on Google App Engine use SQLite or other DB\n  ##  db = DAL('sqlite://storage.sqlite')\n    db = DAL('mysql://root:''@localhost/test')\n    db.define_table('categorias',\n        Field('nombre'),\n        Field('descripcion', 'text'))\n    db.define_table('eventos',    \n       Field('categoria_id', db.categorias),\n       Field('nombre'),\n       Field('fecha','date'),\n       Field('descripcion', 'text'),\n       Field('relacionpago','string'))\n  ##  db.image.title.requires = IS_NOT_IN_DB(db, db.image.title)\n  \n    db.define_table('participantes',\n        Field('nombre'),\n        Field('descripcion','text')\n    )\n    \n    db.define_table('eventosparticipantes',\n        Field('eventos_id',db.eventos),\n        Field('participantes_id',db.participantes),\n        Field('limite_apuesta','integer'),\n        primarykey=['eventos_id','participantes_id'],\n        migrate=False\n\n    )\n    \n    db.define_table('usuarios',\n        Field('nombre'),\n        Field('apellido'),\n        Field('correo'),\n        Field('password','password')\n    )\n    \n    db.define_table('maquinas',\n        Field('usuario_id',db.usuarios),\n        Field('estado','boolean'),\n        Field('ubicacion','string'),\n        Field('anho','integer'),\n        Field('descripcion','text')\n    )\n    \n      \n  \n    db.eventos.categoria_id.requires = IS_IN_DB(db, db.categorias.id, '%(nombre)s')\n    db.eventos.nombre.requires = IS_NOT_EMPTY()\n    db.eventos.fecha.requires = IS_NOT_EMPTY()\n    db.eventos.descripcion.requires = IS_NOT_EMPTY()\n    db.eventos.relacionpago.requires = IS_NOT_EMPTY()\n    \n    \n    db.participantes.nombre.requires = IS_NOT_EMPTY()\n    db.participantes.descripcion.requires = IS_NOT_EMPTY()\n    \n    db.eventosparticipantes.eventos_id.requires = IS_IN_DB(db, db.eventos.id, '%(nombre)s')\n    db.eventosparticipantes.participantes_id.requires = IS_IN_DB(db, db.participantes.id, '%(nombre)s')\n    \n    db.usuarios.nombre.requires = IS_NOT_EMPTY()\n    db.usuarios.apellido.requires = IS_NOT_EMPTY()\n    db.usuarios.correo.requires = IS_NOT_EMPTY()\n    db.usuarios.correo.requires = IS_EMAIL()    \n    db.usuarios.password.requires = IS_NOT_EMPTY()\n    \n    db.maquinas.usuario_id.requires = IS_IN_DB(db, db.usuarios.id, '%(correo)s')\n    db.maquinas.estado.requires = IS_NOT_EMPTY()    \n    db.maquinas.ubicacion.requires = IS_NOT_EMPTY()\n    db.maquinas.anho.requires = IS_NOT_EMPTY()\n    db.maquinas.descripcion.requires = IS_NOT_EMPTY() \nelse:\n    ## connect to Google BigTable (optional 'google:datastore://namespace')\n    db = DAL('google:datastore') \n    ## store sessions and tickets there\n    session.connect(request, response, db = db) \n    ## or store session in Memcache, Redis, etc.\n    ## from gluon.contrib.memdb import MEMDB\n    ## from google.appengine.api.memcache import Client\n    ## session.connect(request, response, db = MEMDB(Client()))\n\n## by default give a view/generic.extension to all actions from localhost\n## none otherwise. a pattern can be 'controller/function.extension'\nresponse.generic_patterns = ['*'] if request.is_local else []\n\n#########################################################################\n## Here is sample code if you need for\n## - email capabilities\n## - authentication (registration, login, logout, ... )\n## - authorization (role based authorization)\n## - services (xml, csv, json, xmlrpc, jsonrpc, amf, rss)\n## - old style crud actions\n## (more options discussed in gluon/tools.py)\n#########################################################################\n\nfrom gluon.tools import Auth, Crud, Service, PluginManager, prettydate\nauth = Auth(db, hmac_key=Auth.get_or_create_key()) \ncrud, service, plugins = Crud(db), Service(), PluginManager()\n\n## create all tables needed by auth if not custom tables\n\n########################################\ndb.define_table('auth_user',\n    Field('username', type='string',\n          label=T('Username')),\n    Field('first_name', type='string',\n          label=T('First Name')),\n    Field('last_name', type='string',\n          label=T('Last Name')),\n    Field('email', type='string',\n          label=T('Email')),\n    Field('password', type='password',\n          readable=False,\n          label=T('Password')),\n    Field('created_on','datetime',default=request.now,\n          label=T('Created On'),writable=False,readable=False),\n    Field('modified_on','datetime',default=request.now,\n          label=T('Modified On'),writable=False,readable=False,\n          update=request.now),\n    Field('registration_key',default='',\n          writable=False,readable=False),\n    Field('reset_password_key',default='',\n          writable=False,readable=False),\n    Field('registration_id',default='',\n          writable=False,readable=False),\n    format='%(username)s',\n    migrate=settings.migrate)\n\n\ndb.auth_user.first_name.requires = IS_NOT_EMPTY(error_message=auth.messages.is_empty)\ndb.auth_user.last_name.requires = IS_NOT_EMPTY(error_message=auth.messages.is_empty)\ndb.auth_user.password.requires = CRYPT(key=auth.settings.hmac_key)\ndb.auth_user.username.requires = IS_NOT_IN_DB(db, db.auth_user.username)\ndb.auth_user.registration_id.requires = IS_NOT_IN_DB(db, db.auth_user.registration_id)\ndb.auth_user.email.requires = (IS_EMAIL(error_message=auth.messages.invalid_email),\n                               IS_NOT_IN_DB(db, db.auth_user.email))\nauth.define_tables(migrate = settings.migrate) \n\n## configure email\nmail=auth.settings.mailer\nmail.settings.server = 'logging' or 'smtp.gmail.com:587'\nmail.settings.sender = 'you@gmail.com'\nmail.settings.login = 'username:password'\n\n## configure auth policy\nauth.settings.registration_requires_verification = False\nauth.settings.registration_requires_approval = False\nauth.settings.reset_password_requires_verification = True\n\n## if you need to use OpenID, Facebook, MySpace, Twitter, Linkedin, etc.\n## register with janrain.com, write your domain:api_key in private/janrain.key\nfrom gluon.contrib.login_methods.rpx_account import use_janrain\nuse_janrain(auth,filename='private/janrain.key')\n\n#########################################################################\n## Define your tables below (or better in another model file) for example\n##\n## >>> db.define_table('mytable',Field('myfield','string'))\n##\n## Fields can be 'string','text','password','integer','double','boolean'\n##       'date','time','datetime','blob','upload', 'reference TABLENAME'\n## There is an implicit 'id integer autoincrement' field\n## Consult manual for more options, validators, etc.\n##\n## More API examples for controllers:\n##\n## >>> db.mytable.insert(myfield='value')\n## >>> rows=db(db.mytable.myfield=='value').select(db.mytable.ALL)\n## >>> for row in rows: print row.id, row.myfield\n#########################################################################\n\nmail.settings.server = settings.email_server\nmail.settings.sender = settings.email_sender\nmail.settings.login = settings.email_login\n"
p6
sS'snapshot'
p7
(dp8
S'exception'
p9
(dp10
S'__hash__'
p11
S"<method-wrapper '__hash__' of exceptions.RuntimeError object at 0x06688A58>"
p12
sS'__setattr__'
p13
S"<method-wrapper '__setattr__' of exceptions.RuntimeError object at 0x06688A58>"
p14
sS'__reduce_ex__'
p15
S'<built-in method __reduce_ex__ of exceptions.RuntimeError object at 0x06688A58>'
p16
sS'__getslice__'
p17
S"<method-wrapper '__getslice__' of exceptions.RuntimeError object at 0x06688A58>"
p18
sS'__getitem__'
p19
S"<method-wrapper '__getitem__' of exceptions.RuntimeError object at 0x06688A58>"
p20
sS'__setstate__'
p21
S'<built-in method __setstate__ of exceptions.RuntimeError object at 0x06688A58>'
p22
sS'__reduce__'
p23
S'<built-in method __reduce__ of exceptions.RuntimeError object at 0x06688A58>'
p24
sS'__str__'
p25
S"<method-wrapper '__str__' of exceptions.RuntimeError object at 0x06688A58>"
p26
sS'args'
p27
S'(\'Failure to connect, tried 5 times:\\n(2003, "Can\\\'t connect to MySQL server on \\\'localhost\\\' (10061)")\',)'
p28
sS'__getattribute__'
p29
S"<method-wrapper '__getattribute__' of exceptions.RuntimeError object at 0x06688A58>"
p30
sS'__class__'
p31
S"<type 'exceptions.RuntimeError'>"
p32
sS'__delattr__'
p33
S"<method-wrapper '__delattr__' of exceptions.RuntimeError object at 0x06688A58>"
p34
sS'__repr__'
p35
S"<method-wrapper '__repr__' of exceptions.RuntimeError object at 0x06688A58>"
p36
sS'__dict__'
p37
S'{}'
p38
sS'__doc__'
p39
S"'Unspecified run-time error.'"
p40
sS'__init__'
p41
S"<method-wrapper '__init__' of exceptions.RuntimeError object at 0x06688A58>"
p42
sS'__new__'
p43
S'<built-in method __new__ of type object at 0x1E1CD748>'
p44
ssS'evalue'
p45
S'Failure to connect, tried 5 times:\n(2003, "Can\'t connect to MySQL server on \'localhost\' (10061)")'
p46
sS'request'
p47
ccopy_reg
_reconstructor
p48
(cgluon.html
BEAUTIFY
p49
c__builtin__
object
p50
NtRp51
(dp52
S'attributes'
p53
(dp54
sS'components'
p55
(lp56
g48
(cgluon.html
TABLE
p57
g50
NtRp58
(dp59
g53
(dp60
S'level'
p61
I5
ssS'parent'
p62
Nsg55
(lp63
g48
(cgluon.html
TR
p64
g50
NtRp65
(dp66
g53
(dp67
sg62
g58
sg55
(lp68
g48
(cgluon.html
TD
p69
g50
NtRp70
(dp71
g53
(dp72
S'_style'
p73
S'font-weight:bold;'
p74
ssg62
g65
sg55
(lp75
S'ajax'
p76
asbag48
(g69
g50
NtRp77
(dp78
g53
(dp79
S'_valign'
p80
S'top'
p81
ssg62
g65
sg55
(lp82
S':'
asbag48
(g69
g50
NtRp83
(dp84
g53
(dp85
sg62
g65
sg55
(lp86
g48
(g49
g50
NtRp87
(dp88
g53
(dp89
g61
I5
ssg62
g83
sg55
(lp90
S'False'
p91
asbasbasbag48
(g64
g50
NtRp92
(dp93
g53
(dp94
sg62
g58
sg55
(lp95
g48
(g69
g50
NtRp96
(dp97
g53
(dp98
g73
g74
ssg62
g92
sg55
(lp99
S'application'
p100
asbag48
(g69
g50
NtRp101
(dp102
g53
(dp103
g80
g81
ssg62
g92
sg55
(lp104
S':'
asbag48
(g69
g50
NtRp105
(dp106
g53
(dp107
sg62
g92
sg55
(lp108
g48
(g49
g50
NtRp109
(dp110
g53
(dp111
g61
I5
ssg62
g105
sg55
(lp112
S'Casa_de_Apuestas'
p113
asbasbasbag48
(g64
g50
NtRp114
(dp115
g53
(dp116
sg62
g58
sg55
(lp117
g48
(g69
g50
NtRp118
(dp119
g53
(dp120
g73
g74
ssg62
g114
sg55
(lp121
g27
asbag48
(g69
g50
NtRp122
(dp123
g53
(dp124
g80
g81
ssg62
g114
sg55
(lp125
S':'
asbag48
(g69
g50
NtRp126
(dp127
g53
(dp128
sg62
g114
sg55
(lp129
g48
(g49
g50
NtRp130
(dp131
g53
(dp132
g61
I5
ssg62
g126
sg55
(lp133
g48
(g57
g50
NtRp134
(dp135
g53
(dp136
g61
I4
ssg62
Nsg55
(lp137
sbasbasbasbag48
(g64
g50
NtRp138
(dp139
g53
(dp140
sg62
g58
sg55
(lp141
g48
(g69
g50
NtRp142
(dp143
g53
(dp144
g73
g74
ssg62
g138
sg55
(lp145
S'body'
p146
asbag48
(g69
g50
NtRp147
(dp148
g53
(dp149
g80
g81
ssg62
g138
sg55
(lp150
S':'
asbag48
(g69
g50
NtRp151
(dp152
g53
(dp153
sg62
g138
sg55
(lp154
g48
(g49
g50
NtRp155
(dp156
g53
(dp157
g61
I5
ssg62
g151
sg55
(lp158
S'<cStringIO.StringO object at 0x02E92420>'
p159
asbasbasbag48
(g64
g50
NtRp160
(dp161
g53
(dp162
sg62
g58
sg55
(lp163
g48
(g69
g50
NtRp164
(dp165
g53
(dp166
g73
g74
ssg62
g160
sg55
(lp167
S'client'
p168
asbag48
(g69
g50
NtRp169
(dp170
g53
(dp171
g80
g81
ssg62
g160
sg55
(lp172
S':'
asbag48
(g69
g50
NtRp173
(dp174
g53
(dp175
sg62
g160
sg55
(lp176
g48
(g49
g50
NtRp177
(dp178
g53
(dp179
g61
I5
ssg62
g173
sg55
(lp180
S'127.0.0.1'
p181
asbasbasbag48
(g64
g50
NtRp182
(dp183
g53
(dp184
sg62
g58
sg55
(lp185
g48
(g69
g50
NtRp186
(dp187
g53
(dp188
g73
g74
ssg62
g182
sg55
(lp189
S'controller'
p190
asbag48
(g69
g50
NtRp191
(dp192
g53
(dp193
g80
g81
ssg62
g182
sg55
(lp194
S':'
asbag48
(g69
g50
NtRp195
(dp196
g53
(dp197
sg62
g182
sg55
(lp198
g48
(g49
g50
NtRp199
(dp200
g53
(dp201
g61
I5
ssg62
g195
sg55
(lp202
S'appadmin'
p203
asbasbasbag48
(g64
g50
NtRp204
(dp205
g53
(dp206
sg62
g58
sg55
(lp207
g48
(g69
g50
NtRp208
(dp209
g53
(dp210
g73
g74
ssg62
g204
sg55
(lp211
S'cookies'
p212
asbag48
(g69
g50
NtRp213
(dp214
g53
(dp215
g80
g81
ssg62
g204
sg55
(lp216
S':'
asbag48
(g69
g50
NtRp217
(dp218
g53
(dp219
sg62
g204
sg55
(lp220
g48
(g49
g50
NtRp221
(dp222
g53
(dp223
g61
I5
ssg62
g217
sg55
(lp224
g48
(g57
g50
NtRp225
(dp226
g53
(dp227
g61
I4
ssg62
Nsg55
(lp228
g48
(g64
g50
NtRp229
(dp230
g53
(dp231
sg62
g225
sg55
(lp232
g48
(g69
g50
NtRp233
(dp234
g53
(dp235
g73
g74
ssg62
g229
sg55
(lp236
S'session_id_admin'
p237
asbag48
(g69
g50
NtRp238
(dp239
g53
(dp240
g80
g81
ssg62
g229
sg55
(lp241
S':'
asbag48
(g69
g50
NtRp242
(dp243
g53
(dp244
sg62
g229
sg55
(lp245
g48
(g49
g50
NtRp246
(dp247
g53
(dp248
g61
I4
ssg62
g242
sg55
(lp249
g48
(g57
g50
NtRp250
(dp251
g53
(dp252
g61
I3
ssg62
Nsg55
(lp253
g48
(g64
g50
NtRp254
(dp255
g53
(dp256
sg62
g250
sg55
(lp257
g48
(g69
g50
NtRp258
(dp259
g53
(dp260
g73
g74
ssg62
g254
sg55
(lp261
S'comment'
p262
asbag48
(g69
g50
NtRp263
(dp264
g53
(dp265
g80
g81
ssg62
g254
sg55
(lp266
S':'
asbag48
(g69
g50
NtRp267
(dp268
g53
(dp269
sg62
g254
sg55
(lp270
g48
(g49
g50
NtRp271
(dp272
g53
(dp273
g61
I3
ssg62
g267
sg55
(lp274
S''
asbasbasbag48
(g64
g50
NtRp275
(dp276
g53
(dp277
sg62
g250
sg55
(lp278
g48
(g69
g50
NtRp279
(dp280
g53
(dp281
g73
g74
ssg62
g275
sg55
(lp282
S'domain'
p283
asbag48
(g69
g50
NtRp284
(dp285
g53
(dp286
g80
g81
ssg62
g275
sg55
(lp287
S':'
asbag48
(g69
g50
NtRp288
(dp289
g53
(dp290
sg62
g275
sg55
(lp291
g48
(g49
g50
NtRp292
(dp293
g53
(dp294
g61
I3
ssg62
g288
sg55
(lp295
S''
asbasbasbag48
(g64
g50
NtRp296
(dp297
g53
(dp298
sg62
g250
sg55
(lp299
g48
(g69
g50
NtRp300
(dp301
g53
(dp302
g73
g74
ssg62
g296
sg55
(lp303
S'expires'
p304
asbag48
(g69
g50
NtRp305
(dp306
g53
(dp307
g80
g81
ssg62
g296
sg55
(lp308
S':'
asbag48
(g69
g50
NtRp309
(dp310
g53
(dp311
sg62
g296
sg55
(lp312
g48
(g49
g50
NtRp313
(dp314
g53
(dp315
g61
I3
ssg62
g309
sg55
(lp316
S''
asbasbasbag48
(g64
g50
NtRp317
(dp318
g53
(dp319
sg62
g250
sg55
(lp320
g48
(g69
g50
NtRp321
(dp322
g53
(dp323
g73
g74
ssg62
g317
sg55
(lp324
S'max-age'
p325
asbag48
(g69
g50
NtRp326
(dp327
g53
(dp328
g80
g81
ssg62
g317
sg55
(lp329
S':'
asbag48
(g69
g50
NtRp330
(dp331
g53
(dp332
sg62
g317
sg55
(lp333
g48
(g49
g50
NtRp334
(dp335
g53
(dp336
g61
I3
ssg62
g330
sg55
(lp337
S''
asbasbasbag48
(g64
g50
NtRp338
(dp339
g53
(dp340
sg62
g250
sg55
(lp341
g48
(g69
g50
NtRp342
(dp343
g53
(dp344
g73
g74
ssg62
g338
sg55
(lp345
S'path'
p346
asbag48
(g69
g50
NtRp347
(dp348
g53
(dp349
g80
g81
ssg62
g338
sg55
(lp350
S':'
asbag48
(g69
g50
NtRp351
(dp352
g53
(dp353
sg62
g338
sg55
(lp354
g48
(g49
g50
NtRp355
(dp356
g53
(dp357
g61
I3
ssg62
g351
sg55
(lp358
S''
asbasbasbag48
(g64
g50
NtRp359
(dp360
g53
(dp361
sg62
g250
sg55
(lp362
g48
(g69
g50
NtRp363
(dp364
g53
(dp365
g73
g74
ssg62
g359
sg55
(lp366
S'secure'
p367
asbag48
(g69
g50
NtRp368
(dp369
g53
(dp370
g80
g81
ssg62
g359
sg55
(lp371
S':'
asbag48
(g69
g50
NtRp372
(dp373
g53
(dp374
sg62
g359
sg55
(lp375
g48
(g49
g50
NtRp376
(dp377
g53
(dp378
g61
I3
ssg62
g372
sg55
(lp379
S''
asbasbasbag48
(g64
g50
NtRp380
(dp381
g53
(dp382
sg62
g250
sg55
(lp383
g48
(g69
g50
NtRp384
(dp385
g53
(dp386
g73
g74
ssg62
g380
sg55
(lp387
S'version'
p388
asbag48
(g69
g50
NtRp389
(dp390
g53
(dp391
g80
g81
ssg62
g380
sg55
(lp392
S':'
asbag48
(g69
g50
NtRp393
(dp394
g53
(dp395
sg62
g380
sg55
(lp396
g48
(g49
g50
NtRp397
(dp398
g53
(dp399
g61
I3
ssg62
g393
sg55
(lp400
S''
asbasbasbasbasbasbasbag48
(g64
g50
NtRp401
(dp402
g53
(dp403
sg62
g225
sg55
(lp404
g48
(g69
g50
NtRp405
(dp406
g53
(dp407
g73
g74
ssg62
g401
sg55
(lp408
S'session_id_casa_de_apuestas'
p409
asbag48
(g69
g50
NtRp410
(dp411
g53
(dp412
g80
g81
ssg62
g401
sg55
(lp413
S':'
asbag48
(g69
g50
NtRp414
(dp415
g53
(dp416
sg62
g401
sg55
(lp417
g48
(g49
g50
NtRp418
(dp419
g53
(dp420
g61
I4
ssg62
g414
sg55
(lp421
g48
(g57
g50
NtRp422
(dp423
g53
(dp424
g61
I3
ssg62
Nsg55
(lp425
g48
(g64
g50
NtRp426
(dp427
g53
(dp428
sg62
g422
sg55
(lp429
g48
(g69
g50
NtRp430
(dp431
g53
(dp432
g73
g74
ssg62
g426
sg55
(lp433
g262
asbag48
(g69
g50
NtRp434
(dp435
g53
(dp436
g80
g81
ssg62
g426
sg55
(lp437
S':'
asbag48
(g69
g50
NtRp438
(dp439
g53
(dp440
sg62
g426
sg55
(lp441
g48
(g49
g50
NtRp442
(dp443
g53
(dp444
g61
I3
ssg62
g438
sg55
(lp445
S''
asbasbasbag48
(g64
g50
NtRp446
(dp447
g53
(dp448
sg62
g422
sg55
(lp449
g48
(g69
g50
NtRp450
(dp451
g53
(dp452
g73
g74
ssg62
g446
sg55
(lp453
g283
asbag48
(g69
g50
NtRp454
(dp455
g53
(dp456
g80
g81
ssg62
g446
sg55
(lp457
S':'
asbag48
(g69
g50
NtRp458
(dp459
g53
(dp460
sg62
g446
sg55
(lp461
g48
(g49
g50
NtRp462
(dp463
g53
(dp464
g61
I3
ssg62
g458
sg55
(lp465
S''
asbasbasbag48
(g64
g50
NtRp466
(dp467
g53
(dp468
sg62
g422
sg55
(lp469
g48
(g69
g50
NtRp470
(dp471
g53
(dp472
g73
g74
ssg62
g466
sg55
(lp473
g304
asbag48
(g69
g50
NtRp474
(dp475
g53
(dp476
g80
g81
ssg62
g466
sg55
(lp477
S':'
asbag48
(g69
g50
NtRp478
(dp479
g53
(dp480
sg62
g466
sg55
(lp481
g48
(g49
g50
NtRp482
(dp483
g53
(dp484
g61
I3
ssg62
g478
sg55
(lp485
S''
asbasbasbag48
(g64
g50
NtRp486
(dp487
g53
(dp488
sg62
g422
sg55
(lp489
g48
(g69
g50
NtRp490
(dp491
g53
(dp492
g73
g74
ssg62
g486
sg55
(lp493
g325
asbag48
(g69
g50
NtRp494
(dp495
g53
(dp496
g80
g81
ssg62
g486
sg55
(lp497
S':'
asbag48
(g69
g50
NtRp498
(dp499
g53
(dp500
sg62
g486
sg55
(lp501
g48
(g49
g50
NtRp502
(dp503
g53
(dp504
g61
I3
ssg62
g498
sg55
(lp505
S''
asbasbasbag48
(g64
g50
NtRp506
(dp507
g53
(dp508
sg62
g422
sg55
(lp509
g48
(g69
g50
NtRp510
(dp511
g53
(dp512
g73
g74
ssg62
g506
sg55
(lp513
g346
asbag48
(g69
g50
NtRp514
(dp515
g53
(dp516
g80
g81
ssg62
g506
sg55
(lp517
S':'
asbag48
(g69
g50
NtRp518
(dp519
g53
(dp520
sg62
g506
sg55
(lp521
g48
(g49
g50
NtRp522
(dp523
g53
(dp524
g61
I3
ssg62
g518
sg55
(lp525
S''
asbasbasbag48
(g64
g50
NtRp526
(dp527
g53
(dp528
sg62
g422
sg55
(lp529
g48
(g69
g50
NtRp530
(dp531
g53
(dp532
g73
g74
ssg62
g526
sg55
(lp533
g367
asbag48
(g69
g50
NtRp534
(dp535
g53
(dp536
g80
g81
ssg62
g526
sg55
(lp537
S':'
asbag48
(g69
g50
NtRp538
(dp539
g53
(dp540
sg62
g526
sg55
(lp541
g48
(g49
g50
NtRp542
(dp543
g53
(dp544
g61
I3
ssg62
g538
sg55
(lp545
S''
asbasbasbag48
(g64
g50
NtRp546
(dp547
g53
(dp548
sg62
g422
sg55
(lp549
g48
(g69
g50
NtRp550
(dp551
g53
(dp552
g73
g74
ssg62
g546
sg55
(lp553
g388
asbag48
(g69
g50
NtRp554
(dp555
g53
(dp556
g80
g81
ssg62
g546
sg55
(lp557
S':'
asbag48
(g69
g50
NtRp558
(dp559
g53
(dp560
sg62
g546
sg55
(lp561
g48
(g49
g50
NtRp562
(dp563
g53
(dp564
g61
I3
ssg62
g558
sg55
(lp565
S''
asbasbasbasbasbasbasbag48
(g64
g50
NtRp566
(dp567
g53
(dp568
sg62
g225
sg55
(lp569
g48
(g69
g50
NtRp570
(dp571
g53
(dp572
g73
g74
ssg62
g566
sg55
(lp573
S'session_id_images'
p574
asbag48
(g69
g50
NtRp575
(dp576
g53
(dp577
g80
g81
ssg62
g566
sg55
(lp578
S':'
asbag48
(g69
g50
NtRp579
(dp580
g53
(dp581
sg62
g566
sg55
(lp582
g48
(g49
g50
NtRp583
(dp584
g53
(dp585
g61
I4
ssg62
g579
sg55
(lp586
g48
(g57
g50
NtRp587
(dp588
g53
(dp589
g61
I3
ssg62
Nsg55
(lp590
g48
(g64
g50
NtRp591
(dp592
g53
(dp593
sg62
g587
sg55
(lp594
g48
(g69
g50
NtRp595
(dp596
g53
(dp597
g73
g74
ssg62
g591
sg55
(lp598
g262
asbag48
(g69
g50
NtRp599
(dp600
g53
(dp601
g80
g81
ssg62
g591
sg55
(lp602
S':'
asbag48
(g69
g50
NtRp603
(dp604
g53
(dp605
sg62
g591
sg55
(lp606
g48
(g49
g50
NtRp607
(dp608
g53
(dp609
g61
I3
ssg62
g603
sg55
(lp610
S''
asbasbasbag48
(g64
g50
NtRp611
(dp612
g53
(dp613
sg62
g587
sg55
(lp614
g48
(g69
g50
NtRp615
(dp616
g53
(dp617
g73
g74
ssg62
g611
sg55
(lp618
g283
asbag48
(g69
g50
NtRp619
(dp620
g53
(dp621
g80
g81
ssg62
g611
sg55
(lp622
S':'
asbag48
(g69
g50
NtRp623
(dp624
g53
(dp625
sg62
g611
sg55
(lp626
g48
(g49
g50
NtRp627
(dp628
g53
(dp629
g61
I3
ssg62
g623
sg55
(lp630
S''
asbasbasbag48
(g64
g50
NtRp631
(dp632
g53
(dp633
sg62
g587
sg55
(lp634
g48
(g69
g50
NtRp635
(dp636
g53
(dp637
g73
g74
ssg62
g631
sg55
(lp638
g304
asbag48
(g69
g50
NtRp639
(dp640
g53
(dp641
g80
g81
ssg62
g631
sg55
(lp642
S':'
asbag48
(g69
g50
NtRp643
(dp644
g53
(dp645
sg62
g631
sg55
(lp646
g48
(g49
g50
NtRp647
(dp648
g53
(dp649
g61
I3
ssg62
g643
sg55
(lp650
S''
asbasbasbag48
(g64
g50
NtRp651
(dp652
g53
(dp653
sg62
g587
sg55
(lp654
g48
(g69
g50
NtRp655
(dp656
g53
(dp657
g73
g74
ssg62
g651
sg55
(lp658
g325
asbag48
(g69
g50
NtRp659
(dp660
g53
(dp661
g80
g81
ssg62
g651
sg55
(lp662
S':'
asbag48
(g69
g50
NtRp663
(dp664
g53
(dp665
sg62
g651
sg55
(lp666
g48
(g49
g50
NtRp667
(dp668
g53
(dp669
g61
I3
ssg62
g663
sg55
(lp670
S''
asbasbasbag48
(g64
g50
NtRp671
(dp672
g53
(dp673
sg62
g587
sg55
(lp674
g48
(g69
g50
NtRp675
(dp676
g53
(dp677
g73
g74
ssg62
g671
sg55
(lp678
g346
asbag48
(g69
g50
NtRp679
(dp680
g53
(dp681
g80
g81
ssg62
g671
sg55
(lp682
S':'
asbag48
(g69
g50
NtRp683
(dp684
g53
(dp685
sg62
g671
sg55
(lp686
g48
(g49
g50
NtRp687
(dp688
g53
(dp689
g61
I3
ssg62
g683
sg55
(lp690
S''
asbasbasbag48
(g64
g50
NtRp691
(dp692
g53
(dp693
sg62
g587
sg55
(lp694
g48
(g69
g50
NtRp695
(dp696
g53
(dp697
g73
g74
ssg62
g691
sg55
(lp698
g367
asbag48
(g69
g50
NtRp699
(dp700
g53
(dp701
g80
g81
ssg62
g691
sg55
(lp702
S':'
asbag48
(g69
g50
NtRp703
(dp704
g53
(dp705
sg62
g691
sg55
(lp706
g48
(g49
g50
NtRp707
(dp708
g53
(dp709
g61
I3
ssg62
g703
sg55
(lp710
S''
asbasbasbag48
(g64
g50
NtRp711
(dp712
g53
(dp713
sg62
g587
sg55
(lp714
g48
(g69
g50
NtRp715
(dp716
g53
(dp717
g73
g74
ssg62
g711
sg55
(lp718
g388
asbag48
(g69
g50
NtRp719
(dp720
g53
(dp721
g80
g81
ssg62
g711
sg55
(lp722
S':'
asbag48
(g69
g50
NtRp723
(dp724
g53
(dp725
sg62
g711
sg55
(lp726
g48
(g49
g50
NtRp727
(dp728
g53
(dp729
g61
I3
ssg62
g723
sg55
(lp730
S''
asbasbasbasbasbasbasbag48
(g64
g50
NtRp731
(dp732
g53
(dp733
sg62
g225
sg55
(lp734
g48
(g69
g50
NtRp735
(dp736
g53
(dp737
g73
g74
ssg62
g731
sg55
(lp738
S'session_id_welcome'
p739
asbag48
(g69
g50
NtRp740
(dp741
g53
(dp742
g80
g81
ssg62
g731
sg55
(lp743
S':'
asbag48
(g69
g50
NtRp744
(dp745
g53
(dp746
sg62
g731
sg55
(lp747
g48
(g49
g50
NtRp748
(dp749
g53
(dp750
g61
I4
ssg62
g744
sg55
(lp751
g48
(g57
g50
NtRp752
(dp753
g53
(dp754
g61
I3
ssg62
Nsg55
(lp755
g48
(g64
g50
NtRp756
(dp757
g53
(dp758
sg62
g752
sg55
(lp759
g48
(g69
g50
NtRp760
(dp761
g53
(dp762
g73
g74
ssg62
g756
sg55
(lp763
g262
asbag48
(g69
g50
NtRp764
(dp765
g53
(dp766
g80
g81
ssg62
g756
sg55
(lp767
S':'
asbag48
(g69
g50
NtRp768
(dp769
g53
(dp770
sg62
g756
sg55
(lp771
g48
(g49
g50
NtRp772
(dp773
g53
(dp774
g61
I3
ssg62
g768
sg55
(lp775
S''
asbasbasbag48
(g64
g50
NtRp776
(dp777
g53
(dp778
sg62
g752
sg55
(lp779
g48
(g69
g50
NtRp780
(dp781
g53
(dp782
g73
g74
ssg62
g776
sg55
(lp783
g283
asbag48
(g69
g50
NtRp784
(dp785
g53
(dp786
g80
g81
ssg62
g776
sg55
(lp787
S':'
asbag48
(g69
g50
NtRp788
(dp789
g53
(dp790
sg62
g776
sg55
(lp791
g48
(g49
g50
NtRp792
(dp793
g53
(dp794
g61
I3
ssg62
g788
sg55
(lp795
S''
asbasbasbag48
(g64
g50
NtRp796
(dp797
g53
(dp798
sg62
g752
sg55
(lp799
g48
(g69
g50
NtRp800
(dp801
g53
(dp802
g73
g74
ssg62
g796
sg55
(lp803
g304
asbag48
(g69
g50
NtRp804
(dp805
g53
(dp806
g80
g81
ssg62
g796
sg55
(lp807
S':'
asbag48
(g69
g50
NtRp808
(dp809
g53
(dp810
sg62
g796
sg55
(lp811
g48
(g49
g50
NtRp812
(dp813
g53
(dp814
g61
I3
ssg62
g808
sg55
(lp815
S''
asbasbasbag48
(g64
g50
NtRp816
(dp817
g53
(dp818
sg62
g752
sg55
(lp819
g48
(g69
g50
NtRp820
(dp821
g53
(dp822
g73
g74
ssg62
g816
sg55
(lp823
g325
asbag48
(g69
g50
NtRp824
(dp825
g53
(dp826
g80
g81
ssg62
g816
sg55
(lp827
S':'
asbag48
(g69
g50
NtRp828
(dp829
g53
(dp830
sg62
g816
sg55
(lp831
g48
(g49
g50
NtRp832
(dp833
g53
(dp834
g61
I3
ssg62
g828
sg55
(lp835
S''
asbasbasbag48
(g64
g50
NtRp836
(dp837
g53
(dp838
sg62
g752
sg55
(lp839
g48
(g69
g50
NtRp840
(dp841
g53
(dp842
g73
g74
ssg62
g836
sg55
(lp843
g346
asbag48
(g69
g50
NtRp844
(dp845
g53
(dp846
g80
g81
ssg62
g836
sg55
(lp847
S':'
asbag48
(g69
g50
NtRp848
(dp849
g53
(dp850
sg62
g836
sg55
(lp851
g48
(g49
g50
NtRp852
(dp853
g53
(dp854
g61
I3
ssg62
g848
sg55
(lp855
S''
asbasbasbag48
(g64
g50
NtRp856
(dp857
g53
(dp858
sg62
g752
sg55
(lp859
g48
(g69
g50
NtRp860
(dp861
g53
(dp862
g73
g74
ssg62
g856
sg55
(lp863
g367
asbag48
(g69
g50
NtRp864
(dp865
g53
(dp866
g80
g81
ssg62
g856
sg55
(lp867
S':'
asbag48
(g69
g50
NtRp868
(dp869
g53
(dp870
sg62
g856
sg55
(lp871
g48
(g49
g50
NtRp872
(dp873
g53
(dp874
g61
I3
ssg62
g868
sg55
(lp875
S''
asbasbasbag48
(g64
g50
NtRp876
(dp877
g53
(dp878
sg62
g752
sg55
(lp879
g48
(g69
g50
NtRp880
(dp881
g53
(dp882
g73
g74
ssg62
g876
sg55
(lp883
g388
asbag48
(g69
g50
NtRp884
(dp885
g53
(dp886
g80
g81
ssg62
g876
sg55
(lp887
S':'
asbag48
(g69
g50
NtRp888
(dp889
g53
(dp890
sg62
g876
sg55
(lp891
g48
(g49
g50
NtRp892
(dp893
g53
(dp894
g61
I3
ssg62
g888
sg55
(lp895
S''
asbasbasbasbasbasbasbasbasbasbasbag48
(g64
g50
NtRp896
(dp897
g53
(dp898
sg62
g58
sg55
(lp899
g48
(g69
g50
NtRp900
(dp901
g53
(dp902
g73
g74
ssg62
g896
sg55
(lp903
S'env'
p904
asbag48
(g69
g50
NtRp905
(dp906
g53
(dp907
g80
g81
ssg62
g896
sg55
(lp908
S':'
asbag48
(g69
g50
NtRp909
(dp910
g53
(dp911
sg62
g896
sg55
(lp912
g48
(g49
g50
NtRp913
(dp914
g53
(dp915
g61
I5
ssg62
g909
sg55
(lp916
g48
(g57
g50
NtRp917
(dp918
g53
(dp919
g61
I4
ssg62
Nsg55
(lp920
g48
(g64
g50
NtRp921
(dp922
g53
(dp923
sg62
g917
sg55
(lp924
g48
(g69
g50
NtRp925
(dp926
g53
(dp927
g73
g74
ssg62
g921
sg55
(lp928
S'app_folders'
p929
asbag48
(g69
g50
NtRp930
(dp931
g53
(dp932
g80
g81
ssg62
g921
sg55
(lp933
S':'
asbag48
(g69
g50
NtRp934
(dp935
g53
(dp936
sg62
g921
sg55
(lp937
g48
(g49
g50
NtRp938
(dp939
g53
(dp940
g61
I4
ssg62
g934
sg55
(lp941
S"set(['C:\\\\Python32\\\\web2py\\\\applications\\\\Casa_de_Apuestas\\\\', 'C:\\\\Python32\\\\web2py\\\\applications\\\\images\\\\', 'C:\\\\Python32\\\\web2py\\\\applications\\\\welcome\\\\', 'C:\\\\Python32\\\\web2py\\\\applications\\\\admin\\\\'])"
p942
asbasbasbag48
(g64
g50
NtRp943
(dp944
g53
(dp945
sg62
g917
sg55
(lp946
g48
(g69
g50
NtRp947
(dp948
g53
(dp949
g73
g74
ssg62
g943
sg55
(lp950
S'applications_parent'
p951
asbag48
(g69
g50
NtRp952
(dp953
g53
(dp954
g80
g81
ssg62
g943
sg55
(lp955
S':'
asbag48
(g69
g50
NtRp956
(dp957
g53
(dp958
sg62
g943
sg55
(lp959
g48
(g49
g50
NtRp960
(dp961
g53
(dp962
g61
I4
ssg62
g956
sg55
(lp963
S'C:\\Python32\\web2py'
p964
asbasbasbag48
(g64
g50
NtRp965
(dp966
g53
(dp967
sg62
g917
sg55
(lp968
g48
(g69
g50
NtRp969
(dp970
g53
(dp971
g73
g74
ssg62
g965
sg55
(lp972
S'cmd_args'
p973
asbag48
(g69
g50
NtRp974
(dp975
g53
(dp976
g80
g81
ssg62
g965
sg55
(lp977
S':'
asbag48
(g69
g50
NtRp978
(dp979
g53
(dp980
sg62
g965
sg55
(lp981
g48
(g49
g50
NtRp982
(dp983
g53
(dp984
g61
I4
ssg62
g978
sg55
(lp985
g48
(g57
g50
NtRp986
(dp987
g53
(dp988
g61
I3
ssg62
Nsg55
(lp989
sbasbasbasbag48
(g64
g50
NtRp990
(dp991
g53
(dp992
sg62
g917
sg55
(lp993
g48
(g69
g50
NtRp994
(dp995
g53
(dp996
g73
g74
ssg62
g990
sg55
(lp997
S'cmd_options'
p998
asbag48
(g69
g50
NtRp999
(dp1000
g53
(dp1001
g80
g81
ssg62
g990
sg55
(lp1002
S':'
asbag48
(g69
g50
NtRp1003
(dp1004
g53
(dp1005
sg62
g990
sg55
(lp1006
g48
(g49
g50
NtRp1007
(dp1008
g53
(dp1009
g61
I4
ssg62
g1003
sg55
(lp1010
S"<Values at 0x2d18f30: {'verbose': False, 'ip': '127.0.0.1', 'shutdown_timeout': 5, 'taskbar': False, 'nocron': False, 'pid_filename': 'httpserver.pid', 'maxthreads': None, 'softcron': False, 'server_name': 'hector-asus', 'bpython': False, 'nogui': False, 'port': 8000, 'extcron': False, 'debuglevel': 30, 'test': None, 'folder': 'C:\\\\Python32\\\\web2py', 'config': '', 'import_models': False, 'winservice': '', 'shell': None, 'run': '', 'log_filename': 'httpserver.log', 'args': [''], 'ssl_ca_certificate': None, 'scheduler': None, 'profiler_filename': None, 'ssl_private_key': '', 'password': '<ask>', 'request_queue_size': 5, 'ssl_certificate': '', 'cronjob': False, 'plain': False, 'quiet': False, 'interfaces': None, 'minthreads': None, 'timeout': 10, 'numthreads': None, 'nobanner': False}>"
p1011
asbasbasbag48
(g64
g50
NtRp1012
(dp1013
g53
(dp1014
sg62
g917
sg55
(lp1015
g48
(g69
g50
NtRp1016
(dp1017
g53
(dp1018
g73
g74
ssg62
g1012
sg55
(lp1019
S'db_sessions'
p1020
asbag48
(g69
g50
NtRp1021
(dp1022
g53
(dp1023
g80
g81
ssg62
g1012
sg55
(lp1024
S':'
asbag48
(g69
g50
NtRp1025
(dp1026
g53
(dp1027
sg62
g1012
sg55
(lp1028
g48
(g49
g50
NtRp1029
(dp1030
g53
(dp1031
g61
I4
ssg62
g1025
sg55
(lp1032
S'set([])'
p1033
asbasbasbag48
(g64
g50
NtRp1034
(dp1035
g53
(dp1036
sg62
g917
sg55
(lp1037
g48
(g69
g50
NtRp1038
(dp1039
g53
(dp1040
g73
g74
ssg62
g1034
sg55
(lp1041
S'debugging'
p1042
asbag48
(g69
g50
NtRp1043
(dp1044
g53
(dp1045
g80
g81
ssg62
g1034
sg55
(lp1046
S':'
asbag48
(g69
g50
NtRp1047
(dp1048
g53
(dp1049
sg62
g1034
sg55
(lp1050
g48
(g49
g50
NtRp1051
(dp1052
g53
(dp1053
g61
I4
ssg62
g1047
sg55
(lp1054
g91
asbasbasbag48
(g64
g50
NtRp1055
(dp1056
g53
(dp1057
sg62
g917
sg55
(lp1058
g48
(g69
g50
NtRp1059
(dp1060
g53
(dp1061
g73
g74
ssg62
g1055
sg55
(lp1062
S'gluon_parent'
p1063
asbag48
(g69
g50
NtRp1064
(dp1065
g53
(dp1066
g80
g81
ssg62
g1055
sg55
(lp1067
S':'
asbag48
(g69
g50
NtRp1068
(dp1069
g53
(dp1070
sg62
g1055
sg55
(lp1071
g48
(g49
g50
NtRp1072
(dp1073
g53
(dp1074
g61
I4
ssg62
g1068
sg55
(lp1075
S'C:\\Python32\\web2py'
p1076
asbasbasbag48
(g64
g50
NtRp1077
(dp1078
g53
(dp1079
sg62
g917
sg55
(lp1080
g48
(g69
g50
NtRp1081
(dp1082
g53
(dp1083
g73
g74
ssg62
g1077
sg55
(lp1084
S'http_accept'
p1085
asbag48
(g69
g50
NtRp1086
(dp1087
g53
(dp1088
g80
g81
ssg62
g1077
sg55
(lp1089
S':'
asbag48
(g69
g50
NtRp1090
(dp1091
g53
(dp1092
sg62
g1077
sg55
(lp1093
g48
(g49
g50
NtRp1094
(dp1095
g53
(dp1096
g61
I4
ssg62
g1090
sg55
(lp1097
S'text/html,application/xhtml+xml,application/xml;q=0.9,*/*;q=0.8'
p1098
asbasbasbag48
(g64
g50
NtRp1099
(dp1100
g53
(dp1101
sg62
g917
sg55
(lp1102
g48
(g69
g50
NtRp1103
(dp1104
g53
(dp1105
g73
g74
ssg62
g1099
sg55
(lp1106
S'http_accept_charset'
p1107
asbag48
(g69
g50
NtRp1108
(dp1109
g53
(dp1110
g80
g81
ssg62
g1099
sg55
(lp1111
S':'
asbag48
(g69
g50
NtRp1112
(dp1113
g53
(dp1114
sg62
g1099
sg55
(lp1115
g48
(g49
g50
NtRp1116
(dp1117
g53
(dp1118
g61
I4
ssg62
g1112
sg55
(lp1119
S'ISO-8859-1,utf-8;q=0.7,*;q=0.3'
p1120
asbasbasbag48
(g64
g50
NtRp1121
(dp1122
g53
(dp1123
sg62
g917
sg55
(lp1124
g48
(g69
g50
NtRp1125
(dp1126
g53
(dp1127
g73
g74
ssg62
g1121
sg55
(lp1128
S'http_accept_encoding'
p1129
asbag48
(g69
g50
NtRp1130
(dp1131
g53
(dp1132
g80
g81
ssg62
g1121
sg55
(lp1133
S':'
asbag48
(g69
g50
NtRp1134
(dp1135
g53
(dp1136
sg62
g1121
sg55
(lp1137
g48
(g49
g50
NtRp1138
(dp1139
g53
(dp1140
g61
I4
ssg62
g1134
sg55
(lp1141
S'gzip,deflate,sdch'
p1142
asbasbasbag48
(g64
g50
NtRp1143
(dp1144
g53
(dp1145
sg62
g917
sg55
(lp1146
g48
(g69
g50
NtRp1147
(dp1148
g53
(dp1149
g73
g74
ssg62
g1143
sg55
(lp1150
S'http_accept_language'
p1151
asbag48
(g69
g50
NtRp1152
(dp1153
g53
(dp1154
g80
g81
ssg62
g1143
sg55
(lp1155
S':'
asbag48
(g69
g50
NtRp1156
(dp1157
g53
(dp1158
sg62
g1143
sg55
(lp1159
g48
(g49
g50
NtRp1160
(dp1161
g53
(dp1162
g61
I4
ssg62
g1156
sg55
(lp1163
S'en-US,en;q=0.8'
p1164
asbasbasbag48
(g64
g50
NtRp1165
(dp1166
g53
(dp1167
sg62
g917
sg55
(lp1168
g48
(g69
g50
NtRp1169
(dp1170
g53
(dp1171
g73
g74
ssg62
g1165
sg55
(lp1172
S'http_cache_control'
p1173
asbag48
(g69
g50
NtRp1174
(dp1175
g53
(dp1176
g80
g81
ssg62
g1165
sg55
(lp1177
S':'
asbag48
(g69
g50
NtRp1178
(dp1179
g53
(dp1180
sg62
g1165
sg55
(lp1181
g48
(g49
g50
NtRp1182
(dp1183
g53
(dp1184
g61
I4
ssg62
g1178
sg55
(lp1185
S'max-age=0'
p1186
asbasbasbag48
(g64
g50
NtRp1187
(dp1188
g53
(dp1189
sg62
g917
sg55
(lp1190
g48
(g69
g50
NtRp1191
(dp1192
g53
(dp1193
g73
g74
ssg62
g1187
sg55
(lp1194
S'http_connection'
p1195
asbag48
(g69
g50
NtRp1196
(dp1197
g53
(dp1198
g80
g81
ssg62
g1187
sg55
(lp1199
S':'
asbag48
(g69
g50
NtRp1200
(dp1201
g53
(dp1202
sg62
g1187
sg55
(lp1203
g48
(g49
g50
NtRp1204
(dp1205
g53
(dp1206
g61
I4
ssg62
g1200
sg55
(lp1207
S'keep-alive'
p1208
asbasbasbag48
(g64
g50
NtRp1209
(dp1210
g53
(dp1211
sg62
g917
sg55
(lp1212
g48
(g69
g50
NtRp1213
(dp1214
g53
(dp1215
g73
g74
ssg62
g1209
sg55
(lp1216
S'http_cookie'
p1217
asbag48
(g69
g50
NtRp1218
(dp1219
g53
(dp1220
g80
g81
ssg62
g1209
sg55
(lp1221
S':'
asbag48
(g69
g50
NtRp1222
(dp1223
g53
(dp1224
sg62
g1209
sg55
(lp1225
g48
(g49
g50
NtRp1226
(dp1227
g53
(dp1228
g61
I4
ssg62
g1222
sg55
(lp1229
S'session_id_welcome=127.0.0.1-07b05742-4fc1-4474-90ad-860dbbef112b; session_id_images=127.0.0.1-b7aa86f2-0acd-49d9-92fc-557581040429; session_id_casa_de_apuestas=127.0.0.1-ff075696-a054-47b7-bd6f-733e6903bb65; session_id_admin=127.0.0.1-5155ace7-c952-49d3-a385-f66534093f7a'
p1230
asbasbasbag48
(g64
g50
NtRp1231
(dp1232
g53
(dp1233
sg62
g917
sg55
(lp1234
g48
(g69
g50
NtRp1235
(dp1236
g53
(dp1237
g73
g74
ssg62
g1231
sg55
(lp1238
S'http_host'
p1239
asbag48
(g69
g50
NtRp1240
(dp1241
g53
(dp1242
g80
g81
ssg62
g1231
sg55
(lp1243
S':'
asbag48
(g69
g50
NtRp1244
(dp1245
g53
(dp1246
sg62
g1231
sg55
(lp1247
g48
(g49
g50
NtRp1248
(dp1249
g53
(dp1250
g61
I4
ssg62
g1244
sg55
(lp1251
S'127.0.0.1:8000'
p1252
asbasbasbag48
(g64
g50
NtRp1253
(dp1254
g53
(dp1255
sg62
g917
sg55
(lp1256
g48
(g69
g50
NtRp1257
(dp1258
g53
(dp1259
g73
g74
ssg62
g1253
sg55
(lp1260
S'http_referer'
p1261
asbag48
(g69
g50
NtRp1262
(dp1263
g53
(dp1264
g80
g81
ssg62
g1253
sg55
(lp1265
S':'
asbag48
(g69
g50
NtRp1266
(dp1267
g53
(dp1268
sg62
g1253
sg55
(lp1269
g48
(g49
g50
NtRp1270
(dp1271
g53
(dp1272
g61
I4
ssg62
g1266
sg55
(lp1273
S'http://127.0.0.1:8000/Casa_de_Apuestas/appadmin/insert/db/eventos_participantes'
p1274
asbasbasbag48
(g64
g50
NtRp1275
(dp1276
g53
(dp1277
sg62
g917
sg55
(lp1278
g48
(g69
g50
NtRp1279
(dp1280
g53
(dp1281
g73
g74
ssg62
g1275
sg55
(lp1282
S'http_user_agent'
p1283
asbag48
(g69
g50
NtRp1284
(dp1285
g53
(dp1286
g80
g81
ssg62
g1275
sg55
(lp1287
S':'
asbag48
(g69
g50
NtRp1288
(dp1289
g53
(dp1290
sg62
g1275
sg55
(lp1291
g48
(g49
g50
NtRp1292
(dp1293
g53
(dp1294
g61
I4
ssg62
g1288
sg55
(lp1295
S'Mozilla/5.0 (Windows NT 6.1; WOW64) AppleWebKit/535.2 (KHTML, like Gecko) Chrome/15.0.874.106 Safari/535.2'
p1296
asbasbasbag48
(g64
g50
NtRp1297
(dp1298
g53
(dp1299
sg62
g917
sg55
(lp1300
g48
(g69
g50
NtRp1301
(dp1302
g53
(dp1303
g73
g74
ssg62
g1297
sg55
(lp1304
S'is_jython'
p1305
asbag48
(g69
g50
NtRp1306
(dp1307
g53
(dp1308
g80
g81
ssg62
g1297
sg55
(lp1309
S':'
asbag48
(g69
g50
NtRp1310
(dp1311
g53
(dp1312
sg62
g1297
sg55
(lp1313
g48
(g49
g50
NtRp1314
(dp1315
g53
(dp1316
g61
I4
ssg62
g1310
sg55
(lp1317
g91
asbasbasbag48
(g64
g50
NtRp1318
(dp1319
g53
(dp1320
sg62
g917
sg55
(lp1321
g48
(g69
g50
NtRp1322
(dp1323
g53
(dp1324
g73
g74
ssg62
g1318
sg55
(lp1325
S'path_info'
p1326
asbag48
(g69
g50
NtRp1327
(dp1328
g53
(dp1329
g80
g81
ssg62
g1318
sg55
(lp1330
S':'
asbag48
(g69
g50
NtRp1331
(dp1332
g53
(dp1333
sg62
g1318
sg55
(lp1334
g48
(g49
g50
NtRp1335
(dp1336
g53
(dp1337
g61
I4
ssg62
g1331
sg55
(lp1338
S'/Casa_de_Apuestas/appadmin/index'
p1339
asbasbasbag48
(g64
g50
NtRp1340
(dp1341
g53
(dp1342
sg62
g917
sg55
(lp1343
g48
(g69
g50
NtRp1344
(dp1345
g53
(dp1346
g73
g74
ssg62
g1340
sg55
(lp1347
S'query_string'
p1348
asbag48
(g69
g50
NtRp1349
(dp1350
g53
(dp1351
g80
g81
ssg62
g1340
sg55
(lp1352
S':'
asbag48
(g69
g50
NtRp1353
(dp1354
g53
(dp1355
sg62
g1340
sg55
(lp1356
g48
(g49
g50
NtRp1357
(dp1358
g53
(dp1359
g61
I4
ssg62
g1353
sg55
(lp1360
S''
asbasbasbag48
(g64
g50
NtRp1361
(dp1362
g53
(dp1363
sg62
g917
sg55
(lp1364
g48
(g69
g50
NtRp1365
(dp1366
g53
(dp1367
g73
g74
ssg62
g1361
sg55
(lp1368
S'remote_addr'
p1369
asbag48
(g69
g50
NtRp1370
(dp1371
g53
(dp1372
g80
g81
ssg62
g1361
sg55
(lp1373
S':'
asbag48
(g69
g50
NtRp1374
(dp1375
g53
(dp1376
sg62
g1361
sg55
(lp1377
g48
(g49
g50
NtRp1378
(dp1379
g53
(dp1380
g61
I4
ssg62
g1374
sg55
(lp1381
g181
asbasbasbag48
(g64
g50
NtRp1382
(dp1383
g53
(dp1384
sg62
g917
sg55
(lp1385
g48
(g69
g50
NtRp1386
(dp1387
g53
(dp1388
g73
g74
ssg62
g1382
sg55
(lp1389
S'remote_port'
p1390
asbag48
(g69
g50
NtRp1391
(dp1392
g53
(dp1393
g80
g81
ssg62
g1382
sg55
(lp1394
S':'
asbag48
(g69
g50
NtRp1395
(dp1396
g53
(dp1397
sg62
g1382
sg55
(lp1398
g48
(g49
g50
NtRp1399
(dp1400
g53
(dp1401
g61
I4
ssg62
g1395
sg55
(lp1402
S'49701'
p1403
asbasbasbag48
(g64
g50
NtRp1404
(dp1405
g53
(dp1406
sg62
g917
sg55
(lp1407
g48
(g69
g50
NtRp1408
(dp1409
g53
(dp1410
g73
g74
ssg62
g1404
sg55
(lp1411
S'request_method'
p1412
asbag48
(g69
g50
NtRp1413
(dp1414
g53
(dp1415
g80
g81
ssg62
g1404
sg55
(lp1416
S':'
asbag48
(g69
g50
NtRp1417
(dp1418
g53
(dp1419
sg62
g1404
sg55
(lp1420
g48
(g49
g50
NtRp1421
(dp1422
g53
(dp1423
g61
I4
ssg62
g1417
sg55
(lp1424
S'GET'
p1425
asbasbasbag48
(g64
g50
NtRp1426
(dp1427
g53
(dp1428
sg62
g917
sg55
(lp1429
g48
(g69
g50
NtRp1430
(dp1431
g53
(dp1432
g73
g74
ssg62
g1426
sg55
(lp1433
S'script_name'
p1434
asbag48
(g69
g50
NtRp1435
(dp1436
g53
(dp1437
g80
g81
ssg62
g1426
sg55
(lp1438
S':'
asbag48
(g69
g50
NtRp1439
(dp1440
g53
(dp1441
sg62
g1426
sg55
(lp1442
g48
(g49
g50
NtRp1443
(dp1444
g53
(dp1445
g61
I4
ssg62
g1439
sg55
(lp1446
S''
asbasbasbag48
(g64
g50
NtRp1447
(dp1448
g53
(dp1449
sg62
g917
sg55
(lp1450
g48
(g69
g50
NtRp1451
(dp1452
g53
(dp1453
g73
g74
ssg62
g1447
sg55
(lp1454
S'server_name'
p1455
asbag48
(g69
g50
NtRp1456
(dp1457
g53
(dp1458
g80
g81
ssg62
g1447
sg55
(lp1459
S':'
asbag48
(g69
g50
NtRp1460
(dp1461
g53
(dp1462
sg62
g1447
sg55
(lp1463
g48
(g49
g50
NtRp1464
(dp1465
g53
(dp1466
g61
I4
ssg62
g1460
sg55
(lp1467
S'hector-asus'
p1468
asbasbasbag48
(g64
g50
NtRp1469
(dp1470
g53
(dp1471
sg62
g917
sg55
(lp1472
g48
(g69
g50
NtRp1473
(dp1474
g53
(dp1475
g73
g74
ssg62
g1469
sg55
(lp1476
S'server_port'
p1477
asbag48
(g69
g50
NtRp1478
(dp1479
g53
(dp1480
g80
g81
ssg62
g1469
sg55
(lp1481
S':'
asbag48
(g69
g50
NtRp1482
(dp1483
g53
(dp1484
sg62
g1469
sg55
(lp1485
g48
(g49
g50
NtRp1486
(dp1487
g53
(dp1488
g61
I4
ssg62
g1482
sg55
(lp1489
S'8000'
p1490
asbasbasbag48
(g64
g50
NtRp1491
(dp1492
g53
(dp1493
sg62
g917
sg55
(lp1494
g48
(g69
g50
NtRp1495
(dp1496
g53
(dp1497
g73
g74
ssg62
g1491
sg55
(lp1498
S'server_protocol'
p1499
asbag48
(g69
g50
NtRp1500
(dp1501
g53
(dp1502
g80
g81
ssg62
g1491
sg55
(lp1503
S':'
asbag48
(g69
g50
NtRp1504
(dp1505
g53
(dp1506
sg62
g1491
sg55
(lp1507
g48
(g49
g50
NtRp1508
(dp1509
g53
(dp1510
g61
I4
ssg62
g1504
sg55
(lp1511
S'HTTP/1.1'
p1512
asbasbasbag48
(g64
g50
NtRp1513
(dp1514
g53
(dp1515
sg62
g917
sg55
(lp1516
g48
(g69
g50
NtRp1517
(dp1518
g53
(dp1519
g73
g74
ssg62
g1513
sg55
(lp1520
S'server_software'
p1521
asbag48
(g69
g50
NtRp1522
(dp1523
g53
(dp1524
g80
g81
ssg62
g1513
sg55
(lp1525
S':'
asbag48
(g69
g50
NtRp1526
(dp1527
g53
(dp1528
sg62
g1513
sg55
(lp1529
g48
(g49
g50
NtRp1530
(dp1531
g53
(dp1532
g61
I4
ssg62
g1526
sg55
(lp1533
S'Rocket 1.2.4'
p1534
asbasbasbag48
(g64
g50
NtRp1535
(dp1536
g53
(dp1537
sg62
g917
sg55
(lp1538
g48
(g69
g50
NtRp1539
(dp1540
g53
(dp1541
g73
g74
ssg62
g1535
sg55
(lp1542
S'web2py_crontype'
p1543
asbag48
(g69
g50
NtRp1544
(dp1545
g53
(dp1546
g80
g81
ssg62
g1535
sg55
(lp1547
S':'
asbag48
(g69
g50
NtRp1548
(dp1549
g53
(dp1550
sg62
g1535
sg55
(lp1551
g48
(g49
g50
NtRp1552
(dp1553
g53
(dp1554
g61
I4
ssg62
g1548
sg55
(lp1555
S'hard'
p1556
asbasbasbag48
(g64
g50
NtRp1557
(dp1558
g53
(dp1559
sg62
g917
sg55
(lp1560
g48
(g69
g50
NtRp1561
(dp1562
g53
(dp1563
g73
g74
ssg62
g1557
sg55
(lp1564
S'web2py_path'
p1565
asbag48
(g69
g50
NtRp1566
(dp1567
g53
(dp1568
g80
g81
ssg62
g1557
sg55
(lp1569
S':'
asbag48
(g69
g50
NtRp1570
(dp1571
g53
(dp1572
sg62
g1557
sg55
(lp1573
g48
(g49
g50
NtRp1574
(dp1575
g53
(dp1576
g61
I4
ssg62
g1570
sg55
(lp1577
g964
asbasbasbag48
(g64
g50
NtRp1578
(dp1579
g53
(dp1580
sg62
g917
sg55
(lp1581
g48
(g69
g50
NtRp1582
(dp1583
g53
(dp1584
g73
g74
ssg62
g1578
sg55
(lp1585
S'web2py_version'
p1586
asbag48
(g69
g50
NtRp1587
(dp1588
g53
(dp1589
g80
g81
ssg62
g1578
sg55
(lp1590
S':'
asbag48
(g69
g50
NtRp1591
(dp1592
g53
(dp1593
sg62
g1578
sg55
(lp1594
g48
(g49
g50
NtRp1595
(dp1596
g53
(dp1597
g61
I4
ssg62
g1591
sg55
(lp1598
g48
(g57
g50
NtRp1599
(dp1600
g53
(dp1601
g61
I3
ssg62
Nsg55
(lp1602
g48
(g64
g50
NtRp1603
(dp1604
g53
(dp1605
sg62
g1599
sg55
(lp1606
g48
(g69
g50
NtRp1607
(dp1608
g53
(dp1609
sg62
g1603
sg55
(lp1610
g48
(g49
g50
NtRp1611
(dp1612
g53
(dp1613
g61
I3
ssg62
g1607
sg55
(lp1614
S'1'
asbasbasbag48
(g64
g50
NtRp1615
(dp1616
g53
(dp1617
sg62
g1599
sg55
(lp1618
g48
(g69
g50
NtRp1619
(dp1620
g53
(dp1621
sg62
g1615
sg55
(lp1622
g48
(g49
g50
NtRp1623
(dp1624
g53
(dp1625
g61
I3
ssg62
g1619
sg55
(lp1626
S'99'
p1627
asbasbasbag48
(g64
g50
NtRp1628
(dp1629
g53
(dp1630
sg62
g1599
sg55
(lp1631
g48
(g69
g50
NtRp1632
(dp1633
g53
(dp1634
sg62
g1628
sg55
(lp1635
g48
(g49
g50
NtRp1636
(dp1637
g53
(dp1638
g61
I3
ssg62
g1632
sg55
(lp1639
S'2'
asbasbasbag48
(g64
g50
NtRp1640
(dp1641
g53
(dp1642
sg62
g1599
sg55
(lp1643
g48
(g69
g50
NtRp1644
(dp1645
g53
(dp1646
sg62
g1640
sg55
(lp1647
g48
(g49
g50
NtRp1648
(dp1649
g53
(dp1650
g61
I3
ssg62
g1644
sg55
(lp1651
S'datetime.datetime(2011, 9, 26, 6, 55, 33)'
p1652
asbasbasbag48
(g64
g50
NtRp1653
(dp1654
g53
(dp1655
sg62
g1599
sg55
(lp1656
g48
(g69
g50
NtRp1657
(dp1658
g53
(dp1659
sg62
g1653
sg55
(lp1660
g48
(g49
g50
NtRp1661
(dp1662
g53
(dp1663
g61
I3
ssg62
g1657
sg55
(lp1664
S'stable'
p1665
asbasbasbasbasbasbasbag48
(g64
g50
NtRp1666
(dp1667
g53
(dp1668
sg62
g917
sg55
(lp1669
g48
(g69
g50
NtRp1670
(dp1671
g53
(dp1672
g73
g74
ssg62
g1666
sg55
(lp1673
S'wsgi_errors'
p1674
asbag48
(g69
g50
NtRp1675
(dp1676
g53
(dp1677
g80
g81
ssg62
g1666
sg55
(lp1678
S':'
asbag48
(g69
g50
NtRp1679
(dp1680
g53
(dp1681
sg62
g1666
sg55
(lp1682
g48
(g49
g50
NtRp1683
(dp1684
g53
(dp1685
g61
I4
ssg62
g1679
sg55
(lp1686
S"<open file '<stderr>', mode 'w' at 0x01FA00B0>"
p1687
asbasbasbag48
(g64
g50
NtRp1688
(dp1689
g53
(dp1690
sg62
g917
sg55
(lp1691
g48
(g69
g50
NtRp1692
(dp1693
g53
(dp1694
g73
g74
ssg62
g1688
sg55
(lp1695
S'wsgi_file_wrapper'
p1696
asbag48
(g69
g50
NtRp1697
(dp1698
g53
(dp1699
g80
g81
ssg62
g1688
sg55
(lp1700
S':'
asbag48
(g69
g50
NtRp1701
(dp1702
g53
(dp1703
sg62
g1688
sg55
(lp1704
g48
(g49
g50
NtRp1705
(dp1706
g53
(dp1707
g61
I4
ssg62
g1701
sg55
(lp1708
S'<class wsgiref.util.FileWrapper at 0x02AB0D80>'
p1709
asbasbasbag48
(g64
g50
NtRp1710
(dp1711
g53
(dp1712
sg62
g917
sg55
(lp1713
g48
(g69
g50
NtRp1714
(dp1715
g53
(dp1716
g73
g74
ssg62
g1710
sg55
(lp1717
S'wsgi_input'
p1718
asbag48
(g69
g50
NtRp1719
(dp1720
g53
(dp1721
g80
g81
ssg62
g1710
sg55
(lp1722
S':'
asbag48
(g69
g50
NtRp1723
(dp1724
g53
(dp1725
sg62
g1710
sg55
(lp1726
g48
(g49
g50
NtRp1727
(dp1728
g53
(dp1729
g61
I4
ssg62
g1723
sg55
(lp1730
S'<socket._fileobject object at 0x060957B0>'
p1731
asbasbasbag48
(g64
g50
NtRp1732
(dp1733
g53
(dp1734
sg62
g917
sg55
(lp1735
g48
(g69
g50
NtRp1736
(dp1737
g53
(dp1738
g73
g74
ssg62
g1732
sg55
(lp1739
S'wsgi_multiprocess'
p1740
asbag48
(g69
g50
NtRp1741
(dp1742
g53
(dp1743
g80
g81
ssg62
g1732
sg55
(lp1744
S':'
asbag48
(g69
g50
NtRp1745
(dp1746
g53
(dp1747
sg62
g1732
sg55
(lp1748
g48
(g49
g50
NtRp1749
(dp1750
g53
(dp1751
g61
I4
ssg62
g1745
sg55
(lp1752
g91
asbasbasbag48
(g64
g50
NtRp1753
(dp1754
g53
(dp1755
sg62
g917
sg55
(lp1756
g48
(g69
g50
NtRp1757
(dp1758
g53
(dp1759
g73
g74
ssg62
g1753
sg55
(lp1760
S'wsgi_multithread'
p1761
asbag48
(g69
g50
NtRp1762
(dp1763
g53
(dp1764
g80
g81
ssg62
g1753
sg55
(lp1765
S':'
asbag48
(g69
g50
NtRp1766
(dp1767
g53
(dp1768
sg62
g1753
sg55
(lp1769
g48
(g49
g50
NtRp1770
(dp1771
g53
(dp1772
g61
I4
ssg62
g1766
sg55
(lp1773
S'True'
p1774
asbasbasbag48
(g64
g50
NtRp1775
(dp1776
g53
(dp1777
sg62
g917
sg55
(lp1778
g48
(g69
g50
NtRp1779
(dp1780
g53
(dp1781
g73
g74
ssg62
g1775
sg55
(lp1782
S'wsgi_run_once'
p1783
asbag48
(g69
g50
NtRp1784
(dp1785
g53
(dp1786
g80
g81
ssg62
g1775
sg55
(lp1787
S':'
asbag48
(g69
g50
NtRp1788
(dp1789
g53
(dp1790
sg62
g1775
sg55
(lp1791
g48
(g49
g50
NtRp1792
(dp1793
g53
(dp1794
g61
I4
ssg62
g1788
sg55
(lp1795
g91
asbasbasbag48
(g64
g50
NtRp1796
(dp1797
g53
(dp1798
sg62
g917
sg55
(lp1799
g48
(g69
g50
NtRp1800
(dp1801
g53
(dp1802
g73
g74
ssg62
g1796
sg55
(lp1803
S'wsgi_url_scheme'
p1804
asbag48
(g69
g50
NtRp1805
(dp1806
g53
(dp1807
g80
g81
ssg62
g1796
sg55
(lp1808
S':'
asbag48
(g69
g50
NtRp1809
(dp1810
g53
(dp1811
sg62
g1796
sg55
(lp1812
g48
(g49
g50
NtRp1813
(dp1814
g53
(dp1815
g61
I4
ssg62
g1809
sg55
(lp1816
S'http'
p1817
asbasbasbag48
(g64
g50
NtRp1818
(dp1819
g53
(dp1820
sg62
g917
sg55
(lp1821
g48
(g69
g50
NtRp1822
(dp1823
g53
(dp1824
g73
g74
ssg62
g1818
sg55
(lp1825
S'wsgi_version'
p1826
asbag48
(g69
g50
NtRp1827
(dp1828
g53
(dp1829
g80
g81
ssg62
g1818
sg55
(lp1830
S':'
asbag48
(g69
g50
NtRp1831
(dp1832
g53
(dp1833
sg62
g1818
sg55
(lp1834
g48
(g49
g50
NtRp1835
(dp1836
g53
(dp1837
g61
I4
ssg62
g1831
sg55
(lp1838
g48
(g57
g50
NtRp1839
(dp1840
g53
(dp1841
g61
I3
ssg62
Nsg55
(lp1842
g48
(g64
g50
NtRp1843
(dp1844
g53
(dp1845
sg62
g1839
sg55
(lp1846
g48
(g69
g50
NtRp1847
(dp1848
g53
(dp1849
sg62
g1843
sg55
(lp1850
g48
(g49
g50
NtRp1851
(dp1852
g53
(dp1853
g61
I3
ssg62
g1847
sg55
(lp1854
S'1'
asbasbasbag48
(g64
g50
NtRp1855
(dp1856
g53
(dp1857
sg62
g1839
sg55
(lp1858
g48
(g69
g50
NtRp1859
(dp1860
g53
(dp1861
sg62
g1855
sg55
(lp1862
g48
(g49
g50
NtRp1863
(dp1864
g53
(dp1865
g61
I3
ssg62
g1859
sg55
(lp1866
S'0'
asbasbasbasbasbasbasbasbasbasbasbag48
(g64
g50
NtRp1867
(dp1868
g53
(dp1869
sg62
g58
sg55
(lp1870
g48
(g69
g50
NtRp1871
(dp1872
g53
(dp1873
g73
g74
ssg62
g1867
sg55
(lp1874
S'extension'
p1875
asbag48
(g69
g50
NtRp1876
(dp1877
g53
(dp1878
g80
g81
ssg62
g1867
sg55
(lp1879
S':'
asbag48
(g69
g50
NtRp1880
(dp1881
g53
(dp1882
sg62
g1867
sg55
(lp1883
g48
(g49
g50
NtRp1884
(dp1885
g53
(dp1886
g61
I5
ssg62
g1880
sg55
(lp1887
S'html'
p1888
asbasbasbag48
(g64
g50
NtRp1889
(dp1890
g53
(dp1891
sg62
g58
sg55
(lp1892
g48
(g69
g50
NtRp1893
(dp1894
g53
(dp1895
g73
g74
ssg62
g1889
sg55
(lp1896
S'folder'
p1897
asbag48
(g69
g50
NtRp1898
(dp1899
g53
(dp1900
g80
g81
ssg62
g1889
sg55
(lp1901
S':'
asbag48
(g69
g50
NtRp1902
(dp1903
g53
(dp1904
sg62
g1889
sg55
(lp1905
g48
(g49
g50
NtRp1906
(dp1907
g53
(dp1908
g61
I5
ssg62
g1902
sg55
(lp1909
S'C:\\Python32\\web2py\\applications\\Casa_de_Apuestas\\'
p1910
asbasbasbag48
(g64
g50
NtRp1911
(dp1912
g53
(dp1913
sg62
g58
sg55
(lp1914
g48
(g69
g50
NtRp1915
(dp1916
g53
(dp1917
g73
g74
ssg62
g1911
sg55
(lp1918
S'function'
p1919
asbag48
(g69
g50
NtRp1920
(dp1921
g53
(dp1922
g80
g81
ssg62
g1911
sg55
(lp1923
S':'
asbag48
(g69
g50
NtRp1924
(dp1925
g53
(dp1926
sg62
g1911
sg55
(lp1927
g48
(g49
g50
NtRp1928
(dp1929
g53
(dp1930
g61
I5
ssg62
g1924
sg55
(lp1931
S'index'
p1932
asbasbasbag48
(g64
g50
NtRp1933
(dp1934
g53
(dp1935
sg62
g58
sg55
(lp1936
g48
(g69
g50
NtRp1937
(dp1938
g53
(dp1939
g73
g74
ssg62
g1933
sg55
(lp1940
S'get_vars'
p1941
asbag48
(g69
g50
NtRp1942
(dp1943
g53
(dp1944
g80
g81
ssg62
g1933
sg55
(lp1945
S':'
asbag48
(g69
g50
NtRp1946
(dp1947
g53
(dp1948
sg62
g1933
sg55
(lp1949
g48
(g49
g50
NtRp1950
(dp1951
g53
(dp1952
g61
I5
ssg62
g1946
sg55
(lp1953
g48
(g57
g50
NtRp1954
(dp1955
g53
(dp1956
g61
I4
ssg62
Nsg55
(lp1957
sbasbasbasbag48
(g64
g50
NtRp1958
(dp1959
g53
(dp1960
sg62
g58
sg55
(lp1961
g48
(g69
g50
NtRp1962
(dp1963
g53
(dp1964
g73
g74
ssg62
g1958
sg55
(lp1965
S'global_settings'
p1966
asbag48
(g69
g50
NtRp1967
(dp1968
g53
(dp1969
g80
g81
ssg62
g1958
sg55
(lp1970
S':'
asbag48
(g69
g50
NtRp1971
(dp1972
g53
(dp1973
sg62
g1958
sg55
(lp1974
g48
(g49
g50
NtRp1975
(dp1976
g53
(dp1977
g61
I5
ssg62
g1971
sg55
(lp1978
g48
(g57
g50
NtRp1979
(dp1980
g53
(dp1981
g61
I4
ssg62
Nsg55
(lp1982
g48
(g64
g50
NtRp1983
(dp1984
g53
(dp1985
sg62
g1979
sg55
(lp1986
g48
(g69
g50
NtRp1987
(dp1988
g53
(dp1989
g73
g74
ssg62
g1983
sg55
(lp1990
g929
asbag48
(g69
g50
NtRp1991
(dp1992
g53
(dp1993
g80
g81
ssg62
g1983
sg55
(lp1994
S':'
asbag48
(g69
g50
NtRp1995
(dp1996
g53
(dp1997
sg62
g1983
sg55
(lp1998
g48
(g49
g50
NtRp1999
(dp2000
g53
(dp2001
g61
I4
ssg62
g1995
sg55
(lp2002
S"set(['C:\\\\Python32\\\\web2py\\\\applications\\\\Casa_de_Apuestas\\\\', 'C:\\\\Python32\\\\web2py\\\\applications\\\\images\\\\', 'C:\\\\Python32\\\\web2py\\\\applications\\\\welcome\\\\', 'C:\\\\Python32\\\\web2py\\\\applications\\\\admin\\\\'])"
p2003
asbasbasbag48
(g64
g50
NtRp2004
(dp2005
g53
(dp2006
sg62
g1979
sg55
(lp2007
g48
(g69
g50
NtRp2008
(dp2009
g53
(dp2010
g73
g74
ssg62
g2004
sg55
(lp2011
g951
asbag48
(g69
g50
NtRp2012
(dp2013
g53
(dp2014
g80
g81
ssg62
g2004
sg55
(lp2015
S':'
asbag48
(g69
g50
NtRp2016
(dp2017
g53
(dp2018
sg62
g2004
sg55
(lp2019
g48
(g49
g50
NtRp2020
(dp2021
g53
(dp2022
g61
I4
ssg62
g2016
sg55
(lp2023
g964
asbasbasbag48
(g64
g50
NtRp2024
(dp2025
g53
(dp2026
sg62
g1979
sg55
(lp2027
g48
(g69
g50
NtRp2028
(dp2029
g53
(dp2030
g73
g74
ssg62
g2024
sg55
(lp2031
g973
asbag48
(g69
g50
NtRp2032
(dp2033
g53
(dp2034
g80
g81
ssg62
g2024
sg55
(lp2035
S':'
asbag48
(g69
g50
NtRp2036
(dp2037
g53
(dp2038
sg62
g2024
sg55
(lp2039
g48
(g49
g50
NtRp2040
(dp2041
g53
(dp2042
g61
I4
ssg62
g2036
sg55
(lp2043
g48
(g57
g50
NtRp2044
(dp2045
g53
(dp2046
g61
I3
ssg62
Nsg55
(lp2047
sbasbasbasbag48
(g64
g50
NtRp2048
(dp2049
g53
(dp2050
sg62
g1979
sg55
(lp2051
g48
(g69
g50
NtRp2052
(dp2053
g53
(dp2054
g73
g74
ssg62
g2048
sg55
(lp2055
g998
asbag48
(g69
g50
NtRp2056
(dp2057
g53
(dp2058
g80
g81
ssg62
g2048
sg55
(lp2059
S':'
asbag48
(g69
g50
NtRp2060
(dp2061
g53
(dp2062
sg62
g2048
sg55
(lp2063
g48
(g49
g50
NtRp2064
(dp2065
g53
(dp2066
g61
I4
ssg62
g2060
sg55
(lp2067
S"<Values at 0x2d18f30: {'verbose': False, 'ip': '127.0.0.1', 'shutdown_timeout': 5, 'taskbar': False, 'nocron': False, 'pid_filename': 'httpserver.pid', 'maxthreads': None, 'softcron': False, 'server_name': 'hector-asus', 'bpython': False, 'nogui': False, 'port': 8000, 'extcron': False, 'debuglevel': 30, 'test': None, 'folder': 'C:\\\\Python32\\\\web2py', 'config': '', 'import_models': False, 'winservice': '', 'shell': None, 'run': '', 'log_filename': 'httpserver.log', 'args': [''], 'ssl_ca_certificate': None, 'scheduler': None, 'profiler_filename': None, 'ssl_private_key': '', 'password': '<ask>', 'request_queue_size': 5, 'ssl_certificate': '', 'cronjob': False, 'plain': False, 'quiet': False, 'interfaces': None, 'minthreads': None, 'timeout': 10, 'numthreads': None, 'nobanner': False}>"
p2068
asbasbasbag48
(g64
g50
NtRp2069
(dp2070
g53
(dp2071
sg62
g1979
sg55
(lp2072
g48
(g69
g50
NtRp2073
(dp2074
g53
(dp2075
g73
g74
ssg62
g2069
sg55
(lp2076
g1020
asbag48
(g69
g50
NtRp2077
(dp2078
g53
(dp2079
g80
g81
ssg62
g2069
sg55
(lp2080
S':'
asbag48
(g69
g50
NtRp2081
(dp2082
g53
(dp2083
sg62
g2069
sg55
(lp2084
g48
(g49
g50
NtRp2085
(dp2086
g53
(dp2087
g61
I4
ssg62
g2081
sg55
(lp2088
S'set([])'
p2089
asbasbasbag48
(g64
g50
NtRp2090
(dp2091
g53
(dp2092
sg62
g1979
sg55
(lp2093
g48
(g69
g50
NtRp2094
(dp2095
g53
(dp2096
g73
g74
ssg62
g2090
sg55
(lp2097
g1042
asbag48
(g69
g50
NtRp2098
(dp2099
g53
(dp2100
g80
g81
ssg62
g2090
sg55
(lp2101
S':'
asbag48
(g69
g50
NtRp2102
(dp2103
g53
(dp2104
sg62
g2090
sg55
(lp2105
g48
(g49
g50
NtRp2106
(dp2107
g53
(dp2108
g61
I4
ssg62
g2102
sg55
(lp2109
g91
asbasbasbag48
(g64
g50
NtRp2110
(dp2111
g53
(dp2112
sg62
g1979
sg55
(lp2113
g48
(g69
g50
NtRp2114
(dp2115
g53
(dp2116
g73
g74
ssg62
g2110
sg55
(lp2117
g1063
asbag48
(g69
g50
NtRp2118
(dp2119
g53
(dp2120
g80
g81
ssg62
g2110
sg55
(lp2121
S':'
asbag48
(g69
g50
NtRp2122
(dp2123
g53
(dp2124
sg62
g2110
sg55
(lp2125
g48
(g49
g50
NtRp2126
(dp2127
g53
(dp2128
g61
I4
ssg62
g2122
sg55
(lp2129
g1076
asbasbasbag48
(g64
g50
NtRp2130
(dp2131
g53
(dp2132
sg62
g1979
sg55
(lp2133
g48
(g69
g50
NtRp2134
(dp2135
g53
(dp2136
g73
g74
ssg62
g2130
sg55
(lp2137
g1305
asbag48
(g69
g50
NtRp2138
(dp2139
g53
(dp2140
g80
g81
ssg62
g2130
sg55
(lp2141
S':'
asbag48
(g69
g50
NtRp2142
(dp2143
g53
(dp2144
sg62
g2130
sg55
(lp2145
g48
(g49
g50
NtRp2146
(dp2147
g53
(dp2148
g61
I4
ssg62
g2142
sg55
(lp2149
g91
asbasbasbag48
(g64
g50
NtRp2150
(dp2151
g53
(dp2152
sg62
g1979
sg55
(lp2153
g48
(g69
g50
NtRp2154
(dp2155
g53
(dp2156
g73
g74
ssg62
g2150
sg55
(lp2157
g1543
asbag48
(g69
g50
NtRp2158
(dp2159
g53
(dp2160
g80
g81
ssg62
g2150
sg55
(lp2161
S':'
asbag48
(g69
g50
NtRp2162
(dp2163
g53
(dp2164
sg62
g2150
sg55
(lp2165
g48
(g49
g50
NtRp2166
(dp2167
g53
(dp2168
g61
I4
ssg62
g2162
sg55
(lp2169
g1556
asbasbasbag48
(g64
g50
NtRp2170
(dp2171
g53
(dp2172
sg62
g1979
sg55
(lp2173
g48
(g69
g50
NtRp2174
(dp2175
g53
(dp2176
g73
g74
ssg62
g2170
sg55
(lp2177
g1586
asbag48
(g69
g50
NtRp2178
(dp2179
g53
(dp2180
g80
g81
ssg62
g2170
sg55
(lp2181
S':'
asbag48
(g69
g50
NtRp2182
(dp2183
g53
(dp2184
sg62
g2170
sg55
(lp2185
g48
(g49
g50
NtRp2186
(dp2187
g53
(dp2188
g61
I4
ssg62
g2182
sg55
(lp2189
g48
(g57
g50
NtRp2190
(dp2191
g53
(dp2192
g61
I3
ssg62
Nsg55
(lp2193
g48
(g64
g50
NtRp2194
(dp2195
g53
(dp2196
sg62
g2190
sg55
(lp2197
g48
(g69
g50
NtRp2198
(dp2199
g53
(dp2200
sg62
g2194
sg55
(lp2201
g48
(g49
g50
NtRp2202
(dp2203
g53
(dp2204
g61
I3
ssg62
g2198
sg55
(lp2205
S'1'
asbasbasbag48
(g64
g50
NtRp2206
(dp2207
g53
(dp2208
sg62
g2190
sg55
(lp2209
g48
(g69
g50
NtRp2210
(dp2211
g53
(dp2212
sg62
g2206
sg55
(lp2213
g48
(g49
g50
NtRp2214
(dp2215
g53
(dp2216
g61
I3
ssg62
g2210
sg55
(lp2217
S'99'
p2218
asbasbasbag48
(g64
g50
NtRp2219
(dp2220
g53
(dp2221
sg62
g2190
sg55
(lp2222
g48
(g69
g50
NtRp2223
(dp2224
g53
(dp2225
sg62
g2219
sg55
(lp2226
g48
(g49
g50
NtRp2227
(dp2228
g53
(dp2229
g61
I3
ssg62
g2223
sg55
(lp2230
S'2'
asbasbasbag48
(g64
g50
NtRp2231
(dp2232
g53
(dp2233
sg62
g2190
sg55
(lp2234
g48
(g69
g50
NtRp2235
(dp2236
g53
(dp2237
sg62
g2231
sg55
(lp2238
g48
(g49
g50
NtRp2239
(dp2240
g53
(dp2241
g61
I3
ssg62
g2235
sg55
(lp2242
S'datetime.datetime(2011, 9, 26, 6, 55, 33)'
p2243
asbasbasbag48
(g64
g50
NtRp2244
(dp2245
g53
(dp2246
sg62
g2190
sg55
(lp2247
g48
(g69
g50
NtRp2248
(dp2249
g53
(dp2250
sg62
g2244
sg55
(lp2251
g48
(g49
g50
NtRp2252
(dp2253
g53
(dp2254
g61
I3
ssg62
g2248
sg55
(lp2255
g1665
asbasbasbasbasbasbasbasbasbasbasbag48
(g64
g50
NtRp2256
(dp2257
g53
(dp2258
sg62
g58
sg55
(lp2259
g48
(g69
g50
NtRp2260
(dp2261
g53
(dp2262
g73
g74
ssg62
g2256
sg55
(lp2263
S'is_https'
p2264
asbag48
(g69
g50
NtRp2265
(dp2266
g53
(dp2267
g80
g81
ssg62
g2256
sg55
(lp2268
S':'
asbag48
(g69
g50
NtRp2269
(dp2270
g53
(dp2271
sg62
g2256
sg55
(lp2272
g48
(g49
g50
NtRp2273
(dp2274
g53
(dp2275
g61
I5
ssg62
g2269
sg55
(lp2276
g91
asbasbasbag48
(g64
g50
NtRp2277
(dp2278
g53
(dp2279
sg62
g58
sg55
(lp2280
g48
(g69
g50
NtRp2281
(dp2282
g53
(dp2283
g73
g74
ssg62
g2277
sg55
(lp2284
S'is_local'
p2285
asbag48
(g69
g50
NtRp2286
(dp2287
g53
(dp2288
g80
g81
ssg62
g2277
sg55
(lp2289
S':'
asbag48
(g69
g50
NtRp2290
(dp2291
g53
(dp2292
sg62
g2277
sg55
(lp2293
g48
(g49
g50
NtRp2294
(dp2295
g53
(dp2296
g61
I5
ssg62
g2290
sg55
(lp2297
g1774
asbasbasbag48
(g64
g50
NtRp2298
(dp2299
g53
(dp2300
sg62
g58
sg55
(lp2301
g48
(g69
g50
NtRp2302
(dp2303
g53
(dp2304
g73
g74
ssg62
g2298
sg55
(lp2305
S'is_restful'
p2306
asbag48
(g69
g50
NtRp2307
(dp2308
g53
(dp2309
g80
g81
ssg62
g2298
sg55
(lp2310
S':'
asbag48
(g69
g50
NtRp2311
(dp2312
g53
(dp2313
sg62
g2298
sg55
(lp2314
g48
(g49
g50
NtRp2315
(dp2316
g53
(dp2317
g61
I5
ssg62
g2311
sg55
(lp2318
g91
asbasbasbag48
(g64
g50
NtRp2319
(dp2320
g53
(dp2321
sg62
g58
sg55
(lp2322
g48
(g69
g50
NtRp2323
(dp2324
g53
(dp2325
g73
g74
ssg62
g2319
sg55
(lp2326
S'now'
p2327
asbag48
(g69
g50
NtRp2328
(dp2329
g53
(dp2330
g80
g81
ssg62
g2319
sg55
(lp2331
S':'
asbag48
(g69
g50
NtRp2332
(dp2333
g53
(dp2334
sg62
g2319
sg55
(lp2335
g48
(g49
g50
NtRp2336
(dp2337
g53
(dp2338
g61
I5
ssg62
g2332
sg55
(lp2339
S'datetime.datetime(2011, 11, 12, 17, 49, 54, 781000)'
p2340
asbasbasbag48
(g64
g50
NtRp2341
(dp2342
g53
(dp2343
sg62
g58
sg55
(lp2344
g48
(g69
g50
NtRp2345
(dp2346
g53
(dp2347
g73
g74
ssg62
g2341
sg55
(lp2348
S'post_vars'
p2349
asbag48
(g69
g50
NtRp2350
(dp2351
g53
(dp2352
g80
g81
ssg62
g2341
sg55
(lp2353
S':'
asbag48
(g69
g50
NtRp2354
(dp2355
g53
(dp2356
sg62
g2341
sg55
(lp2357
g48
(g49
g50
NtRp2358
(dp2359
g53
(dp2360
g61
I5
ssg62
g2354
sg55
(lp2361
g48
(g57
g50
NtRp2362
(dp2363
g53
(dp2364
g61
I4
ssg62
Nsg55
(lp2365
sbasbasbasbag48
(g64
g50
NtRp2366
(dp2367
g53
(dp2368
sg62
g58
sg55
(lp2369
g48
(g69
g50
NtRp2370
(dp2371
g53
(dp2372
g73
g74
ssg62
g2366
sg55
(lp2373
S'url'
p2374
asbag48
(g69
g50
NtRp2375
(dp2376
g53
(dp2377
g80
g81
ssg62
g2366
sg55
(lp2378
S':'
asbag48
(g69
g50
NtRp2379
(dp2380
g53
(dp2381
sg62
g2366
sg55
(lp2382
g48
(g49
g50
NtRp2383
(dp2384
g53
(dp2385
g61
I5
ssg62
g2379
sg55
(lp2386
S'/Casa_de_Apuestas/appadmin/index'
p2387
asbasbasbag48
(g64
g50
NtRp2388
(dp2389
g53
(dp2390
sg62
g58
sg55
(lp2391
g48
(g69
g50
NtRp2392
(dp2393
g53
(dp2394
g73
g74
ssg62
g2388
sg55
(lp2395
S'utcnow'
p2396
asbag48
(g69
g50
NtRp2397
(dp2398
g53
(dp2399
g80
g81
ssg62
g2388
sg55
(lp2400
S':'
asbag48
(g69
g50
NtRp2401
(dp2402
g53
(dp2403
sg62
g2388
sg55
(lp2404
g48
(g49
g50
NtRp2405
(dp2406
g53
(dp2407
g61
I5
ssg62
g2401
sg55
(lp2408
S'datetime.datetime(2011, 11, 12, 22, 19, 54, 781000)'
p2409
asbasbasbag48
(g64
g50
NtRp2410
(dp2411
g53
(dp2412
sg62
g58
sg55
(lp2413
g48
(g69
g50
NtRp2414
(dp2415
g53
(dp2416
g73
g74
ssg62
g2410
sg55
(lp2417
S'uuid'
p2418
asbag48
(g69
g50
NtRp2419
(dp2420
g53
(dp2421
g80
g81
ssg62
g2410
sg55
(lp2422
S':'
asbag48
(g69
g50
NtRp2423
(dp2424
g53
(dp2425
sg62
g2410
sg55
(lp2426
g48
(g49
g50
NtRp2427
(dp2428
g53
(dp2429
g61
I5
ssg62
g2423
sg55
(lp2430
S'Casa_de_Apuestas/127.0.0.1.2011-11-12.17-49-54.f7531d06-3110-4535-be56-e6c8ce9c5b72'
p2431
asbasbasbag48
(g64
g50
NtRp2432
(dp2433
g53
(dp2434
sg62
g58
sg55
(lp2435
g48
(g69
g50
NtRp2436
(dp2437
g53
(dp2438
g73
g74
ssg62
g2432
sg55
(lp2439
S'vars'
p2440
asbag48
(g69
g50
NtRp2441
(dp2442
g53
(dp2443
g80
g81
ssg62
g2432
sg55
(lp2444
S':'
asbag48
(g69
g50
NtRp2445
(dp2446
g53
(dp2447
sg62
g2432
sg55
(lp2448
g48
(g49
g50
NtRp2449
(dp2450
g53
(dp2451
g61
I5
ssg62
g2445
sg55
(lp2452
g48
(g57
g50
NtRp2453
(dp2454
g53
(dp2455
g61
I4
ssg62
Nsg55
(lp2456
sbasbasbasbag48
(g64
g50
NtRp2457
(dp2458
g53
(dp2459
sg62
g58
sg55
(lp2460
g48
(g69
g50
NtRp2461
(dp2462
g53
(dp2463
g73
g74
ssg62
g2457
sg55
(lp2464
S'wsgi'
p2465
asbag48
(g69
g50
NtRp2466
(dp2467
g53
(dp2468
g80
g81
ssg62
g2457
sg55
(lp2469
S':'
asbag48
(g69
g50
NtRp2470
(dp2471
g53
(dp2472
sg62
g2457
sg55
(lp2473
g48
(g49
g50
NtRp2474
(dp2475
g53
(dp2476
g61
I5
ssg62
g2470
sg55
(lp2477
g48
(g57
g50
NtRp2478
(dp2479
g53
(dp2480
g61
I4
ssg62
Nsg55
(lp2481
g48
(g64
g50
NtRp2482
(dp2483
g53
(dp2484
sg62
g2478
sg55
(lp2485
g48
(g69
g50
NtRp2486
(dp2487
g53
(dp2488
g73
g74
ssg62
g2482
sg55
(lp2489
S'environ'
p2490
asbag48
(g69
g50
NtRp2491
(dp2492
g53
(dp2493
g80
g81
ssg62
g2482
sg55
(lp2494
S':'
asbag48
(g69
g50
NtRp2495
(dp2496
g53
(dp2497
sg62
g2482
sg55
(lp2498
g48
(g49
g50
NtRp2499
(dp2500
g53
(dp2501
g61
I4
ssg62
g2495
sg55
(lp2502
g48
(g57
g50
NtRp2503
(dp2504
g53
(dp2505
g61
I3
ssg62
Nsg55
(lp2506
g48
(g64
g50
NtRp2507
(dp2508
g53
(dp2509
sg62
g2503
sg55
(lp2510
g48
(g69
g50
NtRp2511
(dp2512
g53
(dp2513
g73
g74
ssg62
g2507
sg55
(lp2514
S'HTTP_ACCEPT'
p2515
asbag48
(g69
g50
NtRp2516
(dp2517
g53
(dp2518
g80
g81
ssg62
g2507
sg55
(lp2519
S':'
asbag48
(g69
g50
NtRp2520
(dp2521
g53
(dp2522
sg62
g2507
sg55
(lp2523
g48
(g49
g50
NtRp2524
(dp2525
g53
(dp2526
g61
I3
ssg62
g2520
sg55
(lp2527
g1098
asbasbasbag48
(g64
g50
NtRp2528
(dp2529
g53
(dp2530
sg62
g2503
sg55
(lp2531
g48
(g69
g50
NtRp2532
(dp2533
g53
(dp2534
g73
g74
ssg62
g2528
sg55
(lp2535
S'HTTP_ACCEPT_CHARSET'
p2536
asbag48
(g69
g50
NtRp2537
(dp2538
g53
(dp2539
g80
g81
ssg62
g2528
sg55
(lp2540
S':'
asbag48
(g69
g50
NtRp2541
(dp2542
g53
(dp2543
sg62
g2528
sg55
(lp2544
g48
(g49
g50
NtRp2545
(dp2546
g53
(dp2547
g61
I3
ssg62
g2541
sg55
(lp2548
g1120
asbasbasbag48
(g64
g50
NtRp2549
(dp2550
g53
(dp2551
sg62
g2503
sg55
(lp2552
g48
(g69
g50
NtRp2553
(dp2554
g53
(dp2555
g73
g74
ssg62
g2549
sg55
(lp2556
S'HTTP_ACCEPT_ENCODING'
p2557
asbag48
(g69
g50
NtRp2558
(dp2559
g53
(dp2560
g80
g81
ssg62
g2549
sg55
(lp2561
S':'
asbag48
(g69
g50
NtRp2562
(dp2563
g53
(dp2564
sg62
g2549
sg55
(lp2565
g48
(g49
g50
NtRp2566
(dp2567
g53
(dp2568
g61
I3
ssg62
g2562
sg55
(lp2569
g1142
asbasbasbag48
(g64
g50
NtRp2570
(dp2571
g53
(dp2572
sg62
g2503
sg55
(lp2573
g48
(g69
g50
NtRp2574
(dp2575
g53
(dp2576
g73
g74
ssg62
g2570
sg55
(lp2577
S'HTTP_ACCEPT_LANGUAGE'
p2578
asbag48
(g69
g50
NtRp2579
(dp2580
g53
(dp2581
g80
g81
ssg62
g2570
sg55
(lp2582
S':'
asbag48
(g69
g50
NtRp2583
(dp2584
g53
(dp2585
sg62
g2570
sg55
(lp2586
g48
(g49
g50
NtRp2587
(dp2588
g53
(dp2589
g61
I3
ssg62
g2583
sg55
(lp2590
g1164
asbasbasbag48
(g64
g50
NtRp2591
(dp2592
g53
(dp2593
sg62
g2503
sg55
(lp2594
g48
(g69
g50
NtRp2595
(dp2596
g53
(dp2597
g73
g74
ssg62
g2591
sg55
(lp2598
S'HTTP_CACHE_CONTROL'
p2599
asbag48
(g69
g50
NtRp2600
(dp2601
g53
(dp2602
g80
g81
ssg62
g2591
sg55
(lp2603
S':'
asbag48
(g69
g50
NtRp2604
(dp2605
g53
(dp2606
sg62
g2591
sg55
(lp2607
g48
(g49
g50
NtRp2608
(dp2609
g53
(dp2610
g61
I3
ssg62
g2604
sg55
(lp2611
g1186
asbasbasbag48
(g64
g50
NtRp2612
(dp2613
g53
(dp2614
sg62
g2503
sg55
(lp2615
g48
(g69
g50
NtRp2616
(dp2617
g53
(dp2618
g73
g74
ssg62
g2612
sg55
(lp2619
S'HTTP_CONNECTION'
p2620
asbag48
(g69
g50
NtRp2621
(dp2622
g53
(dp2623
g80
g81
ssg62
g2612
sg55
(lp2624
S':'
asbag48
(g69
g50
NtRp2625
(dp2626
g53
(dp2627
sg62
g2612
sg55
(lp2628
g48
(g49
g50
NtRp2629
(dp2630
g53
(dp2631
g61
I3
ssg62
g2625
sg55
(lp2632
g1208
asbasbasbag48
(g64
g50
NtRp2633
(dp2634
g53
(dp2635
sg62
g2503
sg55
(lp2636
g48
(g69
g50
NtRp2637
(dp2638
g53
(dp2639
g73
g74
ssg62
g2633
sg55
(lp2640
S'HTTP_COOKIE'
p2641
asbag48
(g69
g50
NtRp2642
(dp2643
g53
(dp2644
g80
g81
ssg62
g2633
sg55
(lp2645
S':'
asbag48
(g69
g50
NtRp2646
(dp2647
g53
(dp2648
sg62
g2633
sg55
(lp2649
g48
(g49
g50
NtRp2650
(dp2651
g53
(dp2652
g61
I3
ssg62
g2646
sg55
(lp2653
g1230
asbasbasbag48
(g64
g50
NtRp2654
(dp2655
g53
(dp2656
sg62
g2503
sg55
(lp2657
g48
(g69
g50
NtRp2658
(dp2659
g53
(dp2660
g73
g74
ssg62
g2654
sg55
(lp2661
S'HTTP_HOST'
p2662
asbag48
(g69
g50
NtRp2663
(dp2664
g53
(dp2665
g80
g81
ssg62
g2654
sg55
(lp2666
S':'
asbag48
(g69
g50
NtRp2667
(dp2668
g53
(dp2669
sg62
g2654
sg55
(lp2670
g48
(g49
g50
NtRp2671
(dp2672
g53
(dp2673
g61
I3
ssg62
g2667
sg55
(lp2674
g1252
asbasbasbag48
(g64
g50
NtRp2675
(dp2676
g53
(dp2677
sg62
g2503
sg55
(lp2678
g48
(g69
g50
NtRp2679
(dp2680
g53
(dp2681
g73
g74
ssg62
g2675
sg55
(lp2682
S'HTTP_REFERER'
p2683
asbag48
(g69
g50
NtRp2684
(dp2685
g53
(dp2686
g80
g81
ssg62
g2675
sg55
(lp2687
S':'
asbag48
(g69
g50
NtRp2688
(dp2689
g53
(dp2690
sg62
g2675
sg55
(lp2691
g48
(g49
g50
NtRp2692
(dp2693
g53
(dp2694
g61
I3
ssg62
g2688
sg55
(lp2695
g1274
asbasbasbag48
(g64
g50
NtRp2696
(dp2697
g53
(dp2698
sg62
g2503
sg55
(lp2699
g48
(g69
g50
NtRp2700
(dp2701
g53
(dp2702
g73
g74
ssg62
g2696
sg55
(lp2703
S'HTTP_USER_AGENT'
p2704
asbag48
(g69
g50
NtRp2705
(dp2706
g53
(dp2707
g80
g81
ssg62
g2696
sg55
(lp2708
S':'
asbag48
(g69
g50
NtRp2709
(dp2710
g53
(dp2711
sg62
g2696
sg55
(lp2712
g48
(g49
g50
NtRp2713
(dp2714
g53
(dp2715
g61
I3
ssg62
g2709
sg55
(lp2716
g1296
asbasbasbag48
(g64
g50
NtRp2717
(dp2718
g53
(dp2719
sg62
g2503
sg55
(lp2720
g48
(g69
g50
NtRp2721
(dp2722
g53
(dp2723
g73
g74
ssg62
g2717
sg55
(lp2724
S'PATH_INFO'
p2725
asbag48
(g69
g50
NtRp2726
(dp2727
g53
(dp2728
g80
g81
ssg62
g2717
sg55
(lp2729
S':'
asbag48
(g69
g50
NtRp2730
(dp2731
g53
(dp2732
sg62
g2717
sg55
(lp2733
g48
(g49
g50
NtRp2734
(dp2735
g53
(dp2736
g61
I3
ssg62
g2730
sg55
(lp2737
g1339
asbasbasbag48
(g64
g50
NtRp2738
(dp2739
g53
(dp2740
sg62
g2503
sg55
(lp2741
g48
(g69
g50
NtRp2742
(dp2743
g53
(dp2744
g73
g74
ssg62
g2738
sg55
(lp2745
S'QUERY_STRING'
p2746
asbag48
(g69
g50
NtRp2747
(dp2748
g53
(dp2749
g80
g81
ssg62
g2738
sg55
(lp2750
S':'
asbag48
(g69
g50
NtRp2751
(dp2752
g53
(dp2753
sg62
g2738
sg55
(lp2754
g48
(g49
g50
NtRp2755
(dp2756
g53
(dp2757
g61
I3
ssg62
g2751
sg55
(lp2758
S''
asbasbasbag48
(g64
g50
NtRp2759
(dp2760
g53
(dp2761
sg62
g2503
sg55
(lp2762
g48
(g69
g50
NtRp2763
(dp2764
g53
(dp2765
g73
g74
ssg62
g2759
sg55
(lp2766
S'REMOTE_ADDR'
p2767
asbag48
(g69
g50
NtRp2768
(dp2769
g53
(dp2770
g80
g81
ssg62
g2759
sg55
(lp2771
S':'
asbag48
(g69
g50
NtRp2772
(dp2773
g53
(dp2774
sg62
g2759
sg55
(lp2775
g48
(g49
g50
NtRp2776
(dp2777
g53
(dp2778
g61
I3
ssg62
g2772
sg55
(lp2779
g181
asbasbasbag48
(g64
g50
NtRp2780
(dp2781
g53
(dp2782
sg62
g2503
sg55
(lp2783
g48
(g69
g50
NtRp2784
(dp2785
g53
(dp2786
g73
g74
ssg62
g2780
sg55
(lp2787
S'REMOTE_PORT'
p2788
asbag48
(g69
g50
NtRp2789
(dp2790
g53
(dp2791
g80
g81
ssg62
g2780
sg55
(lp2792
S':'
asbag48
(g69
g50
NtRp2793
(dp2794
g53
(dp2795
sg62
g2780
sg55
(lp2796
g48
(g49
g50
NtRp2797
(dp2798
g53
(dp2799
g61
I3
ssg62
g2793
sg55
(lp2800
g1403
asbasbasbag48
(g64
g50
NtRp2801
(dp2802
g53
(dp2803
sg62
g2503
sg55
(lp2804
g48
(g69
g50
NtRp2805
(dp2806
g53
(dp2807
g73
g74
ssg62
g2801
sg55
(lp2808
S'REQUEST_METHOD'
p2809
asbag48
(g69
g50
NtRp2810
(dp2811
g53
(dp2812
g80
g81
ssg62
g2801
sg55
(lp2813
S':'
asbag48
(g69
g50
NtRp2814
(dp2815
g53
(dp2816
sg62
g2801
sg55
(lp2817
g48
(g49
g50
NtRp2818
(dp2819
g53
(dp2820
g61
I3
ssg62
g2814
sg55
(lp2821
g1425
asbasbasbag48
(g64
g50
NtRp2822
(dp2823
g53
(dp2824
sg62
g2503
sg55
(lp2825
g48
(g69
g50
NtRp2826
(dp2827
g53
(dp2828
g73
g74
ssg62
g2822
sg55
(lp2829
S'SCRIPT_NAME'
p2830
asbag48
(g69
g50
NtRp2831
(dp2832
g53
(dp2833
g80
g81
ssg62
g2822
sg55
(lp2834
S':'
asbag48
(g69
g50
NtRp2835
(dp2836
g53
(dp2837
sg62
g2822
sg55
(lp2838
g48
(g49
g50
NtRp2839
(dp2840
g53
(dp2841
g61
I3
ssg62
g2835
sg55
(lp2842
S''
asbasbasbag48
(g64
g50
NtRp2843
(dp2844
g53
(dp2845
sg62
g2503
sg55
(lp2846
g48
(g69
g50
NtRp2847
(dp2848
g53
(dp2849
g73
g74
ssg62
g2843
sg55
(lp2850
S'SERVER_NAME'
p2851
asbag48
(g69
g50
NtRp2852
(dp2853
g53
(dp2854
g80
g81
ssg62
g2843
sg55
(lp2855
S':'
asbag48
(g69
g50
NtRp2856
(dp2857
g53
(dp2858
sg62
g2843
sg55
(lp2859
g48
(g49
g50
NtRp2860
(dp2861
g53
(dp2862
g61
I3
ssg62
g2856
sg55
(lp2863
g1468
asbasbasbag48
(g64
g50
NtRp2864
(dp2865
g53
(dp2866
sg62
g2503
sg55
(lp2867
g48
(g69
g50
NtRp2868
(dp2869
g53
(dp2870
g73
g74
ssg62
g2864
sg55
(lp2871
S'SERVER_PORT'
p2872
asbag48
(g69
g50
NtRp2873
(dp2874
g53
(dp2875
g80
g81
ssg62
g2864
sg55
(lp2876
S':'
asbag48
(g69
g50
NtRp2877
(dp2878
g53
(dp2879
sg62
g2864
sg55
(lp2880
g48
(g49
g50
NtRp2881
(dp2882
g53
(dp2883
g61
I3
ssg62
g2877
sg55
(lp2884
g1490
asbasbasbag48
(g64
g50
NtRp2885
(dp2886
g53
(dp2887
sg62
g2503
sg55
(lp2888
g48
(g69
g50
NtRp2889
(dp2890
g53
(dp2891
g73
g74
ssg62
g2885
sg55
(lp2892
S'SERVER_PROTOCOL'
p2893
asbag48
(g69
g50
NtRp2894
(dp2895
g53
(dp2896
g80
g81
ssg62
g2885
sg55
(lp2897
S':'
asbag48
(g69
g50
NtRp2898
(dp2899
g53
(dp2900
sg62
g2885
sg55
(lp2901
g48
(g49
g50
NtRp2902
(dp2903
g53
(dp2904
g61
I3
ssg62
g2898
sg55
(lp2905
g1512
asbasbasbag48
(g64
g50
NtRp2906
(dp2907
g53
(dp2908
sg62
g2503
sg55
(lp2909
g48
(g69
g50
NtRp2910
(dp2911
g53
(dp2912
g73
g74
ssg62
g2906
sg55
(lp2913
S'SERVER_SOFTWARE'
p2914
asbag48
(g69
g50
NtRp2915
(dp2916
g53
(dp2917
g80
g81
ssg62
g2906
sg55
(lp2918
S':'
asbag48
(g69
g50
NtRp2919
(dp2920
g53
(dp2921
sg62
g2906
sg55
(lp2922
g48
(g49
g50
NtRp2923
(dp2924
g53
(dp2925
g61
I3
ssg62
g2919
sg55
(lp2926
g1534
asbasbasbag48
(g64
g50
NtRp2927
(dp2928
g53
(dp2929
sg62
g2503
sg55
(lp2930
g48
(g69
g50
NtRp2931
(dp2932
g53
(dp2933
g73
g74
ssg62
g2927
sg55
(lp2934
S'wsgi.errors'
p2935
asbag48
(g69
g50
NtRp2936
(dp2937
g53
(dp2938
g80
g81
ssg62
g2927
sg55
(lp2939
S':'
asbag48
(g69
g50
NtRp2940
(dp2941
g53
(dp2942
sg62
g2927
sg55
(lp2943
g48
(g49
g50
NtRp2944
(dp2945
g53
(dp2946
g61
I3
ssg62
g2940
sg55
(lp2947
S"<open file '<stderr>', mode 'w' at 0x01FA00B0>"
p2948
asbasbasbag48
(g64
g50
NtRp2949
(dp2950
g53
(dp2951
sg62
g2503
sg55
(lp2952
g48
(g69
g50
NtRp2953
(dp2954
g53
(dp2955
g73
g74
ssg62
g2949
sg55
(lp2956
S'wsgi.file_wrapper'
p2957
asbag48
(g69
g50
NtRp2958
(dp2959
g53
(dp2960
g80
g81
ssg62
g2949
sg55
(lp2961
S':'
asbag48
(g69
g50
NtRp2962
(dp2963
g53
(dp2964
sg62
g2949
sg55
(lp2965
g48
(g49
g50
NtRp2966
(dp2967
g53
(dp2968
g61
I3
ssg62
g2962
sg55
(lp2969
S'<class wsgiref.util.FileWrapper at 0x02AB0D80>'
p2970
asbasbasbag48
(g64
g50
NtRp2971
(dp2972
g53
(dp2973
sg62
g2503
sg55
(lp2974
g48
(g69
g50
NtRp2975
(dp2976
g53
(dp2977
g73
g74
ssg62
g2971
sg55
(lp2978
S'wsgi.input'
p2979
asbag48
(g69
g50
NtRp2980
(dp2981
g53
(dp2982
g80
g81
ssg62
g2971
sg55
(lp2983
S':'
asbag48
(g69
g50
NtRp2984
(dp2985
g53
(dp2986
sg62
g2971
sg55
(lp2987
g48
(g49
g50
NtRp2988
(dp2989
g53
(dp2990
g61
I3
ssg62
g2984
sg55
(lp2991
S'<cStringIO.StringO object at 0x02E92420>'
p2992
asbasbasbag48
(g64
g50
NtRp2993
(dp2994
g53
(dp2995
sg62
g2503
sg55
(lp2996
g48
(g69
g50
NtRp2997
(dp2998
g53
(dp2999
g73
g74
ssg62
g2993
sg55
(lp3000
S'wsgi.multiprocess'
p3001
asbag48
(g69
g50
NtRp3002
(dp3003
g53
(dp3004
g80
g81
ssg62
g2993
sg55
(lp3005
S':'
asbag48
(g69
g50
NtRp3006
(dp3007
g53
(dp3008
sg62
g2993
sg55
(lp3009
g48
(g49
g50
NtRp3010
(dp3011
g53
(dp3012
g61
I3
ssg62
g3006
sg55
(lp3013
g91
asbasbasbag48
(g64
g50
NtRp3014
(dp3015
g53
(dp3016
sg62
g2503
sg55
(lp3017
g48
(g69
g50
NtRp3018
(dp3019
g53
(dp3020
g73
g74
ssg62
g3014
sg55
(lp3021
S'wsgi.multithread'
p3022
asbag48
(g69
g50
NtRp3023
(dp3024
g53
(dp3025
g80
g81
ssg62
g3014
sg55
(lp3026
S':'
asbag48
(g69
g50
NtRp3027
(dp3028
g53
(dp3029
sg62
g3014
sg55
(lp3030
g48
(g49
g50
NtRp3031
(dp3032
g53
(dp3033
g61
I3
ssg62
g3027
sg55
(lp3034
g1774
asbasbasbag48
(g64
g50
NtRp3035
(dp3036
g53
(dp3037
sg62
g2503
sg55
(lp3038
g48
(g69
g50
NtRp3039
(dp3040
g53
(dp3041
g73
g74
ssg62
g3035
sg55
(lp3042
S'wsgi.run_once'
p3043
asbag48
(g69
g50
NtRp3044
(dp3045
g53
(dp3046
g80
g81
ssg62
g3035
sg55
(lp3047
S':'
asbag48
(g69
g50
NtRp3048
(dp3049
g53
(dp3050
sg62
g3035
sg55
(lp3051
g48
(g49
g50
NtRp3052
(dp3053
g53
(dp3054
g61
I3
ssg62
g3048
sg55
(lp3055
g91
asbasbasbag48
(g64
g50
NtRp3056
(dp3057
g53
(dp3058
sg62
g2503
sg55
(lp3059
g48
(g69
g50
NtRp3060
(dp3061
g53
(dp3062
g73
g74
ssg62
g3056
sg55
(lp3063
S'wsgi.url_scheme'
p3064
asbag48
(g69
g50
NtRp3065
(dp3066
g53
(dp3067
g80
g81
ssg62
g3056
sg55
(lp3068
S':'
asbag48
(g69
g50
NtRp3069
(dp3070
g53
(dp3071
sg62
g3056
sg55
(lp3072
g48
(g49
g50
NtRp3073
(dp3074
g53
(dp3075
g61
I3
ssg62
g3069
sg55
(lp3076
g1817
asbasbasbag48
(g64
g50
NtRp3077
(dp3078
g53
(dp3079
sg62
g2503
sg55
(lp3080
g48
(g69
g50
NtRp3081
(dp3082
g53
(dp3083
g73
g74
ssg62
g3077
sg55
(lp3084
S'wsgi.version'
p3085
asbag48
(g69
g50
NtRp3086
(dp3087
g53
(dp3088
g80
g81
ssg62
g3077
sg55
(lp3089
S':'
asbag48
(g69
g50
NtRp3090
(dp3091
g53
(dp3092
sg62
g3077
sg55
(lp3093
g48
(g49
g50
NtRp3094
(dp3095
g53
(dp3096
g61
I3
ssg62
g3090
sg55
(lp3097
S'1'
asbasbasbasbasbasbasbasbasbasbasbasbasbsS'frames'
p3098
(lp3099
(dp3100
S'file'
p3101
S'C:\\Python32\\web2py\\gluon\\restricted.py'
p3102
sS'dump'
p3103
(dp3104
sS'lnum'
p3105
I194
sS'lines'
p3106
(dp3107
sS'call'
p3108
S"(code='# -*- coding: utf-8 -*-\\n\\n#######################...ender\\nmail.settings.login = settings.email_login\\n', environment={'A': <class 'gluon.html.A'>, 'B': <class 'gluon.html.B'>, 'BEAUTIFY': <class 'gluon.html.BEAUTIFY'>, 'BODY': <class 'gluon.html.BODY'>, 'BR': <class 'gluon.html.BR'>, 'BUTTON': <class 'gluon.html.BUTTON'>, 'CAT': <class 'gluon.html.CAT'>, 'CENTER': <class 'gluon.html.CENTER'>, 'CLEANUP': <class 'gluon.validators.CLEANUP'>, 'CODE': <class 'gluon.html.CODE'>, ...}, layer=r'C:\\Python32\\web2py\\applications\\Casa_de_Apuestas\\models\\db.py')"
p3109
sS'func'
p3110
S'restricted'
p3111
sa(dp3112
g3101
S'C:\\Python32\\web2py\\applications\\Casa_de_Apuestas\\models\\db.py'
p3113
sg3103
(dp3114
sg3105
I11
sg3106
(dp3115
I6
S'#########################################################################'
p3116
sI7
S''
sI8
S'if not request.env.web2py_runtime_gae:'
p3117
sI9
S'    ## if NOT running on Google App Engine use SQLite or other DB'
p3118
sI10
S"  ##  db = DAL('sqlite://storage.sqlite')"
p3119
sI11
S"    db = DAL('mysql://root:''@localhost/test')"
p3120
sI12
S"    db.define_table('categorias',"
p3121
sI13
S"        Field('nombre'),"
p3122
sI14
S"        Field('descripcion', 'text'))"
p3123
sI15
S"    db.define_table('eventos',"
p3124
ssg3108
S'()'
p3125
sg3110
S'<module>'
p3126
sa(dp3127
g3101
S'C:\\Python32\\web2py\\gluon\\dal.py'
p3128
sg3103
(dp3129
sg3105
I4156
sg3106
(dp3130
sg3108
S"(self=<DAL {'_lastsql': '', '_db_codec': 'UTF-8', '_ti...table)s', '_pool_size': 0, '_common_fields': []}>, uri='mysql://root:@localhost/test', pool_size=0, folder=None, db_codec='UTF-8', check_reserved=None, migrate=True, fake_migrate=False, migrate_enabled=True, fake_migrate_all=False, decode_credentials=False, driver_args=None, adapter_args=None, attempts=5, auto_import=False)"
p3131
sg3110
g41
sasS'pyver'
p3132
S'Python 2.5.4: C:\\Python32\\web2py\\web2py.exe'
p3133
sS'session'
p3134
g48
(g49
g50
NtRp3135
(dp3136
g53
(dp3137
sg55
(lp3138
g48
(g57
g50
NtRp3139
(dp3140
g53
(dp3141
g61
I5
ssg62
Nsg55
(lp3142
g48
(g64
g50
NtRp3143
(dp3144
g53
(dp3145
sg62
g3139
sg55
(lp3146
g48
(g69
g50
NtRp3147
(dp3148
g53
(dp3149
g73
g74
ssg62
g3143
sg55
(lp3150
S'last_query'
p3151
asbag48
(g69
g50
NtRp3152
(dp3153
g53
(dp3154
g80
g81
ssg62
g3143
sg55
(lp3155
S':'
asbag48
(g69
g50
NtRp3156
(dp3157
g53
(dp3158
sg62
g3143
sg55
(lp3159
g48
(g49
g50
NtRp3160
(dp3161
g53
(dp3162
g61
I5
ssg62
g3156
sg55
(lp3163
S'db.eventosparticipantes.eventos_id>0'
p3164
asbasbasbasbasbsS'etype'
p3165
S"<type 'exceptions.RuntimeError'>"
p3166
sS'date'
p3167
S'Sat Nov 12 17:50:04 2011'
p3168
sS'response'
p3169
g48
(g49
g50
NtRp3170
(dp3171
g53
(dp3172
sg55
(lp3173
g48
(g57
g50
NtRp3174
(dp3175
g53
(dp3176
g61
I5
ssg62
Nsg55
(lp3177
g48
(g64
g50
NtRp3178
(dp3179
g53
(dp3180
sg62
g3174
sg55
(lp3181
g48
(g69
g50
NtRp3182
(dp3183
g53
(dp3184
g73
g74
ssg62
g3178
sg55
(lp3185
g146
asbag48
(g69
g50
NtRp3186
(dp3187
g53
(dp3188
g80
g81
ssg62
g3178
sg55
(lp3189
S':'
asbag48
(g69
g50
NtRp3190
(dp3191
g53
(dp3192
sg62
g3178
sg55
(lp3193
g48
(g49
g50
NtRp3194
(dp3195
g53
(dp3196
g61
I5
ssg62
g3190
sg55
(lp3197
S'<cStringIO.StringO object at 0x0698DDE0>'
p3198
asbasbasbag48
(g64
g50
NtRp3199
(dp3200
g53
(dp3201
sg62
g3174
sg55
(lp3202
g48
(g69
g50
NtRp3203
(dp3204
g53
(dp3205
g73
g74
ssg62
g3199
sg55
(lp3206
g212
asbag48
(g69
g50
NtRp3207
(dp3208
g53
(dp3209
g80
g81
ssg62
g3199
sg55
(lp3210
S':'
asbag48
(g69
g50
NtRp3211
(dp3212
g53
(dp3213
sg62
g3199
sg55
(lp3214
g48
(g49
g50
NtRp3215
(dp3216
g53
(dp3217
g61
I5
ssg62
g3211
sg55
(lp3218
g48
(g57
g50
NtRp3219
(dp3220
g53
(dp3221
g61
I4
ssg62
Nsg55
(lp3222
g48
(g64
g50
NtRp3223
(dp3224
g53
(dp3225
sg62
g3219
sg55
(lp3226
g48
(g69
g50
NtRp3227
(dp3228
g53
(dp3229
g73
g74
ssg62
g3223
sg55
(lp3230
S'session_id_casa_de_apuestas'
p3231
asbag48
(g69
g50
NtRp3232
(dp3233
g53
(dp3234
g80
g81
ssg62
g3223
sg55
(lp3235
S':'
asbag48
(g69
g50
NtRp3236
(dp3237
g53
(dp3238
sg62
g3223
sg55
(lp3239
g48
(g49
g50
NtRp3240
(dp3241
g53
(dp3242
g61
I4
ssg62
g3236
sg55
(lp3243
g48
(g57
g50
NtRp3244
(dp3245
g53
(dp3246
g61
I3
ssg62
Nsg55
(lp3247
g48
(g64
g50
NtRp3248
(dp3249
g53
(dp3250
sg62
g3244
sg55
(lp3251
g48
(g69
g50
NtRp3252
(dp3253
g53
(dp3254
g73
g74
ssg62
g3248
sg55
(lp3255
g262
asbag48
(g69
g50
NtRp3256
(dp3257
g53
(dp3258
g80
g81
ssg62
g3248
sg55
(lp3259
S':'
asbag48
(g69
g50
NtRp3260
(dp3261
g53
(dp3262
sg62
g3248
sg55
(lp3263
g48
(g49
g50
NtRp3264
(dp3265
g53
(dp3266
g61
I3
ssg62
g3260
sg55
(lp3267
S''
asbasbasbag48
(g64
g50
NtRp3268
(dp3269
g53
(dp3270
sg62
g3244
sg55
(lp3271
g48
(g69
g50
NtRp3272
(dp3273
g53
(dp3274
g73
g74
ssg62
g3268
sg55
(lp3275
g283
asbag48
(g69
g50
NtRp3276
(dp3277
g53
(dp3278
g80
g81
ssg62
g3268
sg55
(lp3279
S':'
asbag48
(g69
g50
NtRp3280
(dp3281
g53
(dp3282
sg62
g3268
sg55
(lp3283
g48
(g49
g50
NtRp3284
(dp3285
g53
(dp3286
g61
I3
ssg62
g3280
sg55
(lp3287
S''
asbasbasbag48
(g64
g50
NtRp3288
(dp3289
g53
(dp3290
sg62
g3244
sg55
(lp3291
g48
(g69
g50
NtRp3292
(dp3293
g53
(dp3294
g73
g74
ssg62
g3288
sg55
(lp3295
g304
asbag48
(g69
g50
NtRp3296
(dp3297
g53
(dp3298
g80
g81
ssg62
g3288
sg55
(lp3299
S':'
asbag48
(g69
g50
NtRp3300
(dp3301
g53
(dp3302
sg62
g3288
sg55
(lp3303
g48
(g49
g50
NtRp3304
(dp3305
g53
(dp3306
g61
I3
ssg62
g3300
sg55
(lp3307
S''
asbasbasbag48
(g64
g50
NtRp3308
(dp3309
g53
(dp3310
sg62
g3244
sg55
(lp3311
g48
(g69
g50
NtRp3312
(dp3313
g53
(dp3314
g73
g74
ssg62
g3308
sg55
(lp3315
g325
asbag48
(g69
g50
NtRp3316
(dp3317
g53
(dp3318
g80
g81
ssg62
g3308
sg55
(lp3319
S':'
asbag48
(g69
g50
NtRp3320
(dp3321
g53
(dp3322
sg62
g3308
sg55
(lp3323
g48
(g49
g50
NtRp3324
(dp3325
g53
(dp3326
g61
I3
ssg62
g3320
sg55
(lp3327
S''
asbasbasbag48
(g64
g50
NtRp3328
(dp3329
g53
(dp3330
sg62
g3244
sg55
(lp3331
g48
(g69
g50
NtRp3332
(dp3333
g53
(dp3334
g73
g74
ssg62
g3328
sg55
(lp3335
g346
asbag48
(g69
g50
NtRp3336
(dp3337
g53
(dp3338
g80
g81
ssg62
g3328
sg55
(lp3339
S':'
asbag48
(g69
g50
NtRp3340
(dp3341
g53
(dp3342
sg62
g3328
sg55
(lp3343
g48
(g49
g50
NtRp3344
(dp3345
g53
(dp3346
g61
I3
ssg62
g3340
sg55
(lp3347
S'/'
asbasbasbag48
(g64
g50
NtRp3348
(dp3349
g53
(dp3350
sg62
g3244
sg55
(lp3351
g48
(g69
g50
NtRp3352
(dp3353
g53
(dp3354
g73
g74
ssg62
g3348
sg55
(lp3355
g367
asbag48
(g69
g50
NtRp3356
(dp3357
g53
(dp3358
g80
g81
ssg62
g3348
sg55
(lp3359
S':'
asbag48
(g69
g50
NtRp3360
(dp3361
g53
(dp3362
sg62
g3348
sg55
(lp3363
g48
(g49
g50
NtRp3364
(dp3365
g53
(dp3366
g61
I3
ssg62
g3360
sg55
(lp3367
S''
asbasbasbag48
(g64
g50
NtRp3368
(dp3369
g53
(dp3370
sg62
g3244
sg55
(lp3371
g48
(g69
g50
NtRp3372
(dp3373
g53
(dp3374
g73
g74
ssg62
g3368
sg55
(lp3375
g388
asbag48
(g69
g50
NtRp3376
(dp3377
g53
(dp3378
g80
g81
ssg62
g3368
sg55
(lp3379
S':'
asbag48
(g69
g50
NtRp3380
(dp3381
g53
(dp3382
sg62
g3368
sg55
(lp3383
g48
(g49
g50
NtRp3384
(dp3385
g53
(dp3386
g61
I3
ssg62
g3380
sg55
(lp3387
S''
asbasbasbasbasbasbasbasbasbasbasbag48
(g64
g50
NtRp3388
(dp3389
g53
(dp3390
sg62
g3174
sg55
(lp3391
g48
(g69
g50
NtRp3392
(dp3393
g53
(dp3394
g73
g74
ssg62
g3388
sg55
(lp3395
S'files'
p3396
asbag48
(g69
g50
NtRp3397
(dp3398
g53
(dp3399
g80
g81
ssg62
g3388
sg55
(lp3400
S':'
asbag48
(g69
g50
NtRp3401
(dp3402
g53
(dp3403
sg62
g3388
sg55
(lp3404
g48
(g49
g50
NtRp3405
(dp3406
g53
(dp3407
g61
I5
ssg62
g3401
sg55
(lp3408
g48
(g57
g50
NtRp3409
(dp3410
g53
(dp3411
g61
I4
ssg62
Nsg55
(lp3412
sbasbasbasbag48
(g64
g50
NtRp3413
(dp3414
g53
(dp3415
sg62
g3174
sg55
(lp3416
g48
(g69
g50
NtRp3417
(dp3418
g53
(dp3419
g73
g74
ssg62
g3413
sg55
(lp3420
S'flash'
p3421
asbag48
(g69
g50
NtRp3422
(dp3423
g53
(dp3424
g80
g81
ssg62
g3413
sg55
(lp3425
S':'
asbag48
(g69
g50
NtRp3426
(dp3427
g53
(dp3428
sg62
g3413
sg55
(lp3429
g48
(g49
g50
NtRp3430
(dp3431
g53
(dp3432
g61
I5
ssg62
g3426
sg55
(lp3433
S''
asbasbasbag48
(g64
g50
NtRp3434
(dp3435
g53
(dp3436
sg62
g3174
sg55
(lp3437
g48
(g69
g50
NtRp3438
(dp3439
g53
(dp3440
g73
g74
ssg62
g3434
sg55
(lp3441
S'generic_patterns'
p3442
asbag48
(g69
g50
NtRp3443
(dp3444
g53
(dp3445
g80
g81
ssg62
g3434
sg55
(lp3446
S':'
asbag48
(g69
g50
NtRp3447
(dp3448
g53
(dp3449
sg62
g3434
sg55
(lp3450
g48
(g49
g50
NtRp3451
(dp3452
g53
(dp3453
g61
I5
ssg62
g3447
sg55
(lp3454
g48
(g57
g50
NtRp3455
(dp3456
g53
(dp3457
g61
I4
ssg62
Nsg55
(lp3458
sbasbasbasbag48
(g64
g50
NtRp3459
(dp3460
g53
(dp3461
sg62
g3174
sg55
(lp3462
g48
(g69
g50
NtRp3463
(dp3464
g53
(dp3465
g73
g74
ssg62
g3459
sg55
(lp3466
S'headers'
p3467
asbag48
(g69
g50
NtRp3468
(dp3469
g53
(dp3470
g80
g81
ssg62
g3459
sg55
(lp3471
S':'
asbag48
(g69
g50
NtRp3472
(dp3473
g53
(dp3474
sg62
g3459
sg55
(lp3475
g48
(g49
g50
NtRp3476
(dp3477
g53
(dp3478
g61
I5
ssg62
g3472
sg55
(lp3479
g48
(g57
g50
NtRp3480
(dp3481
g53
(dp3482
g61
I4
ssg62
Nsg55
(lp3483
g48
(g64
g50
NtRp3484
(dp3485
g53
(dp3486
sg62
g3480
sg55
(lp3487
g48
(g69
g50
NtRp3488
(dp3489
g53
(dp3490
g73
g74
ssg62
g3484
sg55
(lp3491
S'Cache-Control'
p3492
asbag48
(g69
g50
NtRp3493
(dp3494
g53
(dp3495
g80
g81
ssg62
g3484
sg55
(lp3496
S':'
asbag48
(g69
g50
NtRp3497
(dp3498
g53
(dp3499
sg62
g3484
sg55
(lp3500
g48
(g49
g50
NtRp3501
(dp3502
g53
(dp3503
g61
I4
ssg62
g3497
sg55
(lp3504
S'no-store, no-cache, must-revalidate, post-check=0, pre-check=0'
p3505
asbasbasbag48
(g64
g50
NtRp3506
(dp3507
g53
(dp3508
sg62
g3480
sg55
(lp3509
g48
(g69
g50
NtRp3510
(dp3511
g53
(dp3512
g73
g74
ssg62
g3506
sg55
(lp3513
S'Content-Type'
p3514
asbag48
(g69
g50
NtRp3515
(dp3516
g53
(dp3517
g80
g81
ssg62
g3506
sg55
(lp3518
S':'
asbag48
(g69
g50
NtRp3519
(dp3520
g53
(dp3521
sg62
g3506
sg55
(lp3522
g48
(g49
g50
NtRp3523
(dp3524
g53
(dp3525
g61
I4
ssg62
g3519
sg55
(lp3526
S'text/html; charset=utf-8'
p3527
asbasbasbag48
(g64
g50
NtRp3528
(dp3529
g53
(dp3530
sg62
g3480
sg55
(lp3531
g48
(g69
g50
NtRp3532
(dp3533
g53
(dp3534
g73
g74
ssg62
g3528
sg55
(lp3535
S'Expires'
p3536
asbag48
(g69
g50
NtRp3537
(dp3538
g53
(dp3539
g80
g81
ssg62
g3528
sg55
(lp3540
S':'
asbag48
(g69
g50
NtRp3541
(dp3542
g53
(dp3543
sg62
g3528
sg55
(lp3544
g48
(g49
g50
NtRp3545
(dp3546
g53
(dp3547
g61
I4
ssg62
g3541
sg55
(lp3548
S'Sat, 12 Nov 2011 22:19:54 GMT'
p3549
asbasbasbag48
(g64
g50
NtRp3550
(dp3551
g53
(dp3552
sg62
g3480
sg55
(lp3553
g48
(g69
g50
NtRp3554
(dp3555
g53
(dp3556
g73
g74
ssg62
g3550
sg55
(lp3557
S'Pragma'
p3558
asbag48
(g69
g50
NtRp3559
(dp3560
g53
(dp3561
g80
g81
ssg62
g3550
sg55
(lp3562
S':'
asbag48
(g69
g50
NtRp3563
(dp3564
g53
(dp3565
sg62
g3550
sg55
(lp3566
g48
(g49
g50
NtRp3567
(dp3568
g53
(dp3569
g61
I4
ssg62
g3563
sg55
(lp3570
S'no-cache'
p3571
asbasbasbag48
(g64
g50
NtRp3572
(dp3573
g53
(dp3574
sg62
g3480
sg55
(lp3575
g48
(g69
g50
NtRp3576
(dp3577
g53
(dp3578
g73
g74
ssg62
g3572
sg55
(lp3579
S'X-Powered-By'
p3580
asbag48
(g69
g50
NtRp3581
(dp3582
g53
(dp3583
g80
g81
ssg62
g3572
sg55
(lp3584
S':'
asbag48
(g69
g50
NtRp3585
(dp3586
g53
(dp3587
sg62
g3572
sg55
(lp3588
g48
(g49
g50
NtRp3589
(dp3590
g53
(dp3591
g61
I4
ssg62
g3585
sg55
(lp3592
S'web2py'
p3593
asbasbasbasbasbasbasbag48
(g64
g50
NtRp3594
(dp3595
g53
(dp3596
sg62
g3174
sg55
(lp3597
g48
(g69
g50
NtRp3598
(dp3599
g53
(dp3600
g73
g74
ssg62
g3594
sg55
(lp3601
S'menu'
p3602
asbag48
(g69
g50
NtRp3603
(dp3604
g53
(dp3605
g80
g81
ssg62
g3594
sg55
(lp3606
S':'
asbag48
(g69
g50
NtRp3607
(dp3608
g53
(dp3609
sg62
g3594
sg55
(lp3610
g48
(g49
g50
NtRp3611
(dp3612
g53
(dp3613
g61
I5
ssg62
g3607
sg55
(lp3614
g48
(g57
g50
NtRp3615
(dp3616
g53
(dp3617
g61
I4
ssg62
Nsg55
(lp3618
sbasbasbasbag48
(g64
g50
NtRp3619
(dp3620
g53
(dp3621
sg62
g3174
sg55
(lp3622
g48
(g69
g50
NtRp3623
(dp3624
g53
(dp3625
g73
g74
ssg62
g3619
sg55
(lp3626
S'meta'
p3627
asbag48
(g69
g50
NtRp3628
(dp3629
g53
(dp3630
g80
g81
ssg62
g3619
sg55
(lp3631
S':'
asbag48
(g69
g50
NtRp3632
(dp3633
g53
(dp3634
sg62
g3619
sg55
(lp3635
g48
(g49
g50
NtRp3636
(dp3637
g53
(dp3638
g61
I5
ssg62
g3632
sg55
(lp3639
g48
(g57
g50
NtRp3640
(dp3641
g53
(dp3642
g61
I4
ssg62
Nsg55
(lp3643
sbasbasbasbag48
(g64
g50
NtRp3644
(dp3645
g53
(dp3646
sg62
g3174
sg55
(lp3647
g48
(g69
g50
NtRp3648
(dp3649
g53
(dp3650
g73
g74
ssg62
g3644
sg55
(lp3651
S'postprocessing'
p3652
asbag48
(g69
g50
NtRp3653
(dp3654
g53
(dp3655
g80
g81
ssg62
g3644
sg55
(lp3656
S':'
asbag48
(g69
g50
NtRp3657
(dp3658
g53
(dp3659
sg62
g3644
sg55
(lp3660
g48
(g49
g50
NtRp3661
(dp3662
g53
(dp3663
g61
I5
ssg62
g3657
sg55
(lp3664
g48
(g57
g50
NtRp3665
(dp3666
g53
(dp3667
g61
I4
ssg62
Nsg55
(lp3668
sbasbasbasbag48
(g64
g50
NtRp3669
(dp3670
g53
(dp3671
sg62
g3174
sg55
(lp3672
g48
(g69
g50
NtRp3673
(dp3674
g53
(dp3675
g73
g74
ssg62
g3669
sg55
(lp3676
S'session_file'
p3677
asbag48
(g69
g50
NtRp3678
(dp3679
g53
(dp3680
g80
g81
ssg62
g3669
sg55
(lp3681
S':'
asbag48
(g69
g50
NtRp3682
(dp3683
g53
(dp3684
sg62
g3669
sg55
(lp3685
g48
(g49
g50
NtRp3686
(dp3687
g53
(dp3688
g61
I5
ssg62
g3682
sg55
(lp3689
S"<open file 'C:\\Python32\\web2py\\applications\\Casa_de_Apuestas\\sessions\\127.0.0.1-ff075696-a054-47b7-bd6f-733e6903bb65', mode 'rb+' at 0x06264E78>"
p3690
asbasbasbag48
(g64
g50
NtRp3691
(dp3692
g53
(dp3693
sg62
g3174
sg55
(lp3694
g48
(g69
g50
NtRp3695
(dp3696
g53
(dp3697
g73
g74
ssg62
g3691
sg55
(lp3698
S'session_filename'
p3699
asbag48
(g69
g50
NtRp3700
(dp3701
g53
(dp3702
g80
g81
ssg62
g3691
sg55
(lp3703
S':'
asbag48
(g69
g50
NtRp3704
(dp3705
g53
(dp3706
sg62
g3691
sg55
(lp3707
g48
(g49
g50
NtRp3708
(dp3709
g53
(dp3710
g61
I5
ssg62
g3704
sg55
(lp3711
S'C:\\Python32\\web2py\\applications\\Casa_de_Apuestas\\sessions\\127.0.0.1-ff075696-a054-47b7-bd6f-733e6903bb65'
p3712
asbasbasbag48
(g64
g50
NtRp3713
(dp3714
g53
(dp3715
sg62
g3174
sg55
(lp3716
g48
(g69
g50
NtRp3717
(dp3718
g53
(dp3719
g73
g74
ssg62
g3713
sg55
(lp3720
S'session_id'
p3721
asbag48
(g69
g50
NtRp3722
(dp3723
g53
(dp3724
g80
g81
ssg62
g3713
sg55
(lp3725
S':'
asbag48
(g69
g50
NtRp3726
(dp3727
g53
(dp3728
sg62
g3713
sg55
(lp3729
g48
(g49
g50
NtRp3730
(dp3731
g53
(dp3732
g61
I5
ssg62
g3726
sg55
(lp3733
S'127.0.0.1-ff075696-a054-47b7-bd6f-733e6903bb65'
p3734
asbasbasbag48
(g64
g50
NtRp3735
(dp3736
g53
(dp3737
sg62
g3174
sg55
(lp3738
g48
(g69
g50
NtRp3739
(dp3740
g53
(dp3741
g73
g74
ssg62
g3735
sg55
(lp3742
S'session_id_name'
p3743
asbag48
(g69
g50
NtRp3744
(dp3745
g53
(dp3746
g80
g81
ssg62
g3735
sg55
(lp3747
S':'
asbag48
(g69
g50
NtRp3748
(dp3749
g53
(dp3750
sg62
g3735
sg55
(lp3751
g48
(g49
g50
NtRp3752
(dp3753
g53
(dp3754
g61
I5
ssg62
g3748
sg55
(lp3755
g3231
asbasbasbag48
(g64
g50
NtRp3756
(dp3757
g53
(dp3758
sg62
g3174
sg55
(lp3759
g48
(g69
g50
NtRp3760
(dp3761
g53
(dp3762
g73
g74
ssg62
g3756
sg55
(lp3763
S'session_locked'
p3764
asbag48
(g69
g50
NtRp3765
(dp3766
g53
(dp3767
g80
g81
ssg62
g3756
sg55
(lp3768
S':'
asbag48
(g69
g50
NtRp3769
(dp3770
g53
(dp3771
sg62
g3756
sg55
(lp3772
g48
(g49
g50
NtRp3773
(dp3774
g53
(dp3775
g61
I5
ssg62
g3769
sg55
(lp3776
g1774
asbasbasbag48
(g64
g50
NtRp3777
(dp3778
g53
(dp3779
sg62
g3174
sg55
(lp3780
g48
(g69
g50
NtRp3781
(dp3782
g53
(dp3783
g73
g74
ssg62
g3777
sg55
(lp3784
S'session_new'
p3785
asbag48
(g69
g50
NtRp3786
(dp3787
g53
(dp3788
g80
g81
ssg62
g3777
sg55
(lp3789
S':'
asbag48
(g69
g50
NtRp3790
(dp3791
g53
(dp3792
sg62
g3777
sg55
(lp3793
g48
(g49
g50
NtRp3794
(dp3795
g53
(dp3796
g61
I5
ssg62
g3790
sg55
(lp3797
g91
asbasbasbag48
(g64
g50
NtRp3798
(dp3799
g53
(dp3800
sg62
g3174
sg55
(lp3801
g48
(g69
g50
NtRp3802
(dp3803
g53
(dp3804
g73
g74
ssg62
g3798
sg55
(lp3805
S'status'
p3806
asbag48
(g69
g50
NtRp3807
(dp3808
g53
(dp3809
g80
g81
ssg62
g3798
sg55
(lp3810
S':'
asbag48
(g69
g50
NtRp3811
(dp3812
g53
(dp3813
sg62
g3798
sg55
(lp3814
g48
(g49
g50
NtRp3815
(dp3816
g53
(dp3817
g61
I5
ssg62
g3811
sg55
(lp3818
S'200'
p3819
asbasbasbag48
(g64
g50
NtRp3820
(dp3821
g53
(dp3822
sg62
g3174
sg55
(lp3823
g48
(g69
g50
NtRp3824
(dp3825
g53
(dp3826
g73
g74
ssg62
g3820
sg55
(lp3827
g2418
asbag48
(g69
g50
NtRp3828
(dp3829
g53
(dp3830
g80
g81
ssg62
g3820
sg55
(lp3831
S':'
asbag48
(g69
g50
NtRp3832
(dp3833
g53
(dp3834
sg62
g3820
sg55
(lp3835
g48
(g49
g50
NtRp3836
(dp3837
g53
(dp3838
g61
I5
ssg62
g3832
sg55
(lp3839
g2431
asbasbasbag48
(g64
g50
NtRp3840
(dp3841
g53
(dp3842
sg62
g3174
sg55
(lp3843
g48
(g69
g50
NtRp3844
(dp3845
g53
(dp3846
g73
g74
ssg62
g3840
sg55
(lp3847
S'view'
p3848
asbag48
(g69
g50
NtRp3849
(dp3850
g53
(dp3851
g80
g81
ssg62
g3840
sg55
(lp3852
S':'
asbag48
(g69
g50
NtRp3853
(dp3854
g53
(dp3855
sg62
g3840
sg55
(lp3856
g48
(g49
g50
NtRp3857
(dp3858
g53
(dp3859
g61
I5
ssg62
g3853
sg55
(lp3860
S'appadmin/index.html'
p3861
asbasbasbasbasbsS'locals'
p3862
(dp3863
S'uris'
p3864
S"['mysql://root:@localhost/test']"
p3865
sg27
S"(<DAL {'_lastsql': '', '_db_codec': 'UTF-8', '_ti...table)s', '_pool_size': 0, '_common_fields': []}>, 'mysql://root:@localhost/test', 0, None, 'UTF-8', <function <lambda> at 0x0634AEB0>, {'charset': 'utf8', 'db': 'test', 'host': 'localhost', 'passwd': '', 'port': 3306, 'user': 'root'}, {})"
p3866
sS'fake_migrate_all'
p3867
g91
sS'migrate'
p3868
g1774
sS'driver_args'
p3869
S'None'
p3870
sS'k'
S'4'
sS'adapter_args'
p3871
S'None'
p3872
sS'auto_import'
p3873
g91
sS'uri'
p3874
S"'mysql://root:@localhost/test'"
p3875
sS'migrate_enabled'
p3876
g1774
sS'fake_migrate'
p3877
g91
sS'check_reserved'
p3878
S'None'
p3879
sS'attempts'
p3880
S'5'
sS'connected'
p3881
g91
sS'error'
p3882
S'OperationalError(2003, "Can\'t connect to MySQL server on \'localhost\' (10061)")'
p3883
sS'pool_size'
p3884
S'0'
sg1897
S'None'
p3885
sS'decode_credentials'
p3886
g91
sS'credential_decoder'
p3887
S'<function <lambda> at 0x0634AEB0>'
p3888
sS'self'
p3889
S"<DAL {'_lastsql': '', '_db_codec': 'UTF-8', '_ti...table)s', '_pool_size': 0, '_common_fields': []}>"
p3890
sS'db_codec'
p3891
S"'UTF-8'"
p3892
sssS'traceback'
p3893
S'Traceback (most recent call last):\n  File "gluon/restricted.py", line 194, in restricted\n  File "C:\\Python32\\web2py\\applications\\Casa_de_Apuestas\\models\\db.py", line 11, in <module>\n  File "gluon/dal.py", line 4156, in __init__\nRuntimeError: Failure to connect, tried 5 times:\n(2003, "Can\'t connect to MySQL server on \'localhost\' (10061)")\n'
p3894
s.