(dp1
S'output'
p2
S''
sS'layer'
p3
S'C:\\Python32\\web2py_win\\web2py\\applications\\Casa_de_Apuestas\\controllers/default.py'
p4
sS'code'
p5
S"# -*- coding: utf-8 -*-\n### required - do no delete\ndef user(): return dict(form=auth())\ndef download(): return response.download(request,db)\ndef call(): return service()\n### end requires\n\n@auth.requires_login()\ndef index():\n    return dict()\n\ndef error():\n    return dict()\n\n\ndef maquinas():\n    form =crud.create(db.maquinas)\n    maquinas=db().select(db.maquinas.ALL)\n    return dict(form=form, maquinas=maquinas)\n\n\ndef crearCategoria():\n    categorias = db().select(db.categorias.ALL)\n    form = crud.create(db.categorias)\n    return dict(form=form, categorias=categorias)\n\ndef crearEvento():\n    eventos= db().select(db.eventos.ALL)\n    form = crud.create(db.eventos)\n    return dict(form=form,eventos=eventos)\n\ndef crearParticipante():\n    participantes= db().select(db.participantes.ALL)\n    form = crud.create(db.participantes)\n    return dict(form=form,participantes=participantes)\n\ndef crearEventoParticipante():\n    eventosparticipantes= db().select(db.eventos_participantes.ALL)\n    form = crud.create(db.eventos_participantes)\n    return dict(form=form,eventosparticipantes=eventosparticipantes)\n\ndef crearUsuario():\n    usuarios= db().select(db.auth_user.ALL)\n    form = crud.create(db.auth_user)\n    return dict(form=form,usuarios=usuarios)\n\ndef crearMaquina():\n    maquinas= db().select(db.maquinas.ALL)\n    form = crud.create(db.maquinas)\n    return dict(form=form,maquinas=maquinas)\n\ndef prueba_xml():\n    from DAOCasadeApuestas import *\n    #response.headers['Content-Type']='application/xml'\n    archivo = DAOCasadeApuestas()\n    var = archivo.generarMensajeMD5(db().select(db.participantes.ALL))\n    #a = generar_xml(db().select(db.participantes.ALL));\n    #codificador.update(generar_xml(db().select(db.participantes.ALL)))\n    #return generar_xml(db().select(db.participantes.ALL))\n    return dict(var=var)\n\ndef mostrarCategoria():\n    categorias= db().select(db.categorias.ALL, orderby=db.categorias.id)\n    return dict(categorias=categorias)\n\ndef showCategoria():\n    form = crud.update(db.categorias,request.args(0),next=URL('mostrarCategoria'))\n    return dict(form=form)\n\n\ndef mostrarEvento():\n    eventos= db().select(db.eventos.ALL, orderby=db.eventos.id)\n    return dict(eventos=eventos)\n\ndef showEvento():\n    form = crud.update(db.eventos,request.args(0),next=URL('mostrarEvento'))\n    return dict(form=form)\n\n\ndef mostrarParticipante():\n    participantes= db().select(db.participantes.ALL, orderby=db.participantes.id)\n    return dict(participantes=participantes)\n\ndef showParticipante():\n    form = crud.update(db.participantes,request.args(0),next=URL('mostrarParticipante'))\n    return dict(form=form)\n    \ndef mostrarMaquina():\n    maquinas= db().select(db.maquinas.ALL, orderby=db.maquinas.id)\n    return dict(maquinas=maquinas)\n\ndef showMaquinas():\n    form = crud.update(db.maquinas,request.args(0),next=URL('mostrarMaquina'))\n    return dict(form=form)\n    \ndef mostrarUsuario():\n    usuarios= db().select(db.auth_user.ALL, orderby=db.auth_user.id)\n    return dict(usuarios=usuarios)\n\ndef showUsuario():\n    form = crud.update(db.auth_user,request.args(0),next=URL('mostrarUsuario'))\n    return dict(form=form)\n\ndef verResultado1():\n    eventos= db().select(db.eventos.ALL, orderby=db.eventos.id)\n    return dict(eventos=eventos)\n        \ndef verResultado2():\n    eventos= db((db.resultados.eventos_id==request.args(0))& (db.resultados.participantes_id==db.participantes.id)).select()\n    return dict(resultados=resultados)\n\nresponse._vars=response._caller(maquinas)\n"
p6
sS'snapshot'
p7
(dp8
S'exception'
p9
(dp10
S'__hash__'
p11
S"<method-wrapper '__hash__' of exceptions.KeyError object at 0x05BD7670>"
p12
sS'__setattr__'
p13
S"<method-wrapper '__setattr__' of exceptions.KeyError object at 0x05BD7670>"
p14
sS'__reduce_ex__'
p15
S'<built-in method __reduce_ex__ of exceptions.KeyError object at 0x05BD7670>'
p16
sS'__getslice__'
p17
S"<method-wrapper '__getslice__' of exceptions.KeyError object at 0x05BD7670>"
p18
sS'__getitem__'
p19
S"<method-wrapper '__getitem__' of exceptions.KeyError object at 0x05BD7670>"
p20
sS'__setstate__'
p21
S'<built-in method __setstate__ of exceptions.KeyError object at 0x05BD7670>'
p22
sS'__reduce__'
p23
S'<built-in method __reduce__ of exceptions.KeyError object at 0x05BD7670>'
p24
sS'__str__'
p25
S"<method-wrapper '__str__' of exceptions.KeyError object at 0x05BD7670>"
p26
sS'args'
p27
S"('correo',)"
p28
sS'__getattribute__'
p29
S"<method-wrapper '__getattribute__' of exceptions.KeyError object at 0x05BD7670>"
p30
sS'__class__'
p31
S"<type 'exceptions.KeyError'>"
p32
sS'__delattr__'
p33
S"<method-wrapper '__delattr__' of exceptions.KeyError object at 0x05BD7670>"
p34
sS'__repr__'
p35
S"<method-wrapper '__repr__' of exceptions.KeyError object at 0x05BD7670>"
p36
sS'__dict__'
p37
S'{}'
p38
sS'__doc__'
p39
S"'Mapping key not found.'"
p40
sS'__init__'
p41
S"<method-wrapper '__init__' of exceptions.KeyError object at 0x05BD7670>"
p42
sS'__new__'
p43
S'<built-in method __new__ of type object at 0x1E1CDFB8>'
p44
ssS'evalue'
p45
S"'correo'"
p46
sS'request'
p47
ccopy_reg
_reconstructor
p48
(cgluon.html
BEAUTIFY
p49
c__builtin__
object
p50
NtRp51
(dp52
S'attributes'
p53
(dp54
sS'components'
p55
(lp56
g48
(cgluon.html
TABLE
p57
g50
NtRp58
(dp59
g53
(dp60
S'level'
p61
I5
ssS'parent'
p62
Nsg55
(lp63
g48
(cgluon.html
TR
p64
g50
NtRp65
(dp66
g53
(dp67
sg62
g58
sg55
(lp68
g48
(cgluon.html
TD
p69
g50
NtRp70
(dp71
g53
(dp72
S'_style'
p73
S'font-weight:bold;'
p74
ssg62
g65
sg55
(lp75
S'ajax'
p76
asbag48
(g69
g50
NtRp77
(dp78
g53
(dp79
S'_valign'
p80
S'top'
p81
ssg62
g65
sg55
(lp82
S':'
asbag48
(g69
g50
NtRp83
(dp84
g53
(dp85
sg62
g65
sg55
(lp86
g48
(g49
g50
NtRp87
(dp88
g53
(dp89
g61
I5
ssg62
g83
sg55
(lp90
S'False'
p91
asbasbasbag48
(g64
g50
NtRp92
(dp93
g53
(dp94
sg62
g58
sg55
(lp95
g48
(g69
g50
NtRp96
(dp97
g53
(dp98
g73
g74
ssg62
g92
sg55
(lp99
S'application'
p100
asbag48
(g69
g50
NtRp101
(dp102
g53
(dp103
g80
g81
ssg62
g92
sg55
(lp104
S':'
asbag48
(g69
g50
NtRp105
(dp106
g53
(dp107
sg62
g92
sg55
(lp108
g48
(g49
g50
NtRp109
(dp110
g53
(dp111
g61
I5
ssg62
g105
sg55
(lp112
S'Casa_de_Apuestas'
p113
asbasbasbag48
(g64
g50
NtRp114
(dp115
g53
(dp116
sg62
g58
sg55
(lp117
g48
(g69
g50
NtRp118
(dp119
g53
(dp120
g73
g74
ssg62
g114
sg55
(lp121
g27
asbag48
(g69
g50
NtRp122
(dp123
g53
(dp124
g80
g81
ssg62
g114
sg55
(lp125
S':'
asbag48
(g69
g50
NtRp126
(dp127
g53
(dp128
sg62
g114
sg55
(lp129
g48
(g49
g50
NtRp130
(dp131
g53
(dp132
g61
I5
ssg62
g126
sg55
(lp133
g48
(g57
g50
NtRp134
(dp135
g53
(dp136
g61
I4
ssg62
Nsg55
(lp137
sbasbasbasbag48
(g64
g50
NtRp138
(dp139
g53
(dp140
sg62
g58
sg55
(lp141
g48
(g69
g50
NtRp142
(dp143
g53
(dp144
g73
g74
ssg62
g138
sg55
(lp145
S'body'
p146
asbag48
(g69
g50
NtRp147
(dp148
g53
(dp149
g80
g81
ssg62
g138
sg55
(lp150
S':'
asbag48
(g69
g50
NtRp151
(dp152
g53
(dp153
sg62
g138
sg55
(lp154
g48
(g49
g50
NtRp155
(dp156
g53
(dp157
g61
I5
ssg62
g151
sg55
(lp158
S'<cStringIO.StringO object at 0x05C19AE0>'
p159
asbasbasbag48
(g64
g50
NtRp160
(dp161
g53
(dp162
sg62
g58
sg55
(lp163
g48
(g69
g50
NtRp164
(dp165
g53
(dp166
g73
g74
ssg62
g160
sg55
(lp167
S'client'
p168
asbag48
(g69
g50
NtRp169
(dp170
g53
(dp171
g80
g81
ssg62
g160
sg55
(lp172
S':'
asbag48
(g69
g50
NtRp173
(dp174
g53
(dp175
sg62
g160
sg55
(lp176
g48
(g49
g50
NtRp177
(dp178
g53
(dp179
g61
I5
ssg62
g173
sg55
(lp180
S'127.0.0.1'
p181
asbasbasbag48
(g64
g50
NtRp182
(dp183
g53
(dp184
sg62
g58
sg55
(lp185
g48
(g69
g50
NtRp186
(dp187
g53
(dp188
g73
g74
ssg62
g182
sg55
(lp189
S'controller'
p190
asbag48
(g69
g50
NtRp191
(dp192
g53
(dp193
g80
g81
ssg62
g182
sg55
(lp194
S':'
asbag48
(g69
g50
NtRp195
(dp196
g53
(dp197
sg62
g182
sg55
(lp198
g48
(g49
g50
NtRp199
(dp200
g53
(dp201
g61
I5
ssg62
g195
sg55
(lp202
S'default'
p203
asbasbasbag48
(g64
g50
NtRp204
(dp205
g53
(dp206
sg62
g58
sg55
(lp207
g48
(g69
g50
NtRp208
(dp209
g53
(dp210
g73
g74
ssg62
g204
sg55
(lp211
S'cookies'
p212
asbag48
(g69
g50
NtRp213
(dp214
g53
(dp215
g80
g81
ssg62
g204
sg55
(lp216
S':'
asbag48
(g69
g50
NtRp217
(dp218
g53
(dp219
sg62
g204
sg55
(lp220
g48
(g49
g50
NtRp221
(dp222
g53
(dp223
g61
I5
ssg62
g217
sg55
(lp224
g48
(g57
g50
NtRp225
(dp226
g53
(dp227
g61
I4
ssg62
Nsg55
(lp228
g48
(g64
g50
NtRp229
(dp230
g53
(dp231
sg62
g225
sg55
(lp232
g48
(g69
g50
NtRp233
(dp234
g53
(dp235
g73
g74
ssg62
g229
sg55
(lp236
S'session_id_admin'
p237
asbag48
(g69
g50
NtRp238
(dp239
g53
(dp240
g80
g81
ssg62
g229
sg55
(lp241
S':'
asbag48
(g69
g50
NtRp242
(dp243
g53
(dp244
sg62
g229
sg55
(lp245
g48
(g49
g50
NtRp246
(dp247
g53
(dp248
g61
I4
ssg62
g242
sg55
(lp249
g48
(g57
g50
NtRp250
(dp251
g53
(dp252
g61
I3
ssg62
Nsg55
(lp253
g48
(g64
g50
NtRp254
(dp255
g53
(dp256
sg62
g250
sg55
(lp257
g48
(g69
g50
NtRp258
(dp259
g53
(dp260
g73
g74
ssg62
g254
sg55
(lp261
S'comment'
p262
asbag48
(g69
g50
NtRp263
(dp264
g53
(dp265
g80
g81
ssg62
g254
sg55
(lp266
S':'
asbag48
(g69
g50
NtRp267
(dp268
g53
(dp269
sg62
g254
sg55
(lp270
g48
(g49
g50
NtRp271
(dp272
g53
(dp273
g61
I3
ssg62
g267
sg55
(lp274
S''
asbasbasbag48
(g64
g50
NtRp275
(dp276
g53
(dp277
sg62
g250
sg55
(lp278
g48
(g69
g50
NtRp279
(dp280
g53
(dp281
g73
g74
ssg62
g275
sg55
(lp282
S'domain'
p283
asbag48
(g69
g50
NtRp284
(dp285
g53
(dp286
g80
g81
ssg62
g275
sg55
(lp287
S':'
asbag48
(g69
g50
NtRp288
(dp289
g53
(dp290
sg62
g275
sg55
(lp291
g48
(g49
g50
NtRp292
(dp293
g53
(dp294
g61
I3
ssg62
g288
sg55
(lp295
S''
asbasbasbag48
(g64
g50
NtRp296
(dp297
g53
(dp298
sg62
g250
sg55
(lp299
g48
(g69
g50
NtRp300
(dp301
g53
(dp302
g73
g74
ssg62
g296
sg55
(lp303
S'expires'
p304
asbag48
(g69
g50
NtRp305
(dp306
g53
(dp307
g80
g81
ssg62
g296
sg55
(lp308
S':'
asbag48
(g69
g50
NtRp309
(dp310
g53
(dp311
sg62
g296
sg55
(lp312
g48
(g49
g50
NtRp313
(dp314
g53
(dp315
g61
I3
ssg62
g309
sg55
(lp316
S''
asbasbasbag48
(g64
g50
NtRp317
(dp318
g53
(dp319
sg62
g250
sg55
(lp320
g48
(g69
g50
NtRp321
(dp322
g53
(dp323
g73
g74
ssg62
g317
sg55
(lp324
S'max-age'
p325
asbag48
(g69
g50
NtRp326
(dp327
g53
(dp328
g80
g81
ssg62
g317
sg55
(lp329
S':'
asbag48
(g69
g50
NtRp330
(dp331
g53
(dp332
sg62
g317
sg55
(lp333
g48
(g49
g50
NtRp334
(dp335
g53
(dp336
g61
I3
ssg62
g330
sg55
(lp337
S''
asbasbasbag48
(g64
g50
NtRp338
(dp339
g53
(dp340
sg62
g250
sg55
(lp341
g48
(g69
g50
NtRp342
(dp343
g53
(dp344
g73
g74
ssg62
g338
sg55
(lp345
S'path'
p346
asbag48
(g69
g50
NtRp347
(dp348
g53
(dp349
g80
g81
ssg62
g338
sg55
(lp350
S':'
asbag48
(g69
g50
NtRp351
(dp352
g53
(dp353
sg62
g338
sg55
(lp354
g48
(g49
g50
NtRp355
(dp356
g53
(dp357
g61
I3
ssg62
g351
sg55
(lp358
S''
asbasbasbag48
(g64
g50
NtRp359
(dp360
g53
(dp361
sg62
g250
sg55
(lp362
g48
(g69
g50
NtRp363
(dp364
g53
(dp365
g73
g74
ssg62
g359
sg55
(lp366
S'secure'
p367
asbag48
(g69
g50
NtRp368
(dp369
g53
(dp370
g80
g81
ssg62
g359
sg55
(lp371
S':'
asbag48
(g69
g50
NtRp372
(dp373
g53
(dp374
sg62
g359
sg55
(lp375
g48
(g49
g50
NtRp376
(dp377
g53
(dp378
g61
I3
ssg62
g372
sg55
(lp379
S''
asbasbasbag48
(g64
g50
NtRp380
(dp381
g53
(dp382
sg62
g250
sg55
(lp383
g48
(g69
g50
NtRp384
(dp385
g53
(dp386
g73
g74
ssg62
g380
sg55
(lp387
S'version'
p388
asbag48
(g69
g50
NtRp389
(dp390
g53
(dp391
g80
g81
ssg62
g380
sg55
(lp392
S':'
asbag48
(g69
g50
NtRp393
(dp394
g53
(dp395
sg62
g380
sg55
(lp396
g48
(g49
g50
NtRp397
(dp398
g53
(dp399
g61
I3
ssg62
g393
sg55
(lp400
S''
asbasbasbasbasbasbasbag48
(g64
g50
NtRp401
(dp402
g53
(dp403
sg62
g225
sg55
(lp404
g48
(g69
g50
NtRp405
(dp406
g53
(dp407
g73
g74
ssg62
g401
sg55
(lp408
S'session_id_welcome'
p409
asbag48
(g69
g50
NtRp410
(dp411
g53
(dp412
g80
g81
ssg62
g401
sg55
(lp413
S':'
asbag48
(g69
g50
NtRp414
(dp415
g53
(dp416
sg62
g401
sg55
(lp417
g48
(g49
g50
NtRp418
(dp419
g53
(dp420
g61
I4
ssg62
g414
sg55
(lp421
g48
(g57
g50
NtRp422
(dp423
g53
(dp424
g61
I3
ssg62
Nsg55
(lp425
g48
(g64
g50
NtRp426
(dp427
g53
(dp428
sg62
g422
sg55
(lp429
g48
(g69
g50
NtRp430
(dp431
g53
(dp432
g73
g74
ssg62
g426
sg55
(lp433
g262
asbag48
(g69
g50
NtRp434
(dp435
g53
(dp436
g80
g81
ssg62
g426
sg55
(lp437
S':'
asbag48
(g69
g50
NtRp438
(dp439
g53
(dp440
sg62
g426
sg55
(lp441
g48
(g49
g50
NtRp442
(dp443
g53
(dp444
g61
I3
ssg62
g438
sg55
(lp445
S''
asbasbasbag48
(g64
g50
NtRp446
(dp447
g53
(dp448
sg62
g422
sg55
(lp449
g48
(g69
g50
NtRp450
(dp451
g53
(dp452
g73
g74
ssg62
g446
sg55
(lp453
g283
asbag48
(g69
g50
NtRp454
(dp455
g53
(dp456
g80
g81
ssg62
g446
sg55
(lp457
S':'
asbag48
(g69
g50
NtRp458
(dp459
g53
(dp460
sg62
g446
sg55
(lp461
g48
(g49
g50
NtRp462
(dp463
g53
(dp464
g61
I3
ssg62
g458
sg55
(lp465
S''
asbasbasbag48
(g64
g50
NtRp466
(dp467
g53
(dp468
sg62
g422
sg55
(lp469
g48
(g69
g50
NtRp470
(dp471
g53
(dp472
g73
g74
ssg62
g466
sg55
(lp473
g304
asbag48
(g69
g50
NtRp474
(dp475
g53
(dp476
g80
g81
ssg62
g466
sg55
(lp477
S':'
asbag48
(g69
g50
NtRp478
(dp479
g53
(dp480
sg62
g466
sg55
(lp481
g48
(g49
g50
NtRp482
(dp483
g53
(dp484
g61
I3
ssg62
g478
sg55
(lp485
S''
asbasbasbag48
(g64
g50
NtRp486
(dp487
g53
(dp488
sg62
g422
sg55
(lp489
g48
(g69
g50
NtRp490
(dp491
g53
(dp492
g73
g74
ssg62
g486
sg55
(lp493
g325
asbag48
(g69
g50
NtRp494
(dp495
g53
(dp496
g80
g81
ssg62
g486
sg55
(lp497
S':'
asbag48
(g69
g50
NtRp498
(dp499
g53
(dp500
sg62
g486
sg55
(lp501
g48
(g49
g50
NtRp502
(dp503
g53
(dp504
g61
I3
ssg62
g498
sg55
(lp505
S''
asbasbasbag48
(g64
g50
NtRp506
(dp507
g53
(dp508
sg62
g422
sg55
(lp509
g48
(g69
g50
NtRp510
(dp511
g53
(dp512
g73
g74
ssg62
g506
sg55
(lp513
g346
asbag48
(g69
g50
NtRp514
(dp515
g53
(dp516
g80
g81
ssg62
g506
sg55
(lp517
S':'
asbag48
(g69
g50
NtRp518
(dp519
g53
(dp520
sg62
g506
sg55
(lp521
g48
(g49
g50
NtRp522
(dp523
g53
(dp524
g61
I3
ssg62
g518
sg55
(lp525
S''
asbasbasbag48
(g64
g50
NtRp526
(dp527
g53
(dp528
sg62
g422
sg55
(lp529
g48
(g69
g50
NtRp530
(dp531
g53
(dp532
g73
g74
ssg62
g526
sg55
(lp533
g367
asbag48
(g69
g50
NtRp534
(dp535
g53
(dp536
g80
g81
ssg62
g526
sg55
(lp537
S':'
asbag48
(g69
g50
NtRp538
(dp539
g53
(dp540
sg62
g526
sg55
(lp541
g48
(g49
g50
NtRp542
(dp543
g53
(dp544
g61
I3
ssg62
g538
sg55
(lp545
S''
asbasbasbag48
(g64
g50
NtRp546
(dp547
g53
(dp548
sg62
g422
sg55
(lp549
g48
(g69
g50
NtRp550
(dp551
g53
(dp552
g73
g74
ssg62
g546
sg55
(lp553
g388
asbag48
(g69
g50
NtRp554
(dp555
g53
(dp556
g80
g81
ssg62
g546
sg55
(lp557
S':'
asbag48
(g69
g50
NtRp558
(dp559
g53
(dp560
sg62
g546
sg55
(lp561
g48
(g49
g50
NtRp562
(dp563
g53
(dp564
g61
I3
ssg62
g558
sg55
(lp565
S''
asbasbasbasbasbasbasbasbasbasbasbag48
(g64
g50
NtRp566
(dp567
g53
(dp568
sg62
g58
sg55
(lp569
g48
(g69
g50
NtRp570
(dp571
g53
(dp572
g73
g74
ssg62
g566
sg55
(lp573
S'env'
p574
asbag48
(g69
g50
NtRp575
(dp576
g53
(dp577
g80
g81
ssg62
g566
sg55
(lp578
S':'
asbag48
(g69
g50
NtRp579
(dp580
g53
(dp581
sg62
g566
sg55
(lp582
g48
(g49
g50
NtRp583
(dp584
g53
(dp585
g61
I5
ssg62
g579
sg55
(lp586
g48
(g57
g50
NtRp587
(dp588
g53
(dp589
g61
I4
ssg62
Nsg55
(lp590
g48
(g64
g50
NtRp591
(dp592
g53
(dp593
sg62
g587
sg55
(lp594
g48
(g69
g50
NtRp595
(dp596
g53
(dp597
g73
g74
ssg62
g591
sg55
(lp598
S'app_folders'
p599
asbag48
(g69
g50
NtRp600
(dp601
g53
(dp602
g80
g81
ssg62
g591
sg55
(lp603
S':'
asbag48
(g69
g50
NtRp604
(dp605
g53
(dp606
sg62
g591
sg55
(lp607
g48
(g49
g50
NtRp608
(dp609
g53
(dp610
g61
I4
ssg62
g604
sg55
(lp611
S"set(['C:\\\\Python32\\\\web2py_win\\\\web2py\\\\applications\\\\admin\\\\', 'C:\\\\Python32\\\\web2py_win\\\\web2py\\\\applications\\\\welcome\\\\', 'C:\\\\Python32\\\\web2py_win\\\\web2py\\\\applications\\\\Casa_de_Apuestas\\\\'])"
p612
asbasbasbag48
(g64
g50
NtRp613
(dp614
g53
(dp615
sg62
g587
sg55
(lp616
g48
(g69
g50
NtRp617
(dp618
g53
(dp619
g73
g74
ssg62
g613
sg55
(lp620
S'applications_parent'
p621
asbag48
(g69
g50
NtRp622
(dp623
g53
(dp624
g80
g81
ssg62
g613
sg55
(lp625
S':'
asbag48
(g69
g50
NtRp626
(dp627
g53
(dp628
sg62
g613
sg55
(lp629
g48
(g49
g50
NtRp630
(dp631
g53
(dp632
g61
I4
ssg62
g626
sg55
(lp633
S'C:\\Python32\\web2py_win\\web2py'
p634
asbasbasbag48
(g64
g50
NtRp635
(dp636
g53
(dp637
sg62
g587
sg55
(lp638
g48
(g69
g50
NtRp639
(dp640
g53
(dp641
g73
g74
ssg62
g635
sg55
(lp642
S'cmd_args'
p643
asbag48
(g69
g50
NtRp644
(dp645
g53
(dp646
g80
g81
ssg62
g635
sg55
(lp647
S':'
asbag48
(g69
g50
NtRp648
(dp649
g53
(dp650
sg62
g635
sg55
(lp651
g48
(g49
g50
NtRp652
(dp653
g53
(dp654
g61
I4
ssg62
g648
sg55
(lp655
g48
(g57
g50
NtRp656
(dp657
g53
(dp658
g61
I3
ssg62
Nsg55
(lp659
sbasbasbasbag48
(g64
g50
NtRp660
(dp661
g53
(dp662
sg62
g587
sg55
(lp663
g48
(g69
g50
NtRp664
(dp665
g53
(dp666
g73
g74
ssg62
g660
sg55
(lp667
S'cmd_options'
p668
asbag48
(g69
g50
NtRp669
(dp670
g53
(dp671
g80
g81
ssg62
g660
sg55
(lp672
S':'
asbag48
(g69
g50
NtRp673
(dp674
g53
(dp675
sg62
g660
sg55
(lp676
g48
(g49
g50
NtRp677
(dp678
g53
(dp679
g61
I4
ssg62
g673
sg55
(lp680
S"<Values at 0x2655fa8: {'verbose': False, 'ip': '127.0.0.1', 'shutdown_timeout': 5, 'taskbar': False, 'nocron': False, 'pid_filename': 'httpserver.pid', 'maxthreads': None, 'softcron': False, 'server_name': 'hector-vaio', 'bpython': False, 'nogui': False, 'port': 8000, 'extcron': False, 'debuglevel': 30, 'test': None, 'folder': 'C:\\\\Python32\\\\web2py_win\\\\web2py', 'config': '', 'import_models': False, 'winservice': '', 'shell': None, 'run': '', 'log_filename': 'httpserver.log', 'args': [''], 'ssl_ca_certificate': None, 'scheduler': None, 'profiler_filename': None, 'ssl_private_key': '', 'password': '<ask>', 'request_queue_size': 5, 'ssl_certificate': '', 'cronjob': False, 'plain': False, 'quiet': False, 'interfaces': None, 'minthreads': None, 'timeout': 10, 'numthreads': None, 'nobanner': False}>"
p681
asbasbasbag48
(g64
g50
NtRp682
(dp683
g53
(dp684
sg62
g587
sg55
(lp685
g48
(g69
g50
NtRp686
(dp687
g53
(dp688
g73
g74
ssg62
g682
sg55
(lp689
S'db_sessions'
p690
asbag48
(g69
g50
NtRp691
(dp692
g53
(dp693
g80
g81
ssg62
g682
sg55
(lp694
S':'
asbag48
(g69
g50
NtRp695
(dp696
g53
(dp697
sg62
g682
sg55
(lp698
g48
(g49
g50
NtRp699
(dp700
g53
(dp701
g61
I4
ssg62
g695
sg55
(lp702
S'set([])'
p703
asbasbasbag48
(g64
g50
NtRp704
(dp705
g53
(dp706
sg62
g587
sg55
(lp707
g48
(g69
g50
NtRp708
(dp709
g53
(dp710
g73
g74
ssg62
g704
sg55
(lp711
S'debugging'
p712
asbag48
(g69
g50
NtRp713
(dp714
g53
(dp715
g80
g81
ssg62
g704
sg55
(lp716
S':'
asbag48
(g69
g50
NtRp717
(dp718
g53
(dp719
sg62
g704
sg55
(lp720
g48
(g49
g50
NtRp721
(dp722
g53
(dp723
g61
I4
ssg62
g717
sg55
(lp724
g91
asbasbasbag48
(g64
g50
NtRp725
(dp726
g53
(dp727
sg62
g587
sg55
(lp728
g48
(g69
g50
NtRp729
(dp730
g53
(dp731
g73
g74
ssg62
g725
sg55
(lp732
S'gluon_parent'
p733
asbag48
(g69
g50
NtRp734
(dp735
g53
(dp736
g80
g81
ssg62
g725
sg55
(lp737
S':'
asbag48
(g69
g50
NtRp738
(dp739
g53
(dp740
sg62
g725
sg55
(lp741
g48
(g49
g50
NtRp742
(dp743
g53
(dp744
g61
I4
ssg62
g738
sg55
(lp745
S'C:\\Python32\\web2py_win\\web2py'
p746
asbasbasbag48
(g64
g50
NtRp747
(dp748
g53
(dp749
sg62
g587
sg55
(lp750
g48
(g69
g50
NtRp751
(dp752
g53
(dp753
g73
g74
ssg62
g747
sg55
(lp754
S'http_accept'
p755
asbag48
(g69
g50
NtRp756
(dp757
g53
(dp758
g80
g81
ssg62
g747
sg55
(lp759
S':'
asbag48
(g69
g50
NtRp760
(dp761
g53
(dp762
sg62
g747
sg55
(lp763
g48
(g49
g50
NtRp764
(dp765
g53
(dp766
g61
I4
ssg62
g760
sg55
(lp767
S'text/html,application/xhtml+xml,application/xml;q=0.9,*/*;q=0.8'
p768
asbasbasbag48
(g64
g50
NtRp769
(dp770
g53
(dp771
sg62
g587
sg55
(lp772
g48
(g69
g50
NtRp773
(dp774
g53
(dp775
g73
g74
ssg62
g769
sg55
(lp776
S'http_accept_charset'
p777
asbag48
(g69
g50
NtRp778
(dp779
g53
(dp780
g80
g81
ssg62
g769
sg55
(lp781
S':'
asbag48
(g69
g50
NtRp782
(dp783
g53
(dp784
sg62
g769
sg55
(lp785
g48
(g49
g50
NtRp786
(dp787
g53
(dp788
g61
I4
ssg62
g782
sg55
(lp789
S'ISO-8859-1,utf-8;q=0.7,*;q=0.3'
p790
asbasbasbag48
(g64
g50
NtRp791
(dp792
g53
(dp793
sg62
g587
sg55
(lp794
g48
(g69
g50
NtRp795
(dp796
g53
(dp797
g73
g74
ssg62
g791
sg55
(lp798
S'http_accept_encoding'
p799
asbag48
(g69
g50
NtRp800
(dp801
g53
(dp802
g80
g81
ssg62
g791
sg55
(lp803
S':'
asbag48
(g69
g50
NtRp804
(dp805
g53
(dp806
sg62
g791
sg55
(lp807
g48
(g49
g50
NtRp808
(dp809
g53
(dp810
g61
I4
ssg62
g804
sg55
(lp811
S'gzip,deflate,sdch'
p812
asbasbasbag48
(g64
g50
NtRp813
(dp814
g53
(dp815
sg62
g587
sg55
(lp816
g48
(g69
g50
NtRp817
(dp818
g53
(dp819
g73
g74
ssg62
g813
sg55
(lp820
S'http_accept_language'
p821
asbag48
(g69
g50
NtRp822
(dp823
g53
(dp824
g80
g81
ssg62
g813
sg55
(lp825
S':'
asbag48
(g69
g50
NtRp826
(dp827
g53
(dp828
sg62
g813
sg55
(lp829
g48
(g49
g50
NtRp830
(dp831
g53
(dp832
g61
I4
ssg62
g826
sg55
(lp833
S'en-US,en;q=0.8'
p834
asbasbasbag48
(g64
g50
NtRp835
(dp836
g53
(dp837
sg62
g587
sg55
(lp838
g48
(g69
g50
NtRp839
(dp840
g53
(dp841
g73
g74
ssg62
g835
sg55
(lp842
S'http_connection'
p843
asbag48
(g69
g50
NtRp844
(dp845
g53
(dp846
g80
g81
ssg62
g835
sg55
(lp847
S':'
asbag48
(g69
g50
NtRp848
(dp849
g53
(dp850
sg62
g835
sg55
(lp851
g48
(g49
g50
NtRp852
(dp853
g53
(dp854
g61
I4
ssg62
g848
sg55
(lp855
S'keep-alive'
p856
asbasbasbag48
(g64
g50
NtRp857
(dp858
g53
(dp859
sg62
g587
sg55
(lp860
g48
(g69
g50
NtRp861
(dp862
g53
(dp863
g73
g74
ssg62
g857
sg55
(lp864
S'http_cookie'
p865
asbag48
(g69
g50
NtRp866
(dp867
g53
(dp868
g80
g81
ssg62
g857
sg55
(lp869
S':'
asbag48
(g69
g50
NtRp870
(dp871
g53
(dp872
sg62
g857
sg55
(lp873
g48
(g49
g50
NtRp874
(dp875
g53
(dp876
g61
I4
ssg62
g870
sg55
(lp877
S'session_id_welcome=127.0.0.1-b0e587db-857b-4f9e-bcd4-bb8824442d0b; session_id_admin=127.0.0.1-315cad40-765b-4d39-a312-47a01b768be2'
p878
asbasbasbag48
(g64
g50
NtRp879
(dp880
g53
(dp881
sg62
g587
sg55
(lp882
g48
(g69
g50
NtRp883
(dp884
g53
(dp885
g73
g74
ssg62
g879
sg55
(lp886
S'http_host'
p887
asbag48
(g69
g50
NtRp888
(dp889
g53
(dp890
g80
g81
ssg62
g879
sg55
(lp891
S':'
asbag48
(g69
g50
NtRp892
(dp893
g53
(dp894
sg62
g879
sg55
(lp895
g48
(g49
g50
NtRp896
(dp897
g53
(dp898
g61
I4
ssg62
g892
sg55
(lp899
S'127.0.0.1:8000'
p900
asbasbasbag48
(g64
g50
NtRp901
(dp902
g53
(dp903
sg62
g587
sg55
(lp904
g48
(g69
g50
NtRp905
(dp906
g53
(dp907
g73
g74
ssg62
g901
sg55
(lp908
S'http_referer'
p909
asbag48
(g69
g50
NtRp910
(dp911
g53
(dp912
g80
g81
ssg62
g901
sg55
(lp913
S':'
asbag48
(g69
g50
NtRp914
(dp915
g53
(dp916
sg62
g901
sg55
(lp917
g48
(g49
g50
NtRp918
(dp919
g53
(dp920
g61
I4
ssg62
g914
sg55
(lp921
S'http://127.0.0.1:8000/admin/default/edit/Casa_de_Apuestas/views/default/maquinas.html'
p922
asbasbasbag48
(g64
g50
NtRp923
(dp924
g53
(dp925
sg62
g587
sg55
(lp926
g48
(g69
g50
NtRp927
(dp928
g53
(dp929
g73
g74
ssg62
g923
sg55
(lp930
S'http_user_agent'
p931
asbag48
(g69
g50
NtRp932
(dp933
g53
(dp934
g80
g81
ssg62
g923
sg55
(lp935
S':'
asbag48
(g69
g50
NtRp936
(dp937
g53
(dp938
sg62
g923
sg55
(lp939
g48
(g49
g50
NtRp940
(dp941
g53
(dp942
g61
I4
ssg62
g936
sg55
(lp943
S'Mozilla/5.0 (Windows NT 6.1) AppleWebKit/535.2 (KHTML, like Gecko) Chrome/15.0.874.121 Safari/535.2'
p944
asbasbasbag48
(g64
g50
NtRp945
(dp946
g53
(dp947
sg62
g587
sg55
(lp948
g48
(g69
g50
NtRp949
(dp950
g53
(dp951
g73
g74
ssg62
g945
sg55
(lp952
S'is_jython'
p953
asbag48
(g69
g50
NtRp954
(dp955
g53
(dp956
g80
g81
ssg62
g945
sg55
(lp957
S':'
asbag48
(g69
g50
NtRp958
(dp959
g53
(dp960
sg62
g945
sg55
(lp961
g48
(g49
g50
NtRp962
(dp963
g53
(dp964
g61
I4
ssg62
g958
sg55
(lp965
g91
asbasbasbag48
(g64
g50
NtRp966
(dp967
g53
(dp968
sg62
g587
sg55
(lp969
g48
(g69
g50
NtRp970
(dp971
g53
(dp972
g73
g74
ssg62
g966
sg55
(lp973
S'path_info'
p974
asbag48
(g69
g50
NtRp975
(dp976
g53
(dp977
g80
g81
ssg62
g966
sg55
(lp978
S':'
asbag48
(g69
g50
NtRp979
(dp980
g53
(dp981
sg62
g966
sg55
(lp982
g48
(g49
g50
NtRp983
(dp984
g53
(dp985
g61
I4
ssg62
g979
sg55
(lp986
S'/Casa_de_Apuestas/default/maquinas'
p987
asbasbasbag48
(g64
g50
NtRp988
(dp989
g53
(dp990
sg62
g587
sg55
(lp991
g48
(g69
g50
NtRp992
(dp993
g53
(dp994
g73
g74
ssg62
g988
sg55
(lp995
S'query_string'
p996
asbag48
(g69
g50
NtRp997
(dp998
g53
(dp999
g80
g81
ssg62
g988
sg55
(lp1000
S':'
asbag48
(g69
g50
NtRp1001
(dp1002
g53
(dp1003
sg62
g988
sg55
(lp1004
g48
(g49
g50
NtRp1005
(dp1006
g53
(dp1007
g61
I4
ssg62
g1001
sg55
(lp1008
S''
asbasbasbag48
(g64
g50
NtRp1009
(dp1010
g53
(dp1011
sg62
g587
sg55
(lp1012
g48
(g69
g50
NtRp1013
(dp1014
g53
(dp1015
g73
g74
ssg62
g1009
sg55
(lp1016
S'remote_addr'
p1017
asbag48
(g69
g50
NtRp1018
(dp1019
g53
(dp1020
g80
g81
ssg62
g1009
sg55
(lp1021
S':'
asbag48
(g69
g50
NtRp1022
(dp1023
g53
(dp1024
sg62
g1009
sg55
(lp1025
g48
(g49
g50
NtRp1026
(dp1027
g53
(dp1028
g61
I4
ssg62
g1022
sg55
(lp1029
g181
asbasbasbag48
(g64
g50
NtRp1030
(dp1031
g53
(dp1032
sg62
g587
sg55
(lp1033
g48
(g69
g50
NtRp1034
(dp1035
g53
(dp1036
g73
g74
ssg62
g1030
sg55
(lp1037
S'remote_port'
p1038
asbag48
(g69
g50
NtRp1039
(dp1040
g53
(dp1041
g80
g81
ssg62
g1030
sg55
(lp1042
S':'
asbag48
(g69
g50
NtRp1043
(dp1044
g53
(dp1045
sg62
g1030
sg55
(lp1046
g48
(g49
g50
NtRp1047
(dp1048
g53
(dp1049
g61
I4
ssg62
g1043
sg55
(lp1050
S'50802'
p1051
asbasbasbag48
(g64
g50
NtRp1052
(dp1053
g53
(dp1054
sg62
g587
sg55
(lp1055
g48
(g69
g50
NtRp1056
(dp1057
g53
(dp1058
g73
g74
ssg62
g1052
sg55
(lp1059
S'request_method'
p1060
asbag48
(g69
g50
NtRp1061
(dp1062
g53
(dp1063
g80
g81
ssg62
g1052
sg55
(lp1064
S':'
asbag48
(g69
g50
NtRp1065
(dp1066
g53
(dp1067
sg62
g1052
sg55
(lp1068
g48
(g49
g50
NtRp1069
(dp1070
g53
(dp1071
g61
I4
ssg62
g1065
sg55
(lp1072
S'GET'
p1073
asbasbasbag48
(g64
g50
NtRp1074
(dp1075
g53
(dp1076
sg62
g587
sg55
(lp1077
g48
(g69
g50
NtRp1078
(dp1079
g53
(dp1080
g73
g74
ssg62
g1074
sg55
(lp1081
S'script_name'
p1082
asbag48
(g69
g50
NtRp1083
(dp1084
g53
(dp1085
g80
g81
ssg62
g1074
sg55
(lp1086
S':'
asbag48
(g69
g50
NtRp1087
(dp1088
g53
(dp1089
sg62
g1074
sg55
(lp1090
g48
(g49
g50
NtRp1091
(dp1092
g53
(dp1093
g61
I4
ssg62
g1087
sg55
(lp1094
S''
asbasbasbag48
(g64
g50
NtRp1095
(dp1096
g53
(dp1097
sg62
g587
sg55
(lp1098
g48
(g69
g50
NtRp1099
(dp1100
g53
(dp1101
g73
g74
ssg62
g1095
sg55
(lp1102
S'server_name'
p1103
asbag48
(g69
g50
NtRp1104
(dp1105
g53
(dp1106
g80
g81
ssg62
g1095
sg55
(lp1107
S':'
asbag48
(g69
g50
NtRp1108
(dp1109
g53
(dp1110
sg62
g1095
sg55
(lp1111
g48
(g49
g50
NtRp1112
(dp1113
g53
(dp1114
g61
I4
ssg62
g1108
sg55
(lp1115
S'hector-vaio'
p1116
asbasbasbag48
(g64
g50
NtRp1117
(dp1118
g53
(dp1119
sg62
g587
sg55
(lp1120
g48
(g69
g50
NtRp1121
(dp1122
g53
(dp1123
g73
g74
ssg62
g1117
sg55
(lp1124
S'server_port'
p1125
asbag48
(g69
g50
NtRp1126
(dp1127
g53
(dp1128
g80
g81
ssg62
g1117
sg55
(lp1129
S':'
asbag48
(g69
g50
NtRp1130
(dp1131
g53
(dp1132
sg62
g1117
sg55
(lp1133
g48
(g49
g50
NtRp1134
(dp1135
g53
(dp1136
g61
I4
ssg62
g1130
sg55
(lp1137
S'8000'
p1138
asbasbasbag48
(g64
g50
NtRp1139
(dp1140
g53
(dp1141
sg62
g587
sg55
(lp1142
g48
(g69
g50
NtRp1143
(dp1144
g53
(dp1145
g73
g74
ssg62
g1139
sg55
(lp1146
S'server_protocol'
p1147
asbag48
(g69
g50
NtRp1148
(dp1149
g53
(dp1150
g80
g81
ssg62
g1139
sg55
(lp1151
S':'
asbag48
(g69
g50
NtRp1152
(dp1153
g53
(dp1154
sg62
g1139
sg55
(lp1155
g48
(g49
g50
NtRp1156
(dp1157
g53
(dp1158
g61
I4
ssg62
g1152
sg55
(lp1159
S'HTTP/1.1'
p1160
asbasbasbag48
(g64
g50
NtRp1161
(dp1162
g53
(dp1163
sg62
g587
sg55
(lp1164
g48
(g69
g50
NtRp1165
(dp1166
g53
(dp1167
g73
g74
ssg62
g1161
sg55
(lp1168
S'server_software'
p1169
asbag48
(g69
g50
NtRp1170
(dp1171
g53
(dp1172
g80
g81
ssg62
g1161
sg55
(lp1173
S':'
asbag48
(g69
g50
NtRp1174
(dp1175
g53
(dp1176
sg62
g1161
sg55
(lp1177
g48
(g49
g50
NtRp1178
(dp1179
g53
(dp1180
g61
I4
ssg62
g1174
sg55
(lp1181
S'Rocket 1.2.4'
p1182
asbasbasbag48
(g64
g50
NtRp1183
(dp1184
g53
(dp1185
sg62
g587
sg55
(lp1186
g48
(g69
g50
NtRp1187
(dp1188
g53
(dp1189
g73
g74
ssg62
g1183
sg55
(lp1190
S'web2py_crontype'
p1191
asbag48
(g69
g50
NtRp1192
(dp1193
g53
(dp1194
g80
g81
ssg62
g1183
sg55
(lp1195
S':'
asbag48
(g69
g50
NtRp1196
(dp1197
g53
(dp1198
sg62
g1183
sg55
(lp1199
g48
(g49
g50
NtRp1200
(dp1201
g53
(dp1202
g61
I4
ssg62
g1196
sg55
(lp1203
S'hard'
p1204
asbasbasbag48
(g64
g50
NtRp1205
(dp1206
g53
(dp1207
sg62
g587
sg55
(lp1208
g48
(g69
g50
NtRp1209
(dp1210
g53
(dp1211
g73
g74
ssg62
g1205
sg55
(lp1212
S'web2py_path'
p1213
asbag48
(g69
g50
NtRp1214
(dp1215
g53
(dp1216
g80
g81
ssg62
g1205
sg55
(lp1217
S':'
asbag48
(g69
g50
NtRp1218
(dp1219
g53
(dp1220
sg62
g1205
sg55
(lp1221
g48
(g49
g50
NtRp1222
(dp1223
g53
(dp1224
g61
I4
ssg62
g1218
sg55
(lp1225
g634
asbasbasbag48
(g64
g50
NtRp1226
(dp1227
g53
(dp1228
sg62
g587
sg55
(lp1229
g48
(g69
g50
NtRp1230
(dp1231
g53
(dp1232
g73
g74
ssg62
g1226
sg55
(lp1233
S'web2py_version'
p1234
asbag48
(g69
g50
NtRp1235
(dp1236
g53
(dp1237
g80
g81
ssg62
g1226
sg55
(lp1238
S':'
asbag48
(g69
g50
NtRp1239
(dp1240
g53
(dp1241
sg62
g1226
sg55
(lp1242
g48
(g49
g50
NtRp1243
(dp1244
g53
(dp1245
g61
I4
ssg62
g1239
sg55
(lp1246
g48
(g57
g50
NtRp1247
(dp1248
g53
(dp1249
g61
I3
ssg62
Nsg55
(lp1250
g48
(g64
g50
NtRp1251
(dp1252
g53
(dp1253
sg62
g1247
sg55
(lp1254
g48
(g69
g50
NtRp1255
(dp1256
g53
(dp1257
sg62
g1251
sg55
(lp1258
g48
(g49
g50
NtRp1259
(dp1260
g53
(dp1261
g61
I3
ssg62
g1255
sg55
(lp1262
S'1'
asbasbasbag48
(g64
g50
NtRp1263
(dp1264
g53
(dp1265
sg62
g1247
sg55
(lp1266
g48
(g69
g50
NtRp1267
(dp1268
g53
(dp1269
sg62
g1263
sg55
(lp1270
g48
(g49
g50
NtRp1271
(dp1272
g53
(dp1273
g61
I3
ssg62
g1267
sg55
(lp1274
S'99'
p1275
asbasbasbag48
(g64
g50
NtRp1276
(dp1277
g53
(dp1278
sg62
g1247
sg55
(lp1279
g48
(g69
g50
NtRp1280
(dp1281
g53
(dp1282
sg62
g1276
sg55
(lp1283
g48
(g49
g50
NtRp1284
(dp1285
g53
(dp1286
g61
I3
ssg62
g1280
sg55
(lp1287
S'2'
asbasbasbag48
(g64
g50
NtRp1288
(dp1289
g53
(dp1290
sg62
g1247
sg55
(lp1291
g48
(g69
g50
NtRp1292
(dp1293
g53
(dp1294
sg62
g1288
sg55
(lp1295
g48
(g49
g50
NtRp1296
(dp1297
g53
(dp1298
g61
I3
ssg62
g1292
sg55
(lp1299
S'datetime.datetime(2011, 9, 26, 6, 55, 33)'
p1300
asbasbasbag48
(g64
g50
NtRp1301
(dp1302
g53
(dp1303
sg62
g1247
sg55
(lp1304
g48
(g69
g50
NtRp1305
(dp1306
g53
(dp1307
sg62
g1301
sg55
(lp1308
g48
(g49
g50
NtRp1309
(dp1310
g53
(dp1311
g61
I3
ssg62
g1305
sg55
(lp1312
S'stable'
p1313
asbasbasbasbasbasbasbag48
(g64
g50
NtRp1314
(dp1315
g53
(dp1316
sg62
g587
sg55
(lp1317
g48
(g69
g50
NtRp1318
(dp1319
g53
(dp1320
g73
g74
ssg62
g1314
sg55
(lp1321
S'wsgi_errors'
p1322
asbag48
(g69
g50
NtRp1323
(dp1324
g53
(dp1325
g80
g81
ssg62
g1314
sg55
(lp1326
S':'
asbag48
(g69
g50
NtRp1327
(dp1328
g53
(dp1329
sg62
g1314
sg55
(lp1330
g48
(g49
g50
NtRp1331
(dp1332
g53
(dp1333
g61
I4
ssg62
g1327
sg55
(lp1334
S"<open file '<stderr>', mode 'w' at 0x014D00B0>"
p1335
asbasbasbag48
(g64
g50
NtRp1336
(dp1337
g53
(dp1338
sg62
g587
sg55
(lp1339
g48
(g69
g50
NtRp1340
(dp1341
g53
(dp1342
g73
g74
ssg62
g1336
sg55
(lp1343
S'wsgi_file_wrapper'
p1344
asbag48
(g69
g50
NtRp1345
(dp1346
g53
(dp1347
g80
g81
ssg62
g1336
sg55
(lp1348
S':'
asbag48
(g69
g50
NtRp1349
(dp1350
g53
(dp1351
sg62
g1336
sg55
(lp1352
g48
(g49
g50
NtRp1353
(dp1354
g53
(dp1355
g61
I4
ssg62
g1349
sg55
(lp1356
S'<class wsgiref.util.FileWrapper at 0x023F9AB0>'
p1357
asbasbasbag48
(g64
g50
NtRp1358
(dp1359
g53
(dp1360
sg62
g587
sg55
(lp1361
g48
(g69
g50
NtRp1362
(dp1363
g53
(dp1364
g73
g74
ssg62
g1358
sg55
(lp1365
S'wsgi_input'
p1366
asbag48
(g69
g50
NtRp1367
(dp1368
g53
(dp1369
g80
g81
ssg62
g1358
sg55
(lp1370
S':'
asbag48
(g69
g50
NtRp1371
(dp1372
g53
(dp1373
sg62
g1358
sg55
(lp1374
g48
(g49
g50
NtRp1375
(dp1376
g53
(dp1377
g61
I4
ssg62
g1371
sg55
(lp1378
S'<socket._fileobject object at 0x059BE330>'
p1379
asbasbasbag48
(g64
g50
NtRp1380
(dp1381
g53
(dp1382
sg62
g587
sg55
(lp1383
g48
(g69
g50
NtRp1384
(dp1385
g53
(dp1386
g73
g74
ssg62
g1380
sg55
(lp1387
S'wsgi_multiprocess'
p1388
asbag48
(g69
g50
NtRp1389
(dp1390
g53
(dp1391
g80
g81
ssg62
g1380
sg55
(lp1392
S':'
asbag48
(g69
g50
NtRp1393
(dp1394
g53
(dp1395
sg62
g1380
sg55
(lp1396
g48
(g49
g50
NtRp1397
(dp1398
g53
(dp1399
g61
I4
ssg62
g1393
sg55
(lp1400
g91
asbasbasbag48
(g64
g50
NtRp1401
(dp1402
g53
(dp1403
sg62
g587
sg55
(lp1404
g48
(g69
g50
NtRp1405
(dp1406
g53
(dp1407
g73
g74
ssg62
g1401
sg55
(lp1408
S'wsgi_multithread'
p1409
asbag48
(g69
g50
NtRp1410
(dp1411
g53
(dp1412
g80
g81
ssg62
g1401
sg55
(lp1413
S':'
asbag48
(g69
g50
NtRp1414
(dp1415
g53
(dp1416
sg62
g1401
sg55
(lp1417
g48
(g49
g50
NtRp1418
(dp1419
g53
(dp1420
g61
I4
ssg62
g1414
sg55
(lp1421
S'True'
p1422
asbasbasbag48
(g64
g50
NtRp1423
(dp1424
g53
(dp1425
sg62
g587
sg55
(lp1426
g48
(g69
g50
NtRp1427
(dp1428
g53
(dp1429
g73
g74
ssg62
g1423
sg55
(lp1430
S'wsgi_run_once'
p1431
asbag48
(g69
g50
NtRp1432
(dp1433
g53
(dp1434
g80
g81
ssg62
g1423
sg55
(lp1435
S':'
asbag48
(g69
g50
NtRp1436
(dp1437
g53
(dp1438
sg62
g1423
sg55
(lp1439
g48
(g49
g50
NtRp1440
(dp1441
g53
(dp1442
g61
I4
ssg62
g1436
sg55
(lp1443
g91
asbasbasbag48
(g64
g50
NtRp1444
(dp1445
g53
(dp1446
sg62
g587
sg55
(lp1447
g48
(g69
g50
NtRp1448
(dp1449
g53
(dp1450
g73
g74
ssg62
g1444
sg55
(lp1451
S'wsgi_url_scheme'
p1452
asbag48
(g69
g50
NtRp1453
(dp1454
g53
(dp1455
g80
g81
ssg62
g1444
sg55
(lp1456
S':'
asbag48
(g69
g50
NtRp1457
(dp1458
g53
(dp1459
sg62
g1444
sg55
(lp1460
g48
(g49
g50
NtRp1461
(dp1462
g53
(dp1463
g61
I4
ssg62
g1457
sg55
(lp1464
S'http'
p1465
asbasbasbag48
(g64
g50
NtRp1466
(dp1467
g53
(dp1468
sg62
g587
sg55
(lp1469
g48
(g69
g50
NtRp1470
(dp1471
g53
(dp1472
g73
g74
ssg62
g1466
sg55
(lp1473
S'wsgi_version'
p1474
asbag48
(g69
g50
NtRp1475
(dp1476
g53
(dp1477
g80
g81
ssg62
g1466
sg55
(lp1478
S':'
asbag48
(g69
g50
NtRp1479
(dp1480
g53
(dp1481
sg62
g1466
sg55
(lp1482
g48
(g49
g50
NtRp1483
(dp1484
g53
(dp1485
g61
I4
ssg62
g1479
sg55
(lp1486
g48
(g57
g50
NtRp1487
(dp1488
g53
(dp1489
g61
I3
ssg62
Nsg55
(lp1490
g48
(g64
g50
NtRp1491
(dp1492
g53
(dp1493
sg62
g1487
sg55
(lp1494
g48
(g69
g50
NtRp1495
(dp1496
g53
(dp1497
sg62
g1491
sg55
(lp1498
g48
(g49
g50
NtRp1499
(dp1500
g53
(dp1501
g61
I3
ssg62
g1495
sg55
(lp1502
S'1'
asbasbasbag48
(g64
g50
NtRp1503
(dp1504
g53
(dp1505
sg62
g1487
sg55
(lp1506
g48
(g69
g50
NtRp1507
(dp1508
g53
(dp1509
sg62
g1503
sg55
(lp1510
g48
(g49
g50
NtRp1511
(dp1512
g53
(dp1513
g61
I3
ssg62
g1507
sg55
(lp1514
S'0'
asbasbasbasbasbasbasbasbasbasbasbag48
(g64
g50
NtRp1515
(dp1516
g53
(dp1517
sg62
g58
sg55
(lp1518
g48
(g69
g50
NtRp1519
(dp1520
g53
(dp1521
g73
g74
ssg62
g1515
sg55
(lp1522
S'extension'
p1523
asbag48
(g69
g50
NtRp1524
(dp1525
g53
(dp1526
g80
g81
ssg62
g1515
sg55
(lp1527
S':'
asbag48
(g69
g50
NtRp1528
(dp1529
g53
(dp1530
sg62
g1515
sg55
(lp1531
g48
(g49
g50
NtRp1532
(dp1533
g53
(dp1534
g61
I5
ssg62
g1528
sg55
(lp1535
S'html'
p1536
asbasbasbag48
(g64
g50
NtRp1537
(dp1538
g53
(dp1539
sg62
g58
sg55
(lp1540
g48
(g69
g50
NtRp1541
(dp1542
g53
(dp1543
g73
g74
ssg62
g1537
sg55
(lp1544
S'folder'
p1545
asbag48
(g69
g50
NtRp1546
(dp1547
g53
(dp1548
g80
g81
ssg62
g1537
sg55
(lp1549
S':'
asbag48
(g69
g50
NtRp1550
(dp1551
g53
(dp1552
sg62
g1537
sg55
(lp1553
g48
(g49
g50
NtRp1554
(dp1555
g53
(dp1556
g61
I5
ssg62
g1550
sg55
(lp1557
S'C:\\Python32\\web2py_win\\web2py\\applications\\Casa_de_Apuestas\\'
p1558
asbasbasbag48
(g64
g50
NtRp1559
(dp1560
g53
(dp1561
sg62
g58
sg55
(lp1562
g48
(g69
g50
NtRp1563
(dp1564
g53
(dp1565
g73
g74
ssg62
g1559
sg55
(lp1566
S'function'
p1567
asbag48
(g69
g50
NtRp1568
(dp1569
g53
(dp1570
g80
g81
ssg62
g1559
sg55
(lp1571
S':'
asbag48
(g69
g50
NtRp1572
(dp1573
g53
(dp1574
sg62
g1559
sg55
(lp1575
g48
(g49
g50
NtRp1576
(dp1577
g53
(dp1578
g61
I5
ssg62
g1572
sg55
(lp1579
S'maquinas'
p1580
asbasbasbag48
(g64
g50
NtRp1581
(dp1582
g53
(dp1583
sg62
g58
sg55
(lp1584
g48
(g69
g50
NtRp1585
(dp1586
g53
(dp1587
g73
g74
ssg62
g1581
sg55
(lp1588
S'get_vars'
p1589
asbag48
(g69
g50
NtRp1590
(dp1591
g53
(dp1592
g80
g81
ssg62
g1581
sg55
(lp1593
S':'
asbag48
(g69
g50
NtRp1594
(dp1595
g53
(dp1596
sg62
g1581
sg55
(lp1597
g48
(g49
g50
NtRp1598
(dp1599
g53
(dp1600
g61
I5
ssg62
g1594
sg55
(lp1601
g48
(g57
g50
NtRp1602
(dp1603
g53
(dp1604
g61
I4
ssg62
Nsg55
(lp1605
sbasbasbasbag48
(g64
g50
NtRp1606
(dp1607
g53
(dp1608
sg62
g58
sg55
(lp1609
g48
(g69
g50
NtRp1610
(dp1611
g53
(dp1612
g73
g74
ssg62
g1606
sg55
(lp1613
S'global_settings'
p1614
asbag48
(g69
g50
NtRp1615
(dp1616
g53
(dp1617
g80
g81
ssg62
g1606
sg55
(lp1618
S':'
asbag48
(g69
g50
NtRp1619
(dp1620
g53
(dp1621
sg62
g1606
sg55
(lp1622
g48
(g49
g50
NtRp1623
(dp1624
g53
(dp1625
g61
I5
ssg62
g1619
sg55
(lp1626
g48
(g57
g50
NtRp1627
(dp1628
g53
(dp1629
g61
I4
ssg62
Nsg55
(lp1630
g48
(g64
g50
NtRp1631
(dp1632
g53
(dp1633
sg62
g1627
sg55
(lp1634
g48
(g69
g50
NtRp1635
(dp1636
g53
(dp1637
g73
g74
ssg62
g1631
sg55
(lp1638
g599
asbag48
(g69
g50
NtRp1639
(dp1640
g53
(dp1641
g80
g81
ssg62
g1631
sg55
(lp1642
S':'
asbag48
(g69
g50
NtRp1643
(dp1644
g53
(dp1645
sg62
g1631
sg55
(lp1646
g48
(g49
g50
NtRp1647
(dp1648
g53
(dp1649
g61
I4
ssg62
g1643
sg55
(lp1650
S"set(['C:\\\\Python32\\\\web2py_win\\\\web2py\\\\applications\\\\admin\\\\', 'C:\\\\Python32\\\\web2py_win\\\\web2py\\\\applications\\\\welcome\\\\', 'C:\\\\Python32\\\\web2py_win\\\\web2py\\\\applications\\\\Casa_de_Apuestas\\\\'])"
p1651
asbasbasbag48
(g64
g50
NtRp1652
(dp1653
g53
(dp1654
sg62
g1627
sg55
(lp1655
g48
(g69
g50
NtRp1656
(dp1657
g53
(dp1658
g73
g74
ssg62
g1652
sg55
(lp1659
g621
asbag48
(g69
g50
NtRp1660
(dp1661
g53
(dp1662
g80
g81
ssg62
g1652
sg55
(lp1663
S':'
asbag48
(g69
g50
NtRp1664
(dp1665
g53
(dp1666
sg62
g1652
sg55
(lp1667
g48
(g49
g50
NtRp1668
(dp1669
g53
(dp1670
g61
I4
ssg62
g1664
sg55
(lp1671
g634
asbasbasbag48
(g64
g50
NtRp1672
(dp1673
g53
(dp1674
sg62
g1627
sg55
(lp1675
g48
(g69
g50
NtRp1676
(dp1677
g53
(dp1678
g73
g74
ssg62
g1672
sg55
(lp1679
g643
asbag48
(g69
g50
NtRp1680
(dp1681
g53
(dp1682
g80
g81
ssg62
g1672
sg55
(lp1683
S':'
asbag48
(g69
g50
NtRp1684
(dp1685
g53
(dp1686
sg62
g1672
sg55
(lp1687
g48
(g49
g50
NtRp1688
(dp1689
g53
(dp1690
g61
I4
ssg62
g1684
sg55
(lp1691
g48
(g57
g50
NtRp1692
(dp1693
g53
(dp1694
g61
I3
ssg62
Nsg55
(lp1695
sbasbasbasbag48
(g64
g50
NtRp1696
(dp1697
g53
(dp1698
sg62
g1627
sg55
(lp1699
g48
(g69
g50
NtRp1700
(dp1701
g53
(dp1702
g73
g74
ssg62
g1696
sg55
(lp1703
g668
asbag48
(g69
g50
NtRp1704
(dp1705
g53
(dp1706
g80
g81
ssg62
g1696
sg55
(lp1707
S':'
asbag48
(g69
g50
NtRp1708
(dp1709
g53
(dp1710
sg62
g1696
sg55
(lp1711
g48
(g49
g50
NtRp1712
(dp1713
g53
(dp1714
g61
I4
ssg62
g1708
sg55
(lp1715
S"<Values at 0x2655fa8: {'verbose': False, 'ip': '127.0.0.1', 'shutdown_timeout': 5, 'taskbar': False, 'nocron': False, 'pid_filename': 'httpserver.pid', 'maxthreads': None, 'softcron': False, 'server_name': 'hector-vaio', 'bpython': False, 'nogui': False, 'port': 8000, 'extcron': False, 'debuglevel': 30, 'test': None, 'folder': 'C:\\\\Python32\\\\web2py_win\\\\web2py', 'config': '', 'import_models': False, 'winservice': '', 'shell': None, 'run': '', 'log_filename': 'httpserver.log', 'args': [''], 'ssl_ca_certificate': None, 'scheduler': None, 'profiler_filename': None, 'ssl_private_key': '', 'password': '<ask>', 'request_queue_size': 5, 'ssl_certificate': '', 'cronjob': False, 'plain': False, 'quiet': False, 'interfaces': None, 'minthreads': None, 'timeout': 10, 'numthreads': None, 'nobanner': False}>"
p1716
asbasbasbag48
(g64
g50
NtRp1717
(dp1718
g53
(dp1719
sg62
g1627
sg55
(lp1720
g48
(g69
g50
NtRp1721
(dp1722
g53
(dp1723
g73
g74
ssg62
g1717
sg55
(lp1724
g690
asbag48
(g69
g50
NtRp1725
(dp1726
g53
(dp1727
g80
g81
ssg62
g1717
sg55
(lp1728
S':'
asbag48
(g69
g50
NtRp1729
(dp1730
g53
(dp1731
sg62
g1717
sg55
(lp1732
g48
(g49
g50
NtRp1733
(dp1734
g53
(dp1735
g61
I4
ssg62
g1729
sg55
(lp1736
S'set([])'
p1737
asbasbasbag48
(g64
g50
NtRp1738
(dp1739
g53
(dp1740
sg62
g1627
sg55
(lp1741
g48
(g69
g50
NtRp1742
(dp1743
g53
(dp1744
g73
g74
ssg62
g1738
sg55
(lp1745
g712
asbag48
(g69
g50
NtRp1746
(dp1747
g53
(dp1748
g80
g81
ssg62
g1738
sg55
(lp1749
S':'
asbag48
(g69
g50
NtRp1750
(dp1751
g53
(dp1752
sg62
g1738
sg55
(lp1753
g48
(g49
g50
NtRp1754
(dp1755
g53
(dp1756
g61
I4
ssg62
g1750
sg55
(lp1757
g91
asbasbasbag48
(g64
g50
NtRp1758
(dp1759
g53
(dp1760
sg62
g1627
sg55
(lp1761
g48
(g69
g50
NtRp1762
(dp1763
g53
(dp1764
g73
g74
ssg62
g1758
sg55
(lp1765
g733
asbag48
(g69
g50
NtRp1766
(dp1767
g53
(dp1768
g80
g81
ssg62
g1758
sg55
(lp1769
S':'
asbag48
(g69
g50
NtRp1770
(dp1771
g53
(dp1772
sg62
g1758
sg55
(lp1773
g48
(g49
g50
NtRp1774
(dp1775
g53
(dp1776
g61
I4
ssg62
g1770
sg55
(lp1777
g746
asbasbasbag48
(g64
g50
NtRp1778
(dp1779
g53
(dp1780
sg62
g1627
sg55
(lp1781
g48
(g69
g50
NtRp1782
(dp1783
g53
(dp1784
g73
g74
ssg62
g1778
sg55
(lp1785
g953
asbag48
(g69
g50
NtRp1786
(dp1787
g53
(dp1788
g80
g81
ssg62
g1778
sg55
(lp1789
S':'
asbag48
(g69
g50
NtRp1790
(dp1791
g53
(dp1792
sg62
g1778
sg55
(lp1793
g48
(g49
g50
NtRp1794
(dp1795
g53
(dp1796
g61
I4
ssg62
g1790
sg55
(lp1797
g91
asbasbasbag48
(g64
g50
NtRp1798
(dp1799
g53
(dp1800
sg62
g1627
sg55
(lp1801
g48
(g69
g50
NtRp1802
(dp1803
g53
(dp1804
g73
g74
ssg62
g1798
sg55
(lp1805
g1191
asbag48
(g69
g50
NtRp1806
(dp1807
g53
(dp1808
g80
g81
ssg62
g1798
sg55
(lp1809
S':'
asbag48
(g69
g50
NtRp1810
(dp1811
g53
(dp1812
sg62
g1798
sg55
(lp1813
g48
(g49
g50
NtRp1814
(dp1815
g53
(dp1816
g61
I4
ssg62
g1810
sg55
(lp1817
g1204
asbasbasbag48
(g64
g50
NtRp1818
(dp1819
g53
(dp1820
sg62
g1627
sg55
(lp1821
g48
(g69
g50
NtRp1822
(dp1823
g53
(dp1824
g73
g74
ssg62
g1818
sg55
(lp1825
g1234
asbag48
(g69
g50
NtRp1826
(dp1827
g53
(dp1828
g80
g81
ssg62
g1818
sg55
(lp1829
S':'
asbag48
(g69
g50
NtRp1830
(dp1831
g53
(dp1832
sg62
g1818
sg55
(lp1833
g48
(g49
g50
NtRp1834
(dp1835
g53
(dp1836
g61
I4
ssg62
g1830
sg55
(lp1837
g48
(g57
g50
NtRp1838
(dp1839
g53
(dp1840
g61
I3
ssg62
Nsg55
(lp1841
g48
(g64
g50
NtRp1842
(dp1843
g53
(dp1844
sg62
g1838
sg55
(lp1845
g48
(g69
g50
NtRp1846
(dp1847
g53
(dp1848
sg62
g1842
sg55
(lp1849
g48
(g49
g50
NtRp1850
(dp1851
g53
(dp1852
g61
I3
ssg62
g1846
sg55
(lp1853
S'1'
asbasbasbag48
(g64
g50
NtRp1854
(dp1855
g53
(dp1856
sg62
g1838
sg55
(lp1857
g48
(g69
g50
NtRp1858
(dp1859
g53
(dp1860
sg62
g1854
sg55
(lp1861
g48
(g49
g50
NtRp1862
(dp1863
g53
(dp1864
g61
I3
ssg62
g1858
sg55
(lp1865
S'99'
p1866
asbasbasbag48
(g64
g50
NtRp1867
(dp1868
g53
(dp1869
sg62
g1838
sg55
(lp1870
g48
(g69
g50
NtRp1871
(dp1872
g53
(dp1873
sg62
g1867
sg55
(lp1874
g48
(g49
g50
NtRp1875
(dp1876
g53
(dp1877
g61
I3
ssg62
g1871
sg55
(lp1878
S'2'
asbasbasbag48
(g64
g50
NtRp1879
(dp1880
g53
(dp1881
sg62
g1838
sg55
(lp1882
g48
(g69
g50
NtRp1883
(dp1884
g53
(dp1885
sg62
g1879
sg55
(lp1886
g48
(g49
g50
NtRp1887
(dp1888
g53
(dp1889
g61
I3
ssg62
g1883
sg55
(lp1890
S'datetime.datetime(2011, 9, 26, 6, 55, 33)'
p1891
asbasbasbag48
(g64
g50
NtRp1892
(dp1893
g53
(dp1894
sg62
g1838
sg55
(lp1895
g48
(g69
g50
NtRp1896
(dp1897
g53
(dp1898
sg62
g1892
sg55
(lp1899
g48
(g49
g50
NtRp1900
(dp1901
g53
(dp1902
g61
I3
ssg62
g1896
sg55
(lp1903
g1313
asbasbasbasbasbasbasbasbasbasbasbag48
(g64
g50
NtRp1904
(dp1905
g53
(dp1906
sg62
g58
sg55
(lp1907
g48
(g69
g50
NtRp1908
(dp1909
g53
(dp1910
g73
g74
ssg62
g1904
sg55
(lp1911
S'is_https'
p1912
asbag48
(g69
g50
NtRp1913
(dp1914
g53
(dp1915
g80
g81
ssg62
g1904
sg55
(lp1916
S':'
asbag48
(g69
g50
NtRp1917
(dp1918
g53
(dp1919
sg62
g1904
sg55
(lp1920
g48
(g49
g50
NtRp1921
(dp1922
g53
(dp1923
g61
I5
ssg62
g1917
sg55
(lp1924
g91
asbasbasbag48
(g64
g50
NtRp1925
(dp1926
g53
(dp1927
sg62
g58
sg55
(lp1928
g48
(g69
g50
NtRp1929
(dp1930
g53
(dp1931
g73
g74
ssg62
g1925
sg55
(lp1932
S'is_local'
p1933
asbag48
(g69
g50
NtRp1934
(dp1935
g53
(dp1936
g80
g81
ssg62
g1925
sg55
(lp1937
S':'
asbag48
(g69
g50
NtRp1938
(dp1939
g53
(dp1940
sg62
g1925
sg55
(lp1941
g48
(g49
g50
NtRp1942
(dp1943
g53
(dp1944
g61
I5
ssg62
g1938
sg55
(lp1945
g1422
asbasbasbag48
(g64
g50
NtRp1946
(dp1947
g53
(dp1948
sg62
g58
sg55
(lp1949
g48
(g69
g50
NtRp1950
(dp1951
g53
(dp1952
g73
g74
ssg62
g1946
sg55
(lp1953
S'is_restful'
p1954
asbag48
(g69
g50
NtRp1955
(dp1956
g53
(dp1957
g80
g81
ssg62
g1946
sg55
(lp1958
S':'
asbag48
(g69
g50
NtRp1959
(dp1960
g53
(dp1961
sg62
g1946
sg55
(lp1962
g48
(g49
g50
NtRp1963
(dp1964
g53
(dp1965
g61
I5
ssg62
g1959
sg55
(lp1966
g91
asbasbasbag48
(g64
g50
NtRp1967
(dp1968
g53
(dp1969
sg62
g58
sg55
(lp1970
g48
(g69
g50
NtRp1971
(dp1972
g53
(dp1973
g73
g74
ssg62
g1967
sg55
(lp1974
S'now'
p1975
asbag48
(g69
g50
NtRp1976
(dp1977
g53
(dp1978
g80
g81
ssg62
g1967
sg55
(lp1979
S':'
asbag48
(g69
g50
NtRp1980
(dp1981
g53
(dp1982
sg62
g1967
sg55
(lp1983
g48
(g49
g50
NtRp1984
(dp1985
g53
(dp1986
g61
I5
ssg62
g1980
sg55
(lp1987
S'datetime.datetime(2011, 11, 26, 23, 42, 23, 907000)'
p1988
asbasbasbag48
(g64
g50
NtRp1989
(dp1990
g53
(dp1991
sg62
g58
sg55
(lp1992
g48
(g69
g50
NtRp1993
(dp1994
g53
(dp1995
g73
g74
ssg62
g1989
sg55
(lp1996
S'post_vars'
p1997
asbag48
(g69
g50
NtRp1998
(dp1999
g53
(dp2000
g80
g81
ssg62
g1989
sg55
(lp2001
S':'
asbag48
(g69
g50
NtRp2002
(dp2003
g53
(dp2004
sg62
g1989
sg55
(lp2005
g48
(g49
g50
NtRp2006
(dp2007
g53
(dp2008
g61
I5
ssg62
g2002
sg55
(lp2009
g48
(g57
g50
NtRp2010
(dp2011
g53
(dp2012
g61
I4
ssg62
Nsg55
(lp2013
sbasbasbasbag48
(g64
g50
NtRp2014
(dp2015
g53
(dp2016
sg62
g58
sg55
(lp2017
g48
(g69
g50
NtRp2018
(dp2019
g53
(dp2020
g73
g74
ssg62
g2014
sg55
(lp2021
S'url'
p2022
asbag48
(g69
g50
NtRp2023
(dp2024
g53
(dp2025
g80
g81
ssg62
g2014
sg55
(lp2026
S':'
asbag48
(g69
g50
NtRp2027
(dp2028
g53
(dp2029
sg62
g2014
sg55
(lp2030
g48
(g49
g50
NtRp2031
(dp2032
g53
(dp2033
g61
I5
ssg62
g2027
sg55
(lp2034
S'/Casa_de_Apuestas/default/maquinas'
p2035
asbasbasbag48
(g64
g50
NtRp2036
(dp2037
g53
(dp2038
sg62
g58
sg55
(lp2039
g48
(g69
g50
NtRp2040
(dp2041
g53
(dp2042
g73
g74
ssg62
g2036
sg55
(lp2043
S'utcnow'
p2044
asbag48
(g69
g50
NtRp2045
(dp2046
g53
(dp2047
g80
g81
ssg62
g2036
sg55
(lp2048
S':'
asbag48
(g69
g50
NtRp2049
(dp2050
g53
(dp2051
sg62
g2036
sg55
(lp2052
g48
(g49
g50
NtRp2053
(dp2054
g53
(dp2055
g61
I5
ssg62
g2049
sg55
(lp2056
S'datetime.datetime(2011, 11, 27, 4, 12, 23, 907000)'
p2057
asbasbasbag48
(g64
g50
NtRp2058
(dp2059
g53
(dp2060
sg62
g58
sg55
(lp2061
g48
(g69
g50
NtRp2062
(dp2063
g53
(dp2064
g73
g74
ssg62
g2058
sg55
(lp2065
S'uuid'
p2066
asbag48
(g69
g50
NtRp2067
(dp2068
g53
(dp2069
g80
g81
ssg62
g2058
sg55
(lp2070
S':'
asbag48
(g69
g50
NtRp2071
(dp2072
g53
(dp2073
sg62
g2058
sg55
(lp2074
g48
(g49
g50
NtRp2075
(dp2076
g53
(dp2077
g61
I5
ssg62
g2071
sg55
(lp2078
S'Casa_de_Apuestas/127.0.0.1.2011-11-26.23-42-23.070abb16-bab2-42c4-b6cc-172d53e0089b'
p2079
asbasbasbag48
(g64
g50
NtRp2080
(dp2081
g53
(dp2082
sg62
g58
sg55
(lp2083
g48
(g69
g50
NtRp2084
(dp2085
g53
(dp2086
g73
g74
ssg62
g2080
sg55
(lp2087
S'vars'
p2088
asbag48
(g69
g50
NtRp2089
(dp2090
g53
(dp2091
g80
g81
ssg62
g2080
sg55
(lp2092
S':'
asbag48
(g69
g50
NtRp2093
(dp2094
g53
(dp2095
sg62
g2080
sg55
(lp2096
g48
(g49
g50
NtRp2097
(dp2098
g53
(dp2099
g61
I5
ssg62
g2093
sg55
(lp2100
g48
(g57
g50
NtRp2101
(dp2102
g53
(dp2103
g61
I4
ssg62
Nsg55
(lp2104
sbasbasbasbag48
(g64
g50
NtRp2105
(dp2106
g53
(dp2107
sg62
g58
sg55
(lp2108
g48
(g69
g50
NtRp2109
(dp2110
g53
(dp2111
g73
g74
ssg62
g2105
sg55
(lp2112
S'wsgi'
p2113
asbag48
(g69
g50
NtRp2114
(dp2115
g53
(dp2116
g80
g81
ssg62
g2105
sg55
(lp2117
S':'
asbag48
(g69
g50
NtRp2118
(dp2119
g53
(dp2120
sg62
g2105
sg55
(lp2121
g48
(g49
g50
NtRp2122
(dp2123
g53
(dp2124
g61
I5
ssg62
g2118
sg55
(lp2125
g48
(g57
g50
NtRp2126
(dp2127
g53
(dp2128
g61
I4
ssg62
Nsg55
(lp2129
g48
(g64
g50
NtRp2130
(dp2131
g53
(dp2132
sg62
g2126
sg55
(lp2133
g48
(g69
g50
NtRp2134
(dp2135
g53
(dp2136
g73
g74
ssg62
g2130
sg55
(lp2137
S'environ'
p2138
asbag48
(g69
g50
NtRp2139
(dp2140
g53
(dp2141
g80
g81
ssg62
g2130
sg55
(lp2142
S':'
asbag48
(g69
g50
NtRp2143
(dp2144
g53
(dp2145
sg62
g2130
sg55
(lp2146
g48
(g49
g50
NtRp2147
(dp2148
g53
(dp2149
g61
I4
ssg62
g2143
sg55
(lp2150
g48
(g57
g50
NtRp2151
(dp2152
g53
(dp2153
g61
I3
ssg62
Nsg55
(lp2154
g48
(g64
g50
NtRp2155
(dp2156
g53
(dp2157
sg62
g2151
sg55
(lp2158
g48
(g69
g50
NtRp2159
(dp2160
g53
(dp2161
g73
g74
ssg62
g2155
sg55
(lp2162
S'HTTP_ACCEPT'
p2163
asbag48
(g69
g50
NtRp2164
(dp2165
g53
(dp2166
g80
g81
ssg62
g2155
sg55
(lp2167
S':'
asbag48
(g69
g50
NtRp2168
(dp2169
g53
(dp2170
sg62
g2155
sg55
(lp2171
g48
(g49
g50
NtRp2172
(dp2173
g53
(dp2174
g61
I3
ssg62
g2168
sg55
(lp2175
g768
asbasbasbag48
(g64
g50
NtRp2176
(dp2177
g53
(dp2178
sg62
g2151
sg55
(lp2179
g48
(g69
g50
NtRp2180
(dp2181
g53
(dp2182
g73
g74
ssg62
g2176
sg55
(lp2183
S'HTTP_ACCEPT_CHARSET'
p2184
asbag48
(g69
g50
NtRp2185
(dp2186
g53
(dp2187
g80
g81
ssg62
g2176
sg55
(lp2188
S':'
asbag48
(g69
g50
NtRp2189
(dp2190
g53
(dp2191
sg62
g2176
sg55
(lp2192
g48
(g49
g50
NtRp2193
(dp2194
g53
(dp2195
g61
I3
ssg62
g2189
sg55
(lp2196
g790
asbasbasbag48
(g64
g50
NtRp2197
(dp2198
g53
(dp2199
sg62
g2151
sg55
(lp2200
g48
(g69
g50
NtRp2201
(dp2202
g53
(dp2203
g73
g74
ssg62
g2197
sg55
(lp2204
S'HTTP_ACCEPT_ENCODING'
p2205
asbag48
(g69
g50
NtRp2206
(dp2207
g53
(dp2208
g80
g81
ssg62
g2197
sg55
(lp2209
S':'
asbag48
(g69
g50
NtRp2210
(dp2211
g53
(dp2212
sg62
g2197
sg55
(lp2213
g48
(g49
g50
NtRp2214
(dp2215
g53
(dp2216
g61
I3
ssg62
g2210
sg55
(lp2217
g812
asbasbasbag48
(g64
g50
NtRp2218
(dp2219
g53
(dp2220
sg62
g2151
sg55
(lp2221
g48
(g69
g50
NtRp2222
(dp2223
g53
(dp2224
g73
g74
ssg62
g2218
sg55
(lp2225
S'HTTP_ACCEPT_LANGUAGE'
p2226
asbag48
(g69
g50
NtRp2227
(dp2228
g53
(dp2229
g80
g81
ssg62
g2218
sg55
(lp2230
S':'
asbag48
(g69
g50
NtRp2231
(dp2232
g53
(dp2233
sg62
g2218
sg55
(lp2234
g48
(g49
g50
NtRp2235
(dp2236
g53
(dp2237
g61
I3
ssg62
g2231
sg55
(lp2238
g834
asbasbasbag48
(g64
g50
NtRp2239
(dp2240
g53
(dp2241
sg62
g2151
sg55
(lp2242
g48
(g69
g50
NtRp2243
(dp2244
g53
(dp2245
g73
g74
ssg62
g2239
sg55
(lp2246
S'HTTP_CONNECTION'
p2247
asbag48
(g69
g50
NtRp2248
(dp2249
g53
(dp2250
g80
g81
ssg62
g2239
sg55
(lp2251
S':'
asbag48
(g69
g50
NtRp2252
(dp2253
g53
(dp2254
sg62
g2239
sg55
(lp2255
g48
(g49
g50
NtRp2256
(dp2257
g53
(dp2258
g61
I3
ssg62
g2252
sg55
(lp2259
g856
asbasbasbag48
(g64
g50
NtRp2260
(dp2261
g53
(dp2262
sg62
g2151
sg55
(lp2263
g48
(g69
g50
NtRp2264
(dp2265
g53
(dp2266
g73
g74
ssg62
g2260
sg55
(lp2267
S'HTTP_COOKIE'
p2268
asbag48
(g69
g50
NtRp2269
(dp2270
g53
(dp2271
g80
g81
ssg62
g2260
sg55
(lp2272
S':'
asbag48
(g69
g50
NtRp2273
(dp2274
g53
(dp2275
sg62
g2260
sg55
(lp2276
g48
(g49
g50
NtRp2277
(dp2278
g53
(dp2279
g61
I3
ssg62
g2273
sg55
(lp2280
g878
asbasbasbag48
(g64
g50
NtRp2281
(dp2282
g53
(dp2283
sg62
g2151
sg55
(lp2284
g48
(g69
g50
NtRp2285
(dp2286
g53
(dp2287
g73
g74
ssg62
g2281
sg55
(lp2288
S'HTTP_HOST'
p2289
asbag48
(g69
g50
NtRp2290
(dp2291
g53
(dp2292
g80
g81
ssg62
g2281
sg55
(lp2293
S':'
asbag48
(g69
g50
NtRp2294
(dp2295
g53
(dp2296
sg62
g2281
sg55
(lp2297
g48
(g49
g50
NtRp2298
(dp2299
g53
(dp2300
g61
I3
ssg62
g2294
sg55
(lp2301
g900
asbasbasbag48
(g64
g50
NtRp2302
(dp2303
g53
(dp2304
sg62
g2151
sg55
(lp2305
g48
(g69
g50
NtRp2306
(dp2307
g53
(dp2308
g73
g74
ssg62
g2302
sg55
(lp2309
S'HTTP_REFERER'
p2310
asbag48
(g69
g50
NtRp2311
(dp2312
g53
(dp2313
g80
g81
ssg62
g2302
sg55
(lp2314
S':'
asbag48
(g69
g50
NtRp2315
(dp2316
g53
(dp2317
sg62
g2302
sg55
(lp2318
g48
(g49
g50
NtRp2319
(dp2320
g53
(dp2321
g61
I3
ssg62
g2315
sg55
(lp2322
g922
asbasbasbag48
(g64
g50
NtRp2323
(dp2324
g53
(dp2325
sg62
g2151
sg55
(lp2326
g48
(g69
g50
NtRp2327
(dp2328
g53
(dp2329
g73
g74
ssg62
g2323
sg55
(lp2330
S'HTTP_USER_AGENT'
p2331
asbag48
(g69
g50
NtRp2332
(dp2333
g53
(dp2334
g80
g81
ssg62
g2323
sg55
(lp2335
S':'
asbag48
(g69
g50
NtRp2336
(dp2337
g53
(dp2338
sg62
g2323
sg55
(lp2339
g48
(g49
g50
NtRp2340
(dp2341
g53
(dp2342
g61
I3
ssg62
g2336
sg55
(lp2343
g944
asbasbasbag48
(g64
g50
NtRp2344
(dp2345
g53
(dp2346
sg62
g2151
sg55
(lp2347
g48
(g69
g50
NtRp2348
(dp2349
g53
(dp2350
g73
g74
ssg62
g2344
sg55
(lp2351
S'PATH_INFO'
p2352
asbag48
(g69
g50
NtRp2353
(dp2354
g53
(dp2355
g80
g81
ssg62
g2344
sg55
(lp2356
S':'
asbag48
(g69
g50
NtRp2357
(dp2358
g53
(dp2359
sg62
g2344
sg55
(lp2360
g48
(g49
g50
NtRp2361
(dp2362
g53
(dp2363
g61
I3
ssg62
g2357
sg55
(lp2364
g987
asbasbasbag48
(g64
g50
NtRp2365
(dp2366
g53
(dp2367
sg62
g2151
sg55
(lp2368
g48
(g69
g50
NtRp2369
(dp2370
g53
(dp2371
g73
g74
ssg62
g2365
sg55
(lp2372
S'QUERY_STRING'
p2373
asbag48
(g69
g50
NtRp2374
(dp2375
g53
(dp2376
g80
g81
ssg62
g2365
sg55
(lp2377
S':'
asbag48
(g69
g50
NtRp2378
(dp2379
g53
(dp2380
sg62
g2365
sg55
(lp2381
g48
(g49
g50
NtRp2382
(dp2383
g53
(dp2384
g61
I3
ssg62
g2378
sg55
(lp2385
S''
asbasbasbag48
(g64
g50
NtRp2386
(dp2387
g53
(dp2388
sg62
g2151
sg55
(lp2389
g48
(g69
g50
NtRp2390
(dp2391
g53
(dp2392
g73
g74
ssg62
g2386
sg55
(lp2393
S'REMOTE_ADDR'
p2394
asbag48
(g69
g50
NtRp2395
(dp2396
g53
(dp2397
g80
g81
ssg62
g2386
sg55
(lp2398
S':'
asbag48
(g69
g50
NtRp2399
(dp2400
g53
(dp2401
sg62
g2386
sg55
(lp2402
g48
(g49
g50
NtRp2403
(dp2404
g53
(dp2405
g61
I3
ssg62
g2399
sg55
(lp2406
g181
asbasbasbag48
(g64
g50
NtRp2407
(dp2408
g53
(dp2409
sg62
g2151
sg55
(lp2410
g48
(g69
g50
NtRp2411
(dp2412
g53
(dp2413
g73
g74
ssg62
g2407
sg55
(lp2414
S'REMOTE_PORT'
p2415
asbag48
(g69
g50
NtRp2416
(dp2417
g53
(dp2418
g80
g81
ssg62
g2407
sg55
(lp2419
S':'
asbag48
(g69
g50
NtRp2420
(dp2421
g53
(dp2422
sg62
g2407
sg55
(lp2423
g48
(g49
g50
NtRp2424
(dp2425
g53
(dp2426
g61
I3
ssg62
g2420
sg55
(lp2427
g1051
asbasbasbag48
(g64
g50
NtRp2428
(dp2429
g53
(dp2430
sg62
g2151
sg55
(lp2431
g48
(g69
g50
NtRp2432
(dp2433
g53
(dp2434
g73
g74
ssg62
g2428
sg55
(lp2435
S'REQUEST_METHOD'
p2436
asbag48
(g69
g50
NtRp2437
(dp2438
g53
(dp2439
g80
g81
ssg62
g2428
sg55
(lp2440
S':'
asbag48
(g69
g50
NtRp2441
(dp2442
g53
(dp2443
sg62
g2428
sg55
(lp2444
g48
(g49
g50
NtRp2445
(dp2446
g53
(dp2447
g61
I3
ssg62
g2441
sg55
(lp2448
g1073
asbasbasbag48
(g64
g50
NtRp2449
(dp2450
g53
(dp2451
sg62
g2151
sg55
(lp2452
g48
(g69
g50
NtRp2453
(dp2454
g53
(dp2455
g73
g74
ssg62
g2449
sg55
(lp2456
S'SCRIPT_NAME'
p2457
asbag48
(g69
g50
NtRp2458
(dp2459
g53
(dp2460
g80
g81
ssg62
g2449
sg55
(lp2461
S':'
asbag48
(g69
g50
NtRp2462
(dp2463
g53
(dp2464
sg62
g2449
sg55
(lp2465
g48
(g49
g50
NtRp2466
(dp2467
g53
(dp2468
g61
I3
ssg62
g2462
sg55
(lp2469
S''
asbasbasbag48
(g64
g50
NtRp2470
(dp2471
g53
(dp2472
sg62
g2151
sg55
(lp2473
g48
(g69
g50
NtRp2474
(dp2475
g53
(dp2476
g73
g74
ssg62
g2470
sg55
(lp2477
S'SERVER_NAME'
p2478
asbag48
(g69
g50
NtRp2479
(dp2480
g53
(dp2481
g80
g81
ssg62
g2470
sg55
(lp2482
S':'
asbag48
(g69
g50
NtRp2483
(dp2484
g53
(dp2485
sg62
g2470
sg55
(lp2486
g48
(g49
g50
NtRp2487
(dp2488
g53
(dp2489
g61
I3
ssg62
g2483
sg55
(lp2490
g1116
asbasbasbag48
(g64
g50
NtRp2491
(dp2492
g53
(dp2493
sg62
g2151
sg55
(lp2494
g48
(g69
g50
NtRp2495
(dp2496
g53
(dp2497
g73
g74
ssg62
g2491
sg55
(lp2498
S'SERVER_PORT'
p2499
asbag48
(g69
g50
NtRp2500
(dp2501
g53
(dp2502
g80
g81
ssg62
g2491
sg55
(lp2503
S':'
asbag48
(g69
g50
NtRp2504
(dp2505
g53
(dp2506
sg62
g2491
sg55
(lp2507
g48
(g49
g50
NtRp2508
(dp2509
g53
(dp2510
g61
I3
ssg62
g2504
sg55
(lp2511
g1138
asbasbasbag48
(g64
g50
NtRp2512
(dp2513
g53
(dp2514
sg62
g2151
sg55
(lp2515
g48
(g69
g50
NtRp2516
(dp2517
g53
(dp2518
g73
g74
ssg62
g2512
sg55
(lp2519
S'SERVER_PROTOCOL'
p2520
asbag48
(g69
g50
NtRp2521
(dp2522
g53
(dp2523
g80
g81
ssg62
g2512
sg55
(lp2524
S':'
asbag48
(g69
g50
NtRp2525
(dp2526
g53
(dp2527
sg62
g2512
sg55
(lp2528
g48
(g49
g50
NtRp2529
(dp2530
g53
(dp2531
g61
I3
ssg62
g2525
sg55
(lp2532
g1160
asbasbasbag48
(g64
g50
NtRp2533
(dp2534
g53
(dp2535
sg62
g2151
sg55
(lp2536
g48
(g69
g50
NtRp2537
(dp2538
g53
(dp2539
g73
g74
ssg62
g2533
sg55
(lp2540
S'SERVER_SOFTWARE'
p2541
asbag48
(g69
g50
NtRp2542
(dp2543
g53
(dp2544
g80
g81
ssg62
g2533
sg55
(lp2545
S':'
asbag48
(g69
g50
NtRp2546
(dp2547
g53
(dp2548
sg62
g2533
sg55
(lp2549
g48
(g49
g50
NtRp2550
(dp2551
g53
(dp2552
g61
I3
ssg62
g2546
sg55
(lp2553
g1182
asbasbasbag48
(g64
g50
NtRp2554
(dp2555
g53
(dp2556
sg62
g2151
sg55
(lp2557
g48
(g69
g50
NtRp2558
(dp2559
g53
(dp2560
g73
g74
ssg62
g2554
sg55
(lp2561
S'wsgi.errors'
p2562
asbag48
(g69
g50
NtRp2563
(dp2564
g53
(dp2565
g80
g81
ssg62
g2554
sg55
(lp2566
S':'
asbag48
(g69
g50
NtRp2567
(dp2568
g53
(dp2569
sg62
g2554
sg55
(lp2570
g48
(g49
g50
NtRp2571
(dp2572
g53
(dp2573
g61
I3
ssg62
g2567
sg55
(lp2574
S"<open file '<stderr>', mode 'w' at 0x014D00B0>"
p2575
asbasbasbag48
(g64
g50
NtRp2576
(dp2577
g53
(dp2578
sg62
g2151
sg55
(lp2579
g48
(g69
g50
NtRp2580
(dp2581
g53
(dp2582
g73
g74
ssg62
g2576
sg55
(lp2583
S'wsgi.file_wrapper'
p2584
asbag48
(g69
g50
NtRp2585
(dp2586
g53
(dp2587
g80
g81
ssg62
g2576
sg55
(lp2588
S':'
asbag48
(g69
g50
NtRp2589
(dp2590
g53
(dp2591
sg62
g2576
sg55
(lp2592
g48
(g49
g50
NtRp2593
(dp2594
g53
(dp2595
g61
I3
ssg62
g2589
sg55
(lp2596
S'<class wsgiref.util.FileWrapper at 0x023F9AB0>'
p2597
asbasbasbag48
(g64
g50
NtRp2598
(dp2599
g53
(dp2600
sg62
g2151
sg55
(lp2601
g48
(g69
g50
NtRp2602
(dp2603
g53
(dp2604
g73
g74
ssg62
g2598
sg55
(lp2605
S'wsgi.input'
p2606
asbag48
(g69
g50
NtRp2607
(dp2608
g53
(dp2609
g80
g81
ssg62
g2598
sg55
(lp2610
S':'
asbag48
(g69
g50
NtRp2611
(dp2612
g53
(dp2613
sg62
g2598
sg55
(lp2614
g48
(g49
g50
NtRp2615
(dp2616
g53
(dp2617
g61
I3
ssg62
g2611
sg55
(lp2618
S'<cStringIO.StringO object at 0x05C19AE0>'
p2619
asbasbasbag48
(g64
g50
NtRp2620
(dp2621
g53
(dp2622
sg62
g2151
sg55
(lp2623
g48
(g69
g50
NtRp2624
(dp2625
g53
(dp2626
g73
g74
ssg62
g2620
sg55
(lp2627
S'wsgi.multiprocess'
p2628
asbag48
(g69
g50
NtRp2629
(dp2630
g53
(dp2631
g80
g81
ssg62
g2620
sg55
(lp2632
S':'
asbag48
(g69
g50
NtRp2633
(dp2634
g53
(dp2635
sg62
g2620
sg55
(lp2636
g48
(g49
g50
NtRp2637
(dp2638
g53
(dp2639
g61
I3
ssg62
g2633
sg55
(lp2640
g91
asbasbasbag48
(g64
g50
NtRp2641
(dp2642
g53
(dp2643
sg62
g2151
sg55
(lp2644
g48
(g69
g50
NtRp2645
(dp2646
g53
(dp2647
g73
g74
ssg62
g2641
sg55
(lp2648
S'wsgi.multithread'
p2649
asbag48
(g69
g50
NtRp2650
(dp2651
g53
(dp2652
g80
g81
ssg62
g2641
sg55
(lp2653
S':'
asbag48
(g69
g50
NtRp2654
(dp2655
g53
(dp2656
sg62
g2641
sg55
(lp2657
g48
(g49
g50
NtRp2658
(dp2659
g53
(dp2660
g61
I3
ssg62
g2654
sg55
(lp2661
g1422
asbasbasbag48
(g64
g50
NtRp2662
(dp2663
g53
(dp2664
sg62
g2151
sg55
(lp2665
g48
(g69
g50
NtRp2666
(dp2667
g53
(dp2668
g73
g74
ssg62
g2662
sg55
(lp2669
S'wsgi.run_once'
p2670
asbag48
(g69
g50
NtRp2671
(dp2672
g53
(dp2673
g80
g81
ssg62
g2662
sg55
(lp2674
S':'
asbag48
(g69
g50
NtRp2675
(dp2676
g53
(dp2677
sg62
g2662
sg55
(lp2678
g48
(g49
g50
NtRp2679
(dp2680
g53
(dp2681
g61
I3
ssg62
g2675
sg55
(lp2682
g91
asbasbasbag48
(g64
g50
NtRp2683
(dp2684
g53
(dp2685
sg62
g2151
sg55
(lp2686
g48
(g69
g50
NtRp2687
(dp2688
g53
(dp2689
g73
g74
ssg62
g2683
sg55
(lp2690
S'wsgi.url_scheme'
p2691
asbag48
(g69
g50
NtRp2692
(dp2693
g53
(dp2694
g80
g81
ssg62
g2683
sg55
(lp2695
S':'
asbag48
(g69
g50
NtRp2696
(dp2697
g53
(dp2698
sg62
g2683
sg55
(lp2699
g48
(g49
g50
NtRp2700
(dp2701
g53
(dp2702
g61
I3
ssg62
g2696
sg55
(lp2703
g1465
asbasbasbag48
(g64
g50
NtRp2704
(dp2705
g53
(dp2706
sg62
g2151
sg55
(lp2707
g48
(g69
g50
NtRp2708
(dp2709
g53
(dp2710
g73
g74
ssg62
g2704
sg55
(lp2711
S'wsgi.version'
p2712
asbag48
(g69
g50
NtRp2713
(dp2714
g53
(dp2715
g80
g81
ssg62
g2704
sg55
(lp2716
S':'
asbag48
(g69
g50
NtRp2717
(dp2718
g53
(dp2719
sg62
g2704
sg55
(lp2720
g48
(g49
g50
NtRp2721
(dp2722
g53
(dp2723
g61
I3
ssg62
g2717
sg55
(lp2724
S'1'
asbasbasbasbasbasbasbasbasbasbasbasbasbsS'frames'
p2725
(lp2726
(dp2727
S'file'
p2728
S'C:\\Python32\\web2py_win\\web2py\\gluon\\restricted.py'
p2729
sS'dump'
p2730
(dp2731
sS'lnum'
p2732
I194
sS'lines'
p2733
(dp2734
sS'call'
p2735
S"(code='# -*- coding: utf-8 -*-\\n### required - do no del...ados)\\n\\nresponse._vars=response._caller(maquinas)\\n', environment={'A': <class 'gluon.html.A'>, 'Auth': <class 'gluon.tools.Auth'>, 'B': <class 'gluon.html.B'>, 'BEAUTIFY': <class 'gluon.html.BEAUTIFY'>, 'BODY': <class 'gluon.html.BODY'>, 'BR': <class 'gluon.html.BR'>, 'BUTTON': <class 'gluon.html.BUTTON'>, 'CAT': <class 'gluon.html.CAT'>, 'CENTER': <class 'gluon.html.CENTER'>, 'CLEANUP': <class 'gluon.validators.CLEANUP'>, ...}, layer=r'C:\\Python32\\web2py_win\\web2py\\applications\\Casa_de_Apuestas\\controllers/default.py')"
p2736
sS'func'
p2737
S'restricted'
p2738
sa(dp2739
g2728
S'C:\\Python32\\web2py_win\\web2py\\applications\\Casa_de_Apuestas\\controllers\\default.py'
p2740
sg2730
(dp2741
sg2732
I112
sg2733
(dp2742
I101
S"    form = crud.update(db.auth_user,request.args(0),next=URL('mostrarUsuario'))"
p2743
sI102
S'    return dict(form=form)'
p2744
sI103
S''
sI104
S'def verResultado1():'
p2745
sI105
S'    eventos= db().select(db.eventos.ALL, orderby=db.eventos.id)'
p2746
sI106
S'    return dict(eventos=eventos)'
p2747
sI107
S''
sI108
S'def verResultado2():'
p2748
sI109
S'    eventos= db((db.resultados.eventos_id==request.args(0))& (db.resultados.participantes_id==db.participantes.id)).select()'
p2749
sI110
S'    return dict(resultados=resultados)'
p2750
ssg2735
S'()'
p2751
sg2737
S'<module>'
p2752
sa(dp2753
g2728
S'C:\\Python32\\web2py_win\\web2py\\gluon\\globals.py'
p2754
sg2730
(dp2755
sg2732
I149
sg2733
(dp2756
sg2735
S'(f=<function maquinas at 0x058704B0>)'
p2757
sg2737
S'<lambda>'
p2758
sa(dp2759
g2728
S'C:\\Python32\\web2py_win\\web2py\\applications\\Casa_de_Apuestas\\controllers\\default.py'
p2760
sg2730
(dp2761
sg2732
I17
sg2733
(dp2762
I12
S'def error():'
p2763
sI13
S'    return dict()'
p2764
sI14
S''
sI15
S''
sI16
S'def maquinas():'
p2765
sI17
S'    form =crud.create(db.maquinas)'
p2766
sI18
S'    maquinas=db().select(db.maquinas.ALL)'
p2767
sI19
S'    return dict(form=form, maquinas=maquinas)'
p2768
sI20
S''
sI21
S''
ssg2735
S'()'
p2769
sg2737
S'maquinas'
p2770
sa(dp2771
g2728
S'C:\\Python32\\web2py_win\\web2py\\gluon\\tools.py'
p2772
sg2730
(dp2773
sg2732
I3035
sg2733
(dp2774
sg2735
S"(self=<gluon.tools.Crud object at 0x05B04AD0>, table=<Table {'latitud': <gluon.dal.Field object at 0x..., '_id': <gluon.dal.Field object at 0x05C0CAB0>}>, next=None, onvalidation=<Storage {}>, onaccept=<Storage {}>, log='Record %(id)s created', message='Record Created', formname=<function <lambda> at 0x02666D70>)"
p2775
sg2737
S'create'
p2776
sa(dp2777
g2728
S'C:\\Python32\\web2py_win\\web2py\\gluon\\tools.py'
p2778
sg2730
(dp2779
sg2732
I2952
sg2733
(dp2780
sg2735
S"(self=<gluon.tools.Crud object at 0x05B04AD0>, table=<Table {'latitud': <gluon.dal.Field object at 0x..., '_id': <gluon.dal.Field object at 0x05C0CAB0>}>, record=None, next=None, onvalidation=<Storage {}>, onaccept=<Storage {}>, ondelete=<Storage {}>, log='Record %(id)s created', message='Record Created', deletable=False, formname=<function <lambda> at 0x02666D70>)"
p2781
sg2737
S'update'
p2782
sa(dp2783
g2728
S'C:\\Python32\\web2py_win\\web2py\\gluon\\sqlhtml.py'
p2784
sg2730
(dp2785
sg2732
I862
sg2733
(dp2786
sg2735
S"(self=<gluon.sqlhtml.SQLFORM object at 0x05AF64B0>, table=<Table {'latitud': <gluon.dal.Field object at 0x..., '_id': <gluon.dal.Field object at 0x05C0CAB0>}>, record=None, deletable=False, linkto=None, upload='/Casa_de_Apuestas/default/download', fields=['id', 'usuario_id', 'estado', 'latitud', 'longitud', 'anho', 'procesador', 'capacidadMemoriaRam', 'capacidadDiscoDuro', 'descripcion'], labels=None, col3={}, submit_button='Submit', delete_label='Check to delete:', showid=False, readonly=False, comments=True, keepopts=[], ignore_rw=False, record_id=None, formstyle='table3cols', buttons=['submit'], separator=': ', **attributes={'hidden': {'_next': None}})"
p2787
sg2737
g41
sa(dp2788
g2728
S'C:\\Python32\\web2py_win\\web2py\\gluon\\sqlhtml.py'
p2789
sg2730
(dp2790
sg2732
I217
sg2733
(dp2791
sg2735
S'(field=<gluon.dal.Field object at 0x05B077D0>, value=None, **attributes={})'
p2792
sg2737
S'widget'
p2793
sa(dp2794
g2728
S'C:\\Python32\\web2py_win\\web2py\\gluon\\validators.py'
p2795
sg2730
(dp2796
sg2732
I459
sg2733
(dp2797
sg2735
S'(self=<gluon.validators.IS_IN_DB object at 0x05C0C6B0>, zero=True)'
p2798
sg2737
S'options'
p2799
sa(dp2800
g2728
S'C:\\Python32\\web2py_win\\web2py\\gluon\\validators.py'
p2801
sg2730
(dp2802
sg2732
I442
sg2733
(dp2803
sg2735
S'(self=<gluon.validators.IS_IN_DB object at 0x05C0C6B0>)'
p2804
sg2737
S'build_set'
p2805
sa(dp2806
g2728
S'C:\\Python32\\web2py_win\\web2py\\gluon\\dal.py'
p2807
sg2730
(dp2808
sg2732
I4865
sg2733
(dp2809
sg2735
S"(self=<Table {'_db': <DAL {'auth_event': <Table {'orig..., '_id': <gluon.dal.Field object at 0x05B07EF0>}>, key='correo')"
p2810
sg2737
g19
sasS'pyver'
p2811
S'Python 2.5.4: C:\\Python32\\web2py_win\\web2py\\web2py.exe'
p2812
sS'session'
p2813
g48
(g49
g50
NtRp2814
(dp2815
g53
(dp2816
sg55
(lp2817
g48
(g57
g50
NtRp2818
(dp2819
g53
(dp2820
g61
I5
ssg62
Nsg55
(lp2821
sbasbsS'etype'
p2822
S"<type 'exceptions.KeyError'>"
p2823
sS'date'
p2824
S'Sat Nov 26 23:42:24 2011'
p2825
sS'response'
p2826
g48
(g49
g50
NtRp2827
(dp2828
g53
(dp2829
sg55
(lp2830
g48
(g57
g50
NtRp2831
(dp2832
g53
(dp2833
g61
I5
ssg62
Nsg55
(lp2834
g48
(g64
g50
NtRp2835
(dp2836
g53
(dp2837
sg62
g2831
sg55
(lp2838
g48
(g69
g50
NtRp2839
(dp2840
g53
(dp2841
g73
g74
ssg62
g2835
sg55
(lp2842
g146
asbag48
(g69
g50
NtRp2843
(dp2844
g53
(dp2845
g80
g81
ssg62
g2835
sg55
(lp2846
S':'
asbag48
(g69
g50
NtRp2847
(dp2848
g53
(dp2849
sg62
g2835
sg55
(lp2850
g48
(g49
g50
NtRp2851
(dp2852
g53
(dp2853
g61
I5
ssg62
g2847
sg55
(lp2854
S'<cStringIO.StringO object at 0x05B09F80>'
p2855
asbasbasbag48
(g64
g50
NtRp2856
(dp2857
g53
(dp2858
sg62
g2831
sg55
(lp2859
g48
(g69
g50
NtRp2860
(dp2861
g53
(dp2862
g73
g74
ssg62
g2856
sg55
(lp2863
g212
asbag48
(g69
g50
NtRp2864
(dp2865
g53
(dp2866
g80
g81
ssg62
g2856
sg55
(lp2867
S':'
asbag48
(g69
g50
NtRp2868
(dp2869
g53
(dp2870
sg62
g2856
sg55
(lp2871
g48
(g49
g50
NtRp2872
(dp2873
g53
(dp2874
g61
I5
ssg62
g2868
sg55
(lp2875
g48
(g57
g50
NtRp2876
(dp2877
g53
(dp2878
g61
I4
ssg62
Nsg55
(lp2879
g48
(g64
g50
NtRp2880
(dp2881
g53
(dp2882
sg62
g2876
sg55
(lp2883
g48
(g69
g50
NtRp2884
(dp2885
g53
(dp2886
g73
g74
ssg62
g2880
sg55
(lp2887
S'session_id_casa_de_apuestas'
p2888
asbag48
(g69
g50
NtRp2889
(dp2890
g53
(dp2891
g80
g81
ssg62
g2880
sg55
(lp2892
S':'
asbag48
(g69
g50
NtRp2893
(dp2894
g53
(dp2895
sg62
g2880
sg55
(lp2896
g48
(g49
g50
NtRp2897
(dp2898
g53
(dp2899
g61
I4
ssg62
g2893
sg55
(lp2900
g48
(g57
g50
NtRp2901
(dp2902
g53
(dp2903
g61
I3
ssg62
Nsg55
(lp2904
g48
(g64
g50
NtRp2905
(dp2906
g53
(dp2907
sg62
g2901
sg55
(lp2908
g48
(g69
g50
NtRp2909
(dp2910
g53
(dp2911
g73
g74
ssg62
g2905
sg55
(lp2912
g262
asbag48
(g69
g50
NtRp2913
(dp2914
g53
(dp2915
g80
g81
ssg62
g2905
sg55
(lp2916
S':'
asbag48
(g69
g50
NtRp2917
(dp2918
g53
(dp2919
sg62
g2905
sg55
(lp2920
g48
(g49
g50
NtRp2921
(dp2922
g53
(dp2923
g61
I3
ssg62
g2917
sg55
(lp2924
S''
asbasbasbag48
(g64
g50
NtRp2925
(dp2926
g53
(dp2927
sg62
g2901
sg55
(lp2928
g48
(g69
g50
NtRp2929
(dp2930
g53
(dp2931
g73
g74
ssg62
g2925
sg55
(lp2932
g283
asbag48
(g69
g50
NtRp2933
(dp2934
g53
(dp2935
g80
g81
ssg62
g2925
sg55
(lp2936
S':'
asbag48
(g69
g50
NtRp2937
(dp2938
g53
(dp2939
sg62
g2925
sg55
(lp2940
g48
(g49
g50
NtRp2941
(dp2942
g53
(dp2943
g61
I3
ssg62
g2937
sg55
(lp2944
S''
asbasbasbag48
(g64
g50
NtRp2945
(dp2946
g53
(dp2947
sg62
g2901
sg55
(lp2948
g48
(g69
g50
NtRp2949
(dp2950
g53
(dp2951
g73
g74
ssg62
g2945
sg55
(lp2952
g304
asbag48
(g69
g50
NtRp2953
(dp2954
g53
(dp2955
g80
g81
ssg62
g2945
sg55
(lp2956
S':'
asbag48
(g69
g50
NtRp2957
(dp2958
g53
(dp2959
sg62
g2945
sg55
(lp2960
g48
(g49
g50
NtRp2961
(dp2962
g53
(dp2963
g61
I3
ssg62
g2957
sg55
(lp2964
S''
asbasbasbag48
(g64
g50
NtRp2965
(dp2966
g53
(dp2967
sg62
g2901
sg55
(lp2968
g48
(g69
g50
NtRp2969
(dp2970
g53
(dp2971
g73
g74
ssg62
g2965
sg55
(lp2972
g325
asbag48
(g69
g50
NtRp2973
(dp2974
g53
(dp2975
g80
g81
ssg62
g2965
sg55
(lp2976
S':'
asbag48
(g69
g50
NtRp2977
(dp2978
g53
(dp2979
sg62
g2965
sg55
(lp2980
g48
(g49
g50
NtRp2981
(dp2982
g53
(dp2983
g61
I3
ssg62
g2977
sg55
(lp2984
S''
asbasbasbag48
(g64
g50
NtRp2985
(dp2986
g53
(dp2987
sg62
g2901
sg55
(lp2988
g48
(g69
g50
NtRp2989
(dp2990
g53
(dp2991
g73
g74
ssg62
g2985
sg55
(lp2992
g346
asbag48
(g69
g50
NtRp2993
(dp2994
g53
(dp2995
g80
g81
ssg62
g2985
sg55
(lp2996
S':'
asbag48
(g69
g50
NtRp2997
(dp2998
g53
(dp2999
sg62
g2985
sg55
(lp3000
g48
(g49
g50
NtRp3001
(dp3002
g53
(dp3003
g61
I3
ssg62
g2997
sg55
(lp3004
S'/'
asbasbasbag48
(g64
g50
NtRp3005
(dp3006
g53
(dp3007
sg62
g2901
sg55
(lp3008
g48
(g69
g50
NtRp3009
(dp3010
g53
(dp3011
g73
g74
ssg62
g3005
sg55
(lp3012
g367
asbag48
(g69
g50
NtRp3013
(dp3014
g53
(dp3015
g80
g81
ssg62
g3005
sg55
(lp3016
S':'
asbag48
(g69
g50
NtRp3017
(dp3018
g53
(dp3019
sg62
g3005
sg55
(lp3020
g48
(g49
g50
NtRp3021
(dp3022
g53
(dp3023
g61
I3
ssg62
g3017
sg55
(lp3024
S''
asbasbasbag48
(g64
g50
NtRp3025
(dp3026
g53
(dp3027
sg62
g2901
sg55
(lp3028
g48
(g69
g50
NtRp3029
(dp3030
g53
(dp3031
g73
g74
ssg62
g3025
sg55
(lp3032
g388
asbag48
(g69
g50
NtRp3033
(dp3034
g53
(dp3035
g80
g81
ssg62
g3025
sg55
(lp3036
S':'
asbag48
(g69
g50
NtRp3037
(dp3038
g53
(dp3039
sg62
g3025
sg55
(lp3040
g48
(g49
g50
NtRp3041
(dp3042
g53
(dp3043
g61
I3
ssg62
g3037
sg55
(lp3044
S''
asbasbasbasbasbasbasbasbasbasbasbag48
(g64
g50
NtRp3045
(dp3046
g53
(dp3047
sg62
g2831
sg55
(lp3048
g48
(g69
g50
NtRp3049
(dp3050
g53
(dp3051
g73
g74
ssg62
g3045
sg55
(lp3052
S'files'
p3053
asbag48
(g69
g50
NtRp3054
(dp3055
g53
(dp3056
g80
g81
ssg62
g3045
sg55
(lp3057
S':'
asbag48
(g69
g50
NtRp3058
(dp3059
g53
(dp3060
sg62
g3045
sg55
(lp3061
g48
(g49
g50
NtRp3062
(dp3063
g53
(dp3064
g61
I5
ssg62
g3058
sg55
(lp3065
g48
(g57
g50
NtRp3066
(dp3067
g53
(dp3068
g61
I4
ssg62
Nsg55
(lp3069
sbasbasbasbag48
(g64
g50
NtRp3070
(dp3071
g53
(dp3072
sg62
g2831
sg55
(lp3073
g48
(g69
g50
NtRp3074
(dp3075
g53
(dp3076
g73
g74
ssg62
g3070
sg55
(lp3077
S'flash'
p3078
asbag48
(g69
g50
NtRp3079
(dp3080
g53
(dp3081
g80
g81
ssg62
g3070
sg55
(lp3082
S':'
asbag48
(g69
g50
NtRp3083
(dp3084
g53
(dp3085
sg62
g3070
sg55
(lp3086
g48
(g49
g50
NtRp3087
(dp3088
g53
(dp3089
g61
I5
ssg62
g3083
sg55
(lp3090
S''
asbasbasbag48
(g64
g50
NtRp3091
(dp3092
g53
(dp3093
sg62
g2831
sg55
(lp3094
g48
(g69
g50
NtRp3095
(dp3096
g53
(dp3097
g73
g74
ssg62
g3091
sg55
(lp3098
S'generic_patterns'
p3099
asbag48
(g69
g50
NtRp3100
(dp3101
g53
(dp3102
g80
g81
ssg62
g3091
sg55
(lp3103
S':'
asbag48
(g69
g50
NtRp3104
(dp3105
g53
(dp3106
sg62
g3091
sg55
(lp3107
g48
(g49
g50
NtRp3108
(dp3109
g53
(dp3110
g61
I5
ssg62
g3104
sg55
(lp3111
g48
(g57
g50
NtRp3112
(dp3113
g53
(dp3114
g61
I4
ssg62
Nsg55
(lp3115
g48
(g64
g50
NtRp3116
(dp3117
g53
(dp3118
sg62
g3112
sg55
(lp3119
g48
(g69
g50
NtRp3120
(dp3121
g53
(dp3122
sg62
g3116
sg55
(lp3123
g48
(g49
g50
NtRp3124
(dp3125
g53
(dp3126
g61
I4
ssg62
g3120
sg55
(lp3127
S'*'
asbasbasbasbasbasbasbag48
(g64
g50
NtRp3128
(dp3129
g53
(dp3130
sg62
g2831
sg55
(lp3131
g48
(g69
g50
NtRp3132
(dp3133
g53
(dp3134
g73
g74
ssg62
g3128
sg55
(lp3135
S'headers'
p3136
asbag48
(g69
g50
NtRp3137
(dp3138
g53
(dp3139
g80
g81
ssg62
g3128
sg55
(lp3140
S':'
asbag48
(g69
g50
NtRp3141
(dp3142
g53
(dp3143
sg62
g3128
sg55
(lp3144
g48
(g49
g50
NtRp3145
(dp3146
g53
(dp3147
g61
I5
ssg62
g3141
sg55
(lp3148
g48
(g57
g50
NtRp3149
(dp3150
g53
(dp3151
g61
I4
ssg62
Nsg55
(lp3152
g48
(g64
g50
NtRp3153
(dp3154
g53
(dp3155
sg62
g3149
sg55
(lp3156
g48
(g69
g50
NtRp3157
(dp3158
g53
(dp3159
g73
g74
ssg62
g3153
sg55
(lp3160
S'Cache-Control'
p3161
asbag48
(g69
g50
NtRp3162
(dp3163
g53
(dp3164
g80
g81
ssg62
g3153
sg55
(lp3165
S':'
asbag48
(g69
g50
NtRp3166
(dp3167
g53
(dp3168
sg62
g3153
sg55
(lp3169
g48
(g49
g50
NtRp3170
(dp3171
g53
(dp3172
g61
I4
ssg62
g3166
sg55
(lp3173
S'no-store, no-cache, must-revalidate, post-check=0, pre-check=0'
p3174
asbasbasbag48
(g64
g50
NtRp3175
(dp3176
g53
(dp3177
sg62
g3149
sg55
(lp3178
g48
(g69
g50
NtRp3179
(dp3180
g53
(dp3181
g73
g74
ssg62
g3175
sg55
(lp3182
S'Content-Type'
p3183
asbag48
(g69
g50
NtRp3184
(dp3185
g53
(dp3186
g80
g81
ssg62
g3175
sg55
(lp3187
S':'
asbag48
(g69
g50
NtRp3188
(dp3189
g53
(dp3190
sg62
g3175
sg55
(lp3191
g48
(g49
g50
NtRp3192
(dp3193
g53
(dp3194
g61
I4
ssg62
g3188
sg55
(lp3195
S'text/html; charset=utf-8'
p3196
asbasbasbag48
(g64
g50
NtRp3197
(dp3198
g53
(dp3199
sg62
g3149
sg55
(lp3200
g48
(g69
g50
NtRp3201
(dp3202
g53
(dp3203
g73
g74
ssg62
g3197
sg55
(lp3204
S'Expires'
p3205
asbag48
(g69
g50
NtRp3206
(dp3207
g53
(dp3208
g80
g81
ssg62
g3197
sg55
(lp3209
S':'
asbag48
(g69
g50
NtRp3210
(dp3211
g53
(dp3212
sg62
g3197
sg55
(lp3213
g48
(g49
g50
NtRp3214
(dp3215
g53
(dp3216
g61
I4
ssg62
g3210
sg55
(lp3217
S'Sun, 27 Nov 2011 04:12:23 GMT'
p3218
asbasbasbag48
(g64
g50
NtRp3219
(dp3220
g53
(dp3221
sg62
g3149
sg55
(lp3222
g48
(g69
g50
NtRp3223
(dp3224
g53
(dp3225
g73
g74
ssg62
g3219
sg55
(lp3226
S'Pragma'
p3227
asbag48
(g69
g50
NtRp3228
(dp3229
g53
(dp3230
g80
g81
ssg62
g3219
sg55
(lp3231
S':'
asbag48
(g69
g50
NtRp3232
(dp3233
g53
(dp3234
sg62
g3219
sg55
(lp3235
g48
(g49
g50
NtRp3236
(dp3237
g53
(dp3238
g61
I4
ssg62
g3232
sg55
(lp3239
S'no-cache'
p3240
asbasbasbag48
(g64
g50
NtRp3241
(dp3242
g53
(dp3243
sg62
g3149
sg55
(lp3244
g48
(g69
g50
NtRp3245
(dp3246
g53
(dp3247
g73
g74
ssg62
g3241
sg55
(lp3248
S'X-Powered-By'
p3249
asbag48
(g69
g50
NtRp3250
(dp3251
g53
(dp3252
g80
g81
ssg62
g3241
sg55
(lp3253
S':'
asbag48
(g69
g50
NtRp3254
(dp3255
g53
(dp3256
sg62
g3241
sg55
(lp3257
g48
(g49
g50
NtRp3258
(dp3259
g53
(dp3260
g61
I4
ssg62
g3254
sg55
(lp3261
S'web2py'
p3262
asbasbasbasbasbasbasbag48
(g64
g50
NtRp3263
(dp3264
g53
(dp3265
sg62
g2831
sg55
(lp3266
g48
(g69
g50
NtRp3267
(dp3268
g53
(dp3269
g73
g74
ssg62
g3263
sg55
(lp3270
S'menu'
p3271
asbag48
(g69
g50
NtRp3272
(dp3273
g53
(dp3274
g80
g81
ssg62
g3263
sg55
(lp3275
S':'
asbag48
(g69
g50
NtRp3276
(dp3277
g53
(dp3278
sg62
g3263
sg55
(lp3279
g48
(g49
g50
NtRp3280
(dp3281
g53
(dp3282
g61
I5
ssg62
g3276
sg55
(lp3283
g48
(g57
g50
NtRp3284
(dp3285
g53
(dp3286
g61
I4
ssg62
Nsg55
(lp3287
g48
(g64
g50
NtRp3288
(dp3289
g53
(dp3290
sg62
g3284
sg55
(lp3291
g48
(g69
g50
NtRp3292
(dp3293
g53
(dp3294
sg62
g3288
sg55
(lp3295
g48
(g49
g50
NtRp3296
(dp3297
g53
(dp3298
g61
I4
ssg62
g3292
sg55
(lp3299
g48
(g57
g50
NtRp3300
(dp3301
g53
(dp3302
g61
I3
ssg62
Nsg55
(lp3303
g48
(g64
g50
NtRp3304
(dp3305
g53
(dp3306
sg62
g3300
sg55
(lp3307
g48
(g69
g50
NtRp3308
(dp3309
g53
(dp3310
sg62
g3304
sg55
(lp3311
g48
(g49
g50
NtRp3312
(dp3313
g53
(dp3314
g61
I3
ssg62
g3308
sg55
(lp3315
cgluon.languages
lazyT_unpickle
p3316
(S's\x05\x00\x00\x00Index'
tRp3317
asbasbasbag48
(g64
g50
NtRp3318
(dp3319
g53
(dp3320
sg62
g3300
sg55
(lp3321
g48
(g69
g50
NtRp3322
(dp3323
g53
(dp3324
sg62
g3318
sg55
(lp3325
g48
(g49
g50
NtRp3326
(dp3327
g53
(dp3328
g61
I3
ssg62
g3322
sg55
(lp3329
g91
asbasbasbag48
(g64
g50
NtRp3330
(dp3331
g53
(dp3332
sg62
g3300
sg55
(lp3333
g48
(g69
g50
NtRp3334
(dp3335
g53
(dp3336
sg62
g3330
sg55
(lp3337
g48
(g49
g50
NtRp3338
(dp3339
g53
(dp3340
g61
I3
ssg62
g3334
sg55
(lp3341
S'/Casa_de_Apuestas/default/index'
p3342
asbasbasbag48
(g64
g50
NtRp3343
(dp3344
g53
(dp3345
sg62
g3300
sg55
(lp3346
g48
(g69
g50
NtRp3347
(dp3348
g53
(dp3349
sg62
g3343
sg55
(lp3350
g48
(g49
g50
NtRp3351
(dp3352
g53
(dp3353
g61
I3
ssg62
g3347
sg55
(lp3354
g48
(g57
g50
NtRp3355
(dp3356
g53
(dp3357
g61
I2
ssg62
Nsg55
(lp3358
sbasbasbasbasbasbasbasbasbasbasbasbag48
(g64
g50
NtRp3359
(dp3360
g53
(dp3361
sg62
g2831
sg55
(lp3362
g48
(g69
g50
NtRp3363
(dp3364
g53
(dp3365
g73
g74
ssg62
g3359
sg55
(lp3366
S'meta'
p3367
asbag48
(g69
g50
NtRp3368
(dp3369
g53
(dp3370
g80
g81
ssg62
g3359
sg55
(lp3371
S':'
asbag48
(g69
g50
NtRp3372
(dp3373
g53
(dp3374
sg62
g3359
sg55
(lp3375
g48
(g49
g50
NtRp3376
(dp3377
g53
(dp3378
g61
I5
ssg62
g3372
sg55
(lp3379
g48
(g57
g50
NtRp3380
(dp3381
g53
(dp3382
g61
I4
ssg62
Nsg55
(lp3383
g48
(g64
g50
NtRp3384
(dp3385
g53
(dp3386
sg62
g3380
sg55
(lp3387
g48
(g69
g50
NtRp3388
(dp3389
g53
(dp3390
g73
g74
ssg62
g3384
sg55
(lp3391
S'author'
p3392
asbag48
(g69
g50
NtRp3393
(dp3394
g53
(dp3395
g80
g81
ssg62
g3384
sg55
(lp3396
S':'
asbag48
(g69
g50
NtRp3397
(dp3398
g53
(dp3399
sg62
g3384
sg55
(lp3400
g48
(g49
g50
NtRp3401
(dp3402
g53
(dp3403
g61
I4
ssg62
g3397
sg55
(lp3404
S'JSG Systems <jsg@example.com>'
p3405
asbasbasbag48
(g64
g50
NtRp3406
(dp3407
g53
(dp3408
sg62
g3380
sg55
(lp3409
g48
(g69
g50
NtRp3410
(dp3411
g53
(dp3412
g73
g74
ssg62
g3406
sg55
(lp3413
S'description'
p3414
asbag48
(g69
g50
NtRp3415
(dp3416
g53
(dp3417
g80
g81
ssg62
g3406
sg55
(lp3418
S':'
asbag48
(g69
g50
NtRp3419
(dp3420
g53
(dp3421
sg62
g3406
sg55
(lp3422
g48
(g49
g50
NtRp3423
(dp3424
g53
(dp3425
g61
I4
ssg62
g3419
sg55
(lp3426
S''
asbasbasbag48
(g64
g50
NtRp3427
(dp3428
g53
(dp3429
sg62
g3380
sg55
(lp3430
g48
(g69
g50
NtRp3431
(dp3432
g53
(dp3433
g73
g74
ssg62
g3427
sg55
(lp3434
S'keywords'
p3435
asbag48
(g69
g50
NtRp3436
(dp3437
g53
(dp3438
g80
g81
ssg62
g3427
sg55
(lp3439
S':'
asbag48
(g69
g50
NtRp3440
(dp3441
g53
(dp3442
sg62
g3427
sg55
(lp3443
g48
(g49
g50
NtRp3444
(dp3445
g53
(dp3446
g61
I4
ssg62
g3440
sg55
(lp3447
S'casa, apuestas'
p3448
asbasbasbasbasbasbasbag48
(g64
g50
NtRp3449
(dp3450
g53
(dp3451
sg62
g2831
sg55
(lp3452
g48
(g69
g50
NtRp3453
(dp3454
g53
(dp3455
g73
g74
ssg62
g3449
sg55
(lp3456
S'postprocessing'
p3457
asbag48
(g69
g50
NtRp3458
(dp3459
g53
(dp3460
g80
g81
ssg62
g3449
sg55
(lp3461
S':'
asbag48
(g69
g50
NtRp3462
(dp3463
g53
(dp3464
sg62
g3449
sg55
(lp3465
g48
(g49
g50
NtRp3466
(dp3467
g53
(dp3468
g61
I5
ssg62
g3462
sg55
(lp3469
g48
(g57
g50
NtRp3470
(dp3471
g53
(dp3472
g61
I4
ssg62
Nsg55
(lp3473
sbasbasbasbag48
(g64
g50
NtRp3474
(dp3475
g53
(dp3476
sg62
g2831
sg55
(lp3477
g48
(g69
g50
NtRp3478
(dp3479
g53
(dp3480
g73
g74
ssg62
g3474
sg55
(lp3481
S'session_filename'
p3482
asbag48
(g69
g50
NtRp3483
(dp3484
g53
(dp3485
g80
g81
ssg62
g3474
sg55
(lp3486
S':'
asbag48
(g69
g50
NtRp3487
(dp3488
g53
(dp3489
sg62
g3474
sg55
(lp3490
g48
(g49
g50
NtRp3491
(dp3492
g53
(dp3493
g61
I5
ssg62
g3487
sg55
(lp3494
S'C:\\Python32\\web2py_win\\web2py\\applications\\Casa_de_Apuestas\\sessions\\127.0.0.1-3179584f-7c84-42ac-a911-398ecd82900d'
p3495
asbasbasbag48
(g64
g50
NtRp3496
(dp3497
g53
(dp3498
sg62
g2831
sg55
(lp3499
g48
(g69
g50
NtRp3500
(dp3501
g53
(dp3502
g73
g74
ssg62
g3496
sg55
(lp3503
S'session_id'
p3504
asbag48
(g69
g50
NtRp3505
(dp3506
g53
(dp3507
g80
g81
ssg62
g3496
sg55
(lp3508
S':'
asbag48
(g69
g50
NtRp3509
(dp3510
g53
(dp3511
sg62
g3496
sg55
(lp3512
g48
(g49
g50
NtRp3513
(dp3514
g53
(dp3515
g61
I5
ssg62
g3509
sg55
(lp3516
S'127.0.0.1-3179584f-7c84-42ac-a911-398ecd82900d'
p3517
asbasbasbag48
(g64
g50
NtRp3518
(dp3519
g53
(dp3520
sg62
g2831
sg55
(lp3521
g48
(g69
g50
NtRp3522
(dp3523
g53
(dp3524
g73
g74
ssg62
g3518
sg55
(lp3525
S'session_id_name'
p3526
asbag48
(g69
g50
NtRp3527
(dp3528
g53
(dp3529
g80
g81
ssg62
g3518
sg55
(lp3530
S':'
asbag48
(g69
g50
NtRp3531
(dp3532
g53
(dp3533
sg62
g3518
sg55
(lp3534
g48
(g49
g50
NtRp3535
(dp3536
g53
(dp3537
g61
I5
ssg62
g3531
sg55
(lp3538
g2888
asbasbasbag48
(g64
g50
NtRp3539
(dp3540
g53
(dp3541
sg62
g2831
sg55
(lp3542
g48
(g69
g50
NtRp3543
(dp3544
g53
(dp3545
g73
g74
ssg62
g3539
sg55
(lp3546
S'session_new'
p3547
asbag48
(g69
g50
NtRp3548
(dp3549
g53
(dp3550
g80
g81
ssg62
g3539
sg55
(lp3551
S':'
asbag48
(g69
g50
NtRp3552
(dp3553
g53
(dp3554
sg62
g3539
sg55
(lp3555
g48
(g49
g50
NtRp3556
(dp3557
g53
(dp3558
g61
I5
ssg62
g3552
sg55
(lp3559
g1422
asbasbasbag48
(g64
g50
NtRp3560
(dp3561
g53
(dp3562
sg62
g2831
sg55
(lp3563
g48
(g69
g50
NtRp3564
(dp3565
g53
(dp3566
g73
g74
ssg62
g3560
sg55
(lp3567
S'status'
p3568
asbag48
(g69
g50
NtRp3569
(dp3570
g53
(dp3571
g80
g81
ssg62
g3560
sg55
(lp3572
S':'
asbag48
(g69
g50
NtRp3573
(dp3574
g53
(dp3575
sg62
g3560
sg55
(lp3576
g48
(g49
g50
NtRp3577
(dp3578
g53
(dp3579
g61
I5
ssg62
g3573
sg55
(lp3580
S'200'
p3581
asbasbasbag48
(g64
g50
NtRp3582
(dp3583
g53
(dp3584
sg62
g2831
sg55
(lp3585
g48
(g69
g50
NtRp3586
(dp3587
g53
(dp3588
g73
g74
ssg62
g3582
sg55
(lp3589
S'subtitle'
p3590
asbag48
(g69
g50
NtRp3591
(dp3592
g53
(dp3593
g80
g81
ssg62
g3582
sg55
(lp3594
S':'
asbag48
(g69
g50
NtRp3595
(dp3596
g53
(dp3597
sg62
g3582
sg55
(lp3598
g48
(g49
g50
NtRp3599
(dp3600
g53
(dp3601
g61
I5
ssg62
g3595
sg55
(lp3602
S''
asbasbasbag48
(g64
g50
NtRp3603
(dp3604
g53
(dp3605
sg62
g2831
sg55
(lp3606
g48
(g69
g50
NtRp3607
(dp3608
g53
(dp3609
g73
g74
ssg62
g3603
sg55
(lp3610
S'title'
p3611
asbag48
(g69
g50
NtRp3612
(dp3613
g53
(dp3614
g80
g81
ssg62
g3603
sg55
(lp3615
S':'
asbag48
(g69
g50
NtRp3616
(dp3617
g53
(dp3618
sg62
g3603
sg55
(lp3619
g48
(g49
g50
NtRp3620
(dp3621
g53
(dp3622
g61
I5
ssg62
g3616
sg55
(lp3623
S'Casa de Apuestas'
p3624
asbasbasbag48
(g64
g50
NtRp3625
(dp3626
g53
(dp3627
sg62
g2831
sg55
(lp3628
g48
(g69
g50
NtRp3629
(dp3630
g53
(dp3631
g73
g74
ssg62
g3625
sg55
(lp3632
g2066
asbag48
(g69
g50
NtRp3633
(dp3634
g53
(dp3635
g80
g81
ssg62
g3625
sg55
(lp3636
S':'
asbag48
(g69
g50
NtRp3637
(dp3638
g53
(dp3639
sg62
g3625
sg55
(lp3640
g48
(g49
g50
NtRp3641
(dp3642
g53
(dp3643
g61
I5
ssg62
g3637
sg55
(lp3644
g2079
asbasbasbag48
(g64
g50
NtRp3645
(dp3646
g53
(dp3647
sg62
g2831
sg55
(lp3648
g48
(g69
g50
NtRp3649
(dp3650
g53
(dp3651
g73
g74
ssg62
g3645
sg55
(lp3652
S'view'
p3653
asbag48
(g69
g50
NtRp3654
(dp3655
g53
(dp3656
g80
g81
ssg62
g3645
sg55
(lp3657
S':'
asbag48
(g69
g50
NtRp3658
(dp3659
g53
(dp3660
sg62
g3645
sg55
(lp3661
g48
(g49
g50
NtRp3662
(dp3663
g53
(dp3664
g61
I5
ssg62
g3658
sg55
(lp3665
S'default/maquinas.html'
p3666
asbasbasbasbasbsS'locals'
p3667
(dp3668
S'self'
p3669
S"<Table {'_db': <DAL {'auth_event': <Table {'orig..., '_id': <gluon.dal.Field object at 0x05B07EF0>}>"
p3670
sS'key'
p3671
S"'correo'"
p3672
sssS'traceback'
p3673
S'Traceback (most recent call last):\n  File "gluon/restricted.py", line 194, in restricted\n  File "C:\\Python32\\web2py_win\\web2py\\applications\\Casa_de_Apuestas\\controllers/default.py", line 112, in <module>\n  File "gluon/globals.py", line 149, in <lambda>\n  File "C:\\Python32\\web2py_win\\web2py\\applications\\Casa_de_Apuestas\\controllers/default.py", line 17, in maquinas\n  File "gluon/tools.py", line 3035, in create\n  File "gluon/tools.py", line 2952, in update\n  File "gluon/sqlhtml.py", line 862, in __init__\n  File "gluon/sqlhtml.py", line 217, in widget\n  File "gluon/validators.py", line 459, in options\n  File "gluon/validators.py", line 442, in build_set\n  File "gluon/dal.py", line 4865, in __getitem__\nKeyError: \'correo\'\n'
p3674
s.